
nRF24L01_SPI.elf:     file format elf32-littlearm

Sections:
Idx Name          Size      VMA       LMA       File off  Algn
  0 .text         0000488c  00400000  00400000  00010000  2**6
                  CONTENTS, ALLOC, LOAD, READONLY, CODE
  1 .ARM.exidx    00000008  0040488c  0040488c  0001488c  2**2
                  CONTENTS, ALLOC, LOAD, READONLY, DATA
  2 .relocate     000009c0  20400000  00404894  00020000  2**3
                  CONTENTS, ALLOC, LOAD, CODE
  3 .bss          00000144  204009c0  00405258  000209c0  2**3
                  ALLOC
  4 .stack        00002004  20400b04  0040539c  000209c0  2**0
                  ALLOC
  5 .heap         00000200  20402b08  004073a0  000209c0  2**0
                  ALLOC
  6 .ARM.attributes 0000002e  00000000  00000000  000209c0  2**0
                  CONTENTS, READONLY
  7 .comment      00000059  00000000  00000000  000209ee  2**0
                  CONTENTS, READONLY
  8 .debug_info   000166e8  00000000  00000000  00020a47  2**0
                  CONTENTS, READONLY, DEBUGGING
  9 .debug_abbrev 00002f25  00000000  00000000  0003712f  2**0
                  CONTENTS, READONLY, DEBUGGING
 10 .debug_aranges 00000b58  00000000  00000000  0003a054  2**0
                  CONTENTS, READONLY, DEBUGGING
 11 .debug_ranges 00000b98  00000000  00000000  0003abac  2**0
                  CONTENTS, READONLY, DEBUGGING
 12 .debug_macro  0002024c  00000000  00000000  0003b744  2**0
                  CONTENTS, READONLY, DEBUGGING
 13 .debug_line   0000be13  00000000  00000000  0005b990  2**0
                  CONTENTS, READONLY, DEBUGGING
 14 .debug_str    00094a7b  00000000  00000000  000677a3  2**0
                  CONTENTS, READONLY, DEBUGGING
 15 .debug_frame  0000262c  00000000  00000000  000fc220  2**2
                  CONTENTS, READONLY, DEBUGGING
 16 .debug_loc    000053ec  00000000  00000000  000fe84c  2**0
                  CONTENTS, READONLY, DEBUGGING

Disassembly of section .text:

00400000 <exception_table>:
  400000:	08 2b 40 20 65 09 40 00 61 09 40 00 61 09 40 00     .+@ e.@.a.@.a.@.
  400010:	61 09 40 00 61 09 40 00 61 09 40 00 00 00 00 00     a.@.a.@.a.@.....
	...
  40002c:	61 09 40 00 61 09 40 00 00 00 00 00 61 09 40 00     a.@.a.@.....a.@.
  40003c:	61 09 40 00 61 09 40 00 61 09 40 00 61 09 40 00     a.@.a.@.a.@.a.@.
  40004c:	61 09 40 00 61 09 40 00 61 09 40 00 61 09 40 00     a.@.a.@.a.@.a.@.
  40005c:	61 09 40 00 61 09 40 00 00 00 00 00 bd 07 40 00     a.@.a.@.......@.
  40006c:	d1 07 40 00 e5 07 40 00 61 09 40 00 61 09 40 00     ..@...@.a.@.a.@.
  40007c:	61 09 40 00 f9 07 40 00 0d 08 40 00 61 09 40 00     a.@...@...@.a.@.
  40008c:	61 09 40 00 61 09 40 00 61 09 40 00 61 09 40 00     a.@.a.@.a.@.a.@.
  40009c:	61 09 40 00 61 09 40 00 61 09 40 00 61 09 40 00     a.@.a.@.a.@.a.@.
  4000ac:	61 09 40 00 61 09 40 00 61 09 40 00 61 09 40 00     a.@.a.@.a.@.a.@.
  4000bc:	61 09 40 00 61 09 40 00 61 09 40 00 61 09 40 00     a.@.a.@.a.@.a.@.
  4000cc:	61 09 40 00 61 09 40 00 61 09 40 00 61 09 40 00     a.@.a.@.a.@.a.@.
  4000dc:	61 09 40 00 61 09 40 00 61 09 40 00 61 09 40 00     a.@.a.@.a.@.a.@.
  4000ec:	61 09 40 00 61 09 40 00 61 09 40 00 61 09 40 00     a.@.a.@.a.@.a.@.
  4000fc:	61 09 40 00 61 09 40 00 61 09 40 00 61 09 40 00     a.@.a.@.a.@.a.@.
  40010c:	61 09 40 00 61 09 40 00 00 00 00 00 00 00 00 00     a.@.a.@.........
  40011c:	00 00 00 00 61 09 40 00 61 09 40 00 61 09 40 00     ....a.@.a.@.a.@.
  40012c:	61 09 40 00 61 09 40 00 61 09 40 00 61 09 40 00     a.@.a.@.a.@.a.@.
  40013c:	61 09 40 00 61 09 40 00 61 09 40 00 61 09 40 00     a.@.a.@.a.@.a.@.
  40014c:	61 09 40 00 61 09 40 00 61 09 40 00 61 09 40 00     a.@.a.@.a.@.a.@.
  40015c:	61 09 40 00 61 09 40 00 61 09 40 00                 a.@.a.@.a.@.

00400168 <__do_global_dtors_aux>:
  400168:	b510      	push	{r4, lr}
  40016a:	4c05      	ldr	r4, [pc, #20]	; (400180 <__do_global_dtors_aux+0x18>)
  40016c:	7823      	ldrb	r3, [r4, #0]
  40016e:	b933      	cbnz	r3, 40017e <__do_global_dtors_aux+0x16>
  400170:	4b04      	ldr	r3, [pc, #16]	; (400184 <__do_global_dtors_aux+0x1c>)
  400172:	b113      	cbz	r3, 40017a <__do_global_dtors_aux+0x12>
  400174:	4804      	ldr	r0, [pc, #16]	; (400188 <__do_global_dtors_aux+0x20>)
  400176:	f3af 8000 	nop.w
  40017a:	2301      	movs	r3, #1
  40017c:	7023      	strb	r3, [r4, #0]
  40017e:	bd10      	pop	{r4, pc}
  400180:	204009c0 	.word	0x204009c0
  400184:	00000000 	.word	0x00000000
  400188:	00404894 	.word	0x00404894

0040018c <frame_dummy>:
  40018c:	4b0c      	ldr	r3, [pc, #48]	; (4001c0 <frame_dummy+0x34>)
  40018e:	b143      	cbz	r3, 4001a2 <frame_dummy+0x16>
  400190:	480c      	ldr	r0, [pc, #48]	; (4001c4 <frame_dummy+0x38>)
  400192:	490d      	ldr	r1, [pc, #52]	; (4001c8 <frame_dummy+0x3c>)
  400194:	b510      	push	{r4, lr}
  400196:	f3af 8000 	nop.w
  40019a:	480c      	ldr	r0, [pc, #48]	; (4001cc <frame_dummy+0x40>)
  40019c:	6803      	ldr	r3, [r0, #0]
  40019e:	b923      	cbnz	r3, 4001aa <frame_dummy+0x1e>
  4001a0:	bd10      	pop	{r4, pc}
  4001a2:	480a      	ldr	r0, [pc, #40]	; (4001cc <frame_dummy+0x40>)
  4001a4:	6803      	ldr	r3, [r0, #0]
  4001a6:	b933      	cbnz	r3, 4001b6 <frame_dummy+0x2a>
  4001a8:	4770      	bx	lr
  4001aa:	4b09      	ldr	r3, [pc, #36]	; (4001d0 <frame_dummy+0x44>)
  4001ac:	2b00      	cmp	r3, #0
  4001ae:	d0f7      	beq.n	4001a0 <frame_dummy+0x14>
  4001b0:	e8bd 4010 	ldmia.w	sp!, {r4, lr}
  4001b4:	4718      	bx	r3
  4001b6:	4b06      	ldr	r3, [pc, #24]	; (4001d0 <frame_dummy+0x44>)
  4001b8:	2b00      	cmp	r3, #0
  4001ba:	d0f5      	beq.n	4001a8 <frame_dummy+0x1c>
  4001bc:	4718      	bx	r3
  4001be:	bf00      	nop
  4001c0:	00000000 	.word	0x00000000
  4001c4:	00404894 	.word	0x00404894
  4001c8:	204009c4 	.word	0x204009c4
  4001cc:	00404894 	.word	0x00404894
  4001d0:	00000000 	.word	0x00000000

004001d4 <_read>:
int __attribute__((weak))
_read (int file, char * ptr, int len); // Remove GCC compiler warning

int __attribute__((weak))
_read (int file, char * ptr, int len)
{
  4001d4:	e92d 41f0 	stmdb	sp!, {r4, r5, r6, r7, r8, lr}
	int nChars = 0;

	if (file != 0) {
  4001d8:	b980      	cbnz	r0, 4001fc <_read+0x28>
  4001da:	460c      	mov	r4, r1
  4001dc:	4690      	mov	r8, r2
		return -1;
	}

	for (; len > 0; --len) {
  4001de:	2a00      	cmp	r2, #0
  4001e0:	dd0f      	ble.n	400202 <_read+0x2e>
  4001e2:	188f      	adds	r7, r1, r2
		ptr_get(stdio_base, ptr);
  4001e4:	4e08      	ldr	r6, [pc, #32]	; (400208 <_read+0x34>)
  4001e6:	4d09      	ldr	r5, [pc, #36]	; (40020c <_read+0x38>)
  4001e8:	6830      	ldr	r0, [r6, #0]
  4001ea:	4621      	mov	r1, r4
  4001ec:	682b      	ldr	r3, [r5, #0]
  4001ee:	4798      	blx	r3
		ptr++;
  4001f0:	3401      	adds	r4, #1
	for (; len > 0; --len) {
  4001f2:	42bc      	cmp	r4, r7
  4001f4:	d1f8      	bne.n	4001e8 <_read+0x14>
		nChars++;
	}
	return nChars;
}
  4001f6:	4640      	mov	r0, r8
  4001f8:	e8bd 81f0 	ldmia.w	sp!, {r4, r5, r6, r7, r8, pc}
		return -1;
  4001fc:	f04f 38ff 	mov.w	r8, #4294967295
  400200:	e7f9      	b.n	4001f6 <_read+0x22>
	for (; len > 0; --len) {
  400202:	4680      	mov	r8, r0
  400204:	e7f7      	b.n	4001f6 <_read+0x22>
  400206:	bf00      	nop
  400208:	20400a94 	.word	0x20400a94
  40020c:	20400a8c 	.word	0x20400a8c

00400210 <usart_set_async_baudrate>:
 * \retval 1 Baud rate set point is out of range for the given input clock
 * frequency.
 */
uint32_t usart_set_async_baudrate(Usart *p_usart,
		uint32_t baudrate, uint32_t ul_mck)
{
  400210:	b410      	push	{r4}
	uint32_t cd_fp;
	uint32_t cd;
	uint32_t fp;

	/* Calculate the receiver sampling divide of baudrate clock. */
	if (ul_mck >= HIGH_FRQ_SAMPLE_DIV * baudrate) {
  400212:	010b      	lsls	r3, r1, #4
  400214:	4293      	cmp	r3, r2
  400216:	d914      	bls.n	400242 <usart_set_async_baudrate+0x32>
	} else {
		over = LOW_FRQ_SAMPLE_DIV;
	}

	/* Calculate clock divider according to the fraction calculated formula. */
	cd_fp = (8 * ul_mck + (over * baudrate) / 2) / (over * baudrate);
  400218:	00c9      	lsls	r1, r1, #3
  40021a:	084b      	lsrs	r3, r1, #1
  40021c:	eb03 02c2 	add.w	r2, r3, r2, lsl #3
  400220:	fbb2 f2f1 	udiv	r2, r2, r1
	cd = cd_fp >> 3;
  400224:	08d3      	lsrs	r3, r2, #3
	fp = cd_fp & 0x07;
	if (cd < MIN_CD_VALUE || cd > MAX_CD_VALUE) {
  400226:	1e5c      	subs	r4, r3, #1
  400228:	f64f 71fe 	movw	r1, #65534	; 0xfffe
  40022c:	428c      	cmp	r4, r1
  40022e:	d901      	bls.n	400234 <usart_set_async_baudrate+0x24>
		return 1;
  400230:	2001      	movs	r0, #1
  400232:	e017      	b.n	400264 <usart_set_async_baudrate+0x54>
	}

	/* Configure the OVER bit in MR register. */
	if (over == 8) {
		p_usart->US_MR |= US_MR_OVER;
  400234:	6841      	ldr	r1, [r0, #4]
  400236:	f441 2100 	orr.w	r1, r1, #524288	; 0x80000
  40023a:	6041      	str	r1, [r0, #4]
  40023c:	e00c      	b.n	400258 <usart_set_async_baudrate+0x48>
		return 1;
  40023e:	2001      	movs	r0, #1
  400240:	e010      	b.n	400264 <usart_set_async_baudrate+0x54>
	cd_fp = (8 * ul_mck + (over * baudrate) / 2) / (over * baudrate);
  400242:	0859      	lsrs	r1, r3, #1
  400244:	eb01 02c2 	add.w	r2, r1, r2, lsl #3
  400248:	fbb2 f2f3 	udiv	r2, r2, r3
	cd = cd_fp >> 3;
  40024c:	08d3      	lsrs	r3, r2, #3
	if (cd < MIN_CD_VALUE || cd > MAX_CD_VALUE) {
  40024e:	1e5c      	subs	r4, r3, #1
  400250:	f64f 71fe 	movw	r1, #65534	; 0xfffe
  400254:	428c      	cmp	r4, r1
  400256:	d8f2      	bhi.n	40023e <usart_set_async_baudrate+0x2e>
	}

	/* Configure the baudrate generate register. */
	p_usart->US_BRGR = (cd << US_BRGR_CD_Pos) | (fp << US_BRGR_FP_Pos);
  400258:	0412      	lsls	r2, r2, #16
  40025a:	f402 22e0 	and.w	r2, r2, #458752	; 0x70000
  40025e:	431a      	orrs	r2, r3
  400260:	6202      	str	r2, [r0, #32]

	return 0;
  400262:	2000      	movs	r0, #0
}
  400264:	f85d 4b04 	ldr.w	r4, [sp], #4
  400268:	4770      	bx	lr
	...

0040026c <usart_reset>:
 *
 * \param p_usart Pointer to a USART instance.
 */
void usart_disable_writeprotect(Usart *p_usart)
{
	p_usart->US_WPMR = US_WPMR_WPKEY_PASSWD;
  40026c:	4b08      	ldr	r3, [pc, #32]	; (400290 <usart_reset+0x24>)
  40026e:	f8c0 30e4 	str.w	r3, [r0, #228]	; 0xe4
	p_usart->US_MR = 0;
  400272:	2300      	movs	r3, #0
  400274:	6043      	str	r3, [r0, #4]
	p_usart->US_RTOR = 0;
  400276:	6243      	str	r3, [r0, #36]	; 0x24
	p_usart->US_TTGR = 0;
  400278:	6283      	str	r3, [r0, #40]	; 0x28
	p_usart->US_CR = US_CR_RSTTX | US_CR_TXDIS;
  40027a:	2388      	movs	r3, #136	; 0x88
  40027c:	6003      	str	r3, [r0, #0]
	p_usart->US_CR = US_CR_RSTRX | US_CR_RXDIS;
  40027e:	2324      	movs	r3, #36	; 0x24
  400280:	6003      	str	r3, [r0, #0]
	p_usart->US_CR = US_CR_RSTSTA;
  400282:	f44f 7380 	mov.w	r3, #256	; 0x100
  400286:	6003      	str	r3, [r0, #0]
	p_usart->US_CR = US_CR_RTSDIS;
  400288:	f44f 2300 	mov.w	r3, #524288	; 0x80000
  40028c:	6003      	str	r3, [r0, #0]
  40028e:	4770      	bx	lr
  400290:	55534100 	.word	0x55534100

00400294 <usart_init_rs232>:
{
  400294:	b570      	push	{r4, r5, r6, lr}
  400296:	4605      	mov	r5, r0
  400298:	460c      	mov	r4, r1
  40029a:	4616      	mov	r6, r2
	usart_reset(p_usart);
  40029c:	4b0f      	ldr	r3, [pc, #60]	; (4002dc <usart_init_rs232+0x48>)
  40029e:	4798      	blx	r3
	ul_reg_val = 0;
  4002a0:	2200      	movs	r2, #0
  4002a2:	4b0f      	ldr	r3, [pc, #60]	; (4002e0 <usart_init_rs232+0x4c>)
  4002a4:	601a      	str	r2, [r3, #0]
	if (!p_usart_opt || usart_set_async_baudrate(p_usart,
  4002a6:	b1a4      	cbz	r4, 4002d2 <usart_init_rs232+0x3e>
  4002a8:	4632      	mov	r2, r6
  4002aa:	6821      	ldr	r1, [r4, #0]
  4002ac:	4628      	mov	r0, r5
  4002ae:	4b0d      	ldr	r3, [pc, #52]	; (4002e4 <usart_init_rs232+0x50>)
  4002b0:	4798      	blx	r3
  4002b2:	4602      	mov	r2, r0
  4002b4:	b978      	cbnz	r0, 4002d6 <usart_init_rs232+0x42>
	ul_reg_val |= p_usart_opt->char_length | p_usart_opt->parity_type |
  4002b6:	6863      	ldr	r3, [r4, #4]
  4002b8:	68a1      	ldr	r1, [r4, #8]
  4002ba:	430b      	orrs	r3, r1
  4002bc:	6921      	ldr	r1, [r4, #16]
  4002be:	430b      	orrs	r3, r1
			p_usart_opt->channel_mode | p_usart_opt->stop_bits;
  4002c0:	68e1      	ldr	r1, [r4, #12]
  4002c2:	430b      	orrs	r3, r1
	ul_reg_val |= p_usart_opt->char_length | p_usart_opt->parity_type |
  4002c4:	4906      	ldr	r1, [pc, #24]	; (4002e0 <usart_init_rs232+0x4c>)
  4002c6:	600b      	str	r3, [r1, #0]
	p_usart->US_MR |= ul_reg_val;
  4002c8:	6869      	ldr	r1, [r5, #4]
  4002ca:	430b      	orrs	r3, r1
  4002cc:	606b      	str	r3, [r5, #4]
}
  4002ce:	4610      	mov	r0, r2
  4002d0:	bd70      	pop	{r4, r5, r6, pc}
		return 1;
  4002d2:	2201      	movs	r2, #1
  4002d4:	e7fb      	b.n	4002ce <usart_init_rs232+0x3a>
  4002d6:	2201      	movs	r2, #1
  4002d8:	e7f9      	b.n	4002ce <usart_init_rs232+0x3a>
  4002da:	bf00      	nop
  4002dc:	0040026d 	.word	0x0040026d
  4002e0:	204009dc 	.word	0x204009dc
  4002e4:	00400211 	.word	0x00400211

004002e8 <usart_enable_tx>:
	p_usart->US_CR = US_CR_TXEN;
  4002e8:	2340      	movs	r3, #64	; 0x40
  4002ea:	6003      	str	r3, [r0, #0]
  4002ec:	4770      	bx	lr

004002ee <usart_enable_rx>:
	p_usart->US_CR = US_CR_RXEN;
  4002ee:	2310      	movs	r3, #16
  4002f0:	6003      	str	r3, [r0, #0]
  4002f2:	4770      	bx	lr

004002f4 <usart_write>:
	if (!(p_usart->US_CSR & US_CSR_TXRDY)) {
  4002f4:	6943      	ldr	r3, [r0, #20]
  4002f6:	f013 0f02 	tst.w	r3, #2
  4002fa:	d004      	beq.n	400306 <usart_write+0x12>
	p_usart->US_THR = US_THR_TXCHR(c);
  4002fc:	f3c1 0108 	ubfx	r1, r1, #0, #9
  400300:	61c1      	str	r1, [r0, #28]
	return 0;
  400302:	2000      	movs	r0, #0
  400304:	4770      	bx	lr
		return 1;
  400306:	2001      	movs	r0, #1
}
  400308:	4770      	bx	lr

0040030a <usart_read>:
	if (!(p_usart->US_CSR & US_CSR_RXRDY)) {
  40030a:	6943      	ldr	r3, [r0, #20]
  40030c:	f013 0f01 	tst.w	r3, #1
  400310:	d005      	beq.n	40031e <usart_read+0x14>
	*c = p_usart->US_RHR & US_RHR_RXCHR_Msk;
  400312:	6983      	ldr	r3, [r0, #24]
  400314:	f3c3 0308 	ubfx	r3, r3, #0, #9
  400318:	600b      	str	r3, [r1, #0]
	return 0;
  40031a:	2000      	movs	r0, #0
  40031c:	4770      	bx	lr
		return 1;
  40031e:	2001      	movs	r0, #1
}
  400320:	4770      	bx	lr
	...

00400324 <_write>:
int __attribute__((weak))
_write (int file, const char *ptr, int len)
{
	int nChars = 0;

	if ((file != 1) && (file != 2) && (file!=3)) {
  400324:	3801      	subs	r0, #1
  400326:	2802      	cmp	r0, #2
  400328:	d815      	bhi.n	400356 <_write+0x32>
{
  40032a:	e92d 41f0 	stmdb	sp!, {r4, r5, r6, r7, r8, lr}
  40032e:	460e      	mov	r6, r1
  400330:	4614      	mov	r4, r2
		return -1;
	}

	for (; len != 0; --len) {
  400332:	b19a      	cbz	r2, 40035c <_write+0x38>
  400334:	460d      	mov	r5, r1
		if (ptr_put(stdio_base, *ptr++) < 0) {
  400336:	f8df 8038 	ldr.w	r8, [pc, #56]	; 400370 <_write+0x4c>
  40033a:	4f0c      	ldr	r7, [pc, #48]	; (40036c <_write+0x48>)
  40033c:	f8d8 0000 	ldr.w	r0, [r8]
  400340:	f815 1b01 	ldrb.w	r1, [r5], #1
  400344:	683b      	ldr	r3, [r7, #0]
  400346:	4798      	blx	r3
  400348:	2800      	cmp	r0, #0
  40034a:	db0a      	blt.n	400362 <_write+0x3e>
  40034c:	1ba8      	subs	r0, r5, r6
	for (; len != 0; --len) {
  40034e:	3c01      	subs	r4, #1
  400350:	d1f4      	bne.n	40033c <_write+0x18>
  400352:	e8bd 81f0 	ldmia.w	sp!, {r4, r5, r6, r7, r8, pc}
		return -1;
  400356:	f04f 30ff 	mov.w	r0, #4294967295
  40035a:	4770      	bx	lr
	for (; len != 0; --len) {
  40035c:	4610      	mov	r0, r2
  40035e:	e8bd 81f0 	ldmia.w	sp!, {r4, r5, r6, r7, r8, pc}
			return -1;
  400362:	f04f 30ff 	mov.w	r0, #4294967295
		}
		++nChars;
	}
	return nChars;
}
  400366:	e8bd 81f0 	ldmia.w	sp!, {r4, r5, r6, r7, r8, pc}
  40036a:	bf00      	nop
  40036c:	20400a90 	.word	0x20400a90
  400370:	20400a94 	.word	0x20400a94

00400374 <spi_enable_clock>:
 * \brief Enable SPI clock.
 *
 * \param p_spi Pointer to an SPI instance.
 */
void spi_enable_clock(Spi *p_spi)
{
  400374:	b508      	push	{r3, lr}
#if (SAM4S || SAM3S || SAM3N || SAM3U || SAM4E || SAM4N || SAMG51|| SAMG53|| SAMG54)
	UNUSED(p_spi);
	sysclk_enable_peripheral_clock(ID_SPI);
#elif (SAM3XA || SAM4C || SAM4CP || SAM4CM || SAMV71 || SAMV70 || SAME70 || SAMS70)
	if (p_spi == SPI0) {
  400376:	4b07      	ldr	r3, [pc, #28]	; (400394 <spi_enable_clock+0x20>)
  400378:	4298      	cmp	r0, r3
  40037a:	d003      	beq.n	400384 <spi_enable_clock+0x10>
		sysclk_enable_peripheral_clock(ID_SPI0);
	}
	#ifdef SPI1
	else if (p_spi == SPI1) {
  40037c:	4b06      	ldr	r3, [pc, #24]	; (400398 <spi_enable_clock+0x24>)
  40037e:	4298      	cmp	r0, r3
  400380:	d004      	beq.n	40038c <spi_enable_clock+0x18>
  400382:	bd08      	pop	{r3, pc}
 *
 * \param ul_id Id (number) of the peripheral clock.
 */
static inline void sysclk_enable_peripheral_clock(uint32_t ul_id)
{
	pmc_enable_periph_clk(ul_id);
  400384:	2015      	movs	r0, #21
  400386:	4b05      	ldr	r3, [pc, #20]	; (40039c <spi_enable_clock+0x28>)
  400388:	4798      	blx	r3
  40038a:	bd08      	pop	{r3, pc}
  40038c:	202a      	movs	r0, #42	; 0x2a
  40038e:	4b03      	ldr	r3, [pc, #12]	; (40039c <spi_enable_clock+0x28>)
  400390:	4798      	blx	r3
	}
	#endif
#elif SAM4L
	sysclk_enable_peripheral_clock(p_spi);
#endif
}
  400392:	e7f6      	b.n	400382 <spi_enable_clock+0xe>
  400394:	40008000 	.word	0x40008000
  400398:	40058000 	.word	0x40058000
  40039c:	00400941 	.word	0x00400941

004003a0 <spi_set_peripheral_chip_select_value>:
 *                 \ref spi_enable_peripheral_select_decode,
 *                 \ref spi_disable_peripheral_select_decode.
 */
void spi_set_peripheral_chip_select_value(Spi *p_spi, uint32_t ul_value)
{
	p_spi->SPI_MR &= (~SPI_MR_PCS_Msk);
  4003a0:	6843      	ldr	r3, [r0, #4]
  4003a2:	f423 2370 	bic.w	r3, r3, #983040	; 0xf0000
  4003a6:	6043      	str	r3, [r0, #4]
	p_spi->SPI_MR |= SPI_MR_PCS(ul_value);
  4003a8:	6843      	ldr	r3, [r0, #4]
  4003aa:	0409      	lsls	r1, r1, #16
  4003ac:	f401 2170 	and.w	r1, r1, #983040	; 0xf0000
  4003b0:	4319      	orrs	r1, r3
  4003b2:	6041      	str	r1, [r0, #4]
  4003b4:	4770      	bx	lr

004003b6 <spi_read>:
 *
 * \retval SPI_OK on Success.
 * \retval SPI_ERROR_TIMEOUT on Time-out.
 */
spi_status_t spi_read(Spi *p_spi, uint16_t *us_data, uint8_t *p_pcs)
{
  4003b6:	b410      	push	{r4}
	uint32_t timeout = SPI_TIMEOUT;
	static uint32_t reg_value;

	while (!(p_spi->SPI_SR & SPI_SR_RDRF)) {
  4003b8:	f643 2399 	movw	r3, #15001	; 0x3a99
  4003bc:	6904      	ldr	r4, [r0, #16]
  4003be:	f014 0f01 	tst.w	r4, #1
  4003c2:	d103      	bne.n	4003cc <spi_read+0x16>
		if (!timeout--) {
  4003c4:	3b01      	subs	r3, #1
  4003c6:	d1f9      	bne.n	4003bc <spi_read+0x6>
			return SPI_ERROR_TIMEOUT;
  4003c8:	2001      	movs	r0, #1
  4003ca:	e009      	b.n	4003e0 <spi_read+0x2a>
		}
	}

	reg_value = p_spi->SPI_RDR;
  4003cc:	6883      	ldr	r3, [r0, #8]
 *
 * \return 1 for Variable mode, 0 for fixed mode.
 */
static inline uint32_t spi_get_peripheral_select_mode(Spi *p_spi)
{
	if (p_spi->SPI_MR & SPI_MR_PS) {
  4003ce:	6840      	ldr	r0, [r0, #4]
	if (spi_get_peripheral_select_mode(p_spi)) {
  4003d0:	f010 0f02 	tst.w	r0, #2
  4003d4:	d002      	beq.n	4003dc <spi_read+0x26>
		*p_pcs = (uint8_t) ((reg_value & SPI_RDR_PCS_Msk) >> SPI_RDR_PCS_Pos);
  4003d6:	f3c3 4003 	ubfx	r0, r3, #16, #4
  4003da:	7010      	strb	r0, [r2, #0]
	}
	*us_data = (uint16_t) (reg_value & SPI_RDR_RD_Msk);
  4003dc:	800b      	strh	r3, [r1, #0]

	return SPI_OK;
  4003de:	2000      	movs	r0, #0
}
  4003e0:	f85d 4b04 	ldr.w	r4, [sp], #4
  4003e4:	4770      	bx	lr

004003e6 <spi_write>:
 * \retval SPI_OK on Success.
 * \retval SPI_ERROR_TIMEOUT on Time-out.
 */
spi_status_t spi_write(Spi *p_spi, uint16_t us_data,
		uint8_t uc_pcs, uint8_t uc_last)
{
  4003e6:	b430      	push	{r4, r5}
	uint32_t timeout = SPI_TIMEOUT;
	uint32_t value;

	while (!(p_spi->SPI_SR & SPI_SR_TDRE)) {
  4003e8:	f643 2499 	movw	r4, #15001	; 0x3a99
  4003ec:	6905      	ldr	r5, [r0, #16]
  4003ee:	f015 0f02 	tst.w	r5, #2
  4003f2:	d103      	bne.n	4003fc <spi_write+0x16>
		if (!timeout--) {
  4003f4:	3c01      	subs	r4, #1
  4003f6:	d1f9      	bne.n	4003ec <spi_write+0x6>
			return SPI_ERROR_TIMEOUT;
  4003f8:	2001      	movs	r0, #1
  4003fa:	e00c      	b.n	400416 <spi_write+0x30>
  4003fc:	6844      	ldr	r4, [r0, #4]
		}
	}

	if (spi_get_peripheral_select_mode(p_spi)) {
  4003fe:	f014 0f02 	tst.w	r4, #2
  400402:	d006      	beq.n	400412 <spi_write+0x2c>
		value = SPI_TDR_TD(us_data) | SPI_TDR_PCS(uc_pcs);
  400404:	0412      	lsls	r2, r2, #16
  400406:	f402 2270 	and.w	r2, r2, #983040	; 0xf0000
  40040a:	4311      	orrs	r1, r2
		if (uc_last) {
  40040c:	b10b      	cbz	r3, 400412 <spi_write+0x2c>
			value |= SPI_TDR_LASTXFER;
  40040e:	f041 7180 	orr.w	r1, r1, #16777216	; 0x1000000
		}
	} else {
		value = SPI_TDR_TD(us_data);
	}

	p_spi->SPI_TDR = value;
  400412:	60c1      	str	r1, [r0, #12]

	return SPI_OK;
  400414:	2000      	movs	r0, #0
}
  400416:	bc30      	pop	{r4, r5}
  400418:	4770      	bx	lr

0040041a <spi_set_clock_polarity>:
 * \param ul_polarity Default clock state is logical one(high)/zero(low).
 */
void spi_set_clock_polarity(Spi *p_spi, uint32_t ul_pcs_ch,
		uint32_t ul_polarity)
{
	if (ul_polarity) {
  40041a:	b932      	cbnz	r2, 40042a <spi_set_clock_polarity+0x10>
  40041c:	eb00 0081 	add.w	r0, r0, r1, lsl #2
		p_spi->SPI_CSR[ul_pcs_ch] |= SPI_CSR_CPOL;
	} else {
		p_spi->SPI_CSR[ul_pcs_ch] &= (~SPI_CSR_CPOL);
  400420:	6b03      	ldr	r3, [r0, #48]	; 0x30
  400422:	f023 0301 	bic.w	r3, r3, #1
  400426:	6303      	str	r3, [r0, #48]	; 0x30
  400428:	4770      	bx	lr
  40042a:	eb00 0081 	add.w	r0, r0, r1, lsl #2
		p_spi->SPI_CSR[ul_pcs_ch] |= SPI_CSR_CPOL;
  40042e:	6b03      	ldr	r3, [r0, #48]	; 0x30
  400430:	f043 0301 	orr.w	r3, r3, #1
  400434:	6303      	str	r3, [r0, #48]	; 0x30
  400436:	4770      	bx	lr

00400438 <spi_set_clock_phase>:
 *  \param ul_pcs_ch Peripheral Chip Select channel (0~3).
 *  \param ul_phase Data capture on the rising/falling edge of clock.
 */
void spi_set_clock_phase(Spi *p_spi, uint32_t ul_pcs_ch, uint32_t ul_phase)
{
	if (ul_phase) {
  400438:	b932      	cbnz	r2, 400448 <spi_set_clock_phase+0x10>
  40043a:	eb00 0081 	add.w	r0, r0, r1, lsl #2
		p_spi->SPI_CSR[ul_pcs_ch] |= SPI_CSR_NCPHA;
	} else {
		p_spi->SPI_CSR[ul_pcs_ch] &= (~SPI_CSR_NCPHA);
  40043e:	6b03      	ldr	r3, [r0, #48]	; 0x30
  400440:	f023 0302 	bic.w	r3, r3, #2
  400444:	6303      	str	r3, [r0, #48]	; 0x30
  400446:	4770      	bx	lr
  400448:	eb00 0081 	add.w	r0, r0, r1, lsl #2
		p_spi->SPI_CSR[ul_pcs_ch] |= SPI_CSR_NCPHA;
  40044c:	6b03      	ldr	r3, [r0, #48]	; 0x30
  40044e:	f043 0302 	orr.w	r3, r3, #2
  400452:	6303      	str	r3, [r0, #48]	; 0x30
  400454:	4770      	bx	lr

00400456 <spi_set_bits_per_transfer>:
 * \param ul_bits Number of bits (8~16), use the pattern defined
 *        in the device header file.
 */
void spi_set_bits_per_transfer(Spi *p_spi, uint32_t ul_pcs_ch,
		uint32_t ul_bits)
{
  400456:	eb00 0181 	add.w	r1, r0, r1, lsl #2
	p_spi->SPI_CSR[ul_pcs_ch] &= (~SPI_CSR_BITS_Msk);
  40045a:	6b0b      	ldr	r3, [r1, #48]	; 0x30
  40045c:	f023 03f0 	bic.w	r3, r3, #240	; 0xf0
  400460:	630b      	str	r3, [r1, #48]	; 0x30
	p_spi->SPI_CSR[ul_pcs_ch] |= ul_bits;
  400462:	6b0b      	ldr	r3, [r1, #48]	; 0x30
  400464:	431a      	orrs	r2, r3
  400466:	630a      	str	r2, [r1, #48]	; 0x30
  400468:	4770      	bx	lr

0040046a <spi_set_baudrate_div>:
 */
int16_t spi_set_baudrate_div(Spi *p_spi, uint32_t ul_pcs_ch,
		uint8_t uc_baudrate_divider)
{
    /* Programming the SCBR field to 0 is forbidden */
    if (!uc_baudrate_divider){
  40046a:	b17a      	cbz	r2, 40048c <spi_set_baudrate_div+0x22>
{
  40046c:	b410      	push	{r4}
  40046e:	4614      	mov	r4, r2
  400470:	eb00 0181 	add.w	r1, r0, r1, lsl #2
        return -1;
	}
	p_spi->SPI_CSR[ul_pcs_ch] &= (~SPI_CSR_SCBR_Msk);
  400474:	6b0b      	ldr	r3, [r1, #48]	; 0x30
  400476:	f423 437f 	bic.w	r3, r3, #65280	; 0xff00
  40047a:	630b      	str	r3, [r1, #48]	; 0x30
	p_spi->SPI_CSR[ul_pcs_ch] |= SPI_CSR_SCBR(uc_baudrate_divider);
  40047c:	6b0a      	ldr	r2, [r1, #48]	; 0x30
  40047e:	ea42 2204 	orr.w	r2, r2, r4, lsl #8
  400482:	630a      	str	r2, [r1, #48]	; 0x30
    return 0;
  400484:	2000      	movs	r0, #0
}
  400486:	f85d 4b04 	ldr.w	r4, [sp], #4
  40048a:	4770      	bx	lr
        return -1;
  40048c:	f04f 30ff 	mov.w	r0, #4294967295
  400490:	4770      	bx	lr

00400492 <spi_set_transfer_delay>:
 * \param uc_dlybs Delay before SPCK (in number of MCK clocks).
 * \param uc_dlybct Delay between consecutive transfers (in number of MCK clocks).
 */
void spi_set_transfer_delay(Spi *p_spi, uint32_t ul_pcs_ch,
		uint8_t uc_dlybs, uint8_t uc_dlybct)
{
  400492:	b410      	push	{r4}
  400494:	eb00 0181 	add.w	r1, r0, r1, lsl #2
	p_spi->SPI_CSR[ul_pcs_ch] &= ~(SPI_CSR_DLYBS_Msk | SPI_CSR_DLYBCT_Msk);
  400498:	6b08      	ldr	r0, [r1, #48]	; 0x30
  40049a:	b280      	uxth	r0, r0
  40049c:	6308      	str	r0, [r1, #48]	; 0x30
	p_spi->SPI_CSR[ul_pcs_ch] |= SPI_CSR_DLYBS(uc_dlybs)
  40049e:	6b0c      	ldr	r4, [r1, #48]	; 0x30
  4004a0:	ea44 6303 	orr.w	r3, r4, r3, lsl #24
  4004a4:	ea43 4302 	orr.w	r3, r3, r2, lsl #16
  4004a8:	630b      	str	r3, [r1, #48]	; 0x30
			| SPI_CSR_DLYBCT(uc_dlybct);
}
  4004aa:	f85d 4b04 	ldr.w	r4, [sp], #4
  4004ae:	4770      	bx	lr

004004b0 <uart_write>:
 * \retval 1 I/O Failure, UART is not ready.
 */
uint32_t uart_write(Uart *p_uart, const uint8_t uc_data)
{
	/* Check if the transmitter is ready */
	if (!(p_uart->UART_SR & UART_SR_TXRDY))
  4004b0:	6943      	ldr	r3, [r0, #20]
  4004b2:	f013 0f02 	tst.w	r3, #2
  4004b6:	d002      	beq.n	4004be <uart_write+0xe>
		return 1;

	/* Send character */
	p_uart->UART_THR = uc_data;
  4004b8:	61c1      	str	r1, [r0, #28]
	return 0;
  4004ba:	2000      	movs	r0, #0
  4004bc:	4770      	bx	lr
		return 1;
  4004be:	2001      	movs	r0, #1
}
  4004c0:	4770      	bx	lr

004004c2 <uart_read>:
 * \retval 1 I/O Failure, UART is not ready.
 */
uint32_t uart_read(Uart *p_uart, uint8_t *puc_data)
{
	/* Check if the receiver is ready */
	if ((p_uart->UART_SR & UART_SR_RXRDY) == 0)
  4004c2:	6943      	ldr	r3, [r0, #20]
  4004c4:	f013 0f01 	tst.w	r3, #1
  4004c8:	d003      	beq.n	4004d2 <uart_read+0x10>
		return 1;

	/* Read character */
	*puc_data = (uint8_t) p_uart->UART_RHR;
  4004ca:	6983      	ldr	r3, [r0, #24]
  4004cc:	700b      	strb	r3, [r1, #0]
	return 0;
  4004ce:	2000      	movs	r0, #0
  4004d0:	4770      	bx	lr
		return 1;
  4004d2:	2001      	movs	r0, #1
}
  4004d4:	4770      	bx	lr
	...

004004d8 <sysclk_init>:
	pmc_disable_udpck();
}
#endif // CONFIG_USBCLK_SOURCE

void sysclk_init(void)
{
  4004d8:	b510      	push	{r4, lr}
	struct pll_config pllcfg;

	/* Set flash wait state to max in case the below clock switching. */
	system_init_flash(CHIP_FREQ_CPU_MAX/2);
  4004da:	4810      	ldr	r0, [pc, #64]	; (40051c <sysclk_init+0x44>)
  4004dc:	4b10      	ldr	r3, [pc, #64]	; (400520 <sysclk_init+0x48>)
  4004de:	4798      	blx	r3
		pmc_switch_mainck_to_fastrc(CKGR_MOR_MOSCRCF_12_MHz);
		break;


	case OSC_MAINCK_XTAL:
		pmc_switch_mainck_to_xtal(PMC_OSC_XTAL,
  4004e0:	213e      	movs	r1, #62	; 0x3e
  4004e2:	2000      	movs	r0, #0
  4004e4:	4b0f      	ldr	r3, [pc, #60]	; (400524 <sysclk_init+0x4c>)
  4004e6:	4798      	blx	r3
	case OSC_MAINCK_4M_RC:
	case OSC_MAINCK_8M_RC:
	case OSC_MAINCK_12M_RC:
	case OSC_MAINCK_XTAL:
	case OSC_MAINCK_BYPASS:
		return pmc_osc_is_ready_mainck();
  4004e8:	4c0f      	ldr	r4, [pc, #60]	; (400528 <sysclk_init+0x50>)
  4004ea:	47a0      	blx	r4
 *
 * \param id A number identifying the oscillator to wait for.
 */
static inline void osc_wait_ready(uint8_t id)
{
	while (!osc_is_ready(id)) {
  4004ec:	2800      	cmp	r0, #0
  4004ee:	d0fc      	beq.n	4004ea <sysclk_init+0x12>
static inline void pll_enable(const struct pll_config *p_cfg, uint32_t ul_pll_id)
{
	Assert(ul_pll_id < NR_PLLS);

	if (ul_pll_id == PLLA_ID) {
		pmc_disable_pllack(); // Always stop PLL first!
  4004f0:	4b0e      	ldr	r3, [pc, #56]	; (40052c <sysclk_init+0x54>)
  4004f2:	4798      	blx	r3
		PMC->CKGR_PLLAR = CKGR_PLLAR_ONE | p_cfg->ctrl;
  4004f4:	4a0e      	ldr	r2, [pc, #56]	; (400530 <sysclk_init+0x58>)
  4004f6:	4b0f      	ldr	r3, [pc, #60]	; (400534 <sysclk_init+0x5c>)
  4004f8:	629a      	str	r2, [r3, #40]	; 0x28
static inline uint32_t pll_is_locked(uint32_t ul_pll_id)
{
	Assert(ul_pll_id < NR_PLLS);

	if (ul_pll_id == PLLA_ID) {
	return pmc_is_locked_pllack();
  4004fa:	4c0f      	ldr	r4, [pc, #60]	; (400538 <sysclk_init+0x60>)
  4004fc:	47a0      	blx	r4
 */
static inline int pll_wait_for_lock(unsigned int pll_id)
{
	Assert(pll_id < NR_PLLS);

	while (!pll_is_locked(pll_id)) {
  4004fe:	2800      	cmp	r0, #0
  400500:	d0fc      	beq.n	4004fc <sysclk_init+0x24>
	else if (CONFIG_SYSCLK_SOURCE == SYSCLK_SRC_PLLACK) {
		pll_enable_source(CONFIG_PLL0_SOURCE);
		pll_config_defaults(&pllcfg, 0);
		pll_enable(&pllcfg, 0);
		pll_wait_for_lock(0);
		pmc_mck_set_division(CONFIG_SYSCLK_DIV);
  400502:	2002      	movs	r0, #2
  400504:	4b0d      	ldr	r3, [pc, #52]	; (40053c <sysclk_init+0x64>)
  400506:	4798      	blx	r3
		pmc_switch_mck_to_pllack(CONFIG_SYSCLK_PRES);
  400508:	2000      	movs	r0, #0
  40050a:	4b0d      	ldr	r3, [pc, #52]	; (400540 <sysclk_init+0x68>)
  40050c:	4798      	blx	r3
		pll_wait_for_lock(1);
		pmc_mck_set_division(CONFIG_SYSCLK_DIV);
		pmc_switch_mck_to_upllck(CONFIG_SYSCLK_PRES);
	}
	/* Update the SystemFrequency variable */
	SystemCoreClockUpdate();
  40050e:	4b0d      	ldr	r3, [pc, #52]	; (400544 <sysclk_init+0x6c>)
  400510:	4798      	blx	r3

	/* Set a flash wait state depending on the master clock frequency */
	system_init_flash(sysclk_get_cpu_hz() / CONFIG_SYSCLK_DIV);
  400512:	4802      	ldr	r0, [pc, #8]	; (40051c <sysclk_init+0x44>)
  400514:	4b02      	ldr	r3, [pc, #8]	; (400520 <sysclk_init+0x48>)
  400516:	4798      	blx	r3
  400518:	bd10      	pop	{r4, pc}
  40051a:	bf00      	nop
  40051c:	08f0d180 	.word	0x08f0d180
  400520:	00400b39 	.word	0x00400b39
  400524:	004008bd 	.word	0x004008bd
  400528:	00400911 	.word	0x00400911
  40052c:	00400921 	.word	0x00400921
  400530:	20183f01 	.word	0x20183f01
  400534:	400e0600 	.word	0x400e0600
  400538:	00400931 	.word	0x00400931
  40053c:	00400821 	.word	0x00400821
  400540:	00400859 	.word	0x00400859
  400544:	00400a2d 	.word	0x00400a2d

00400548 <board_init>:
	__ISB();
}
#endif

void board_init(void)
{
  400548:	b5f8      	push	{r3, r4, r5, r6, r7, lr}
#ifndef CONF_BOARD_KEEP_WATCHDOG_AT_INIT
	/* Disable the watchdog */
	WDT->WDT_MR = WDT_MR_WDDIS;
  40054a:	f44f 4200 	mov.w	r2, #32768	; 0x8000
  40054e:	4b7d      	ldr	r3, [pc, #500]	; (400744 <board_init+0x1fc>)
  400550:	605a      	str	r2, [r3, #4]
  \details Acts as a special kind of Data Memory Barrier.
           It completes when all explicit memory accesses before this instruction complete.
 */
__STATIC_FORCEINLINE void __DSB(void)
{
  __ASM volatile ("dsb 0xF":::"memory");
  400552:	f3bf 8f4f 	dsb	sy
  __ASM volatile ("isb 0xF":::"memory");
  400556:	f3bf 8f6f 	isb	sy
__STATIC_INLINE void SCB_EnableICache (void)
{
  #if defined (__ICACHE_PRESENT) && (__ICACHE_PRESENT == 1U)
    __DSB();
    __ISB();
    SCB->ICIALLU = 0UL;                     /* invalidate I-Cache */
  40055a:	4b7b      	ldr	r3, [pc, #492]	; (400748 <board_init+0x200>)
  40055c:	2100      	movs	r1, #0
  40055e:	f8c3 1250 	str.w	r1, [r3, #592]	; 0x250
  __ASM volatile ("dsb 0xF":::"memory");
  400562:	f3bf 8f4f 	dsb	sy
  __ASM volatile ("isb 0xF":::"memory");
  400566:	f3bf 8f6f 	isb	sy
    __DSB();
    __ISB();
    SCB->CCR |=  (uint32_t)SCB_CCR_IC_Msk;  /* enable I-Cache */
  40056a:	695a      	ldr	r2, [r3, #20]
  40056c:	f442 3200 	orr.w	r2, r2, #131072	; 0x20000
  400570:	615a      	str	r2, [r3, #20]
  __ASM volatile ("dsb 0xF":::"memory");
  400572:	f3bf 8f4f 	dsb	sy
  __ASM volatile ("isb 0xF":::"memory");
  400576:	f3bf 8f6f 	isb	sy
  #if defined (__DCACHE_PRESENT) && (__DCACHE_PRESENT == 1U)
    uint32_t ccsidr;
    uint32_t sets;
    uint32_t ways;

    SCB->CSSELR = 0U; /*(0U << 1U) | 0U;*/  /* Level 1 data cache */
  40057a:	f8c3 1084 	str.w	r1, [r3, #132]	; 0x84
  __ASM volatile ("dsb 0xF":::"memory");
  40057e:	f3bf 8f4f 	dsb	sy
    __DSB();

    ccsidr = SCB->CCSIDR;
  400582:	f8d3 7080 	ldr.w	r7, [r3, #128]	; 0x80

                                            /* invalidate D-Cache */
    sets = (uint32_t)(CCSIDR_SETS(ccsidr));
  400586:	f3c7 354e 	ubfx	r5, r7, #13, #15
    do {
      ways = (uint32_t)(CCSIDR_WAYS(ccsidr));
  40058a:	f3c7 07c9 	ubfx	r7, r7, #3, #10
  40058e:	016e      	lsls	r6, r5, #5
  400590:	ea4f 7c87 	mov.w	ip, r7, lsl #30
      do {
        SCB->DCISW = (((sets << SCB_DCISW_SET_Pos) & SCB_DCISW_SET_Msk) |
  400594:	f643 7ee0 	movw	lr, #16352	; 0x3fe0
  400598:	461c      	mov	r4, r3
  40059a:	ea06 000e 	and.w	r0, r6, lr
  40059e:	4662      	mov	r2, ip
      ways = (uint32_t)(CCSIDR_WAYS(ccsidr));
  4005a0:	463b      	mov	r3, r7
        SCB->DCISW = (((sets << SCB_DCISW_SET_Pos) & SCB_DCISW_SET_Msk) |
  4005a2:	ea40 0102 	orr.w	r1, r0, r2
  4005a6:	f8c4 1260 	str.w	r1, [r4, #608]	; 0x260
                      ((ways << SCB_DCISW_WAY_Pos) & SCB_DCISW_WAY_Msk)  );
        #if defined ( __CC_ARM )
          __schedule_barrier();
        #endif
      } while (ways-- != 0U);
  4005aa:	3b01      	subs	r3, #1
  4005ac:	f102 4240 	add.w	r2, r2, #3221225472	; 0xc0000000
  4005b0:	f1b3 3fff 	cmp.w	r3, #4294967295
  4005b4:	d1f5      	bne.n	4005a2 <board_init+0x5a>
    } while(sets-- != 0U);
  4005b6:	3d01      	subs	r5, #1
  4005b8:	3e20      	subs	r6, #32
  4005ba:	f1b5 3fff 	cmp.w	r5, #4294967295
  4005be:	d1ec      	bne.n	40059a <board_init+0x52>
  4005c0:	f3bf 8f4f 	dsb	sy
    __DSB();

    SCB->CCR |=  (uint32_t)SCB_CCR_DC_Msk;  /* enable D-Cache */
  4005c4:	4b60      	ldr	r3, [pc, #384]	; (400748 <board_init+0x200>)
  4005c6:	695a      	ldr	r2, [r3, #20]
  4005c8:	f442 3280 	orr.w	r2, r2, #65536	; 0x10000
  4005cc:	615a      	str	r2, [r3, #20]
  4005ce:	f3bf 8f4f 	dsb	sy
  __ASM volatile ("isb 0xF":::"memory");
  4005d2:	f3bf 8f6f 	isb	sy
		*dst++ = *src++;
	}
#endif
#else
	/* TCM Configuration */
	EFC->EEFC_FCR = (EEFC_FCR_FKEY_PASSWD | EEFC_FCR_FCMD_CGPB 
  4005d6:	4a5d      	ldr	r2, [pc, #372]	; (40074c <board_init+0x204>)
  4005d8:	495d      	ldr	r1, [pc, #372]	; (400750 <board_init+0x208>)
  4005da:	6051      	str	r1, [r2, #4]
					| EEFC_FCR_FARG(8));
	EFC->EEFC_FCR = (EEFC_FCR_FKEY_PASSWD | EEFC_FCR_FCMD_CGPB 
  4005dc:	f5a1 7180 	sub.w	r1, r1, #256	; 0x100
  4005e0:	6051      	str	r1, [r2, #4]
  __ASM volatile ("dsb 0xF":::"memory");
  4005e2:	f3bf 8f4f 	dsb	sy
  __ASM volatile ("isb 0xF":::"memory");
  4005e6:	f3bf 8f6f 	isb	sy
	SCB->ITCMCR &= ~(uint32_t)(1UL);
  4005ea:	f8d3 2290 	ldr.w	r2, [r3, #656]	; 0x290
  4005ee:	f022 0201 	bic.w	r2, r2, #1
  4005f2:	f8c3 2290 	str.w	r2, [r3, #656]	; 0x290
	SCB->DTCMCR &= ~(uint32_t)SCB_DTCMCR_EN_Msk;
  4005f6:	f8d3 2294 	ldr.w	r2, [r3, #660]	; 0x294
  4005fa:	f022 0201 	bic.w	r2, r2, #1
  4005fe:	f8c3 2294 	str.w	r2, [r3, #660]	; 0x294
  __ASM volatile ("dsb 0xF":::"memory");
  400602:	f3bf 8f4f 	dsb	sy
  __ASM volatile ("isb 0xF":::"memory");
  400606:	f3bf 8f6f 	isb	sy
  40060a:	200a      	movs	r0, #10
  40060c:	4c51      	ldr	r4, [pc, #324]	; (400754 <board_init+0x20c>)
  40060e:	47a0      	blx	r4
  400610:	200b      	movs	r0, #11
  400612:	47a0      	blx	r4
  400614:	200c      	movs	r0, #12
  400616:	47a0      	blx	r4
  400618:	2010      	movs	r0, #16
  40061a:	47a0      	blx	r4
  40061c:	2011      	movs	r0, #17
  40061e:	47a0      	blx	r4
		enum ioport_direction dir)
{
	Pio *base = arch_ioport_pin_to_base(pin);

	if (dir == IOPORT_DIR_OUTPUT) {
		base->PIO_OER = arch_ioport_pin_to_mask(pin);
  400620:	4b4d      	ldr	r3, [pc, #308]	; (400758 <board_init+0x210>)
  400622:	f44f 7280 	mov.w	r2, #256	; 0x100
  400626:	611a      	str	r2, [r3, #16]
	} else if (dir == IOPORT_DIR_INPUT) {
		base->PIO_ODR = arch_ioport_pin_to_mask(pin);
	}

	base->PIO_OWER = arch_ioport_pin_to_mask(pin);
  400628:	f8c3 20a0 	str.w	r2, [r3, #160]	; 0xa0
		bool level)
{
	Pio *base = arch_ioport_pin_to_base(pin);

	if (level) {
		base->PIO_SODR = arch_ioport_pin_to_mask(pin);
  40062c:	631a      	str	r2, [r3, #48]	; 0x30
		base->PIO_ODR = arch_ioport_pin_to_mask(pin);
  40062e:	f5a3 6380 	sub.w	r3, r3, #1024	; 0x400
  400632:	f44f 6200 	mov.w	r2, #2048	; 0x800
  400636:	615a      	str	r2, [r3, #20]
	base->PIO_OWER = arch_ioport_pin_to_mask(pin);
  400638:	f8c3 20a0 	str.w	r2, [r3, #160]	; 0xa0
		base->PIO_PUER = mask;
  40063c:	665a      	str	r2, [r3, #100]	; 0x64
		base->PIO_PPDDR = mask;
  40063e:	f8c3 2090 	str.w	r2, [r3, #144]	; 0x90
		base->PIO_MDDR = mask;
  400642:	655a      	str	r2, [r3, #84]	; 0x54
		base->PIO_IFER = mask;
  400644:	621a      	str	r2, [r3, #32]
		base->PIO_IFSCER = mask;
  400646:	f8c3 2084 	str.w	r2, [r3, #132]	; 0x84
		base->PIO_ABCDSR[0] &= ~mask;
  40064a:	6f19      	ldr	r1, [r3, #112]	; 0x70
  40064c:	f421 6100 	bic.w	r1, r1, #2048	; 0x800
  400650:	6719      	str	r1, [r3, #112]	; 0x70
		base->PIO_ABCDSR[1] &= ~mask;
  400652:	6f59      	ldr	r1, [r3, #116]	; 0x74
  400654:	f421 6100 	bic.w	r1, r1, #2048	; 0x800
  400658:	6759      	str	r1, [r3, #116]	; 0x74
	case IOPORT_SENSE_FALLING:
		base->PIO_ESR = mask;
		base->PIO_FELLSR = mask;
		break;
	case IOPORT_SENSE_RISING:
		base->PIO_ESR = mask;
  40065a:	f8c3 20c0 	str.w	r2, [r3, #192]	; 0xc0
		base->PIO_REHLSR = mask;
  40065e:	f8c3 20d4 	str.w	r2, [r3, #212]	; 0xd4
		break;
	default:
		base->PIO_AIMDR = mask;
		return;
	}
	base->PIO_AIMER = mask;
  400662:	f8c3 20b0 	str.w	r2, [r3, #176]	; 0xb0
		base->PIO_PUDR = mask;
  400666:	f44f 1200 	mov.w	r2, #2097152	; 0x200000
  40066a:	661a      	str	r2, [r3, #96]	; 0x60
		base->PIO_PPDDR = mask;
  40066c:	f8c3 2090 	str.w	r2, [r3, #144]	; 0x90
		base->PIO_MDDR = mask;
  400670:	655a      	str	r2, [r3, #84]	; 0x54
		base->PIO_IFDR = mask;
  400672:	625a      	str	r2, [r3, #36]	; 0x24
		base->PIO_IFSCDR = mask;
  400674:	f8c3 2080 	str.w	r2, [r3, #128]	; 0x80
		base->PIO_ABCDSR[0] &= ~mask;
  400678:	6f19      	ldr	r1, [r3, #112]	; 0x70
  40067a:	f421 1100 	bic.w	r1, r1, #2097152	; 0x200000
  40067e:	6719      	str	r1, [r3, #112]	; 0x70
		base->PIO_ABCDSR[1] &= ~mask;
  400680:	6f59      	ldr	r1, [r3, #116]	; 0x74
  400682:	f421 1100 	bic.w	r1, r1, #2097152	; 0x200000
  400686:	6759      	str	r1, [r3, #116]	; 0x74
	arch_ioport_port_to_base(port)->PIO_PDR = mask;
  400688:	605a      	str	r2, [r3, #4]
			GPIO_PUSH_BUTTON_1_SENSE);

#ifdef CONF_BOARD_UART_CONSOLE
	/* Configure UART pins */
	ioport_set_pin_peripheral_mode(USART1_RXD_GPIO, USART1_RXD_FLAGS);
	MATRIX->CCFG_SYSIO |= CCFG_SYSIO_SYSIO4;
  40068a:	4934      	ldr	r1, [pc, #208]	; (40075c <board_init+0x214>)
  40068c:	f8d1 3114 	ldr.w	r3, [r1, #276]	; 0x114
  400690:	f043 0310 	orr.w	r3, r3, #16
  400694:	f8c1 3114 	str.w	r3, [r1, #276]	; 0x114
		base->PIO_PUDR = mask;
  400698:	4b31      	ldr	r3, [pc, #196]	; (400760 <board_init+0x218>)
  40069a:	2110      	movs	r1, #16
  40069c:	6619      	str	r1, [r3, #96]	; 0x60
		base->PIO_PPDDR = mask;
  40069e:	f8c3 1090 	str.w	r1, [r3, #144]	; 0x90
		base->PIO_MDDR = mask;
  4006a2:	6559      	str	r1, [r3, #84]	; 0x54
		base->PIO_IFDR = mask;
  4006a4:	6259      	str	r1, [r3, #36]	; 0x24
		base->PIO_IFSCDR = mask;
  4006a6:	f8c3 1080 	str.w	r1, [r3, #128]	; 0x80
		base->PIO_ABCDSR[0] |= mask;
  4006aa:	6f18      	ldr	r0, [r3, #112]	; 0x70
  4006ac:	4308      	orrs	r0, r1
  4006ae:	6718      	str	r0, [r3, #112]	; 0x70
		base->PIO_ABCDSR[1] |= mask;
  4006b0:	6f58      	ldr	r0, [r3, #116]	; 0x74
  4006b2:	4308      	orrs	r0, r1
  4006b4:	6758      	str	r0, [r3, #116]	; 0x74
	arch_ioport_port_to_base(port)->PIO_PDR = mask;
  4006b6:	6059      	str	r1, [r3, #4]
		base->PIO_PUDR = mask;
  4006b8:	f503 6380 	add.w	r3, r3, #1024	; 0x400
  4006bc:	f44f 1180 	mov.w	r1, #1048576	; 0x100000
  4006c0:	6619      	str	r1, [r3, #96]	; 0x60
		base->PIO_PPDDR = mask;
  4006c2:	f8c3 1090 	str.w	r1, [r3, #144]	; 0x90
		base->PIO_MDDR = mask;
  4006c6:	6559      	str	r1, [r3, #84]	; 0x54
		base->PIO_IFDR = mask;
  4006c8:	6259      	str	r1, [r3, #36]	; 0x24
		base->PIO_IFSCDR = mask;
  4006ca:	f8c3 1080 	str.w	r1, [r3, #128]	; 0x80
		base->PIO_ABCDSR[0] |= mask;
  4006ce:	6f18      	ldr	r0, [r3, #112]	; 0x70
  4006d0:	4308      	orrs	r0, r1
  4006d2:	6718      	str	r0, [r3, #112]	; 0x70
		base->PIO_ABCDSR[1] &= ~mask;
  4006d4:	6f58      	ldr	r0, [r3, #116]	; 0x74
  4006d6:	f420 1080 	bic.w	r0, r0, #1048576	; 0x100000
  4006da:	6758      	str	r0, [r3, #116]	; 0x74
	arch_ioport_port_to_base(port)->PIO_PDR = mask;
  4006dc:	6059      	str	r1, [r3, #4]
		base->PIO_PUDR = mask;
  4006de:	661a      	str	r2, [r3, #96]	; 0x60
		base->PIO_PPDDR = mask;
  4006e0:	f8c3 2090 	str.w	r2, [r3, #144]	; 0x90
		base->PIO_MDDR = mask;
  4006e4:	655a      	str	r2, [r3, #84]	; 0x54
		base->PIO_IFDR = mask;
  4006e6:	625a      	str	r2, [r3, #36]	; 0x24
		base->PIO_IFSCDR = mask;
  4006e8:	f8c3 2080 	str.w	r2, [r3, #128]	; 0x80
		base->PIO_ABCDSR[0] |= mask;
  4006ec:	6f19      	ldr	r1, [r3, #112]	; 0x70
  4006ee:	4311      	orrs	r1, r2
  4006f0:	6719      	str	r1, [r3, #112]	; 0x70
		base->PIO_ABCDSR[1] &= ~mask;
  4006f2:	6f59      	ldr	r1, [r3, #116]	; 0x74
  4006f4:	f421 1100 	bic.w	r1, r1, #2097152	; 0x200000
  4006f8:	6759      	str	r1, [r3, #116]	; 0x74
	arch_ioport_port_to_base(port)->PIO_PDR = mask;
  4006fa:	605a      	str	r2, [r3, #4]
		base->PIO_PUDR = mask;
  4006fc:	f44f 0280 	mov.w	r2, #4194304	; 0x400000
  400700:	661a      	str	r2, [r3, #96]	; 0x60
		base->PIO_PPDDR = mask;
  400702:	f8c3 2090 	str.w	r2, [r3, #144]	; 0x90
		base->PIO_MDDR = mask;
  400706:	655a      	str	r2, [r3, #84]	; 0x54
		base->PIO_IFDR = mask;
  400708:	625a      	str	r2, [r3, #36]	; 0x24
		base->PIO_IFSCDR = mask;
  40070a:	f8c3 2080 	str.w	r2, [r3, #128]	; 0x80
		base->PIO_ABCDSR[0] |= mask;
  40070e:	6f19      	ldr	r1, [r3, #112]	; 0x70
  400710:	4311      	orrs	r1, r2
  400712:	6719      	str	r1, [r3, #112]	; 0x70
		base->PIO_ABCDSR[1] &= ~mask;
  400714:	6f59      	ldr	r1, [r3, #116]	; 0x74
  400716:	f421 0180 	bic.w	r1, r1, #4194304	; 0x400000
  40071a:	6759      	str	r1, [r3, #116]	; 0x74
	arch_ioport_port_to_base(port)->PIO_PDR = mask;
  40071c:	605a      	str	r2, [r3, #4]
		base->PIO_PUDR = mask;
  40071e:	f04f 7200 	mov.w	r2, #33554432	; 0x2000000
  400722:	661a      	str	r2, [r3, #96]	; 0x60
		base->PIO_PPDDR = mask;
  400724:	f8c3 2090 	str.w	r2, [r3, #144]	; 0x90
		base->PIO_MDDR = mask;
  400728:	655a      	str	r2, [r3, #84]	; 0x54
		base->PIO_IFDR = mask;
  40072a:	625a      	str	r2, [r3, #36]	; 0x24
		base->PIO_IFSCDR = mask;
  40072c:	f8c3 2080 	str.w	r2, [r3, #128]	; 0x80
		base->PIO_ABCDSR[0] |= mask;
  400730:	6f19      	ldr	r1, [r3, #112]	; 0x70
  400732:	4311      	orrs	r1, r2
  400734:	6719      	str	r1, [r3, #112]	; 0x70
		base->PIO_ABCDSR[1] &= ~mask;
  400736:	6f59      	ldr	r1, [r3, #116]	; 0x74
  400738:	f021 7100 	bic.w	r1, r1, #33554432	; 0x2000000
  40073c:	6759      	str	r1, [r3, #116]	; 0x74
	arch_ioport_port_to_base(port)->PIO_PDR = mask;
  40073e:	605a      	str	r2, [r3, #4]
  400740:	bdf8      	pop	{r3, r4, r5, r6, r7, pc}
  400742:	bf00      	nop
  400744:	400e1850 	.word	0x400e1850
  400748:	e000ed00 	.word	0xe000ed00
  40074c:	400e0c00 	.word	0x400e0c00
  400750:	5a00080c 	.word	0x5a00080c
  400754:	00400941 	.word	0x00400941
  400758:	400e1200 	.word	0x400e1200
  40075c:	40088000 	.word	0x40088000
  400760:	400e1000 	.word	0x400e1000

00400764 <pio_get_interrupt_status>:
 *
 * \return The interrupt status value.
 */
uint32_t pio_get_interrupt_status(const Pio *p_pio)
{
	return p_pio->PIO_ISR;
  400764:	6cc0      	ldr	r0, [r0, #76]	; 0x4c
}
  400766:	4770      	bx	lr

00400768 <pio_get_interrupt_mask>:
 *
 * \return The interrupt mask value.
 */
uint32_t pio_get_interrupt_mask(const Pio *p_pio)
{
	return p_pio->PIO_IMR;
  400768:	6c80      	ldr	r0, [r0, #72]	; 0x48
}
  40076a:	4770      	bx	lr

0040076c <pio_handler_process>:
 *
 * \param p_pio PIO controller base address.
 * \param ul_id PIO controller ID.
 */
void pio_handler_process(Pio *p_pio, uint32_t ul_id)
{
  40076c:	e92d 41f0 	stmdb	sp!, {r4, r5, r6, r7, r8, lr}
  400770:	4604      	mov	r4, r0
  400772:	4688      	mov	r8, r1
	uint32_t status;
	uint32_t i;

	/* Read PIO controller status */
	status = pio_get_interrupt_status(p_pio);
  400774:	4b0e      	ldr	r3, [pc, #56]	; (4007b0 <pio_handler_process+0x44>)
  400776:	4798      	blx	r3
  400778:	4605      	mov	r5, r0
	status &= pio_get_interrupt_mask(p_pio);
  40077a:	4620      	mov	r0, r4
  40077c:	4b0d      	ldr	r3, [pc, #52]	; (4007b4 <pio_handler_process+0x48>)
  40077e:	4798      	blx	r3

	/* Check pending events */
	if (status != 0) {
  400780:	4005      	ands	r5, r0
  400782:	d013      	beq.n	4007ac <pio_handler_process+0x40>
  400784:	4c0c      	ldr	r4, [pc, #48]	; (4007b8 <pio_handler_process+0x4c>)
  400786:	f104 0660 	add.w	r6, r4, #96	; 0x60
  40078a:	e003      	b.n	400794 <pio_handler_process+0x28>
							gs_interrupt_sources[i].mask);
					status &= ~(gs_interrupt_sources[i].mask);
				}
			}
			i++;
			if (i >= MAX_INTERRUPT_SOURCES) {
  40078c:	42b4      	cmp	r4, r6
  40078e:	d00d      	beq.n	4007ac <pio_handler_process+0x40>
  400790:	3410      	adds	r4, #16
		while (status != 0) {
  400792:	b15d      	cbz	r5, 4007ac <pio_handler_process+0x40>
			if (gs_interrupt_sources[i].id == ul_id) {
  400794:	6820      	ldr	r0, [r4, #0]
  400796:	4540      	cmp	r0, r8
  400798:	d1f8      	bne.n	40078c <pio_handler_process+0x20>
				if ((status & gs_interrupt_sources[i].mask) != 0) {
  40079a:	6861      	ldr	r1, [r4, #4]
  40079c:	4229      	tst	r1, r5
  40079e:	d0f5      	beq.n	40078c <pio_handler_process+0x20>
					gs_interrupt_sources[i].handler(gs_interrupt_sources[i].id,
  4007a0:	68e3      	ldr	r3, [r4, #12]
  4007a2:	4798      	blx	r3
					status &= ~(gs_interrupt_sources[i].mask);
  4007a4:	6863      	ldr	r3, [r4, #4]
  4007a6:	ea25 0503 	bic.w	r5, r5, r3
  4007aa:	e7ef      	b.n	40078c <pio_handler_process+0x20>
  4007ac:	e8bd 81f0 	ldmia.w	sp!, {r4, r5, r6, r7, r8, pc}
  4007b0:	00400765 	.word	0x00400765
  4007b4:	00400769 	.word	0x00400769
  4007b8:	204009e0 	.word	0x204009e0

004007bc <PIOA_Handler>:
/**
 * \brief Parallel IO Controller A interrupt handler.
 * Redefined PIOA interrupt handler for NVIC interrupt table.
 */
void PIOA_Handler(void)
{
  4007bc:	b508      	push	{r3, lr}
	pio_handler_process(PIOA, ID_PIOA);
  4007be:	210a      	movs	r1, #10
  4007c0:	4801      	ldr	r0, [pc, #4]	; (4007c8 <PIOA_Handler+0xc>)
  4007c2:	4b02      	ldr	r3, [pc, #8]	; (4007cc <PIOA_Handler+0x10>)
  4007c4:	4798      	blx	r3
  4007c6:	bd08      	pop	{r3, pc}
  4007c8:	400e0e00 	.word	0x400e0e00
  4007cc:	0040076d 	.word	0x0040076d

004007d0 <PIOB_Handler>:
/**
 * \brief Parallel IO Controller B interrupt handler
 * Redefined PIOB interrupt handler for NVIC interrupt table.
 */
void PIOB_Handler(void)
{
  4007d0:	b508      	push	{r3, lr}
    pio_handler_process(PIOB, ID_PIOB);
  4007d2:	210b      	movs	r1, #11
  4007d4:	4801      	ldr	r0, [pc, #4]	; (4007dc <PIOB_Handler+0xc>)
  4007d6:	4b02      	ldr	r3, [pc, #8]	; (4007e0 <PIOB_Handler+0x10>)
  4007d8:	4798      	blx	r3
  4007da:	bd08      	pop	{r3, pc}
  4007dc:	400e1000 	.word	0x400e1000
  4007e0:	0040076d 	.word	0x0040076d

004007e4 <PIOC_Handler>:
/**
 * \brief Parallel IO Controller C interrupt handler.
 * Redefined PIOC interrupt handler for NVIC interrupt table.
 */
void PIOC_Handler(void)
{
  4007e4:	b508      	push	{r3, lr}
	pio_handler_process(PIOC, ID_PIOC);
  4007e6:	210c      	movs	r1, #12
  4007e8:	4801      	ldr	r0, [pc, #4]	; (4007f0 <PIOC_Handler+0xc>)
  4007ea:	4b02      	ldr	r3, [pc, #8]	; (4007f4 <PIOC_Handler+0x10>)
  4007ec:	4798      	blx	r3
  4007ee:	bd08      	pop	{r3, pc}
  4007f0:	400e1200 	.word	0x400e1200
  4007f4:	0040076d 	.word	0x0040076d

004007f8 <PIOD_Handler>:
/**
 * \brief Parallel IO Controller D interrupt handler.
 * Redefined PIOD interrupt handler for NVIC interrupt table.
 */
void PIOD_Handler(void)
{
  4007f8:	b508      	push	{r3, lr}
	pio_handler_process(PIOD, ID_PIOD);
  4007fa:	2110      	movs	r1, #16
  4007fc:	4801      	ldr	r0, [pc, #4]	; (400804 <PIOD_Handler+0xc>)
  4007fe:	4b02      	ldr	r3, [pc, #8]	; (400808 <PIOD_Handler+0x10>)
  400800:	4798      	blx	r3
  400802:	bd08      	pop	{r3, pc}
  400804:	400e1400 	.word	0x400e1400
  400808:	0040076d 	.word	0x0040076d

0040080c <PIOE_Handler>:
/**
 * \brief Parallel IO Controller E interrupt handler.
 * Redefined PIOE interrupt handler for NVIC interrupt table.
 */
void PIOE_Handler(void)
{
  40080c:	b508      	push	{r3, lr}
	pio_handler_process(PIOE, ID_PIOE);
  40080e:	2111      	movs	r1, #17
  400810:	4801      	ldr	r0, [pc, #4]	; (400818 <PIOE_Handler+0xc>)
  400812:	4b02      	ldr	r3, [pc, #8]	; (40081c <PIOE_Handler+0x10>)
  400814:	4798      	blx	r3
  400816:	bd08      	pop	{r3, pc}
  400818:	400e1600 	.word	0x400e1600
  40081c:	0040076d 	.word	0x0040076d

00400820 <pmc_mck_set_division>:
 *
 * \param ul_div Division value.
 */
void pmc_mck_set_division(uint32_t ul_div)
{
	switch (ul_div) {
  400820:	2803      	cmp	r0, #3
  400822:	d011      	beq.n	400848 <pmc_mck_set_division+0x28>
  400824:	2804      	cmp	r0, #4
  400826:	d012      	beq.n	40084e <pmc_mck_set_division+0x2e>
		case 1:
			ul_div = PMC_MCKR_MDIV_EQ_PCK;
  400828:	2802      	cmp	r0, #2
  40082a:	bf0c      	ite	eq
  40082c:	f44f 7180 	moveq.w	r1, #256	; 0x100
  400830:	2100      	movne	r1, #0
		default:
			ul_div = PMC_MCKR_MDIV_EQ_PCK;
			break;
	}
	PMC->PMC_MCKR =
			(PMC->PMC_MCKR & (~PMC_MCKR_MDIV_Msk)) | ul_div;
  400832:	4a08      	ldr	r2, [pc, #32]	; (400854 <pmc_mck_set_division+0x34>)
  400834:	6b13      	ldr	r3, [r2, #48]	; 0x30
  400836:	f423 7340 	bic.w	r3, r3, #768	; 0x300
  40083a:	430b      	orrs	r3, r1
	PMC->PMC_MCKR =
  40083c:	6313      	str	r3, [r2, #48]	; 0x30
	while (!(PMC->PMC_SR & PMC_SR_MCKRDY));
  40083e:	6e93      	ldr	r3, [r2, #104]	; 0x68
  400840:	f013 0f08 	tst.w	r3, #8
  400844:	d0fb      	beq.n	40083e <pmc_mck_set_division+0x1e>
}
  400846:	4770      	bx	lr
			ul_div = PMC_MCKR_MDIV_PCK_DIV3;
  400848:	f44f 7140 	mov.w	r1, #768	; 0x300
			break;
  40084c:	e7f1      	b.n	400832 <pmc_mck_set_division+0x12>
			ul_div = PMC_MCKR_MDIV_PCK_DIV4;
  40084e:	f44f 7100 	mov.w	r1, #512	; 0x200
			break;
  400852:	e7ee      	b.n	400832 <pmc_mck_set_division+0x12>
  400854:	400e0600 	.word	0x400e0600

00400858 <pmc_switch_mck_to_pllack>:
 */
uint32_t pmc_switch_mck_to_pllack(uint32_t ul_pres)
{
	uint32_t ul_timeout;

	PMC->PMC_MCKR = (PMC->PMC_MCKR & (~PMC_MCKR_PRES_Msk)) | ul_pres;
  400858:	4a17      	ldr	r2, [pc, #92]	; (4008b8 <pmc_switch_mck_to_pllack+0x60>)
  40085a:	6b13      	ldr	r3, [r2, #48]	; 0x30
  40085c:	f023 0370 	bic.w	r3, r3, #112	; 0x70
  400860:	4318      	orrs	r0, r3
  400862:	6310      	str	r0, [r2, #48]	; 0x30
	for (ul_timeout = PMC_TIMEOUT; !(PMC->PMC_SR & PMC_SR_MCKRDY);
  400864:	6e93      	ldr	r3, [r2, #104]	; 0x68
  400866:	f013 0f08 	tst.w	r3, #8
  40086a:	d10a      	bne.n	400882 <pmc_switch_mck_to_pllack+0x2a>
  40086c:	f44f 5380 	mov.w	r3, #4096	; 0x1000
  400870:	4911      	ldr	r1, [pc, #68]	; (4008b8 <pmc_switch_mck_to_pllack+0x60>)
  400872:	6e8a      	ldr	r2, [r1, #104]	; 0x68
  400874:	f012 0f08 	tst.w	r2, #8
  400878:	d103      	bne.n	400882 <pmc_switch_mck_to_pllack+0x2a>
			--ul_timeout) {
		if (ul_timeout == 0) {
  40087a:	3b01      	subs	r3, #1
  40087c:	d1f9      	bne.n	400872 <pmc_switch_mck_to_pllack+0x1a>
			return 1;
  40087e:	2001      	movs	r0, #1
  400880:	4770      	bx	lr
		}
	}

	PMC->PMC_MCKR = (PMC->PMC_MCKR & (~PMC_MCKR_CSS_Msk)) |
  400882:	4a0d      	ldr	r2, [pc, #52]	; (4008b8 <pmc_switch_mck_to_pllack+0x60>)
  400884:	6b13      	ldr	r3, [r2, #48]	; 0x30
  400886:	f023 0303 	bic.w	r3, r3, #3
  40088a:	f043 0302 	orr.w	r3, r3, #2
  40088e:	6313      	str	r3, [r2, #48]	; 0x30
			PMC_MCKR_CSS_PLLA_CLK;

	for (ul_timeout = PMC_TIMEOUT; !(PMC->PMC_SR & PMC_SR_MCKRDY);
  400890:	6e93      	ldr	r3, [r2, #104]	; 0x68
  400892:	f013 0f08 	tst.w	r3, #8
  400896:	d10a      	bne.n	4008ae <pmc_switch_mck_to_pllack+0x56>
  400898:	f44f 5380 	mov.w	r3, #4096	; 0x1000
  40089c:	4906      	ldr	r1, [pc, #24]	; (4008b8 <pmc_switch_mck_to_pllack+0x60>)
  40089e:	6e8a      	ldr	r2, [r1, #104]	; 0x68
  4008a0:	f012 0f08 	tst.w	r2, #8
  4008a4:	d105      	bne.n	4008b2 <pmc_switch_mck_to_pllack+0x5a>
			--ul_timeout) {
		if (ul_timeout == 0) {
  4008a6:	3b01      	subs	r3, #1
  4008a8:	d1f9      	bne.n	40089e <pmc_switch_mck_to_pllack+0x46>
			return 1;
  4008aa:	2001      	movs	r0, #1
		}
	}

	return 0;
}
  4008ac:	4770      	bx	lr
	return 0;
  4008ae:	2000      	movs	r0, #0
  4008b0:	4770      	bx	lr
  4008b2:	2000      	movs	r0, #0
  4008b4:	4770      	bx	lr
  4008b6:	bf00      	nop
  4008b8:	400e0600 	.word	0x400e0600

004008bc <pmc_switch_mainck_to_xtal>:
 */
void pmc_switch_mainck_to_xtal(uint32_t ul_bypass,
		uint32_t ul_xtal_startup_time)
{
	/* Enable Main Xtal oscillator */
	if (ul_bypass) {
  4008bc:	b9a0      	cbnz	r0, 4008e8 <pmc_switch_mainck_to_xtal+0x2c>
		PMC->CKGR_MOR = (PMC->CKGR_MOR & ~CKGR_MOR_MOSCXTEN) |
				CKGR_MOR_KEY_PASSWD | CKGR_MOR_MOSCXTBY |
				CKGR_MOR_MOSCSEL;
	} else {
		PMC->CKGR_MOR = (PMC->CKGR_MOR & ~CKGR_MOR_MOSCXTBY) |
  4008be:	480e      	ldr	r0, [pc, #56]	; (4008f8 <pmc_switch_mainck_to_xtal+0x3c>)
  4008c0:	6a03      	ldr	r3, [r0, #32]
				CKGR_MOR_KEY_PASSWD | CKGR_MOR_MOSCXTEN |
				CKGR_MOR_MOSCXTST(ul_xtal_startup_time);
  4008c2:	0209      	lsls	r1, r1, #8
  4008c4:	b289      	uxth	r1, r1
				CKGR_MOR_KEY_PASSWD | CKGR_MOR_MOSCXTEN |
  4008c6:	4a0d      	ldr	r2, [pc, #52]	; (4008fc <pmc_switch_mainck_to_xtal+0x40>)
  4008c8:	401a      	ands	r2, r3
  4008ca:	4b0d      	ldr	r3, [pc, #52]	; (400900 <pmc_switch_mainck_to_xtal+0x44>)
  4008cc:	4313      	orrs	r3, r2
  4008ce:	4319      	orrs	r1, r3
		PMC->CKGR_MOR = (PMC->CKGR_MOR & ~CKGR_MOR_MOSCXTBY) |
  4008d0:	6201      	str	r1, [r0, #32]
		/* Wait the Xtal to stabilize */
		while (!(PMC->PMC_SR & PMC_SR_MOSCXTS));
  4008d2:	4602      	mov	r2, r0
  4008d4:	6e93      	ldr	r3, [r2, #104]	; 0x68
  4008d6:	f013 0f01 	tst.w	r3, #1
  4008da:	d0fb      	beq.n	4008d4 <pmc_switch_mainck_to_xtal+0x18>

		PMC->CKGR_MOR |= CKGR_MOR_KEY_PASSWD | CKGR_MOR_MOSCSEL;
  4008dc:	4a06      	ldr	r2, [pc, #24]	; (4008f8 <pmc_switch_mainck_to_xtal+0x3c>)
  4008de:	6a11      	ldr	r1, [r2, #32]
  4008e0:	4b08      	ldr	r3, [pc, #32]	; (400904 <pmc_switch_mainck_to_xtal+0x48>)
  4008e2:	430b      	orrs	r3, r1
  4008e4:	6213      	str	r3, [r2, #32]
  4008e6:	4770      	bx	lr
		PMC->CKGR_MOR = (PMC->CKGR_MOR & ~CKGR_MOR_MOSCXTEN) |
  4008e8:	4903      	ldr	r1, [pc, #12]	; (4008f8 <pmc_switch_mainck_to_xtal+0x3c>)
  4008ea:	6a0b      	ldr	r3, [r1, #32]
				CKGR_MOR_KEY_PASSWD | CKGR_MOR_MOSCXTBY |
  4008ec:	4a06      	ldr	r2, [pc, #24]	; (400908 <pmc_switch_mainck_to_xtal+0x4c>)
  4008ee:	401a      	ands	r2, r3
  4008f0:	4b06      	ldr	r3, [pc, #24]	; (40090c <pmc_switch_mainck_to_xtal+0x50>)
  4008f2:	4313      	orrs	r3, r2
		PMC->CKGR_MOR = (PMC->CKGR_MOR & ~CKGR_MOR_MOSCXTEN) |
  4008f4:	620b      	str	r3, [r1, #32]
  4008f6:	4770      	bx	lr
  4008f8:	400e0600 	.word	0x400e0600
  4008fc:	ffc8fffc 	.word	0xffc8fffc
  400900:	00370001 	.word	0x00370001
  400904:	01370000 	.word	0x01370000
  400908:	fec8fffc 	.word	0xfec8fffc
  40090c:	01370002 	.word	0x01370002

00400910 <pmc_osc_is_ready_mainck>:
 * \retval 1 Xtal is ready.
 * \retval 0 Xtal is not ready.
 */
uint32_t pmc_osc_is_ready_mainck(void)
{
	return PMC->PMC_SR & PMC_SR_MOSCSELS;
  400910:	4b02      	ldr	r3, [pc, #8]	; (40091c <pmc_osc_is_ready_mainck+0xc>)
  400912:	6e98      	ldr	r0, [r3, #104]	; 0x68
}
  400914:	f400 3080 	and.w	r0, r0, #65536	; 0x10000
  400918:	4770      	bx	lr
  40091a:	bf00      	nop
  40091c:	400e0600 	.word	0x400e0600

00400920 <pmc_disable_pllack>:
void pmc_disable_pllack(void)
{
#if (SAM4C || SAM4CM || SAM4CP || SAMG)
	PMC->CKGR_PLLAR = CKGR_PLLAR_MULA(0);
#else
	PMC->CKGR_PLLAR = CKGR_PLLAR_ONE | CKGR_PLLAR_MULA(0);
  400920:	f04f 5200 	mov.w	r2, #536870912	; 0x20000000
  400924:	4b01      	ldr	r3, [pc, #4]	; (40092c <pmc_disable_pllack+0xc>)
  400926:	629a      	str	r2, [r3, #40]	; 0x28
  400928:	4770      	bx	lr
  40092a:	bf00      	nop
  40092c:	400e0600 	.word	0x400e0600

00400930 <pmc_is_locked_pllack>:
 * \retval 0 Not locked.
 * \retval 1 Locked.
 */
uint32_t pmc_is_locked_pllack(void)
{
	return (PMC->PMC_SR & PMC_SR_LOCKA);
  400930:	4b02      	ldr	r3, [pc, #8]	; (40093c <pmc_is_locked_pllack+0xc>)
  400932:	6e98      	ldr	r0, [r3, #104]	; 0x68
}
  400934:	f000 0002 	and.w	r0, r0, #2
  400938:	4770      	bx	lr
  40093a:	bf00      	nop
  40093c:	400e0600 	.word	0x400e0600

00400940 <pmc_enable_periph_clk>:
 */
uint32_t pmc_enable_periph_clk(uint32_t ul_id)
{
#if defined(REG_PMC_PCR) && !SAMG55
	uint32_t pcr;
	PMC->PMC_PCR = ul_id & 0x7F;
  400940:	f000 007f 	and.w	r0, r0, #127	; 0x7f
  400944:	4b05      	ldr	r3, [pc, #20]	; (40095c <pmc_enable_periph_clk+0x1c>)
  400946:	f8c3 010c 	str.w	r0, [r3, #268]	; 0x10c
	pcr = PMC->PMC_PCR | PMC_PCR_EN | PMC_PCR_CMD;
  40094a:	f8d3 210c 	ldr.w	r2, [r3, #268]	; 0x10c
  40094e:	f042 2210 	orr.w	r2, r2, #268439552	; 0x10001000
	PMC->PMC_PCR = pcr;
  400952:	f8c3 210c 	str.w	r2, [r3, #268]	; 0x10c
#endif
	}

	return 0;
#endif /* defined(REG_PMC_PCR) && !SAMG55 */
}
  400956:	2000      	movs	r0, #0
  400958:	4770      	bx	lr
  40095a:	bf00      	nop
  40095c:	400e0600 	.word	0x400e0600

00400960 <Dummy_Handler>:

/**
 * \brief Default interrupt handler for unused IRQs.
 */
void Dummy_Handler(void)
{
  400960:	e7fe      	b.n	400960 <Dummy_Handler>
	...

00400964 <Reset_Handler>:
{
  400964:	b500      	push	{lr}
  400966:	b083      	sub	sp, #12
        if (pSrc != pDest) {
  400968:	4b25      	ldr	r3, [pc, #148]	; (400a00 <Reset_Handler+0x9c>)
  40096a:	4a26      	ldr	r2, [pc, #152]	; (400a04 <Reset_Handler+0xa0>)
  40096c:	429a      	cmp	r2, r3
  40096e:	d010      	beq.n	400992 <Reset_Handler+0x2e>
                for (; pDest < &_erelocate;) {
  400970:	4b25      	ldr	r3, [pc, #148]	; (400a08 <Reset_Handler+0xa4>)
  400972:	4a23      	ldr	r2, [pc, #140]	; (400a00 <Reset_Handler+0x9c>)
  400974:	429a      	cmp	r2, r3
  400976:	d20c      	bcs.n	400992 <Reset_Handler+0x2e>
  400978:	3b01      	subs	r3, #1
  40097a:	1a9b      	subs	r3, r3, r2
  40097c:	f023 0303 	bic.w	r3, r3, #3
  400980:	3304      	adds	r3, #4
  400982:	4413      	add	r3, r2
  400984:	491f      	ldr	r1, [pc, #124]	; (400a04 <Reset_Handler+0xa0>)
                        *pDest++ = *pSrc++;
  400986:	f851 0b04 	ldr.w	r0, [r1], #4
  40098a:	f842 0b04 	str.w	r0, [r2], #4
                for (; pDest < &_erelocate;) {
  40098e:	429a      	cmp	r2, r3
  400990:	d1f9      	bne.n	400986 <Reset_Handler+0x22>
        for (pDest = &_szero; pDest < &_ezero;) {
  400992:	4b1e      	ldr	r3, [pc, #120]	; (400a0c <Reset_Handler+0xa8>)
  400994:	4a1e      	ldr	r2, [pc, #120]	; (400a10 <Reset_Handler+0xac>)
  400996:	429a      	cmp	r2, r3
  400998:	d20a      	bcs.n	4009b0 <Reset_Handler+0x4c>
  40099a:	3b01      	subs	r3, #1
  40099c:	1a9b      	subs	r3, r3, r2
  40099e:	f023 0303 	bic.w	r3, r3, #3
  4009a2:	3304      	adds	r3, #4
  4009a4:	4413      	add	r3, r2
                *pDest++ = 0;
  4009a6:	2100      	movs	r1, #0
  4009a8:	f842 1b04 	str.w	r1, [r2], #4
        for (pDest = &_szero; pDest < &_ezero;) {
  4009ac:	4293      	cmp	r3, r2
  4009ae:	d1fb      	bne.n	4009a8 <Reset_Handler+0x44>
        SCB->VTOR = ((uint32_t) pSrc & SCB_VTOR_TBLOFF_Msk);
  4009b0:	4a18      	ldr	r2, [pc, #96]	; (400a14 <Reset_Handler+0xb0>)
  4009b2:	4b19      	ldr	r3, [pc, #100]	; (400a18 <Reset_Handler+0xb4>)
  4009b4:	f023 037f 	bic.w	r3, r3, #127	; 0x7f
  4009b8:	6093      	str	r3, [r2, #8]
  __ASM volatile ("MRS %0, primask" : "=r" (result) :: "memory");
  4009ba:	f3ef 8310 	mrs	r3, PRIMASK
static volatile uint32_t cpu_irq_critical_section_counter;
static volatile bool     cpu_irq_prev_interrupt_state;

static inline irqflags_t cpu_irq_save(void)
{
	volatile irqflags_t flags = cpu_irq_is_enabled();
  4009be:	fab3 f383 	clz	r3, r3
  4009c2:	095b      	lsrs	r3, r3, #5
  4009c4:	9301      	str	r3, [sp, #4]
  __ASM volatile ("cpsid i" : : : "memory");
  4009c6:	b672      	cpsid	i
  \details Ensures the apparent order of the explicit memory operations before
           and after the instruction, without ensuring their completion.
 */
__STATIC_FORCEINLINE void __DMB(void)
{
  __ASM volatile ("dmb 0xF":::"memory");
  4009c8:	f3bf 8f5f 	dmb	sy
	cpu_irq_disable();
  4009cc:	2200      	movs	r2, #0
  4009ce:	4b13      	ldr	r3, [pc, #76]	; (400a1c <Reset_Handler+0xb8>)
  4009d0:	701a      	strb	r2, [r3, #0]
	return flags;
  4009d2:	9901      	ldr	r1, [sp, #4]
 */
__always_inline static void fpu_enable(void)
{
	irqflags_t flags;
	flags = cpu_irq_save();
	REG_CPACR |=  (0xFu << 20);
  4009d4:	4a12      	ldr	r2, [pc, #72]	; (400a20 <Reset_Handler+0xbc>)
  4009d6:	6813      	ldr	r3, [r2, #0]
  4009d8:	f443 0370 	orr.w	r3, r3, #15728640	; 0xf00000
  4009dc:	6013      	str	r3, [r2, #0]
  __ASM volatile ("dsb 0xF":::"memory");
  4009de:	f3bf 8f4f 	dsb	sy
  __ASM volatile ("isb 0xF":::"memory");
  4009e2:	f3bf 8f6f 	isb	sy
	return (flags);
}

static inline void cpu_irq_restore(irqflags_t flags)
{
	if (cpu_irq_is_enabled_flags(flags))
  4009e6:	b129      	cbz	r1, 4009f4 <Reset_Handler+0x90>
		cpu_irq_enable();
  4009e8:	2201      	movs	r2, #1
  4009ea:	4b0c      	ldr	r3, [pc, #48]	; (400a1c <Reset_Handler+0xb8>)
  4009ec:	701a      	strb	r2, [r3, #0]
  __ASM volatile ("dmb 0xF":::"memory");
  4009ee:	f3bf 8f5f 	dmb	sy
  __ASM volatile ("cpsie i" : : : "memory");
  4009f2:	b662      	cpsie	i
        __libc_init_array();
  4009f4:	4b0b      	ldr	r3, [pc, #44]	; (400a24 <Reset_Handler+0xc0>)
  4009f6:	4798      	blx	r3
        main();
  4009f8:	4b0b      	ldr	r3, [pc, #44]	; (400a28 <Reset_Handler+0xc4>)
  4009fa:	4798      	blx	r3
  4009fc:	e7fe      	b.n	4009fc <Reset_Handler+0x98>
  4009fe:	bf00      	nop
  400a00:	20400000 	.word	0x20400000
  400a04:	00404894 	.word	0x00404894
  400a08:	204009c0 	.word	0x204009c0
  400a0c:	20400b04 	.word	0x20400b04
  400a10:	204009c0 	.word	0x204009c0
  400a14:	e000ed00 	.word	0xe000ed00
  400a18:	00400000 	.word	0x00400000
  400a1c:	2040000a 	.word	0x2040000a
  400a20:	e000ed88 	.word	0xe000ed88
  400a24:	0040191d 	.word	0x0040191d
  400a28:	004013c1 	.word	0x004013c1

00400a2c <SystemCoreClockUpdate>:
}

void SystemCoreClockUpdate( void )
{
  /* Determine clock frequency according to clock register values */
  switch (PMC->PMC_MCKR & (uint32_t) PMC_MCKR_CSS_Msk)
  400a2c:	4b3b      	ldr	r3, [pc, #236]	; (400b1c <SystemCoreClockUpdate+0xf0>)
  400a2e:	6b1b      	ldr	r3, [r3, #48]	; 0x30
  400a30:	f003 0303 	and.w	r3, r3, #3
  400a34:	2b01      	cmp	r3, #1
  400a36:	d01d      	beq.n	400a74 <SystemCoreClockUpdate+0x48>
  400a38:	b183      	cbz	r3, 400a5c <SystemCoreClockUpdate+0x30>
  400a3a:	2b02      	cmp	r3, #2
  400a3c:	d036      	beq.n	400aac <SystemCoreClockUpdate+0x80>

    default:
    break;
  }

  if ( (PMC->PMC_MCKR & PMC_MCKR_PRES_Msk) == PMC_MCKR_PRES_CLK_3 )
  400a3e:	4b37      	ldr	r3, [pc, #220]	; (400b1c <SystemCoreClockUpdate+0xf0>)
  400a40:	6b1b      	ldr	r3, [r3, #48]	; 0x30
  400a42:	f003 0370 	and.w	r3, r3, #112	; 0x70
  400a46:	2b70      	cmp	r3, #112	; 0x70
  400a48:	d05f      	beq.n	400b0a <SystemCoreClockUpdate+0xde>
  {
    SystemCoreClock /= 3U;
  }
  else
  {
    SystemCoreClock >>= ((PMC->PMC_MCKR & PMC_MCKR_PRES_Msk) >> PMC_MCKR_PRES_Pos);
  400a4a:	4b34      	ldr	r3, [pc, #208]	; (400b1c <SystemCoreClockUpdate+0xf0>)
  400a4c:	6b1a      	ldr	r2, [r3, #48]	; 0x30
  400a4e:	4934      	ldr	r1, [pc, #208]	; (400b20 <SystemCoreClockUpdate+0xf4>)
  400a50:	f3c2 1202 	ubfx	r2, r2, #4, #3
  400a54:	680b      	ldr	r3, [r1, #0]
  400a56:	40d3      	lsrs	r3, r2
  400a58:	600b      	str	r3, [r1, #0]
  400a5a:	4770      	bx	lr
      if ( SUPC->SUPC_SR & SUPC_SR_OSCSEL )
  400a5c:	4b31      	ldr	r3, [pc, #196]	; (400b24 <SystemCoreClockUpdate+0xf8>)
  400a5e:	695b      	ldr	r3, [r3, #20]
  400a60:	f013 0f80 	tst.w	r3, #128	; 0x80
        SystemCoreClock = CHIP_FREQ_XTAL_32K;
  400a64:	bf14      	ite	ne
  400a66:	f44f 4200 	movne.w	r2, #32768	; 0x8000
        SystemCoreClock = CHIP_FREQ_SLCK_RC;
  400a6a:	f44f 42fa 	moveq.w	r2, #32000	; 0x7d00
  400a6e:	4b2c      	ldr	r3, [pc, #176]	; (400b20 <SystemCoreClockUpdate+0xf4>)
  400a70:	601a      	str	r2, [r3, #0]
  400a72:	e7e4      	b.n	400a3e <SystemCoreClockUpdate+0x12>
      if ( PMC->CKGR_MOR & CKGR_MOR_MOSCSEL )
  400a74:	4b29      	ldr	r3, [pc, #164]	; (400b1c <SystemCoreClockUpdate+0xf0>)
  400a76:	6a1b      	ldr	r3, [r3, #32]
  400a78:	f013 7f80 	tst.w	r3, #16777216	; 0x1000000
  400a7c:	d003      	beq.n	400a86 <SystemCoreClockUpdate+0x5a>
        SystemCoreClock = CHIP_FREQ_XTAL_12M;
  400a7e:	4a2a      	ldr	r2, [pc, #168]	; (400b28 <SystemCoreClockUpdate+0xfc>)
  400a80:	4b27      	ldr	r3, [pc, #156]	; (400b20 <SystemCoreClockUpdate+0xf4>)
  400a82:	601a      	str	r2, [r3, #0]
  400a84:	e7db      	b.n	400a3e <SystemCoreClockUpdate+0x12>
        SystemCoreClock = CHIP_FREQ_MAINCK_RC_4MHZ;
  400a86:	4a29      	ldr	r2, [pc, #164]	; (400b2c <SystemCoreClockUpdate+0x100>)
  400a88:	4b25      	ldr	r3, [pc, #148]	; (400b20 <SystemCoreClockUpdate+0xf4>)
  400a8a:	601a      	str	r2, [r3, #0]
        switch ( PMC->CKGR_MOR & CKGR_MOR_MOSCRCF_Msk )
  400a8c:	4b23      	ldr	r3, [pc, #140]	; (400b1c <SystemCoreClockUpdate+0xf0>)
  400a8e:	6a1b      	ldr	r3, [r3, #32]
  400a90:	f003 0370 	and.w	r3, r3, #112	; 0x70
  400a94:	2b10      	cmp	r3, #16
  400a96:	d005      	beq.n	400aa4 <SystemCoreClockUpdate+0x78>
  400a98:	2b20      	cmp	r3, #32
  400a9a:	d1d0      	bne.n	400a3e <SystemCoreClockUpdate+0x12>
            SystemCoreClock *= 3U;
  400a9c:	4a22      	ldr	r2, [pc, #136]	; (400b28 <SystemCoreClockUpdate+0xfc>)
  400a9e:	4b20      	ldr	r3, [pc, #128]	; (400b20 <SystemCoreClockUpdate+0xf4>)
  400aa0:	601a      	str	r2, [r3, #0]
          break;
  400aa2:	e7cc      	b.n	400a3e <SystemCoreClockUpdate+0x12>
            SystemCoreClock *= 2U;
  400aa4:	4a22      	ldr	r2, [pc, #136]	; (400b30 <SystemCoreClockUpdate+0x104>)
  400aa6:	4b1e      	ldr	r3, [pc, #120]	; (400b20 <SystemCoreClockUpdate+0xf4>)
  400aa8:	601a      	str	r2, [r3, #0]
          break;
  400aaa:	e7c8      	b.n	400a3e <SystemCoreClockUpdate+0x12>
      if ( PMC->CKGR_MOR & CKGR_MOR_MOSCSEL )
  400aac:	4b1b      	ldr	r3, [pc, #108]	; (400b1c <SystemCoreClockUpdate+0xf0>)
  400aae:	6a1b      	ldr	r3, [r3, #32]
  400ab0:	f013 7f80 	tst.w	r3, #16777216	; 0x1000000
  400ab4:	d016      	beq.n	400ae4 <SystemCoreClockUpdate+0xb8>
        SystemCoreClock = CHIP_FREQ_XTAL_12M ;
  400ab6:	4a1c      	ldr	r2, [pc, #112]	; (400b28 <SystemCoreClockUpdate+0xfc>)
  400ab8:	4b19      	ldr	r3, [pc, #100]	; (400b20 <SystemCoreClockUpdate+0xf4>)
  400aba:	601a      	str	r2, [r3, #0]
      if ( (uint32_t) (PMC->PMC_MCKR & (uint32_t) PMC_MCKR_CSS_Msk) == PMC_MCKR_CSS_PLLA_CLK )
  400abc:	4b17      	ldr	r3, [pc, #92]	; (400b1c <SystemCoreClockUpdate+0xf0>)
  400abe:	6b1b      	ldr	r3, [r3, #48]	; 0x30
  400ac0:	f003 0303 	and.w	r3, r3, #3
  400ac4:	2b02      	cmp	r3, #2
  400ac6:	d1ba      	bne.n	400a3e <SystemCoreClockUpdate+0x12>
        SystemCoreClock *= ((((PMC->CKGR_PLLAR) & CKGR_PLLAR_MULA_Msk) >> CKGR_PLLAR_MULA_Pos) + 1U);
  400ac8:	4a14      	ldr	r2, [pc, #80]	; (400b1c <SystemCoreClockUpdate+0xf0>)
  400aca:	6a91      	ldr	r1, [r2, #40]	; 0x28
        SystemCoreClock /= ((((PMC->CKGR_PLLAR) & CKGR_PLLAR_DIVA_Msk) >> CKGR_PLLAR_DIVA_Pos));
  400acc:	6a92      	ldr	r2, [r2, #40]	; 0x28
  400ace:	4814      	ldr	r0, [pc, #80]	; (400b20 <SystemCoreClockUpdate+0xf4>)
        SystemCoreClock *= ((((PMC->CKGR_PLLAR) & CKGR_PLLAR_MULA_Msk) >> CKGR_PLLAR_MULA_Pos) + 1U);
  400ad0:	f3c1 410a 	ubfx	r1, r1, #16, #11
  400ad4:	6803      	ldr	r3, [r0, #0]
  400ad6:	fb01 3303 	mla	r3, r1, r3, r3
        SystemCoreClock /= ((((PMC->CKGR_PLLAR) & CKGR_PLLAR_DIVA_Msk) >> CKGR_PLLAR_DIVA_Pos));
  400ada:	b2d2      	uxtb	r2, r2
  400adc:	fbb3 f3f2 	udiv	r3, r3, r2
  400ae0:	6003      	str	r3, [r0, #0]
  400ae2:	e7ac      	b.n	400a3e <SystemCoreClockUpdate+0x12>
        SystemCoreClock = CHIP_FREQ_MAINCK_RC_4MHZ;
  400ae4:	4a11      	ldr	r2, [pc, #68]	; (400b2c <SystemCoreClockUpdate+0x100>)
  400ae6:	4b0e      	ldr	r3, [pc, #56]	; (400b20 <SystemCoreClockUpdate+0xf4>)
  400ae8:	601a      	str	r2, [r3, #0]
        switch ( PMC->CKGR_MOR & CKGR_MOR_MOSCRCF_Msk )
  400aea:	4b0c      	ldr	r3, [pc, #48]	; (400b1c <SystemCoreClockUpdate+0xf0>)
  400aec:	6a1b      	ldr	r3, [r3, #32]
  400aee:	f003 0370 	and.w	r3, r3, #112	; 0x70
  400af2:	2b10      	cmp	r3, #16
  400af4:	d005      	beq.n	400b02 <SystemCoreClockUpdate+0xd6>
  400af6:	2b20      	cmp	r3, #32
  400af8:	d1e0      	bne.n	400abc <SystemCoreClockUpdate+0x90>
            SystemCoreClock *= 3U;
  400afa:	4a0b      	ldr	r2, [pc, #44]	; (400b28 <SystemCoreClockUpdate+0xfc>)
  400afc:	4b08      	ldr	r3, [pc, #32]	; (400b20 <SystemCoreClockUpdate+0xf4>)
  400afe:	601a      	str	r2, [r3, #0]
          break;
  400b00:	e7dc      	b.n	400abc <SystemCoreClockUpdate+0x90>
            SystemCoreClock *= 2U;
  400b02:	4a0b      	ldr	r2, [pc, #44]	; (400b30 <SystemCoreClockUpdate+0x104>)
  400b04:	4b06      	ldr	r3, [pc, #24]	; (400b20 <SystemCoreClockUpdate+0xf4>)
  400b06:	601a      	str	r2, [r3, #0]
          break;
  400b08:	e7d8      	b.n	400abc <SystemCoreClockUpdate+0x90>
    SystemCoreClock /= 3U;
  400b0a:	4a05      	ldr	r2, [pc, #20]	; (400b20 <SystemCoreClockUpdate+0xf4>)
  400b0c:	6813      	ldr	r3, [r2, #0]
  400b0e:	4909      	ldr	r1, [pc, #36]	; (400b34 <SystemCoreClockUpdate+0x108>)
  400b10:	fba1 1303 	umull	r1, r3, r1, r3
  400b14:	085b      	lsrs	r3, r3, #1
  400b16:	6013      	str	r3, [r2, #0]
  400b18:	4770      	bx	lr
  400b1a:	bf00      	nop
  400b1c:	400e0600 	.word	0x400e0600
  400b20:	2040000c 	.word	0x2040000c
  400b24:	400e1810 	.word	0x400e1810
  400b28:	00b71b00 	.word	0x00b71b00
  400b2c:	003d0900 	.word	0x003d0900
  400b30:	007a1200 	.word	0x007a1200
  400b34:	aaaaaaab 	.word	0xaaaaaaab

00400b38 <system_init_flash>:
 * Initialize flash.
 */
void system_init_flash( uint32_t ul_clk )
{
  /* Set FWS for embedded Flash access according to operating frequency */
  if ( ul_clk < CHIP_FREQ_FWS_0 )
  400b38:	4b16      	ldr	r3, [pc, #88]	; (400b94 <system_init_flash+0x5c>)
  400b3a:	4298      	cmp	r0, r3
  400b3c:	d913      	bls.n	400b66 <system_init_flash+0x2e>
  {
    EFC->EEFC_FMR = EEFC_FMR_FWS(0)|EEFC_FMR_CLOE;
  }
  else
  {
    if (ul_clk < CHIP_FREQ_FWS_1)
  400b3e:	4b16      	ldr	r3, [pc, #88]	; (400b98 <system_init_flash+0x60>)
  400b40:	4298      	cmp	r0, r3
  400b42:	d915      	bls.n	400b70 <system_init_flash+0x38>
    {
      EFC->EEFC_FMR = EEFC_FMR_FWS(1)|EEFC_FMR_CLOE;
    }
    else
    {
      if (ul_clk < CHIP_FREQ_FWS_2)
  400b44:	4b15      	ldr	r3, [pc, #84]	; (400b9c <system_init_flash+0x64>)
  400b46:	4298      	cmp	r0, r3
  400b48:	d916      	bls.n	400b78 <system_init_flash+0x40>
      {
        EFC->EEFC_FMR = EEFC_FMR_FWS(2)|EEFC_FMR_CLOE;
      }
      else
      {
        if ( ul_clk < CHIP_FREQ_FWS_3 )
  400b4a:	4b15      	ldr	r3, [pc, #84]	; (400ba0 <system_init_flash+0x68>)
  400b4c:	4298      	cmp	r0, r3
  400b4e:	d917      	bls.n	400b80 <system_init_flash+0x48>
        {
          EFC->EEFC_FMR = EEFC_FMR_FWS(3)|EEFC_FMR_CLOE;
        }
        else
        {
          if ( ul_clk < CHIP_FREQ_FWS_4 )
  400b50:	4b14      	ldr	r3, [pc, #80]	; (400ba4 <system_init_flash+0x6c>)
  400b52:	4298      	cmp	r0, r3
  400b54:	d918      	bls.n	400b88 <system_init_flash+0x50>
          {
            EFC->EEFC_FMR = EEFC_FMR_FWS(4)|EEFC_FMR_CLOE;
          }
          else
          {
            if ( ul_clk < CHIP_FREQ_FWS_5 )
  400b56:	4b14      	ldr	r3, [pc, #80]	; (400ba8 <system_init_flash+0x70>)
  400b58:	4298      	cmp	r0, r3
            {
              EFC->EEFC_FMR = EEFC_FMR_FWS(5)|EEFC_FMR_CLOE;
  400b5a:	bf94      	ite	ls
  400b5c:	4a13      	ldrls	r2, [pc, #76]	; (400bac <system_init_flash+0x74>)
            }
            else
            {
              EFC->EEFC_FMR = EEFC_FMR_FWS(6)|EEFC_FMR_CLOE;
  400b5e:	4a14      	ldrhi	r2, [pc, #80]	; (400bb0 <system_init_flash+0x78>)
  400b60:	4b14      	ldr	r3, [pc, #80]	; (400bb4 <system_init_flash+0x7c>)
  400b62:	601a      	str	r2, [r3, #0]
  400b64:	4770      	bx	lr
    EFC->EEFC_FMR = EEFC_FMR_FWS(0)|EEFC_FMR_CLOE;
  400b66:	f04f 6280 	mov.w	r2, #67108864	; 0x4000000
  400b6a:	4b12      	ldr	r3, [pc, #72]	; (400bb4 <system_init_flash+0x7c>)
  400b6c:	601a      	str	r2, [r3, #0]
  400b6e:	4770      	bx	lr
      EFC->EEFC_FMR = EEFC_FMR_FWS(1)|EEFC_FMR_CLOE;
  400b70:	4a11      	ldr	r2, [pc, #68]	; (400bb8 <system_init_flash+0x80>)
  400b72:	4b10      	ldr	r3, [pc, #64]	; (400bb4 <system_init_flash+0x7c>)
  400b74:	601a      	str	r2, [r3, #0]
  400b76:	4770      	bx	lr
        EFC->EEFC_FMR = EEFC_FMR_FWS(2)|EEFC_FMR_CLOE;
  400b78:	4a10      	ldr	r2, [pc, #64]	; (400bbc <system_init_flash+0x84>)
  400b7a:	4b0e      	ldr	r3, [pc, #56]	; (400bb4 <system_init_flash+0x7c>)
  400b7c:	601a      	str	r2, [r3, #0]
  400b7e:	4770      	bx	lr
          EFC->EEFC_FMR = EEFC_FMR_FWS(3)|EEFC_FMR_CLOE;
  400b80:	4a0f      	ldr	r2, [pc, #60]	; (400bc0 <system_init_flash+0x88>)
  400b82:	4b0c      	ldr	r3, [pc, #48]	; (400bb4 <system_init_flash+0x7c>)
  400b84:	601a      	str	r2, [r3, #0]
  400b86:	4770      	bx	lr
            EFC->EEFC_FMR = EEFC_FMR_FWS(4)|EEFC_FMR_CLOE;
  400b88:	f04f 2204 	mov.w	r2, #67109888	; 0x4000400
  400b8c:	4b09      	ldr	r3, [pc, #36]	; (400bb4 <system_init_flash+0x7c>)
  400b8e:	601a      	str	r2, [r3, #0]
  400b90:	4770      	bx	lr
  400b92:	bf00      	nop
  400b94:	015ef3bf 	.word	0x015ef3bf
  400b98:	02bde77f 	.word	0x02bde77f
  400b9c:	041cdb3f 	.word	0x041cdb3f
  400ba0:	057bceff 	.word	0x057bceff
  400ba4:	06dac2bf 	.word	0x06dac2bf
  400ba8:	0839b67f 	.word	0x0839b67f
  400bac:	04000500 	.word	0x04000500
  400bb0:	04000600 	.word	0x04000600
  400bb4:	400e0c00 	.word	0x400e0c00
  400bb8:	04000100 	.word	0x04000100
  400bbc:	04000200 	.word	0x04000200
  400bc0:	04000300 	.word	0x04000300

00400bc4 <_sbrk>:
{
	static unsigned char *heap = NULL;
	unsigned char *prev_heap;
	int ramend = (int)&__ram_end__;

	if (heap == NULL) {
  400bc4:	4b0a      	ldr	r3, [pc, #40]	; (400bf0 <_sbrk+0x2c>)
  400bc6:	681b      	ldr	r3, [r3, #0]
  400bc8:	b153      	cbz	r3, 400be0 <_sbrk+0x1c>
		heap = (unsigned char *)&_end;
	}
	prev_heap = heap;
  400bca:	4b09      	ldr	r3, [pc, #36]	; (400bf0 <_sbrk+0x2c>)
  400bcc:	681b      	ldr	r3, [r3, #0]

	if (((int)prev_heap + incr) > ramend) {
  400bce:	181a      	adds	r2, r3, r0
  400bd0:	4908      	ldr	r1, [pc, #32]	; (400bf4 <_sbrk+0x30>)
  400bd2:	4291      	cmp	r1, r2
  400bd4:	db08      	blt.n	400be8 <_sbrk+0x24>
		return (caddr_t) -1;	
	}

	heap += incr;
  400bd6:	4610      	mov	r0, r2
  400bd8:	4a05      	ldr	r2, [pc, #20]	; (400bf0 <_sbrk+0x2c>)
  400bda:	6010      	str	r0, [r2, #0]

	return (caddr_t) prev_heap;
  400bdc:	4618      	mov	r0, r3
  400bde:	4770      	bx	lr
		heap = (unsigned char *)&_end;
  400be0:	4a05      	ldr	r2, [pc, #20]	; (400bf8 <_sbrk+0x34>)
  400be2:	4b03      	ldr	r3, [pc, #12]	; (400bf0 <_sbrk+0x2c>)
  400be4:	601a      	str	r2, [r3, #0]
  400be6:	e7f0      	b.n	400bca <_sbrk+0x6>
		return (caddr_t) -1;	
  400be8:	f04f 30ff 	mov.w	r0, #4294967295
}
  400bec:	4770      	bx	lr
  400bee:	bf00      	nop
  400bf0:	20400a50 	.word	0x20400a50
  400bf4:	2045fffc 	.word	0x2045fffc
  400bf8:	20402d08 	.word	0x20402d08

00400bfc <_close>:
}

extern int _close(int file)
{
	return -1;
}
  400bfc:	f04f 30ff 	mov.w	r0, #4294967295
  400c00:	4770      	bx	lr

00400c02 <_fstat>:

extern int _fstat(int file, struct stat *st)
{
	st->st_mode = S_IFCHR;
  400c02:	f44f 5300 	mov.w	r3, #8192	; 0x2000
  400c06:	604b      	str	r3, [r1, #4]

	return 0;
}
  400c08:	2000      	movs	r0, #0
  400c0a:	4770      	bx	lr

00400c0c <_isatty>:

extern int _isatty(int file)
{
	return 1;
}
  400c0c:	2001      	movs	r0, #1
  400c0e:	4770      	bx	lr

00400c10 <_lseek>:

extern int _lseek(int file, int ptr, int dir)
{
	return 0;
}
  400c10:	2000      	movs	r0, #0
  400c12:	4770      	bx	lr

00400c14 <spi_master_transfer>:

	uint8_t *p_buffer;

	p_buffer = p_buf;

	for (i = 0; i < size; i++) {
  400c14:	b309      	cbz	r1, 400c5a <spi_master_transfer+0x46>
{
  400c16:	e92d 43f0 	stmdb	sp!, {r4, r5, r6, r7, r8, r9, lr}
  400c1a:	b083      	sub	sp, #12
  400c1c:	4688      	mov	r8, r1
  400c1e:	4605      	mov	r5, r0
  400c20:	4480      	add	r8, r0
		spi_write(SPI_MASTER_BASE, p_buffer[i], 0, 0);
  400c22:	4c0e      	ldr	r4, [pc, #56]	; (400c5c <spi_master_transfer+0x48>)
  400c24:	f8df 9040 	ldr.w	r9, [pc, #64]	; 400c68 <spi_master_transfer+0x54>
		/* Wait transfer done. */
		while ((spi_read_status(SPI_MASTER_BASE) & SPI_SR_RDRF) == 0);
		spi_read(SPI_MASTER_BASE, &data, &uc_pcs);
  400c28:	4e0d      	ldr	r6, [pc, #52]	; (400c60 <spi_master_transfer+0x4c>)
  400c2a:	462f      	mov	r7, r5
		spi_write(SPI_MASTER_BASE, p_buffer[i], 0, 0);
  400c2c:	2300      	movs	r3, #0
  400c2e:	461a      	mov	r2, r3
  400c30:	7829      	ldrb	r1, [r5, #0]
  400c32:	4620      	mov	r0, r4
  400c34:	47c8      	blx	r9
 *
 * \return SPI status register value.
 */
static inline uint32_t spi_read_status(Spi *p_spi)
{
	return p_spi->SPI_SR;
  400c36:	6923      	ldr	r3, [r4, #16]
		while ((spi_read_status(SPI_MASTER_BASE) & SPI_SR_RDRF) == 0);
  400c38:	f013 0f01 	tst.w	r3, #1
  400c3c:	d0fb      	beq.n	400c36 <spi_master_transfer+0x22>
		spi_read(SPI_MASTER_BASE, &data, &uc_pcs);
  400c3e:	f10d 0207 	add.w	r2, sp, #7
  400c42:	4631      	mov	r1, r6
  400c44:	4620      	mov	r0, r4
  400c46:	4b07      	ldr	r3, [pc, #28]	; (400c64 <spi_master_transfer+0x50>)
  400c48:	4798      	blx	r3
		p_buffer[i] = data;
  400c4a:	8833      	ldrh	r3, [r6, #0]
  400c4c:	703b      	strb	r3, [r7, #0]
  400c4e:	3501      	adds	r5, #1
	for (i = 0; i < size; i++) {
  400c50:	4545      	cmp	r5, r8
  400c52:	d1ea      	bne.n	400c2a <spi_master_transfer+0x16>
	}
}
  400c54:	b003      	add	sp, #12
  400c56:	e8bd 83f0 	ldmia.w	sp!, {r4, r5, r6, r7, r8, r9, pc}
  400c5a:	4770      	bx	lr
  400c5c:	40008000 	.word	0x40008000
  400c60:	20400a54 	.word	0x20400a54
  400c64:	004003b7 	.word	0x004003b7
  400c68:	004003e7 	.word	0x004003e7

00400c6c <usart_serial_getchar>:
 * \param p_usart   Base address of the USART instance.
 * \param data   Data to read
 *
 */
static inline void usart_serial_getchar(usart_if p_usart, uint8_t *data)
{
  400c6c:	b5f0      	push	{r4, r5, r6, r7, lr}
  400c6e:	b083      	sub	sp, #12
  400c70:	4605      	mov	r5, r0
  400c72:	460c      	mov	r4, r1
	uint32_t val = 0;
  400c74:	2300      	movs	r3, #0
  400c76:	9301      	str	r3, [sp, #4]
	if (UART == (Uart*)p_usart) {
		while (uart_read((Uart*)p_usart, data));
	}
#else
# ifdef UART0
	if (UART0 == (Uart*)p_usart) {
  400c78:	4b2a      	ldr	r3, [pc, #168]	; (400d24 <usart_serial_getchar+0xb8>)
  400c7a:	4298      	cmp	r0, r3
  400c7c:	d013      	beq.n	400ca6 <usart_serial_getchar+0x3a>
		while (uart_read((Uart*)p_usart, data));
	}
# endif
# ifdef UART1
	if (UART1 == (Uart*)p_usart) {
  400c7e:	4b2a      	ldr	r3, [pc, #168]	; (400d28 <usart_serial_getchar+0xbc>)
  400c80:	4298      	cmp	r0, r3
  400c82:	d018      	beq.n	400cb6 <usart_serial_getchar+0x4a>
		while (uart_read((Uart*)p_usart, data));
	}
# endif
# ifdef UART2
	if (UART2 == (Uart*)p_usart) {
  400c84:	4b29      	ldr	r3, [pc, #164]	; (400d2c <usart_serial_getchar+0xc0>)
  400c86:	4298      	cmp	r0, r3
  400c88:	d01d      	beq.n	400cc6 <usart_serial_getchar+0x5a>
		while (uart_read((Uart*)p_usart, data));
	}
# endif
# ifdef UART3
	if (UART3 == (Uart*)p_usart) {
  400c8a:	4b29      	ldr	r3, [pc, #164]	; (400d30 <usart_serial_getchar+0xc4>)
  400c8c:	429d      	cmp	r5, r3
  400c8e:	d022      	beq.n	400cd6 <usart_serial_getchar+0x6a>
		while (usart_read(p_usart, &val));
		*data = (uint8_t)(val & 0xFF);
	}
#else
# ifdef USART0
	if (USART0 == p_usart) {
  400c90:	4b28      	ldr	r3, [pc, #160]	; (400d34 <usart_serial_getchar+0xc8>)
  400c92:	429d      	cmp	r5, r3
  400c94:	d027      	beq.n	400ce6 <usart_serial_getchar+0x7a>
		while (usart_read(p_usart, &val));
		*data = (uint8_t)(val & 0xFF);
	}
# endif
# ifdef USART1
	if (USART1 == p_usart) {
  400c96:	4b28      	ldr	r3, [pc, #160]	; (400d38 <usart_serial_getchar+0xcc>)
  400c98:	429d      	cmp	r5, r3
  400c9a:	d02e      	beq.n	400cfa <usart_serial_getchar+0x8e>
		while (usart_read(p_usart, &val));
		*data = (uint8_t)(val & 0xFF);
	}
# endif
# ifdef USART2
	if (USART2 == p_usart) {
  400c9c:	4b27      	ldr	r3, [pc, #156]	; (400d3c <usart_serial_getchar+0xd0>)
  400c9e:	429d      	cmp	r5, r3
  400ca0:	d035      	beq.n	400d0e <usart_serial_getchar+0xa2>
		*data = (uint8_t)(val & 0xFF);
	}
# endif
#endif /* ifdef USART */

}
  400ca2:	b003      	add	sp, #12
  400ca4:	bdf0      	pop	{r4, r5, r6, r7, pc}
		while (uart_read((Uart*)p_usart, data));
  400ca6:	461f      	mov	r7, r3
  400ca8:	4e25      	ldr	r6, [pc, #148]	; (400d40 <usart_serial_getchar+0xd4>)
  400caa:	4621      	mov	r1, r4
  400cac:	4638      	mov	r0, r7
  400cae:	47b0      	blx	r6
  400cb0:	2800      	cmp	r0, #0
  400cb2:	d1fa      	bne.n	400caa <usart_serial_getchar+0x3e>
  400cb4:	e7e9      	b.n	400c8a <usart_serial_getchar+0x1e>
		while (uart_read((Uart*)p_usart, data));
  400cb6:	461f      	mov	r7, r3
  400cb8:	4e21      	ldr	r6, [pc, #132]	; (400d40 <usart_serial_getchar+0xd4>)
  400cba:	4621      	mov	r1, r4
  400cbc:	4638      	mov	r0, r7
  400cbe:	47b0      	blx	r6
  400cc0:	2800      	cmp	r0, #0
  400cc2:	d1fa      	bne.n	400cba <usart_serial_getchar+0x4e>
  400cc4:	e7e4      	b.n	400c90 <usart_serial_getchar+0x24>
		while (uart_read((Uart*)p_usart, data));
  400cc6:	461f      	mov	r7, r3
  400cc8:	4e1d      	ldr	r6, [pc, #116]	; (400d40 <usart_serial_getchar+0xd4>)
  400cca:	4621      	mov	r1, r4
  400ccc:	4638      	mov	r0, r7
  400cce:	47b0      	blx	r6
  400cd0:	2800      	cmp	r0, #0
  400cd2:	d1fa      	bne.n	400cca <usart_serial_getchar+0x5e>
  400cd4:	e7df      	b.n	400c96 <usart_serial_getchar+0x2a>
		while (uart_read((Uart*)p_usart, data));
  400cd6:	461f      	mov	r7, r3
  400cd8:	4e19      	ldr	r6, [pc, #100]	; (400d40 <usart_serial_getchar+0xd4>)
  400cda:	4621      	mov	r1, r4
  400cdc:	4638      	mov	r0, r7
  400cde:	47b0      	blx	r6
  400ce0:	2800      	cmp	r0, #0
  400ce2:	d1fa      	bne.n	400cda <usart_serial_getchar+0x6e>
  400ce4:	e7da      	b.n	400c9c <usart_serial_getchar+0x30>
		while (usart_read(p_usart, &val));
  400ce6:	461e      	mov	r6, r3
  400ce8:	4d16      	ldr	r5, [pc, #88]	; (400d44 <usart_serial_getchar+0xd8>)
  400cea:	a901      	add	r1, sp, #4
  400cec:	4630      	mov	r0, r6
  400cee:	47a8      	blx	r5
  400cf0:	2800      	cmp	r0, #0
  400cf2:	d1fa      	bne.n	400cea <usart_serial_getchar+0x7e>
		*data = (uint8_t)(val & 0xFF);
  400cf4:	9b01      	ldr	r3, [sp, #4]
  400cf6:	7023      	strb	r3, [r4, #0]
  400cf8:	e7d3      	b.n	400ca2 <usart_serial_getchar+0x36>
		while (usart_read(p_usart, &val));
  400cfa:	461e      	mov	r6, r3
  400cfc:	4d11      	ldr	r5, [pc, #68]	; (400d44 <usart_serial_getchar+0xd8>)
  400cfe:	a901      	add	r1, sp, #4
  400d00:	4630      	mov	r0, r6
  400d02:	47a8      	blx	r5
  400d04:	2800      	cmp	r0, #0
  400d06:	d1fa      	bne.n	400cfe <usart_serial_getchar+0x92>
		*data = (uint8_t)(val & 0xFF);
  400d08:	9b01      	ldr	r3, [sp, #4]
  400d0a:	7023      	strb	r3, [r4, #0]
  400d0c:	e7c9      	b.n	400ca2 <usart_serial_getchar+0x36>
		while (usart_read(p_usart, &val));
  400d0e:	461e      	mov	r6, r3
  400d10:	4d0c      	ldr	r5, [pc, #48]	; (400d44 <usart_serial_getchar+0xd8>)
  400d12:	a901      	add	r1, sp, #4
  400d14:	4630      	mov	r0, r6
  400d16:	47a8      	blx	r5
  400d18:	2800      	cmp	r0, #0
  400d1a:	d1fa      	bne.n	400d12 <usart_serial_getchar+0xa6>
		*data = (uint8_t)(val & 0xFF);
  400d1c:	9b01      	ldr	r3, [sp, #4]
  400d1e:	7023      	strb	r3, [r4, #0]
}
  400d20:	e7bf      	b.n	400ca2 <usart_serial_getchar+0x36>
  400d22:	bf00      	nop
  400d24:	400e0800 	.word	0x400e0800
  400d28:	400e0a00 	.word	0x400e0a00
  400d2c:	400e1a00 	.word	0x400e1a00
  400d30:	400e1c00 	.word	0x400e1c00
  400d34:	40024000 	.word	0x40024000
  400d38:	40028000 	.word	0x40028000
  400d3c:	4002c000 	.word	0x4002c000
  400d40:	004004c3 	.word	0x004004c3
  400d44:	0040030b 	.word	0x0040030b

00400d48 <usart_serial_putchar>:
{
  400d48:	b570      	push	{r4, r5, r6, lr}
  400d4a:	460c      	mov	r4, r1
	if (UART0 == (Uart*)p_usart) {
  400d4c:	4b2a      	ldr	r3, [pc, #168]	; (400df8 <usart_serial_putchar+0xb0>)
  400d4e:	4298      	cmp	r0, r3
  400d50:	d013      	beq.n	400d7a <usart_serial_putchar+0x32>
	if (UART1 == (Uart*)p_usart) {
  400d52:	4b2a      	ldr	r3, [pc, #168]	; (400dfc <usart_serial_putchar+0xb4>)
  400d54:	4298      	cmp	r0, r3
  400d56:	d019      	beq.n	400d8c <usart_serial_putchar+0x44>
	if (UART2 == (Uart*)p_usart) {
  400d58:	4b29      	ldr	r3, [pc, #164]	; (400e00 <usart_serial_putchar+0xb8>)
  400d5a:	4298      	cmp	r0, r3
  400d5c:	d01f      	beq.n	400d9e <usart_serial_putchar+0x56>
	if (UART3 == (Uart*)p_usart) {
  400d5e:	4b29      	ldr	r3, [pc, #164]	; (400e04 <usart_serial_putchar+0xbc>)
  400d60:	4298      	cmp	r0, r3
  400d62:	d025      	beq.n	400db0 <usart_serial_putchar+0x68>
	if (USART0 == p_usart) {
  400d64:	4b28      	ldr	r3, [pc, #160]	; (400e08 <usart_serial_putchar+0xc0>)
  400d66:	4298      	cmp	r0, r3
  400d68:	d02b      	beq.n	400dc2 <usart_serial_putchar+0x7a>
	if (USART1 == p_usart) {
  400d6a:	4b28      	ldr	r3, [pc, #160]	; (400e0c <usart_serial_putchar+0xc4>)
  400d6c:	4298      	cmp	r0, r3
  400d6e:	d031      	beq.n	400dd4 <usart_serial_putchar+0x8c>
	if (USART2 == p_usart) {
  400d70:	4b27      	ldr	r3, [pc, #156]	; (400e10 <usart_serial_putchar+0xc8>)
  400d72:	4298      	cmp	r0, r3
  400d74:	d037      	beq.n	400de6 <usart_serial_putchar+0x9e>
	return 0;
  400d76:	2000      	movs	r0, #0
}
  400d78:	bd70      	pop	{r4, r5, r6, pc}
		while (uart_write((Uart*)p_usart, c)!=0);
  400d7a:	461e      	mov	r6, r3
  400d7c:	4d25      	ldr	r5, [pc, #148]	; (400e14 <usart_serial_putchar+0xcc>)
  400d7e:	4621      	mov	r1, r4
  400d80:	4630      	mov	r0, r6
  400d82:	47a8      	blx	r5
  400d84:	2800      	cmp	r0, #0
  400d86:	d1fa      	bne.n	400d7e <usart_serial_putchar+0x36>
		return 1;
  400d88:	2001      	movs	r0, #1
  400d8a:	bd70      	pop	{r4, r5, r6, pc}
		while (uart_write((Uart*)p_usart, c)!=0);
  400d8c:	461e      	mov	r6, r3
  400d8e:	4d21      	ldr	r5, [pc, #132]	; (400e14 <usart_serial_putchar+0xcc>)
  400d90:	4621      	mov	r1, r4
  400d92:	4630      	mov	r0, r6
  400d94:	47a8      	blx	r5
  400d96:	2800      	cmp	r0, #0
  400d98:	d1fa      	bne.n	400d90 <usart_serial_putchar+0x48>
		return 1;
  400d9a:	2001      	movs	r0, #1
  400d9c:	bd70      	pop	{r4, r5, r6, pc}
		while (uart_write((Uart*)p_usart, c)!=0);
  400d9e:	461e      	mov	r6, r3
  400da0:	4d1c      	ldr	r5, [pc, #112]	; (400e14 <usart_serial_putchar+0xcc>)
  400da2:	4621      	mov	r1, r4
  400da4:	4630      	mov	r0, r6
  400da6:	47a8      	blx	r5
  400da8:	2800      	cmp	r0, #0
  400daa:	d1fa      	bne.n	400da2 <usart_serial_putchar+0x5a>
		return 1;
  400dac:	2001      	movs	r0, #1
  400dae:	bd70      	pop	{r4, r5, r6, pc}
		while (uart_write((Uart*)p_usart, c)!=0);
  400db0:	461e      	mov	r6, r3
  400db2:	4d18      	ldr	r5, [pc, #96]	; (400e14 <usart_serial_putchar+0xcc>)
  400db4:	4621      	mov	r1, r4
  400db6:	4630      	mov	r0, r6
  400db8:	47a8      	blx	r5
  400dba:	2800      	cmp	r0, #0
  400dbc:	d1fa      	bne.n	400db4 <usart_serial_putchar+0x6c>
		return 1;
  400dbe:	2001      	movs	r0, #1
  400dc0:	bd70      	pop	{r4, r5, r6, pc}
		while (usart_write(p_usart, c)!=0);
  400dc2:	461e      	mov	r6, r3
  400dc4:	4d14      	ldr	r5, [pc, #80]	; (400e18 <usart_serial_putchar+0xd0>)
  400dc6:	4621      	mov	r1, r4
  400dc8:	4630      	mov	r0, r6
  400dca:	47a8      	blx	r5
  400dcc:	2800      	cmp	r0, #0
  400dce:	d1fa      	bne.n	400dc6 <usart_serial_putchar+0x7e>
		return 1;
  400dd0:	2001      	movs	r0, #1
  400dd2:	bd70      	pop	{r4, r5, r6, pc}
		while (usart_write(p_usart, c)!=0);
  400dd4:	461e      	mov	r6, r3
  400dd6:	4d10      	ldr	r5, [pc, #64]	; (400e18 <usart_serial_putchar+0xd0>)
  400dd8:	4621      	mov	r1, r4
  400dda:	4630      	mov	r0, r6
  400ddc:	47a8      	blx	r5
  400dde:	2800      	cmp	r0, #0
  400de0:	d1fa      	bne.n	400dd8 <usart_serial_putchar+0x90>
		return 1;
  400de2:	2001      	movs	r0, #1
  400de4:	bd70      	pop	{r4, r5, r6, pc}
		while (usart_write(p_usart, c)!=0);
  400de6:	461e      	mov	r6, r3
  400de8:	4d0b      	ldr	r5, [pc, #44]	; (400e18 <usart_serial_putchar+0xd0>)
  400dea:	4621      	mov	r1, r4
  400dec:	4630      	mov	r0, r6
  400dee:	47a8      	blx	r5
  400df0:	2800      	cmp	r0, #0
  400df2:	d1fa      	bne.n	400dea <usart_serial_putchar+0xa2>
		return 1;
  400df4:	2001      	movs	r0, #1
  400df6:	bd70      	pop	{r4, r5, r6, pc}
  400df8:	400e0800 	.word	0x400e0800
  400dfc:	400e0a00 	.word	0x400e0a00
  400e00:	400e1a00 	.word	0x400e1a00
  400e04:	400e1c00 	.word	0x400e1c00
  400e08:	40024000 	.word	0x40024000
  400e0c:	40028000 	.word	0x40028000
  400e10:	4002c000 	.word	0x4002c000
  400e14:	004004b1 	.word	0x004004b1
  400e18:	004002f5 	.word	0x004002f5

00400e1c <nRF24_readRegister>:
 * 
 * \param reg register to read
 * \return data register
 */
uint8_t nRF24_readRegister(uint8_t reg)
{
  400e1c:	b500      	push	{lr}
  400e1e:	b083      	sub	sp, #12
	uint8_t cmd[2] = {R_REGISTER | (REGISTER_MASK & reg), 0xFF};
  400e20:	f000 001f 	and.w	r0, r0, #31
  400e24:	f88d 0004 	strb.w	r0, [sp, #4]
  400e28:	23ff      	movs	r3, #255	; 0xff
  400e2a:	f88d 3005 	strb.w	r3, [sp, #5]
	
	spi_master_transfer(&cmd, sizeof(cmd));
  400e2e:	2102      	movs	r1, #2
  400e30:	a801      	add	r0, sp, #4
  400e32:	4b03      	ldr	r3, [pc, #12]	; (400e40 <nRF24_readRegister+0x24>)
  400e34:	4798      	blx	r3
	/** contents of cmd after transfer:
	 * [0] contains STATUS register
	 * [1] contains requested register
	*/
	return cmd[1]; 
}
  400e36:	f89d 0005 	ldrb.w	r0, [sp, #5]
  400e3a:	b003      	add	sp, #12
  400e3c:	f85d fb04 	ldr.w	pc, [sp], #4
  400e40:	00400c15 	.word	0x00400c15

00400e44 <nRF24_writeRegister>:
 * \param reg register to write
 * \param value to write
 * \return STATUS register 
 */
uint8_t nRF24_writeRegister(uint8_t reg, uint8_t val)
{
  400e44:	b500      	push	{lr}
  400e46:	b083      	sub	sp, #12
	uint8_t p_buf[2];
	
	p_buf[0] = (W_REGISTER | (REGISTER_MASK & reg));
  400e48:	f000 001f 	and.w	r0, r0, #31
  400e4c:	f040 0020 	orr.w	r0, r0, #32
  400e50:	f88d 0004 	strb.w	r0, [sp, #4]
	p_buf[1] = val;
  400e54:	f88d 1005 	strb.w	r1, [sp, #5]
	
	
	spi_master_transfer(p_buf, sizeof(p_buf));
  400e58:	2102      	movs	r1, #2
  400e5a:	a801      	add	r0, sp, #4
  400e5c:	4b03      	ldr	r3, [pc, #12]	; (400e6c <nRF24_writeRegister+0x28>)
  400e5e:	4798      	blx	r3
	/** contents of p_buf
	* [0] Status register
	* [1] unknown data
	*/
	return p_buf[0];
}
  400e60:	f89d 0004 	ldrb.w	r0, [sp, #4]
  400e64:	b003      	add	sp, #12
  400e66:	f85d fb04 	ldr.w	pc, [sp], #4
  400e6a:	bf00      	nop
  400e6c:	00400c15 	.word	0x00400c15

00400e70 <nRF_writeRegister>:

uint8_t nRF_writeRegister(uint8_t reg, const uint8_t* buf, uint8_t length)
{
  400e70:	b5f8      	push	{r3, r4, r5, r6, r7, lr}
  400e72:	af00      	add	r7, sp, #0
	uint8_t p_buf[length+1];
  400e74:	1c56      	adds	r6, r2, #1
  400e76:	f102 0308 	add.w	r3, r2, #8
  400e7a:	f023 0307 	bic.w	r3, r3, #7
  400e7e:	ebad 0d03 	sub.w	sp, sp, r3
  400e82:	466d      	mov	r5, sp
	
	p_buf[0] = (W_REGISTER | (REGISTER_MASK & reg));
  400e84:	f000 001f 	and.w	r0, r0, #31
  400e88:	f040 0020 	orr.w	r0, r0, #32
  400e8c:	f88d 0000 	strb.w	r0, [sp]
	
	for (uint8_t i = 1; i< length; i++)
  400e90:	2a01      	cmp	r2, #1
  400e92:	d90a      	bls.n	400eaa <nRF_writeRegister+0x3a>
  400e94:	1e4b      	subs	r3, r1, #1
  400e96:	1c68      	adds	r0, r5, #1
  400e98:	3a02      	subs	r2, #2
  400e9a:	fa51 f482 	uxtab	r4, r1, r2
	{
		p_buf[i] = (*buf++);
  400e9e:	f813 2f01 	ldrb.w	r2, [r3, #1]!
  400ea2:	f800 2b01 	strb.w	r2, [r0], #1
	for (uint8_t i = 1; i< length; i++)
  400ea6:	42a3      	cmp	r3, r4
  400ea8:	d1f9      	bne.n	400e9e <nRF_writeRegister+0x2e>
	}
	spi_master_transfer(p_buf, sizeof(p_buf));
  400eaa:	4631      	mov	r1, r6
  400eac:	4628      	mov	r0, r5
  400eae:	4b02      	ldr	r3, [pc, #8]	; (400eb8 <nRF_writeRegister+0x48>)
  400eb0:	4798      	blx	r3
	
	return p_buf[0];
}
  400eb2:	7828      	ldrb	r0, [r5, #0]
  400eb4:	46bd      	mov	sp, r7
  400eb6:	bdf8      	pop	{r3, r4, r5, r6, r7, pc}
  400eb8:	00400c15 	.word	0x00400c15

00400ebc <nRF24_FlushRx>:
/**
 * \brief flush the RX buffer of the nRF24L01 transceiver
 * \return STATUS
 */
uint8_t nRF24_FlushRx(void)
{
  400ebc:	b500      	push	{lr}
  400ebe:	b083      	sub	sp, #12
	uint8_t cmd;
	cmd = FLUSH_RX;
  400ec0:	a802      	add	r0, sp, #8
  400ec2:	23e2      	movs	r3, #226	; 0xe2
  400ec4:	f800 3d01 	strb.w	r3, [r0, #-1]!
	
	spi_master_transfer(&cmd, sizeof(cmd));
  400ec8:	2101      	movs	r1, #1
  400eca:	4b03      	ldr	r3, [pc, #12]	; (400ed8 <nRF24_FlushRx+0x1c>)
  400ecc:	4798      	blx	r3
	
	return cmd;
}
  400ece:	f89d 0007 	ldrb.w	r0, [sp, #7]
  400ed2:	b003      	add	sp, #12
  400ed4:	f85d fb04 	ldr.w	pc, [sp], #4
  400ed8:	00400c15 	.word	0x00400c15

00400edc <nRF24_FlushTx>:
/**
 * \brief flush the TX buffer of the nRF24L01 transceiver
 * \return STATUS
 */
uint8_t nRF24_FlushTx(void)
{
  400edc:	b500      	push	{lr}
  400ede:	b083      	sub	sp, #12
	uint8_t cmd;
	cmd = FLUSH_TX;
  400ee0:	a802      	add	r0, sp, #8
  400ee2:	23e1      	movs	r3, #225	; 0xe1
  400ee4:	f800 3d01 	strb.w	r3, [r0, #-1]!
	
	spi_master_transfer(&cmd, sizeof(cmd));
  400ee8:	2101      	movs	r1, #1
  400eea:	4b03      	ldr	r3, [pc, #12]	; (400ef8 <nRF24_FlushTx+0x1c>)
  400eec:	4798      	blx	r3
	return cmd;
}
  400eee:	f89d 0007 	ldrb.w	r0, [sp, #7]
  400ef2:	b003      	add	sp, #12
  400ef4:	f85d fb04 	ldr.w	pc, [sp], #4
  400ef8:	00400c15 	.word	0x00400c15

00400efc <nRF24_getStatus>:
/**
 * \brief Read the Status register of the nRF24L01 transceiver
 * \return STATUS
 */
uint8_t nRF24_getStatus(void)
{
  400efc:	b500      	push	{lr}
  400efe:	b083      	sub	sp, #12
	uint8_t cmd;
	cmd = RF24_NOP;
  400f00:	a802      	add	r0, sp, #8
  400f02:	23ff      	movs	r3, #255	; 0xff
  400f04:	f800 3d01 	strb.w	r3, [r0, #-1]!
	
	spi_master_transfer(&cmd, sizeof(cmd));
  400f08:	2101      	movs	r1, #1
  400f0a:	4b03      	ldr	r3, [pc, #12]	; (400f18 <nRF24_getStatus+0x1c>)
  400f0c:	4798      	blx	r3
	return cmd;
}
  400f0e:	f89d 0007 	ldrb.w	r0, [sp, #7]
  400f12:	b003      	add	sp, #12
  400f14:	f85d fb04 	ldr.w	pc, [sp], #4
  400f18:	00400c15 	.word	0x00400c15

00400f1c <nRF24_writePayload>:

uint8_t nRF24_writePayload(const void* buf, uint8_t data_len, const uint8_t writeType)
{
  400f1c:	b5f8      	push	{r3, r4, r5, r6, r7, lr}
  400f1e:	af00      	add	r7, sp, #0
  400f20:	4606      	mov	r6, r0
  400f22:	460c      	mov	r4, r1
	uint8_t s_buff[data_len + 1];
  400f24:	3101      	adds	r1, #1
  400f26:	f104 0308 	add.w	r3, r4, #8
  400f2a:	f023 0307 	bic.w	r3, r3, #7
  400f2e:	ebad 0d03 	sub.w	sp, sp, r3
  400f32:	466d      	mov	r5, sp
	uint8_t* current = (uint8_t*) buf;
	
	s_buff[0] = writeType;
  400f34:	f88d 2000 	strb.w	r2, [sp]
	for (uint8_t i = 1; i< data_len+1; i++)
  400f38:	2901      	cmp	r1, #1
  400f3a:	dd0a      	ble.n	400f52 <nRF24_writePayload+0x36>
  400f3c:	2201      	movs	r2, #1
  400f3e:	4613      	mov	r3, r2
	{
		s_buff[i] = current[i-1];
  400f40:	18f0      	adds	r0, r6, r3
  400f42:	f810 0c01 	ldrb.w	r0, [r0, #-1]
  400f46:	54a8      	strb	r0, [r5, r2]
	for (uint8_t i = 1; i< data_len+1; i++)
  400f48:	3301      	adds	r3, #1
  400f4a:	b2db      	uxtb	r3, r3
  400f4c:	461a      	mov	r2, r3
  400f4e:	4299      	cmp	r1, r3
  400f50:	dcf6      	bgt.n	400f40 <nRF24_writePayload+0x24>
	}
	
	spi_master_transfer(s_buff, sizeof(s_buff));
  400f52:	4628      	mov	r0, r5
  400f54:	4b08      	ldr	r3, [pc, #32]	; (400f78 <nRF24_writePayload+0x5c>)
  400f56:	4798      	blx	r3
	
	for (uint8_t i = 0; i< data_len; i++)
  400f58:	b154      	cbz	r4, 400f70 <nRF24_writePayload+0x54>
  400f5a:	1c6a      	adds	r2, r5, #1
  400f5c:	1e73      	subs	r3, r6, #1
  400f5e:	3c01      	subs	r4, #1
  400f60:	fa56 f684 	uxtab	r6, r6, r4
	{
		current[i] = s_buff[i+1];
  400f64:	f812 1b01 	ldrb.w	r1, [r2], #1
  400f68:	f803 1f01 	strb.w	r1, [r3, #1]!
	for (uint8_t i = 0; i< data_len; i++)
  400f6c:	42b3      	cmp	r3, r6
  400f6e:	d1f9      	bne.n	400f64 <nRF24_writePayload+0x48>
	}
	
	return s_buff[0];
}
  400f70:	7828      	ldrb	r0, [r5, #0]
  400f72:	46bd      	mov	sp, r7
  400f74:	bdf8      	pop	{r3, r4, r5, r6, r7, pc}
  400f76:	bf00      	nop
  400f78:	00400c15 	.word	0x00400c15

00400f7c <startFastWrite>:

void startFastWrite(const void* buf, uint8_t len, const bool multicast)
{
  400f7c:	b508      	push	{r3, lr}
	nRF24_writePayload(buf, len, multicast ? W_TX_PAYLOAD_NO_ACK : W_TX_PAYLOAD);
  400f7e:	2a00      	cmp	r2, #0
  400f80:	bf14      	ite	ne
  400f82:	22b0      	movne	r2, #176	; 0xb0
  400f84:	22a0      	moveq	r2, #160	; 0xa0
  400f86:	4b03      	ldr	r3, [pc, #12]	; (400f94 <startFastWrite+0x18>)
  400f88:	4798      	blx	r3
		base->PIO_SODR = arch_ioport_pin_to_mask(pin);
  400f8a:	f44f 7200 	mov.w	r2, #512	; 0x200
  400f8e:	4b02      	ldr	r3, [pc, #8]	; (400f98 <startFastWrite+0x1c>)
  400f90:	631a      	str	r2, [r3, #48]	; 0x30
  400f92:	bd08      	pop	{r3, pc}
  400f94:	00400f1d 	.word	0x00400f1d
  400f98:	400e1200 	.word	0x400e1200

00400f9c <nRFwrite>:
	ioport_set_pin_level(CE, 1);

}

bool nRFwrite(const void* buf, uint8_t len, const bool multicast)
{
  400f9c:	b510      	push	{r4, lr}
	startFastWrite(buf, len, multicast);
  400f9e:	4b0c      	ldr	r3, [pc, #48]	; (400fd0 <nRFwrite+0x34>)
  400fa0:	4798      	blx	r3
	while(!(nRF24_getStatus() & ((1<<TX_DS) | (1<<MAX_RT))));
  400fa2:	4c0c      	ldr	r4, [pc, #48]	; (400fd4 <nRFwrite+0x38>)
  400fa4:	47a0      	blx	r4
  400fa6:	f010 0f30 	tst.w	r0, #48	; 0x30
  400faa:	d0fb      	beq.n	400fa4 <nRFwrite+0x8>
		base->PIO_CODR = arch_ioport_pin_to_mask(pin);
  400fac:	f44f 7200 	mov.w	r2, #512	; 0x200
  400fb0:	4b09      	ldr	r3, [pc, #36]	; (400fd8 <nRFwrite+0x3c>)
  400fb2:	635a      	str	r2, [r3, #52]	; 0x34
	ioport_set_pin_level(CE, 0);
	uint8_t status = nRF24_writeRegister(NRF_STATUS, (1<<RX_DR) | (1<<RX_DR) | (1<<MAX_RT));
  400fb4:	2150      	movs	r1, #80	; 0x50
  400fb6:	2007      	movs	r0, #7
  400fb8:	4b08      	ldr	r3, [pc, #32]	; (400fdc <nRFwrite+0x40>)
  400fba:	4798      	blx	r3
	
	if(status & (1<<MAX_RT)){
  400fbc:	f010 0f10 	tst.w	r0, #16
  400fc0:	d101      	bne.n	400fc6 <nRFwrite+0x2a>
		nRF24_FlushTx();
		return 0;
	}
	return 1;
  400fc2:	2001      	movs	r0, #1
}
  400fc4:	bd10      	pop	{r4, pc}
		nRF24_FlushTx();
  400fc6:	4b06      	ldr	r3, [pc, #24]	; (400fe0 <nRFwrite+0x44>)
  400fc8:	4798      	blx	r3
		return 0;
  400fca:	2000      	movs	r0, #0
  400fcc:	bd10      	pop	{r4, pc}
  400fce:	bf00      	nop
  400fd0:	00400f7d 	.word	0x00400f7d
  400fd4:	00400efd 	.word	0x00400efd
  400fd8:	400e1200 	.word	0x400e1200
  400fdc:	00400e45 	.word	0x00400e45
  400fe0:	00400edd 	.word	0x00400edd

00400fe4 <nRF24_closeReadingPipe>:

void nRF24_closeReadingPipe(uint8_t pipe)
 {
  400fe4:	b510      	push	{r4, lr}
  400fe6:	4604      	mov	r4, r0
	 nRF24_writeRegister(EN_RXADDR, nRF24_readRegister(EN_RXADDR) & ~(1<< pipe_enable_s[pipe]));
  400fe8:	2002      	movs	r0, #2
  400fea:	4b06      	ldr	r3, [pc, #24]	; (401004 <nRF24_closeReadingPipe+0x20>)
  400fec:	4798      	blx	r3
  400fee:	4b06      	ldr	r3, [pc, #24]	; (401008 <nRF24_closeReadingPipe+0x24>)
  400ff0:	5d1b      	ldrb	r3, [r3, r4]
  400ff2:	2101      	movs	r1, #1
  400ff4:	4099      	lsls	r1, r3
  400ff6:	ea20 0101 	bic.w	r1, r0, r1
  400ffa:	b2c9      	uxtb	r1, r1
  400ffc:	2002      	movs	r0, #2
  400ffe:	4b03      	ldr	r3, [pc, #12]	; (40100c <nRF24_closeReadingPipe+0x28>)
  401000:	4798      	blx	r3
  401002:	bd10      	pop	{r4, pc}
  401004:	00400e1d 	.word	0x00400e1d
  401008:	004046e4 	.word	0x004046e4
  40100c:	00400e45 	.word	0x00400e45

00401010 <nRF24_setDataRate>:
{
	nRF24_writeRegister(SETUP_RETR, (delay & 0xF) << ARD | (count & 0xF) <<ARC );
}

bool nRF24_setDataRate(uint8_t speed)
{
  401010:	b510      	push	{r4, lr}
  401012:	4604      	mov	r4, r0
	bool result = false;
	uint8_t setup = nRF24_readRegister(RF_SETUP);
  401014:	2006      	movs	r0, #6
  401016:	4b0e      	ldr	r3, [pc, #56]	; (401050 <nRF24_setDataRate+0x40>)
  401018:	4798      	blx	r3
	
	if (speed == RF24_1MBPS)
  40101a:	b98c      	cbnz	r4, 401040 <nRF24_setDataRate+0x30>
	{
		setup &= setup & 0xF7;
  40101c:	f000 04f7 	and.w	r4, r0, #247	; 0xf7
		txDelay = 450;
  401020:	f44f 72e1 	mov.w	r2, #450	; 0x1c2
  401024:	4b0b      	ldr	r3, [pc, #44]	; (401054 <nRF24_setDataRate+0x44>)
  401026:	601a      	str	r2, [r3, #0]
	else
	{
		setup |= setup | 0x08;
		txDelay = 190;
	}
	nRF24_writeRegister(RF_SETUP, setup);
  401028:	4621      	mov	r1, r4
  40102a:	2006      	movs	r0, #6
  40102c:	4b0a      	ldr	r3, [pc, #40]	; (401058 <nRF24_setDataRate+0x48>)
  40102e:	4798      	blx	r3
	
	if(nRF24_readRegister(RF_SETUP) == setup)
  401030:	2006      	movs	r0, #6
  401032:	4b07      	ldr	r3, [pc, #28]	; (401050 <nRF24_setDataRate+0x40>)
  401034:	4798      	blx	r3
		result = true;
	
	return result;
}
  401036:	4284      	cmp	r4, r0
  401038:	bf14      	ite	ne
  40103a:	2000      	movne	r0, #0
  40103c:	2001      	moveq	r0, #1
  40103e:	bd10      	pop	{r4, pc}
		setup |= setup | 0x08;
  401040:	f040 0408 	orr.w	r4, r0, #8
  401044:	b2e4      	uxtb	r4, r4
		txDelay = 190;
  401046:	22be      	movs	r2, #190	; 0xbe
  401048:	4b02      	ldr	r3, [pc, #8]	; (401054 <nRF24_setDataRate+0x44>)
  40104a:	601a      	str	r2, [r3, #0]
  40104c:	e7ec      	b.n	401028 <nRF24_setDataRate+0x18>
  40104e:	bf00      	nop
  401050:	00400e1d 	.word	0x00400e1d
  401054:	20400ad8 	.word	0x20400ad8
  401058:	00400e45 	.word	0x00400e45

0040105c <nRF24_setCRCLength>:

void nRF24_setCRCLength(rf24_crclength_e length)
{
  40105c:	b510      	push	{r4, lr}
  40105e:	4604      	mov	r4, r0
	uint8_t config = nRF24_readRegister(NRF_CONFIG) & ~((1<<CRCO) | (1<<EN_CRC));
  401060:	2000      	movs	r0, #0
  401062:	4b07      	ldr	r3, [pc, #28]	; (401080 <nRF24_setCRCLength+0x24>)
  401064:	4798      	blx	r3
  401066:	f000 01f3 	and.w	r1, r0, #243	; 0xf3
	
	if (length == RF24_CRC_DISABLED){
  40106a:	b12c      	cbz	r4, 401078 <nRF24_setCRCLength+0x1c>
		// do nothing we turned it off above
	} 
	else if (length == RF24_CRC_8){
  40106c:	2c01      	cmp	r4, #1
		config |= (1<<EN_CRC);
  40106e:	bf0c      	ite	eq
  401070:	f041 0108 	orreq.w	r1, r1, #8
	} 
	else
	{
		config |= (1<<EN_CRC);
		config |= (1<<CRCO);
  401074:	f041 010c 	orrne.w	r1, r1, #12
	}
	nRF24_writeRegister(NRF_CONFIG, config);
  401078:	2000      	movs	r0, #0
  40107a:	4b02      	ldr	r3, [pc, #8]	; (401084 <nRF24_setCRCLength+0x28>)
  40107c:	4798      	blx	r3
  40107e:	bd10      	pop	{r4, pc}
  401080:	00400e1d 	.word	0x00400e1d
  401084:	00400e45 	.word	0x00400e45

00401088 <toggle_features>:
}

void toggle_features(void)
{
  401088:	b500      	push	{lr}
  40108a:	b083      	sub	sp, #12
	uint8_t config[2] = {ACTIVATE, 0x73};
  40108c:	4b05      	ldr	r3, [pc, #20]	; (4010a4 <toggle_features+0x1c>)
  40108e:	881b      	ldrh	r3, [r3, #0]
  401090:	a802      	add	r0, sp, #8
  401092:	f820 3d04 	strh.w	r3, [r0, #-4]!
	
	spi_master_transfer(config, sizeof(config));
  401096:	2102      	movs	r1, #2
  401098:	4b03      	ldr	r3, [pc, #12]	; (4010a8 <toggle_features+0x20>)
  40109a:	4798      	blx	r3
}
  40109c:	b003      	add	sp, #12
  40109e:	f85d fb04 	ldr.w	pc, [sp], #4
  4010a2:	bf00      	nop
  4010a4:	00404634 	.word	0x00404634
  4010a8:	00400c15 	.word	0x00400c15

004010ac <nRF24_setChannel>:

void nRF24_setChannel(uint8_t channel)
{
  4010ac:	b508      	push	{r3, lr}
	const uint8_t max_channel = 125;
	if (channel > max_channel)
  4010ae:	287d      	cmp	r0, #125	; 0x7d
		nRF24_writeRegister(RF_CH, max_channel);
  4010b0:	bf8c      	ite	hi
  4010b2:	217d      	movhi	r1, #125	; 0x7d
	else
		nRF24_writeRegister(RF_CH, channel);
  4010b4:	4601      	movls	r1, r0
  4010b6:	2005      	movs	r0, #5
  4010b8:	4b01      	ldr	r3, [pc, #4]	; (4010c0 <nRF24_setChannel+0x14>)
  4010ba:	4798      	blx	r3
  4010bc:	bd08      	pop	{r3, pc}
  4010be:	bf00      	nop
  4010c0:	00400e45 	.word	0x00400e45

004010c4 <nRF24_powerUp>:
}

void nRF24_powerUp(void)
{
  4010c4:	b508      	push	{r3, lr}
	uint8_t config = nRF24_readRegister(NRF_CONFIG);
  4010c6:	2000      	movs	r0, #0
  4010c8:	4b07      	ldr	r3, [pc, #28]	; (4010e8 <nRF24_powerUp+0x24>)
  4010ca:	4798      	blx	r3
	
	if (!(config & (1<<PWR_UP))){
  4010cc:	f010 0f02 	tst.w	r0, #2
  4010d0:	d003      	beq.n	4010da <nRF24_powerUp+0x16>
		nRF24_writeRegister(NRF_CONFIG, config | (1<<PWR_UP));
		//delay 5ms
	}
	delay_ms(5);
  4010d2:	4806      	ldr	r0, [pc, #24]	; (4010ec <nRF24_powerUp+0x28>)
  4010d4:	4b06      	ldr	r3, [pc, #24]	; (4010f0 <nRF24_powerUp+0x2c>)
  4010d6:	4798      	blx	r3
  4010d8:	bd08      	pop	{r3, pc}
		nRF24_writeRegister(NRF_CONFIG, config | (1<<PWR_UP));
  4010da:	f040 0102 	orr.w	r1, r0, #2
  4010de:	b2c9      	uxtb	r1, r1
  4010e0:	2000      	movs	r0, #0
  4010e2:	4b04      	ldr	r3, [pc, #16]	; (4010f4 <nRF24_powerUp+0x30>)
  4010e4:	4798      	blx	r3
  4010e6:	e7f4      	b.n	4010d2 <nRF24_powerUp+0xe>
  4010e8:	00400e1d 	.word	0x00400e1d
  4010ec:	0003dbc2 	.word	0x0003dbc2
  4010f0:	20400001 	.word	0x20400001
  4010f4:	00400e45 	.word	0x00400e45

004010f8 <nRF24_startListening>:
	ioport_set_pin_level(CE, 0);
	nRF24_writeRegister(NRF_CONFIG, nRF24_readRegister(NRF_CONFIG) & ~(1<<PWR_UP));
}

void nRF24_startListening(void)
{
  4010f8:	b510      	push	{r4, lr}
	nRF24_powerUp();
  4010fa:	4b14      	ldr	r3, [pc, #80]	; (40114c <nRF24_startListening+0x54>)
  4010fc:	4798      	blx	r3
	
	nRF24_writeRegister(NRF_CONFIG, nRF24_readRegister(NRF_CONFIG) | (1<<PRIM_RX)); 
  4010fe:	2000      	movs	r0, #0
  401100:	4b13      	ldr	r3, [pc, #76]	; (401150 <nRF24_startListening+0x58>)
  401102:	4798      	blx	r3
  401104:	f040 0101 	orr.w	r1, r0, #1
  401108:	b2c9      	uxtb	r1, r1
  40110a:	2000      	movs	r0, #0
  40110c:	4c11      	ldr	r4, [pc, #68]	; (401154 <nRF24_startListening+0x5c>)
  40110e:	47a0      	blx	r4
	nRF24_writeRegister(NRF_STATUS, (1<<RX_DR) | (1<<TX_DS) | (1<<MAX_RT));
  401110:	2170      	movs	r1, #112	; 0x70
  401112:	2007      	movs	r0, #7
  401114:	47a0      	blx	r4
		base->PIO_SODR = arch_ioport_pin_to_mask(pin);
  401116:	f44f 7200 	mov.w	r2, #512	; 0x200
  40111a:	4b0f      	ldr	r3, [pc, #60]	; (401158 <nRF24_startListening+0x60>)
  40111c:	631a      	str	r2, [r3, #48]	; 0x30
	
	ioport_set_pin_level(CE, 1);
	
	if (pipe0_reading_address[0] > 0){
  40111e:	4b0f      	ldr	r3, [pc, #60]	; (40115c <nRF24_startListening+0x64>)
  401120:	781b      	ldrb	r3, [r3, #0]
  401122:	b163      	cbz	r3, 40113e <nRF24_startListening+0x46>
		nRF_writeRegister(RX_ADDR_P0, pipe0_reading_address, addr_width);
  401124:	4b0e      	ldr	r3, [pc, #56]	; (401160 <nRF24_startListening+0x68>)
  401126:	781a      	ldrb	r2, [r3, #0]
  401128:	490c      	ldr	r1, [pc, #48]	; (40115c <nRF24_startListening+0x64>)
  40112a:	200a      	movs	r0, #10
  40112c:	4b0d      	ldr	r3, [pc, #52]	; (401164 <nRF24_startListening+0x6c>)
  40112e:	4798      	blx	r3
	} else {
		nRF24_closeReadingPipe(0);
	}
	
	if (nRF24_readRegister(FEATURE) & (1<<EN_ACK_PAY)){
  401130:	201d      	movs	r0, #29
  401132:	4b07      	ldr	r3, [pc, #28]	; (401150 <nRF24_startListening+0x58>)
  401134:	4798      	blx	r3
  401136:	f010 0f02 	tst.w	r0, #2
  40113a:	d104      	bne.n	401146 <nRF24_startListening+0x4e>
  40113c:	bd10      	pop	{r4, pc}
		nRF24_closeReadingPipe(0);
  40113e:	2000      	movs	r0, #0
  401140:	4b09      	ldr	r3, [pc, #36]	; (401168 <nRF24_startListening+0x70>)
  401142:	4798      	blx	r3
  401144:	e7f4      	b.n	401130 <nRF24_startListening+0x38>
		nRF24_FlushTx();
  401146:	4b09      	ldr	r3, [pc, #36]	; (40116c <nRF24_startListening+0x74>)
  401148:	4798      	blx	r3
	}
}
  40114a:	e7f7      	b.n	40113c <nRF24_startListening+0x44>
  40114c:	004010c5 	.word	0x004010c5
  401150:	00400e1d 	.word	0x00400e1d
  401154:	00400e45 	.word	0x00400e45
  401158:	400e1200 	.word	0x400e1200
  40115c:	20400ab8 	.word	0x20400ab8
  401160:	20400010 	.word	0x20400010
  401164:	00400e71 	.word	0x00400e71
  401168:	00400fe5 	.word	0x00400fe5
  40116c:	00400edd 	.word	0x00400edd

00401170 <nRF24_stopListening>:

void nRF24_stopListening(void)
{
  401170:	b538      	push	{r3, r4, r5, lr}
		base->PIO_CODR = arch_ioport_pin_to_mask(pin);
  401172:	f44f 7200 	mov.w	r2, #512	; 0x200
  401176:	4b21      	ldr	r3, [pc, #132]	; (4011fc <nRF24_stopListening+0x8c>)
  401178:	635a      	str	r2, [r3, #52]	; 0x34
	ioport_set_pin_level(CE, 0);
	
	delay_us(txDelay);
  40117a:	4b21      	ldr	r3, [pc, #132]	; (401200 <nRF24_stopListening+0x90>)
  40117c:	6819      	ldr	r1, [r3, #0]
  40117e:	2900      	cmp	r1, #0
  401180:	d034      	beq.n	4011ec <nRF24_stopListening+0x7c>
  401182:	4a20      	ldr	r2, [pc, #128]	; (401204 <nRF24_stopListening+0x94>)
  401184:	2300      	movs	r3, #0
  401186:	4c20      	ldr	r4, [pc, #128]	; (401208 <nRF24_stopListening+0x98>)
  401188:	2500      	movs	r5, #0
  40118a:	4820      	ldr	r0, [pc, #128]	; (40120c <nRF24_stopListening+0x9c>)
  40118c:	fbe0 4501 	umlal	r4, r5, r0, r1
  401190:	4620      	mov	r0, r4
  401192:	4629      	mov	r1, r5
  401194:	4c1e      	ldr	r4, [pc, #120]	; (401210 <nRF24_stopListening+0xa0>)
  401196:	47a0      	blx	r4
  401198:	4b1e      	ldr	r3, [pc, #120]	; (401214 <nRF24_stopListening+0xa4>)
  40119a:	4798      	blx	r3
	if (nRF24_readRegister(FEATURE) & 1<<(EN_ACK_PAY))
  40119c:	201d      	movs	r0, #29
  40119e:	4b1e      	ldr	r3, [pc, #120]	; (401218 <nRF24_stopListening+0xa8>)
  4011a0:	4798      	blx	r3
  4011a2:	f010 0f02 	tst.w	r0, #2
  4011a6:	d011      	beq.n	4011cc <nRF24_stopListening+0x5c>
	{
		delay_us(txDelay);
  4011a8:	4b15      	ldr	r3, [pc, #84]	; (401200 <nRF24_stopListening+0x90>)
  4011aa:	6819      	ldr	r1, [r3, #0]
  4011ac:	b311      	cbz	r1, 4011f4 <nRF24_stopListening+0x84>
  4011ae:	4a15      	ldr	r2, [pc, #84]	; (401204 <nRF24_stopListening+0x94>)
  4011b0:	2300      	movs	r3, #0
  4011b2:	4c15      	ldr	r4, [pc, #84]	; (401208 <nRF24_stopListening+0x98>)
  4011b4:	2500      	movs	r5, #0
  4011b6:	4815      	ldr	r0, [pc, #84]	; (40120c <nRF24_stopListening+0x9c>)
  4011b8:	fbe0 4501 	umlal	r4, r5, r0, r1
  4011bc:	4620      	mov	r0, r4
  4011be:	4629      	mov	r1, r5
  4011c0:	4c13      	ldr	r4, [pc, #76]	; (401210 <nRF24_stopListening+0xa0>)
  4011c2:	47a0      	blx	r4
  4011c4:	4b13      	ldr	r3, [pc, #76]	; (401214 <nRF24_stopListening+0xa4>)
  4011c6:	4798      	blx	r3
		nRF24_FlushTx();
  4011c8:	4b14      	ldr	r3, [pc, #80]	; (40121c <nRF24_stopListening+0xac>)
  4011ca:	4798      	blx	r3
	}
	nRF24_writeRegister(NRF_CONFIG, (nRF24_readRegister(NRF_CONFIG)) & ~(1<<PRIM_RX));
  4011cc:	2000      	movs	r0, #0
  4011ce:	4d12      	ldr	r5, [pc, #72]	; (401218 <nRF24_stopListening+0xa8>)
  4011d0:	47a8      	blx	r5
  4011d2:	f000 01fe 	and.w	r1, r0, #254	; 0xfe
  4011d6:	2000      	movs	r0, #0
  4011d8:	4c11      	ldr	r4, [pc, #68]	; (401220 <nRF24_stopListening+0xb0>)
  4011da:	47a0      	blx	r4
	nRF24_writeRegister(EN_RXADDR, nRF24_readRegister(EN_RXADDR) | (1<< pipe_enable_s[0])); 
  4011dc:	2002      	movs	r0, #2
  4011de:	47a8      	blx	r5
  4011e0:	f040 0101 	orr.w	r1, r0, #1
  4011e4:	b2c9      	uxtb	r1, r1
  4011e6:	2002      	movs	r0, #2
  4011e8:	47a0      	blx	r4
  4011ea:	bd38      	pop	{r3, r4, r5, pc}
	delay_us(txDelay);
  4011ec:	2033      	movs	r0, #51	; 0x33
  4011ee:	4b09      	ldr	r3, [pc, #36]	; (401214 <nRF24_stopListening+0xa4>)
  4011f0:	4798      	blx	r3
  4011f2:	e7d3      	b.n	40119c <nRF24_stopListening+0x2c>
		delay_us(txDelay);
  4011f4:	2033      	movs	r0, #51	; 0x33
  4011f6:	4b07      	ldr	r3, [pc, #28]	; (401214 <nRF24_stopListening+0xa4>)
  4011f8:	4798      	blx	r3
  4011fa:	e7e5      	b.n	4011c8 <nRF24_stopListening+0x58>
  4011fc:	400e1200 	.word	0x400e1200
  401200:	20400ad8 	.word	0x20400ad8
  401204:	005a83e0 	.word	0x005a83e0
  401208:	005a83df 	.word	0x005a83df
  40120c:	11e1a300 	.word	0x11e1a300
  401210:	0040160d 	.word	0x0040160d
  401214:	20400001 	.word	0x20400001
  401218:	00400e1d 	.word	0x00400e1d
  40121c:	00400edd 	.word	0x00400edd
  401220:	00400e45 	.word	0x00400e45

00401224 <nRF24_begin>:
}

bool nRF24_begin(void)
{
  401224:	b570      	push	{r4, r5, r6, lr}
		base->PIO_OER = arch_ioport_pin_to_mask(pin);
  401226:	4b19      	ldr	r3, [pc, #100]	; (40128c <nRF24_begin+0x68>)
  401228:	f44f 7200 	mov.w	r2, #512	; 0x200
  40122c:	611a      	str	r2, [r3, #16]
	base->PIO_OWER = arch_ioport_pin_to_mask(pin);
  40122e:	f8c3 20a0 	str.w	r2, [r3, #160]	; 0xa0
		base->PIO_CODR = arch_ioport_pin_to_mask(pin);
  401232:	635a      	str	r2, [r3, #52]	; 0x34
	uint8_t setup = 0;
	ioport_set_pin_dir(CE, IOPORT_DIR_OUTPUT);//ce_pin PC9
	ioport_set_pin_level(CE, 0);
	
	nRF24_writeRegister(NRF_CONFIG, 0x0C);
  401234:	210c      	movs	r1, #12
  401236:	2000      	movs	r0, #0
  401238:	4d15      	ldr	r5, [pc, #84]	; (401290 <nRF24_begin+0x6c>)
  40123a:	47a8      	blx	r5
	nRF24_writeRegister(SETUP_RETR, (delay & 0xF) << ARD | (count & 0xF) <<ARC );
  40123c:	215f      	movs	r1, #95	; 0x5f
  40123e:	2004      	movs	r0, #4
  401240:	47a8      	blx	r5
	nRF24_setRetries(5, 15);
	setup = nRF24_readRegister(RF_SETUP);
  401242:	2006      	movs	r0, #6
  401244:	4e13      	ldr	r6, [pc, #76]	; (401294 <nRF24_begin+0x70>)
  401246:	47b0      	blx	r6
  401248:	4604      	mov	r4, r0
	
	nRF24_setDataRate(RF24_1MBPS);
  40124a:	2000      	movs	r0, #0
  40124c:	4b12      	ldr	r3, [pc, #72]	; (401298 <nRF24_begin+0x74>)
  40124e:	4798      	blx	r3
	nRF24_setCRCLength(RF24_CRC_16);
  401250:	2002      	movs	r0, #2
  401252:	4b12      	ldr	r3, [pc, #72]	; (40129c <nRF24_begin+0x78>)
  401254:	4798      	blx	r3
	toggle_features();
  401256:	4b12      	ldr	r3, [pc, #72]	; (4012a0 <nRF24_begin+0x7c>)
  401258:	4798      	blx	r3
	
	nRF24_writeRegister(NRF_STATUS, (1<<RX_DR) | (1<<TX_DS) | (1<<MAX_RT));
  40125a:	2170      	movs	r1, #112	; 0x70
  40125c:	2007      	movs	r0, #7
  40125e:	47a8      	blx	r5
	
	nRF24_setChannel(76);
  401260:	204c      	movs	r0, #76	; 0x4c
  401262:	4b10      	ldr	r3, [pc, #64]	; (4012a4 <nRF24_begin+0x80>)
  401264:	4798      	blx	r3
	
	nRF24_FlushRx();
  401266:	4b10      	ldr	r3, [pc, #64]	; (4012a8 <nRF24_begin+0x84>)
  401268:	4798      	blx	r3
	nRF24_FlushTx();
  40126a:	4b10      	ldr	r3, [pc, #64]	; (4012ac <nRF24_begin+0x88>)
  40126c:	4798      	blx	r3
	
	nRF24_powerUp();
  40126e:	4b10      	ldr	r3, [pc, #64]	; (4012b0 <nRF24_begin+0x8c>)
  401270:	4798      	blx	r3
	
	nRF24_writeRegister(NRF_CONFIG, (nRF24_readRegister(NRF_CONFIG)) & ~(1<<PRIM_RX));
  401272:	2000      	movs	r0, #0
  401274:	47b0      	blx	r6
  401276:	f000 01fe 	and.w	r1, r0, #254	; 0xfe
  40127a:	2000      	movs	r0, #0
  40127c:	47a8      	blx	r5
	
	return (setup != 0 && setup != 0xFF);
  40127e:	1e60      	subs	r0, r4, #1
  401280:	b2c0      	uxtb	r0, r0
}
  401282:	28fd      	cmp	r0, #253	; 0xfd
  401284:	bf8c      	ite	hi
  401286:	2000      	movhi	r0, #0
  401288:	2001      	movls	r0, #1
  40128a:	bd70      	pop	{r4, r5, r6, pc}
  40128c:	400e1200 	.word	0x400e1200
  401290:	00400e45 	.word	0x00400e45
  401294:	00400e1d 	.word	0x00400e1d
  401298:	00401011 	.word	0x00401011
  40129c:	0040105d 	.word	0x0040105d
  4012a0:	00401089 	.word	0x00401089
  4012a4:	004010ad 	.word	0x004010ad
  4012a8:	00400ebd 	.word	0x00400ebd
  4012ac:	00400edd 	.word	0x00400edd
  4012b0:	004010c5 	.word	0x004010c5

004012b4 <nRF24_openWritingPipe>:

void nRF24_openWritingPipe(uint64_t address)
{
  4012b4:	b570      	push	{r4, r5, r6, lr}
  4012b6:	b082      	sub	sp, #8
  4012b8:	ac02      	add	r4, sp, #8
  4012ba:	e964 0102 	strd	r0, r1, [r4, #-8]!
	nRF_writeRegister(RX_ADDR_P0, (uint8_t *)(&address), addr_width);
  4012be:	4e08      	ldr	r6, [pc, #32]	; (4012e0 <nRF24_openWritingPipe+0x2c>)
  4012c0:	7832      	ldrb	r2, [r6, #0]
  4012c2:	4621      	mov	r1, r4
  4012c4:	200a      	movs	r0, #10
  4012c6:	4d07      	ldr	r5, [pc, #28]	; (4012e4 <nRF24_openWritingPipe+0x30>)
  4012c8:	47a8      	blx	r5
	nRF_writeRegister(TX_ADDR, (uint8_t *)(&address), addr_width);
  4012ca:	7832      	ldrb	r2, [r6, #0]
  4012cc:	4621      	mov	r1, r4
  4012ce:	2010      	movs	r0, #16
  4012d0:	47a8      	blx	r5
	
	nRF24_writeRegister(RX_PW_P0, payload_size);
  4012d2:	4b05      	ldr	r3, [pc, #20]	; (4012e8 <nRF24_openWritingPipe+0x34>)
  4012d4:	7819      	ldrb	r1, [r3, #0]
  4012d6:	2011      	movs	r0, #17
  4012d8:	4b04      	ldr	r3, [pc, #16]	; (4012ec <nRF24_openWritingPipe+0x38>)
  4012da:	4798      	blx	r3
}
  4012dc:	b002      	add	sp, #8
  4012de:	bd70      	pop	{r4, r5, r6, pc}
  4012e0:	20400010 	.word	0x20400010
  4012e4:	00400e71 	.word	0x00400e71
  4012e8:	20400011 	.word	0x20400011
  4012ec:	00400e45 	.word	0x00400e45

004012f0 <nRF24_openReadingPipe>:
		addr_width = 2;
	}
}

void nRF24_openReadingPipe(uint8_t pipe, uint64_t address)
{
  4012f0:	b510      	push	{r4, lr}
  4012f2:	b082      	sub	sp, #8
  4012f4:	e9cd 2300 	strd	r2, r3, [sp]
	if (pipe == 0){
  4012f8:	4604      	mov	r4, r0
  4012fa:	b1f0      	cbz	r0, 40133a <nRF24_openReadingPipe+0x4a>
		memcpy(pipe0_reading_address, &address, addr_width);
	}
	if (pipe <= 5){
  4012fc:	2805      	cmp	r0, #5
  4012fe:	d80d      	bhi.n	40131c <nRF24_openReadingPipe+0x2c>
		if (pipe < 2){
  401300:	2801      	cmp	r0, #1
  401302:	d920      	bls.n	401346 <nRF24_openReadingPipe+0x56>
			nRF_writeRegister(pipe_s[pipe], (uint8_t *)(&address), addr_width);
		} else {
			nRF_writeRegister(pipe_s[pipe], (uint8_t *)(&address), 1);
  401304:	2201      	movs	r2, #1
  401306:	4669      	mov	r1, sp
  401308:	4b13      	ldr	r3, [pc, #76]	; (401358 <nRF24_openReadingPipe+0x68>)
  40130a:	5c18      	ldrb	r0, [r3, r0]
  40130c:	4b13      	ldr	r3, [pc, #76]	; (40135c <nRF24_openReadingPipe+0x6c>)
  40130e:	4798      	blx	r3
		}
		nRF24_writeRegister(pipe_size_s[pipe], payload_size);
  401310:	4b13      	ldr	r3, [pc, #76]	; (401360 <nRF24_openReadingPipe+0x70>)
  401312:	7819      	ldrb	r1, [r3, #0]
  401314:	4b13      	ldr	r3, [pc, #76]	; (401364 <nRF24_openReadingPipe+0x74>)
  401316:	5d18      	ldrb	r0, [r3, r4]
  401318:	4b13      	ldr	r3, [pc, #76]	; (401368 <nRF24_openReadingPipe+0x78>)
  40131a:	4798      	blx	r3
	}
	nRF24_writeRegister(EN_RXADDR, nRF24_readRegister((EN_RXADDR) | (1 << pipe_enable_s[pipe])));
  40131c:	4b13      	ldr	r3, [pc, #76]	; (40136c <nRF24_openReadingPipe+0x7c>)
  40131e:	5d1b      	ldrb	r3, [r3, r4]
  401320:	2001      	movs	r0, #1
  401322:	4098      	lsls	r0, r3
  401324:	f040 0002 	orr.w	r0, r0, #2
  401328:	b2c0      	uxtb	r0, r0
  40132a:	4b11      	ldr	r3, [pc, #68]	; (401370 <nRF24_openReadingPipe+0x80>)
  40132c:	4798      	blx	r3
  40132e:	4601      	mov	r1, r0
  401330:	2002      	movs	r0, #2
  401332:	4b0d      	ldr	r3, [pc, #52]	; (401368 <nRF24_openReadingPipe+0x78>)
  401334:	4798      	blx	r3
}
  401336:	b002      	add	sp, #8
  401338:	bd10      	pop	{r4, pc}
		memcpy(pipe0_reading_address, &address, addr_width);
  40133a:	4b0e      	ldr	r3, [pc, #56]	; (401374 <nRF24_openReadingPipe+0x84>)
  40133c:	781a      	ldrb	r2, [r3, #0]
  40133e:	4669      	mov	r1, sp
  401340:	480d      	ldr	r0, [pc, #52]	; (401378 <nRF24_openReadingPipe+0x88>)
  401342:	4b0e      	ldr	r3, [pc, #56]	; (40137c <nRF24_openReadingPipe+0x8c>)
  401344:	4798      	blx	r3
			nRF_writeRegister(pipe_s[pipe], (uint8_t *)(&address), addr_width);
  401346:	4b0b      	ldr	r3, [pc, #44]	; (401374 <nRF24_openReadingPipe+0x84>)
  401348:	781a      	ldrb	r2, [r3, #0]
  40134a:	4669      	mov	r1, sp
  40134c:	4b02      	ldr	r3, [pc, #8]	; (401358 <nRF24_openReadingPipe+0x68>)
  40134e:	5d18      	ldrb	r0, [r3, r4]
  401350:	4b02      	ldr	r3, [pc, #8]	; (40135c <nRF24_openReadingPipe+0x6c>)
  401352:	4798      	blx	r3
  401354:	e7dc      	b.n	401310 <nRF24_openReadingPipe+0x20>
  401356:	bf00      	nop
  401358:	004046ec 	.word	0x004046ec
  40135c:	00400e71 	.word	0x00400e71
  401360:	20400011 	.word	0x20400011
  401364:	004046f4 	.word	0x004046f4
  401368:	00400e45 	.word	0x00400e45
  40136c:	004046e4 	.word	0x004046e4
  401370:	00400e1d 	.word	0x00400e1d
  401374:	20400010 	.word	0x20400010
  401378:	20400ab8 	.word	0x20400ab8
  40137c:	00401995 	.word	0x00401995

00401380 <nRF24_setPALevel>:
	}
	return 0;
}

void nRF24_setPALevel(uint8_t level)
{
  401380:	b510      	push	{r4, lr}
  401382:	4604      	mov	r4, r0
	uint8_t setup = nRF24_readRegister(RF_SETUP) & 0xF8;
  401384:	2006      	movs	r0, #6
  401386:	4b08      	ldr	r3, [pc, #32]	; (4013a8 <nRF24_setPALevel+0x28>)
  401388:	4798      	blx	r3
  40138a:	f000 01f8 	and.w	r1, r0, #248	; 0xf8
	
	
	if (level > 3) {
  40138e:	2c03      	cmp	r4, #3
  401390:	d808      	bhi.n	4013a4 <nRF24_setPALevel+0x24>
		level = (RF_PA_MAX << 1) + 1;
	} else {
		level = (level << 1) + 1;
  401392:	0064      	lsls	r4, r4, #1
  401394:	3401      	adds	r4, #1
  401396:	f004 04ff 	and.w	r4, r4, #255	; 0xff
	}
	nRF24_writeRegister(RF_SETUP, setup |= level);
  40139a:	4321      	orrs	r1, r4
  40139c:	2006      	movs	r0, #6
  40139e:	4b03      	ldr	r3, [pc, #12]	; (4013ac <nRF24_setPALevel+0x2c>)
  4013a0:	4798      	blx	r3
  4013a2:	bd10      	pop	{r4, pc}
		level = (RF_PA_MAX << 1) + 1;
  4013a4:	2407      	movs	r4, #7
  4013a6:	e7f8      	b.n	40139a <nRF24_setPALevel+0x1a>
  4013a8:	00400e1d 	.word	0x00400e1d
  4013ac:	00400e45 	.word	0x00400e45

004013b0 <nRF24_write>:
	
	nRF24_writeRegister(NRF_STATUS, (1<<RX_DR) | (1<<MAX_RT) | (1<<TX_DS));	
}

bool nRF24_write(const void* buf, uint8_t len)
{
  4013b0:	b508      	push	{r3, lr}
	return nRFwrite(buf, len, 0);
  4013b2:	2200      	movs	r2, #0
  4013b4:	4b01      	ldr	r3, [pc, #4]	; (4013bc <nRF24_write+0xc>)
  4013b6:	4798      	blx	r3
}
  4013b8:	bd08      	pop	{r3, pc}
  4013ba:	bf00      	nop
  4013bc:	00400f9d 	.word	0x00400f9d

004013c0 <main>:

int main (void)
{
  4013c0:	e92d 4ff0 	stmdb	sp!, {r4, r5, r6, r7, r8, r9, sl, fp, lr}
  4013c4:	b087      	sub	sp, #28
	/* Initialize the SAM system. */
	sysclk_init();
  4013c6:	4b66      	ldr	r3, [pc, #408]	; (401560 <main+0x1a0>)
  4013c8:	4798      	blx	r3
	board_init();
  4013ca:	4b66      	ldr	r3, [pc, #408]	; (401564 <main+0x1a4>)
  4013cc:	4798      	blx	r3
 * \param opt         Options needed to set up RS232 communication (see \ref usart_options_t).
 *
 */
static inline void stdio_serial_init(volatile void *usart, const usart_serial_options_t *opt)
{
	stdio_base = (void *)usart;
  4013ce:	4d66      	ldr	r5, [pc, #408]	; (401568 <main+0x1a8>)
  4013d0:	4b66      	ldr	r3, [pc, #408]	; (40156c <main+0x1ac>)
  4013d2:	601d      	str	r5, [r3, #0]
	ptr_put = (int (*)(void volatile*,char))&usart_serial_putchar;
  4013d4:	4a66      	ldr	r2, [pc, #408]	; (401570 <main+0x1b0>)
  4013d6:	4b67      	ldr	r3, [pc, #412]	; (401574 <main+0x1b4>)
  4013d8:	601a      	str	r2, [r3, #0]
	ptr_get = (void (*)(void volatile*,char*))&usart_serial_getchar;
  4013da:	4a67      	ldr	r2, [pc, #412]	; (401578 <main+0x1b8>)
  4013dc:	4b67      	ldr	r3, [pc, #412]	; (40157c <main+0x1bc>)
  4013de:	601a      	str	r2, [r3, #0]
	usart_settings.baudrate = opt->baudrate;
  4013e0:	f44f 33e1 	mov.w	r3, #115200	; 0x1c200
  4013e4:	9300      	str	r3, [sp, #0]
	usart_settings.char_length = opt->charlength;
  4013e6:	23c0      	movs	r3, #192	; 0xc0
  4013e8:	9301      	str	r3, [sp, #4]
	usart_settings.parity_type = opt->paritytype;
  4013ea:	f44f 6300 	mov.w	r3, #2048	; 0x800
  4013ee:	9302      	str	r3, [sp, #8]
	usart_settings.stop_bits= opt->stopbits;
  4013f0:	2400      	movs	r4, #0
  4013f2:	9403      	str	r4, [sp, #12]
	usart_settings.channel_mode= US_MR_CHMODE_NORMAL;
  4013f4:	9404      	str	r4, [sp, #16]
  4013f6:	200e      	movs	r0, #14
  4013f8:	4b61      	ldr	r3, [pc, #388]	; (401580 <main+0x1c0>)
  4013fa:	4798      	blx	r3
		usart_init_rs232(p_usart, &usart_settings,
  4013fc:	4a61      	ldr	r2, [pc, #388]	; (401584 <main+0x1c4>)
  4013fe:	4669      	mov	r1, sp
  401400:	4628      	mov	r0, r5
  401402:	4b61      	ldr	r3, [pc, #388]	; (401588 <main+0x1c8>)
  401404:	4798      	blx	r3
		usart_enable_tx(p_usart);
  401406:	4628      	mov	r0, r5
  401408:	4b60      	ldr	r3, [pc, #384]	; (40158c <main+0x1cc>)
  40140a:	4798      	blx	r3
		usart_enable_rx(p_usart);
  40140c:	4628      	mov	r0, r5
  40140e:	4b60      	ldr	r3, [pc, #384]	; (401590 <main+0x1d0>)
  401410:	4798      	blx	r3
	fdevopen((int (*)(char, FILE*))(_write),(int (*)(FILE*))(_read));
#  endif
#  if UC3 || SAM
	// For AVR32 and SAM GCC
	// Specify that stdout and stdin should not be buffered.
	setbuf(stdout, NULL);
  401412:	4e60      	ldr	r6, [pc, #384]	; (401594 <main+0x1d4>)
  401414:	6833      	ldr	r3, [r6, #0]
  401416:	4621      	mov	r1, r4
  401418:	6898      	ldr	r0, [r3, #8]
  40141a:	4d5f      	ldr	r5, [pc, #380]	; (401598 <main+0x1d8>)
  40141c:	47a8      	blx	r5
	setbuf(stdin, NULL);
  40141e:	6833      	ldr	r3, [r6, #0]
  401420:	4621      	mov	r1, r4
  401422:	6858      	ldr	r0, [r3, #4]
  401424:	47a8      	blx	r5

	/* Initialize the console UART. */
	configure_console();

	/* Output example information. */
	puts(STRING_HEADER);
  401426:	485d      	ldr	r0, [pc, #372]	; (40159c <main+0x1dc>)
  401428:	4d5d      	ldr	r5, [pc, #372]	; (4015a0 <main+0x1e0>)
  40142a:	47a8      	blx	r5
    NVIC->ICPR[(((uint32_t)IRQn) >> 5UL)] = (uint32_t)(1UL << (((uint32_t)IRQn) & 0x1FUL));
  40142c:	4b5d      	ldr	r3, [pc, #372]	; (4015a4 <main+0x1e4>)
  40142e:	f44f 1200 	mov.w	r2, #2097152	; 0x200000
  401432:	f8c3 2180 	str.w	r2, [r3, #384]	; 0x180
    NVIC->ICER[(((uint32_t)IRQn) >> 5UL)] = (uint32_t)(1UL << (((uint32_t)IRQn) & 0x1FUL));
  401436:	f8c3 2080 	str.w	r2, [r3, #128]	; 0x80
  __ASM volatile ("dsb 0xF":::"memory");
  40143a:	f3bf 8f4f 	dsb	sy
  __ASM volatile ("isb 0xF":::"memory");
  40143e:	f3bf 8f6f 	isb	sy
    NVIC->IP[((uint32_t)IRQn)]                = (uint8_t)((priority << (8U - __NVIC_PRIO_BITS)) & (uint32_t)0xFFUL);
  401442:	f883 4315 	strb.w	r4, [r3, #789]	; 0x315
    NVIC->ISER[(((uint32_t)IRQn) >> 5UL)] = (uint32_t)(1UL << (((uint32_t)IRQn) & 0x1FUL));
  401446:	601a      	str	r2, [r3, #0]
	printf("Setting SPI clock #%lu ... \n\r", (unsigned long)gs_ul_spi_clock);
  401448:	4957      	ldr	r1, [pc, #348]	; (4015a8 <main+0x1e8>)
  40144a:	4858      	ldr	r0, [pc, #352]	; (4015ac <main+0x1ec>)
  40144c:	4b58      	ldr	r3, [pc, #352]	; (4015b0 <main+0x1f0>)
  40144e:	4798      	blx	r3
	g_uc_role = MASTER_MODE;
  401450:	4b58      	ldr	r3, [pc, #352]	; (4015b4 <main+0x1f4>)
  401452:	601c      	str	r4, [r3, #0]
	puts("-I- Initialize SPI as master\r");
  401454:	4858      	ldr	r0, [pc, #352]	; (4015b8 <main+0x1f8>)
  401456:	47a8      	blx	r5
	spi_enable_clock(SPI_MASTER_BASE);
  401458:	4d58      	ldr	r5, [pc, #352]	; (4015bc <main+0x1fc>)
  40145a:	4628      	mov	r0, r5
  40145c:	4b58      	ldr	r3, [pc, #352]	; (4015c0 <main+0x200>)
  40145e:	4798      	blx	r3
	p_spi->SPI_CR = SPI_CR_SPIDIS;
  401460:	2602      	movs	r6, #2
  401462:	602e      	str	r6, [r5, #0]
	p_spi->SPI_CR = SPI_CR_SWRST;
  401464:	2380      	movs	r3, #128	; 0x80
  401466:	602b      	str	r3, [r5, #0]
	p_spi->SPI_CR = SPI_CR_LASTXFER;
  401468:	f04f 7380 	mov.w	r3, #16777216	; 0x1000000
  40146c:	602b      	str	r3, [r5, #0]
	p_spi->SPI_MR |= SPI_MR_MSTR;
  40146e:	686b      	ldr	r3, [r5, #4]
  401470:	f043 0301 	orr.w	r3, r3, #1
  401474:	606b      	str	r3, [r5, #4]
	p_spi->SPI_MR |= SPI_MR_MODFDIS;
  401476:	686b      	ldr	r3, [r5, #4]
  401478:	f043 0310 	orr.w	r3, r3, #16
  40147c:	606b      	str	r3, [r5, #4]
	spi_set_peripheral_chip_select_value(SPI_MASTER_BASE, SPI_CHIP_PCS);
  40147e:	210e      	movs	r1, #14
  401480:	4628      	mov	r0, r5
  401482:	4b50      	ldr	r3, [pc, #320]	; (4015c4 <main+0x204>)
  401484:	4798      	blx	r3
	spi_set_clock_polarity(SPI_MASTER_BASE, SPI_CHIP_SEL, SPI_CLK_POLARITY);
  401486:	4622      	mov	r2, r4
  401488:	4621      	mov	r1, r4
  40148a:	4628      	mov	r0, r5
  40148c:	4b4e      	ldr	r3, [pc, #312]	; (4015c8 <main+0x208>)
  40148e:	4798      	blx	r3
	spi_set_clock_phase(SPI_MASTER_BASE, SPI_CHIP_SEL, SPI_CLK_PHASE);
  401490:	4622      	mov	r2, r4
  401492:	4621      	mov	r1, r4
  401494:	4628      	mov	r0, r5
  401496:	4b4d      	ldr	r3, [pc, #308]	; (4015cc <main+0x20c>)
  401498:	4798      	blx	r3
	spi_set_bits_per_transfer(SPI_MASTER_BASE, SPI_CHIP_SEL,
  40149a:	4622      	mov	r2, r4
  40149c:	4621      	mov	r1, r4
  40149e:	4628      	mov	r0, r5
  4014a0:	4b4b      	ldr	r3, [pc, #300]	; (4015d0 <main+0x210>)
  4014a2:	4798      	blx	r3
	spi_set_baudrate_div(SPI_MASTER_BASE, SPI_CHIP_SEL,
  4014a4:	220f      	movs	r2, #15
  4014a6:	4621      	mov	r1, r4
  4014a8:	4628      	mov	r0, r5
  4014aa:	4b4a      	ldr	r3, [pc, #296]	; (4015d4 <main+0x214>)
  4014ac:	4798      	blx	r3
	spi_set_transfer_delay(SPI_MASTER_BASE, SPI_CHIP_SEL, SPI_DLYBS,
  4014ae:	2310      	movs	r3, #16
  4014b0:	2240      	movs	r2, #64	; 0x40
  4014b2:	4621      	mov	r1, r4
  4014b4:	4628      	mov	r0, r5
  4014b6:	4f48      	ldr	r7, [pc, #288]	; (4015d8 <main+0x218>)
  4014b8:	47b8      	blx	r7
	p_spi->SPI_CR = SPI_CR_SPIEN;
  4014ba:	2701      	movs	r7, #1
  4014bc:	602f      	str	r7, [r5, #0]
	/* Insert application code here, after the board has been initialized. */
	
	spi_set_clock_configuration(gs_ul_spi_clock);
	
	nRF24_begin();
  4014be:	4b47      	ldr	r3, [pc, #284]	; (4015dc <main+0x21c>)
  4014c0:	4798      	blx	r3
	nRF24_openReadingPipe(1, listeningPipes[1]);
  4014c2:	a321      	add	r3, pc, #132	; (adr r3, 401548 <main+0x188>)
  4014c4:	e9d3 2300 	ldrd	r2, r3, [r3]
  4014c8:	4638      	mov	r0, r7
  4014ca:	4d45      	ldr	r5, [pc, #276]	; (4015e0 <main+0x220>)
  4014cc:	47a8      	blx	r5
	nRF24_openReadingPipe(2, listeningPipes[2]);
  4014ce:	a320      	add	r3, pc, #128	; (adr r3, 401550 <main+0x190>)
  4014d0:	e9d3 2300 	ldrd	r2, r3, [r3]
  4014d4:	4630      	mov	r0, r6
  4014d6:	47a8      	blx	r5
	nRF24_openWritingPipe(listeningPipes[localAddr]);
  4014d8:	a11f      	add	r1, pc, #124	; (adr r1, 401558 <main+0x198>)
  4014da:	e9d1 0100 	ldrd	r0, r1, [r1]
  4014de:	4b41      	ldr	r3, [pc, #260]	; (4015e4 <main+0x224>)
  4014e0:	4798      	blx	r3
	nRF24_setPALevel(RF_PA_MIN);
  4014e2:	4620      	mov	r0, r4
  4014e4:	4b40      	ldr	r3, [pc, #256]	; (4015e8 <main+0x228>)
  4014e6:	4798      	blx	r3
	nRF24_startListening();
  4014e8:	4b40      	ldr	r3, [pc, #256]	; (4015ec <main+0x22c>)
  4014ea:	4798      	blx	r3
	
	
	while(1)
	{
		nRF24_stopListening();
		nRF24_openWritingPipe(listeningPipes[1]);
  4014ec:	f20f 0958 	addw	r9, pc, #88	; 0x58
  4014f0:	e9d9 8900 	ldrd	r8, r9, [r9]
		
		dataOut.command = 1;
  4014f4:	4d3e      	ldr	r5, [pc, #248]	; (4015f0 <main+0x230>)
		
		for (int i = 0; i< 1024; i++)
		{
			if(!nRF24_write(&dataOut, sizeof(dataOut)))
			{
				printf("transmission failed \n\r");
  4014f6:	f8df a10c 	ldr.w	sl, [pc, #268]	; 401604 <main+0x244>
			}
			delay_ms(10);
  4014fa:	4e3e      	ldr	r6, [pc, #248]	; (4015f4 <main+0x234>)
		}
		delay_ms(500);
  4014fc:	f8df b108 	ldr.w	fp, [pc, #264]	; 401608 <main+0x248>
  401500:	e00e      	b.n	401520 <main+0x160>
			delay_ms(10);
  401502:	483d      	ldr	r0, [pc, #244]	; (4015f8 <main+0x238>)
  401504:	47b0      	blx	r6
		for (int i = 0; i< 1024; i++)
  401506:	3c01      	subs	r4, #1
  401508:	d008      	beq.n	40151c <main+0x15c>
			if(!nRF24_write(&dataOut, sizeof(dataOut)))
  40150a:	2118      	movs	r1, #24
  40150c:	4628      	mov	r0, r5
  40150e:	47b8      	blx	r7
  401510:	2800      	cmp	r0, #0
  401512:	d1f6      	bne.n	401502 <main+0x142>
				printf("transmission failed \n\r");
  401514:	4650      	mov	r0, sl
  401516:	4b26      	ldr	r3, [pc, #152]	; (4015b0 <main+0x1f0>)
  401518:	4798      	blx	r3
  40151a:	e7f2      	b.n	401502 <main+0x142>
		delay_ms(500);
  40151c:	4658      	mov	r0, fp
  40151e:	47b0      	blx	r6
		nRF24_stopListening();
  401520:	4b36      	ldr	r3, [pc, #216]	; (4015fc <main+0x23c>)
  401522:	4798      	blx	r3
		nRF24_openWritingPipe(listeningPipes[1]);
  401524:	4640      	mov	r0, r8
  401526:	4649      	mov	r1, r9
  401528:	4b2e      	ldr	r3, [pc, #184]	; (4015e4 <main+0x224>)
  40152a:	4798      	blx	r3
		dataOut.command = 1;
  40152c:	2301      	movs	r3, #1
  40152e:	702b      	strb	r3, [r5, #0]
		dataOut.destAddr = 0;
  401530:	2200      	movs	r2, #0
  401532:	2300      	movs	r3, #0
  401534:	e9c5 2302 	strd	r2, r3, [r5, #8]
		dataOut.datavalue = 0;
  401538:	2300      	movs	r3, #0
  40153a:	612b      	str	r3, [r5, #16]
  40153c:	f44f 6480 	mov.w	r4, #1024	; 0x400
			if(!nRF24_write(&dataOut, sizeof(dataOut)))
  401540:	4f2f      	ldr	r7, [pc, #188]	; (401600 <main+0x240>)
  401542:	e7e2      	b.n	40150a <main+0x14a>
  401544:	f3af 8000 	nop.w
  401548:	3a3a3ac3 	.word	0x3a3a3ac3
  40154c:	0000003a 	.word	0x0000003a
  401550:	3a3a3ab4 	.word	0x3a3a3ab4
  401554:	0000003a 	.word	0x0000003a
  401558:	3a3a3ad2 	.word	0x3a3a3ad2
  40155c:	0000003a 	.word	0x0000003a
  401560:	004004d9 	.word	0x004004d9
  401564:	00400549 	.word	0x00400549
  401568:	40028000 	.word	0x40028000
  40156c:	20400a94 	.word	0x20400a94
  401570:	00400d49 	.word	0x00400d49
  401574:	20400a90 	.word	0x20400a90
  401578:	00400c6d 	.word	0x00400c6d
  40157c:	20400a8c 	.word	0x20400a8c
  401580:	00400941 	.word	0x00400941
  401584:	08f0d180 	.word	0x08f0d180
  401588:	00400295 	.word	0x00400295
  40158c:	004002e9 	.word	0x004002e9
  401590:	004002ef 	.word	0x004002ef
  401594:	20400014 	.word	0x20400014
  401598:	00401c11 	.word	0x00401c11
  40159c:	00404638 	.word	0x00404638
  4015a0:	00401c01 	.word	0x00401c01
  4015a4:	e000e100 	.word	0xe000e100
  4015a8:	00989680 	.word	0x00989680
  4015ac:	0040468c 	.word	0x0040468c
  4015b0:	0040196d 	.word	0x0040196d
  4015b4:	20400a98 	.word	0x20400a98
  4015b8:	004046ac 	.word	0x004046ac
  4015bc:	40008000 	.word	0x40008000
  4015c0:	00400375 	.word	0x00400375
  4015c4:	004003a1 	.word	0x004003a1
  4015c8:	0040041b 	.word	0x0040041b
  4015cc:	00400439 	.word	0x00400439
  4015d0:	00400457 	.word	0x00400457
  4015d4:	0040046b 	.word	0x0040046b
  4015d8:	00400493 	.word	0x00400493
  4015dc:	00401225 	.word	0x00401225
  4015e0:	004012f1 	.word	0x004012f1
  4015e4:	004012b5 	.word	0x004012b5
  4015e8:	00401381 	.word	0x00401381
  4015ec:	004010f9 	.word	0x004010f9
  4015f0:	20400ac0 	.word	0x20400ac0
  4015f4:	20400001 	.word	0x20400001
  4015f8:	0007b784 	.word	0x0007b784
  4015fc:	00401171 	.word	0x00401171
  401600:	004013b1 	.word	0x004013b1
  401604:	004046cc 	.word	0x004046cc
  401608:	0181d7b6 	.word	0x0181d7b6

0040160c <__aeabi_uldivmod>:
  40160c:	b953      	cbnz	r3, 401624 <__aeabi_uldivmod+0x18>
  40160e:	b94a      	cbnz	r2, 401624 <__aeabi_uldivmod+0x18>
  401610:	2900      	cmp	r1, #0
  401612:	bf08      	it	eq
  401614:	2800      	cmpeq	r0, #0
  401616:	bf1c      	itt	ne
  401618:	f04f 31ff 	movne.w	r1, #4294967295
  40161c:	f04f 30ff 	movne.w	r0, #4294967295
  401620:	f000 b97a 	b.w	401918 <__aeabi_idiv0>
  401624:	f1ad 0c08 	sub.w	ip, sp, #8
  401628:	e96d ce04 	strd	ip, lr, [sp, #-16]!
  40162c:	f000 f806 	bl	40163c <__udivmoddi4>
  401630:	f8dd e004 	ldr.w	lr, [sp, #4]
  401634:	e9dd 2302 	ldrd	r2, r3, [sp, #8]
  401638:	b004      	add	sp, #16
  40163a:	4770      	bx	lr

0040163c <__udivmoddi4>:
  40163c:	e92d 47f0 	stmdb	sp!, {r4, r5, r6, r7, r8, r9, sl, lr}
  401640:	468c      	mov	ip, r1
  401642:	460d      	mov	r5, r1
  401644:	4604      	mov	r4, r0
  401646:	9e08      	ldr	r6, [sp, #32]
  401648:	2b00      	cmp	r3, #0
  40164a:	d151      	bne.n	4016f0 <__udivmoddi4+0xb4>
  40164c:	428a      	cmp	r2, r1
  40164e:	4617      	mov	r7, r2
  401650:	d96d      	bls.n	40172e <__udivmoddi4+0xf2>
  401652:	fab2 fe82 	clz	lr, r2
  401656:	f1be 0f00 	cmp.w	lr, #0
  40165a:	d00b      	beq.n	401674 <__udivmoddi4+0x38>
  40165c:	f1ce 0c20 	rsb	ip, lr, #32
  401660:	fa01 f50e 	lsl.w	r5, r1, lr
  401664:	fa20 fc0c 	lsr.w	ip, r0, ip
  401668:	fa02 f70e 	lsl.w	r7, r2, lr
  40166c:	ea4c 0c05 	orr.w	ip, ip, r5
  401670:	fa00 f40e 	lsl.w	r4, r0, lr
  401674:	ea4f 4a17 	mov.w	sl, r7, lsr #16
  401678:	0c25      	lsrs	r5, r4, #16
  40167a:	fbbc f8fa 	udiv	r8, ip, sl
  40167e:	fa1f f987 	uxth.w	r9, r7
  401682:	fb0a cc18 	mls	ip, sl, r8, ip
  401686:	ea45 450c 	orr.w	r5, r5, ip, lsl #16
  40168a:	fb08 f309 	mul.w	r3, r8, r9
  40168e:	42ab      	cmp	r3, r5
  401690:	d90a      	bls.n	4016a8 <__udivmoddi4+0x6c>
  401692:	19ed      	adds	r5, r5, r7
  401694:	f108 32ff 	add.w	r2, r8, #4294967295
  401698:	f080 8123 	bcs.w	4018e2 <__udivmoddi4+0x2a6>
  40169c:	42ab      	cmp	r3, r5
  40169e:	f240 8120 	bls.w	4018e2 <__udivmoddi4+0x2a6>
  4016a2:	f1a8 0802 	sub.w	r8, r8, #2
  4016a6:	443d      	add	r5, r7
  4016a8:	1aed      	subs	r5, r5, r3
  4016aa:	b2a4      	uxth	r4, r4
  4016ac:	fbb5 f0fa 	udiv	r0, r5, sl
  4016b0:	fb0a 5510 	mls	r5, sl, r0, r5
  4016b4:	ea44 4405 	orr.w	r4, r4, r5, lsl #16
  4016b8:	fb00 f909 	mul.w	r9, r0, r9
  4016bc:	45a1      	cmp	r9, r4
  4016be:	d909      	bls.n	4016d4 <__udivmoddi4+0x98>
  4016c0:	19e4      	adds	r4, r4, r7
  4016c2:	f100 33ff 	add.w	r3, r0, #4294967295
  4016c6:	f080 810a 	bcs.w	4018de <__udivmoddi4+0x2a2>
  4016ca:	45a1      	cmp	r9, r4
  4016cc:	f240 8107 	bls.w	4018de <__udivmoddi4+0x2a2>
  4016d0:	3802      	subs	r0, #2
  4016d2:	443c      	add	r4, r7
  4016d4:	eba4 0409 	sub.w	r4, r4, r9
  4016d8:	ea40 4008 	orr.w	r0, r0, r8, lsl #16
  4016dc:	2100      	movs	r1, #0
  4016de:	2e00      	cmp	r6, #0
  4016e0:	d061      	beq.n	4017a6 <__udivmoddi4+0x16a>
  4016e2:	fa24 f40e 	lsr.w	r4, r4, lr
  4016e6:	2300      	movs	r3, #0
  4016e8:	6034      	str	r4, [r6, #0]
  4016ea:	6073      	str	r3, [r6, #4]
  4016ec:	e8bd 87f0 	ldmia.w	sp!, {r4, r5, r6, r7, r8, r9, sl, pc}
  4016f0:	428b      	cmp	r3, r1
  4016f2:	d907      	bls.n	401704 <__udivmoddi4+0xc8>
  4016f4:	2e00      	cmp	r6, #0
  4016f6:	d054      	beq.n	4017a2 <__udivmoddi4+0x166>
  4016f8:	2100      	movs	r1, #0
  4016fa:	e886 0021 	stmia.w	r6, {r0, r5}
  4016fe:	4608      	mov	r0, r1
  401700:	e8bd 87f0 	ldmia.w	sp!, {r4, r5, r6, r7, r8, r9, sl, pc}
  401704:	fab3 f183 	clz	r1, r3
  401708:	2900      	cmp	r1, #0
  40170a:	f040 808e 	bne.w	40182a <__udivmoddi4+0x1ee>
  40170e:	42ab      	cmp	r3, r5
  401710:	d302      	bcc.n	401718 <__udivmoddi4+0xdc>
  401712:	4282      	cmp	r2, r0
  401714:	f200 80fa 	bhi.w	40190c <__udivmoddi4+0x2d0>
  401718:	1a84      	subs	r4, r0, r2
  40171a:	eb65 0503 	sbc.w	r5, r5, r3
  40171e:	2001      	movs	r0, #1
  401720:	46ac      	mov	ip, r5
  401722:	2e00      	cmp	r6, #0
  401724:	d03f      	beq.n	4017a6 <__udivmoddi4+0x16a>
  401726:	e886 1010 	stmia.w	r6, {r4, ip}
  40172a:	e8bd 87f0 	ldmia.w	sp!, {r4, r5, r6, r7, r8, r9, sl, pc}
  40172e:	b912      	cbnz	r2, 401736 <__udivmoddi4+0xfa>
  401730:	2701      	movs	r7, #1
  401732:	fbb7 f7f2 	udiv	r7, r7, r2
  401736:	fab7 fe87 	clz	lr, r7
  40173a:	f1be 0f00 	cmp.w	lr, #0
  40173e:	d134      	bne.n	4017aa <__udivmoddi4+0x16e>
  401740:	1beb      	subs	r3, r5, r7
  401742:	0c3a      	lsrs	r2, r7, #16
  401744:	fa1f fc87 	uxth.w	ip, r7
  401748:	2101      	movs	r1, #1
  40174a:	fbb3 f8f2 	udiv	r8, r3, r2
  40174e:	0c25      	lsrs	r5, r4, #16
  401750:	fb02 3318 	mls	r3, r2, r8, r3
  401754:	ea45 4503 	orr.w	r5, r5, r3, lsl #16
  401758:	fb0c f308 	mul.w	r3, ip, r8
  40175c:	42ab      	cmp	r3, r5
  40175e:	d907      	bls.n	401770 <__udivmoddi4+0x134>
  401760:	19ed      	adds	r5, r5, r7
  401762:	f108 30ff 	add.w	r0, r8, #4294967295
  401766:	d202      	bcs.n	40176e <__udivmoddi4+0x132>
  401768:	42ab      	cmp	r3, r5
  40176a:	f200 80d1 	bhi.w	401910 <__udivmoddi4+0x2d4>
  40176e:	4680      	mov	r8, r0
  401770:	1aed      	subs	r5, r5, r3
  401772:	b2a3      	uxth	r3, r4
  401774:	fbb5 f0f2 	udiv	r0, r5, r2
  401778:	fb02 5510 	mls	r5, r2, r0, r5
  40177c:	ea43 4405 	orr.w	r4, r3, r5, lsl #16
  401780:	fb0c fc00 	mul.w	ip, ip, r0
  401784:	45a4      	cmp	ip, r4
  401786:	d907      	bls.n	401798 <__udivmoddi4+0x15c>
  401788:	19e4      	adds	r4, r4, r7
  40178a:	f100 33ff 	add.w	r3, r0, #4294967295
  40178e:	d202      	bcs.n	401796 <__udivmoddi4+0x15a>
  401790:	45a4      	cmp	ip, r4
  401792:	f200 80b8 	bhi.w	401906 <__udivmoddi4+0x2ca>
  401796:	4618      	mov	r0, r3
  401798:	eba4 040c 	sub.w	r4, r4, ip
  40179c:	ea40 4008 	orr.w	r0, r0, r8, lsl #16
  4017a0:	e79d      	b.n	4016de <__udivmoddi4+0xa2>
  4017a2:	4631      	mov	r1, r6
  4017a4:	4630      	mov	r0, r6
  4017a6:	e8bd 87f0 	ldmia.w	sp!, {r4, r5, r6, r7, r8, r9, sl, pc}
  4017aa:	f1ce 0420 	rsb	r4, lr, #32
  4017ae:	fa05 f30e 	lsl.w	r3, r5, lr
  4017b2:	fa07 f70e 	lsl.w	r7, r7, lr
  4017b6:	fa20 f804 	lsr.w	r8, r0, r4
  4017ba:	0c3a      	lsrs	r2, r7, #16
  4017bc:	fa25 f404 	lsr.w	r4, r5, r4
  4017c0:	ea48 0803 	orr.w	r8, r8, r3
  4017c4:	fbb4 f1f2 	udiv	r1, r4, r2
  4017c8:	ea4f 4518 	mov.w	r5, r8, lsr #16
  4017cc:	fb02 4411 	mls	r4, r2, r1, r4
  4017d0:	fa1f fc87 	uxth.w	ip, r7
  4017d4:	ea45 4504 	orr.w	r5, r5, r4, lsl #16
  4017d8:	fb01 f30c 	mul.w	r3, r1, ip
  4017dc:	42ab      	cmp	r3, r5
  4017de:	fa00 f40e 	lsl.w	r4, r0, lr
  4017e2:	d909      	bls.n	4017f8 <__udivmoddi4+0x1bc>
  4017e4:	19ed      	adds	r5, r5, r7
  4017e6:	f101 30ff 	add.w	r0, r1, #4294967295
  4017ea:	f080 808a 	bcs.w	401902 <__udivmoddi4+0x2c6>
  4017ee:	42ab      	cmp	r3, r5
  4017f0:	f240 8087 	bls.w	401902 <__udivmoddi4+0x2c6>
  4017f4:	3902      	subs	r1, #2
  4017f6:	443d      	add	r5, r7
  4017f8:	1aeb      	subs	r3, r5, r3
  4017fa:	fa1f f588 	uxth.w	r5, r8
  4017fe:	fbb3 f0f2 	udiv	r0, r3, r2
  401802:	fb02 3310 	mls	r3, r2, r0, r3
  401806:	ea45 4503 	orr.w	r5, r5, r3, lsl #16
  40180a:	fb00 f30c 	mul.w	r3, r0, ip
  40180e:	42ab      	cmp	r3, r5
  401810:	d907      	bls.n	401822 <__udivmoddi4+0x1e6>
  401812:	19ed      	adds	r5, r5, r7
  401814:	f100 38ff 	add.w	r8, r0, #4294967295
  401818:	d26f      	bcs.n	4018fa <__udivmoddi4+0x2be>
  40181a:	42ab      	cmp	r3, r5
  40181c:	d96d      	bls.n	4018fa <__udivmoddi4+0x2be>
  40181e:	3802      	subs	r0, #2
  401820:	443d      	add	r5, r7
  401822:	1aeb      	subs	r3, r5, r3
  401824:	ea40 4101 	orr.w	r1, r0, r1, lsl #16
  401828:	e78f      	b.n	40174a <__udivmoddi4+0x10e>
  40182a:	f1c1 0720 	rsb	r7, r1, #32
  40182e:	fa22 f807 	lsr.w	r8, r2, r7
  401832:	408b      	lsls	r3, r1
  401834:	fa05 f401 	lsl.w	r4, r5, r1
  401838:	ea48 0303 	orr.w	r3, r8, r3
  40183c:	fa20 fe07 	lsr.w	lr, r0, r7
  401840:	ea4f 4c13 	mov.w	ip, r3, lsr #16
  401844:	40fd      	lsrs	r5, r7
  401846:	ea4e 0e04 	orr.w	lr, lr, r4
  40184a:	fbb5 f9fc 	udiv	r9, r5, ip
  40184e:	ea4f 441e 	mov.w	r4, lr, lsr #16
  401852:	fb0c 5519 	mls	r5, ip, r9, r5
  401856:	fa1f f883 	uxth.w	r8, r3
  40185a:	ea44 4505 	orr.w	r5, r4, r5, lsl #16
  40185e:	fb09 f408 	mul.w	r4, r9, r8
  401862:	42ac      	cmp	r4, r5
  401864:	fa02 f201 	lsl.w	r2, r2, r1
  401868:	fa00 fa01 	lsl.w	sl, r0, r1
  40186c:	d908      	bls.n	401880 <__udivmoddi4+0x244>
  40186e:	18ed      	adds	r5, r5, r3
  401870:	f109 30ff 	add.w	r0, r9, #4294967295
  401874:	d243      	bcs.n	4018fe <__udivmoddi4+0x2c2>
  401876:	42ac      	cmp	r4, r5
  401878:	d941      	bls.n	4018fe <__udivmoddi4+0x2c2>
  40187a:	f1a9 0902 	sub.w	r9, r9, #2
  40187e:	441d      	add	r5, r3
  401880:	1b2d      	subs	r5, r5, r4
  401882:	fa1f fe8e 	uxth.w	lr, lr
  401886:	fbb5 f0fc 	udiv	r0, r5, ip
  40188a:	fb0c 5510 	mls	r5, ip, r0, r5
  40188e:	ea4e 4405 	orr.w	r4, lr, r5, lsl #16
  401892:	fb00 f808 	mul.w	r8, r0, r8
  401896:	45a0      	cmp	r8, r4
  401898:	d907      	bls.n	4018aa <__udivmoddi4+0x26e>
  40189a:	18e4      	adds	r4, r4, r3
  40189c:	f100 35ff 	add.w	r5, r0, #4294967295
  4018a0:	d229      	bcs.n	4018f6 <__udivmoddi4+0x2ba>
  4018a2:	45a0      	cmp	r8, r4
  4018a4:	d927      	bls.n	4018f6 <__udivmoddi4+0x2ba>
  4018a6:	3802      	subs	r0, #2
  4018a8:	441c      	add	r4, r3
  4018aa:	ea40 4009 	orr.w	r0, r0, r9, lsl #16
  4018ae:	eba4 0408 	sub.w	r4, r4, r8
  4018b2:	fba0 8902 	umull	r8, r9, r0, r2
  4018b6:	454c      	cmp	r4, r9
  4018b8:	46c6      	mov	lr, r8
  4018ba:	464d      	mov	r5, r9
  4018bc:	d315      	bcc.n	4018ea <__udivmoddi4+0x2ae>
  4018be:	d012      	beq.n	4018e6 <__udivmoddi4+0x2aa>
  4018c0:	b156      	cbz	r6, 4018d8 <__udivmoddi4+0x29c>
  4018c2:	ebba 030e 	subs.w	r3, sl, lr
  4018c6:	eb64 0405 	sbc.w	r4, r4, r5
  4018ca:	fa04 f707 	lsl.w	r7, r4, r7
  4018ce:	40cb      	lsrs	r3, r1
  4018d0:	431f      	orrs	r7, r3
  4018d2:	40cc      	lsrs	r4, r1
  4018d4:	6037      	str	r7, [r6, #0]
  4018d6:	6074      	str	r4, [r6, #4]
  4018d8:	2100      	movs	r1, #0
  4018da:	e8bd 87f0 	ldmia.w	sp!, {r4, r5, r6, r7, r8, r9, sl, pc}
  4018de:	4618      	mov	r0, r3
  4018e0:	e6f8      	b.n	4016d4 <__udivmoddi4+0x98>
  4018e2:	4690      	mov	r8, r2
  4018e4:	e6e0      	b.n	4016a8 <__udivmoddi4+0x6c>
  4018e6:	45c2      	cmp	sl, r8
  4018e8:	d2ea      	bcs.n	4018c0 <__udivmoddi4+0x284>
  4018ea:	ebb8 0e02 	subs.w	lr, r8, r2
  4018ee:	eb69 0503 	sbc.w	r5, r9, r3
  4018f2:	3801      	subs	r0, #1
  4018f4:	e7e4      	b.n	4018c0 <__udivmoddi4+0x284>
  4018f6:	4628      	mov	r0, r5
  4018f8:	e7d7      	b.n	4018aa <__udivmoddi4+0x26e>
  4018fa:	4640      	mov	r0, r8
  4018fc:	e791      	b.n	401822 <__udivmoddi4+0x1e6>
  4018fe:	4681      	mov	r9, r0
  401900:	e7be      	b.n	401880 <__udivmoddi4+0x244>
  401902:	4601      	mov	r1, r0
  401904:	e778      	b.n	4017f8 <__udivmoddi4+0x1bc>
  401906:	3802      	subs	r0, #2
  401908:	443c      	add	r4, r7
  40190a:	e745      	b.n	401798 <__udivmoddi4+0x15c>
  40190c:	4608      	mov	r0, r1
  40190e:	e708      	b.n	401722 <__udivmoddi4+0xe6>
  401910:	f1a8 0802 	sub.w	r8, r8, #2
  401914:	443d      	add	r5, r7
  401916:	e72b      	b.n	401770 <__udivmoddi4+0x134>

00401918 <__aeabi_idiv0>:
  401918:	4770      	bx	lr
  40191a:	bf00      	nop

0040191c <__libc_init_array>:
  40191c:	b570      	push	{r4, r5, r6, lr}
  40191e:	4e0f      	ldr	r6, [pc, #60]	; (40195c <__libc_init_array+0x40>)
  401920:	4d0f      	ldr	r5, [pc, #60]	; (401960 <__libc_init_array+0x44>)
  401922:	1b76      	subs	r6, r6, r5
  401924:	10b6      	asrs	r6, r6, #2
  401926:	bf18      	it	ne
  401928:	2400      	movne	r4, #0
  40192a:	d005      	beq.n	401938 <__libc_init_array+0x1c>
  40192c:	3401      	adds	r4, #1
  40192e:	f855 3b04 	ldr.w	r3, [r5], #4
  401932:	4798      	blx	r3
  401934:	42a6      	cmp	r6, r4
  401936:	d1f9      	bne.n	40192c <__libc_init_array+0x10>
  401938:	4e0a      	ldr	r6, [pc, #40]	; (401964 <__libc_init_array+0x48>)
  40193a:	4d0b      	ldr	r5, [pc, #44]	; (401968 <__libc_init_array+0x4c>)
  40193c:	1b76      	subs	r6, r6, r5
  40193e:	f002 ff93 	bl	404868 <_init>
  401942:	10b6      	asrs	r6, r6, #2
  401944:	bf18      	it	ne
  401946:	2400      	movne	r4, #0
  401948:	d006      	beq.n	401958 <__libc_init_array+0x3c>
  40194a:	3401      	adds	r4, #1
  40194c:	f855 3b04 	ldr.w	r3, [r5], #4
  401950:	4798      	blx	r3
  401952:	42a6      	cmp	r6, r4
  401954:	d1f9      	bne.n	40194a <__libc_init_array+0x2e>
  401956:	bd70      	pop	{r4, r5, r6, pc}
  401958:	bd70      	pop	{r4, r5, r6, pc}
  40195a:	bf00      	nop
  40195c:	00404874 	.word	0x00404874
  401960:	00404874 	.word	0x00404874
  401964:	0040487c 	.word	0x0040487c
  401968:	00404874 	.word	0x00404874

0040196c <iprintf>:
  40196c:	b40f      	push	{r0, r1, r2, r3}
  40196e:	b500      	push	{lr}
  401970:	4907      	ldr	r1, [pc, #28]	; (401990 <iprintf+0x24>)
  401972:	b083      	sub	sp, #12
  401974:	ab04      	add	r3, sp, #16
  401976:	6808      	ldr	r0, [r1, #0]
  401978:	f853 2b04 	ldr.w	r2, [r3], #4
  40197c:	6881      	ldr	r1, [r0, #8]
  40197e:	9301      	str	r3, [sp, #4]
  401980:	f000 facc 	bl	401f1c <_vfiprintf_r>
  401984:	b003      	add	sp, #12
  401986:	f85d eb04 	ldr.w	lr, [sp], #4
  40198a:	b004      	add	sp, #16
  40198c:	4770      	bx	lr
  40198e:	bf00      	nop
  401990:	20400014 	.word	0x20400014

00401994 <memcpy>:
  401994:	4684      	mov	ip, r0
  401996:	ea41 0300 	orr.w	r3, r1, r0
  40199a:	f013 0303 	ands.w	r3, r3, #3
  40199e:	d16d      	bne.n	401a7c <memcpy+0xe8>
  4019a0:	3a40      	subs	r2, #64	; 0x40
  4019a2:	d341      	bcc.n	401a28 <memcpy+0x94>
  4019a4:	f851 3b04 	ldr.w	r3, [r1], #4
  4019a8:	f840 3b04 	str.w	r3, [r0], #4
  4019ac:	f851 3b04 	ldr.w	r3, [r1], #4
  4019b0:	f840 3b04 	str.w	r3, [r0], #4
  4019b4:	f851 3b04 	ldr.w	r3, [r1], #4
  4019b8:	f840 3b04 	str.w	r3, [r0], #4
  4019bc:	f851 3b04 	ldr.w	r3, [r1], #4
  4019c0:	f840 3b04 	str.w	r3, [r0], #4
  4019c4:	f851 3b04 	ldr.w	r3, [r1], #4
  4019c8:	f840 3b04 	str.w	r3, [r0], #4
  4019cc:	f851 3b04 	ldr.w	r3, [r1], #4
  4019d0:	f840 3b04 	str.w	r3, [r0], #4
  4019d4:	f851 3b04 	ldr.w	r3, [r1], #4
  4019d8:	f840 3b04 	str.w	r3, [r0], #4
  4019dc:	f851 3b04 	ldr.w	r3, [r1], #4
  4019e0:	f840 3b04 	str.w	r3, [r0], #4
  4019e4:	f851 3b04 	ldr.w	r3, [r1], #4
  4019e8:	f840 3b04 	str.w	r3, [r0], #4
  4019ec:	f851 3b04 	ldr.w	r3, [r1], #4
  4019f0:	f840 3b04 	str.w	r3, [r0], #4
  4019f4:	f851 3b04 	ldr.w	r3, [r1], #4
  4019f8:	f840 3b04 	str.w	r3, [r0], #4
  4019fc:	f851 3b04 	ldr.w	r3, [r1], #4
  401a00:	f840 3b04 	str.w	r3, [r0], #4
  401a04:	f851 3b04 	ldr.w	r3, [r1], #4
  401a08:	f840 3b04 	str.w	r3, [r0], #4
  401a0c:	f851 3b04 	ldr.w	r3, [r1], #4
  401a10:	f840 3b04 	str.w	r3, [r0], #4
  401a14:	f851 3b04 	ldr.w	r3, [r1], #4
  401a18:	f840 3b04 	str.w	r3, [r0], #4
  401a1c:	f851 3b04 	ldr.w	r3, [r1], #4
  401a20:	f840 3b04 	str.w	r3, [r0], #4
  401a24:	3a40      	subs	r2, #64	; 0x40
  401a26:	d2bd      	bcs.n	4019a4 <memcpy+0x10>
  401a28:	3230      	adds	r2, #48	; 0x30
  401a2a:	d311      	bcc.n	401a50 <memcpy+0xbc>
  401a2c:	f851 3b04 	ldr.w	r3, [r1], #4
  401a30:	f840 3b04 	str.w	r3, [r0], #4
  401a34:	f851 3b04 	ldr.w	r3, [r1], #4
  401a38:	f840 3b04 	str.w	r3, [r0], #4
  401a3c:	f851 3b04 	ldr.w	r3, [r1], #4
  401a40:	f840 3b04 	str.w	r3, [r0], #4
  401a44:	f851 3b04 	ldr.w	r3, [r1], #4
  401a48:	f840 3b04 	str.w	r3, [r0], #4
  401a4c:	3a10      	subs	r2, #16
  401a4e:	d2ed      	bcs.n	401a2c <memcpy+0x98>
  401a50:	320c      	adds	r2, #12
  401a52:	d305      	bcc.n	401a60 <memcpy+0xcc>
  401a54:	f851 3b04 	ldr.w	r3, [r1], #4
  401a58:	f840 3b04 	str.w	r3, [r0], #4
  401a5c:	3a04      	subs	r2, #4
  401a5e:	d2f9      	bcs.n	401a54 <memcpy+0xc0>
  401a60:	3204      	adds	r2, #4
  401a62:	d008      	beq.n	401a76 <memcpy+0xe2>
  401a64:	07d2      	lsls	r2, r2, #31
  401a66:	bf1c      	itt	ne
  401a68:	f811 3b01 	ldrbne.w	r3, [r1], #1
  401a6c:	f800 3b01 	strbne.w	r3, [r0], #1
  401a70:	d301      	bcc.n	401a76 <memcpy+0xe2>
  401a72:	880b      	ldrh	r3, [r1, #0]
  401a74:	8003      	strh	r3, [r0, #0]
  401a76:	4660      	mov	r0, ip
  401a78:	4770      	bx	lr
  401a7a:	bf00      	nop
  401a7c:	2a08      	cmp	r2, #8
  401a7e:	d313      	bcc.n	401aa8 <memcpy+0x114>
  401a80:	078b      	lsls	r3, r1, #30
  401a82:	d08d      	beq.n	4019a0 <memcpy+0xc>
  401a84:	f010 0303 	ands.w	r3, r0, #3
  401a88:	d08a      	beq.n	4019a0 <memcpy+0xc>
  401a8a:	f1c3 0304 	rsb	r3, r3, #4
  401a8e:	1ad2      	subs	r2, r2, r3
  401a90:	07db      	lsls	r3, r3, #31
  401a92:	bf1c      	itt	ne
  401a94:	f811 3b01 	ldrbne.w	r3, [r1], #1
  401a98:	f800 3b01 	strbne.w	r3, [r0], #1
  401a9c:	d380      	bcc.n	4019a0 <memcpy+0xc>
  401a9e:	f831 3b02 	ldrh.w	r3, [r1], #2
  401aa2:	f820 3b02 	strh.w	r3, [r0], #2
  401aa6:	e77b      	b.n	4019a0 <memcpy+0xc>
  401aa8:	3a04      	subs	r2, #4
  401aaa:	d3d9      	bcc.n	401a60 <memcpy+0xcc>
  401aac:	3a01      	subs	r2, #1
  401aae:	f811 3b01 	ldrb.w	r3, [r1], #1
  401ab2:	f800 3b01 	strb.w	r3, [r0], #1
  401ab6:	d2f9      	bcs.n	401aac <memcpy+0x118>
  401ab8:	780b      	ldrb	r3, [r1, #0]
  401aba:	7003      	strb	r3, [r0, #0]
  401abc:	784b      	ldrb	r3, [r1, #1]
  401abe:	7043      	strb	r3, [r0, #1]
  401ac0:	788b      	ldrb	r3, [r1, #2]
  401ac2:	7083      	strb	r3, [r0, #2]
  401ac4:	4660      	mov	r0, ip
  401ac6:	4770      	bx	lr

00401ac8 <memset>:
  401ac8:	b470      	push	{r4, r5, r6}
  401aca:	0786      	lsls	r6, r0, #30
  401acc:	d046      	beq.n	401b5c <memset+0x94>
  401ace:	1e54      	subs	r4, r2, #1
  401ad0:	2a00      	cmp	r2, #0
  401ad2:	d041      	beq.n	401b58 <memset+0x90>
  401ad4:	b2ca      	uxtb	r2, r1
  401ad6:	4603      	mov	r3, r0
  401ad8:	e002      	b.n	401ae0 <memset+0x18>
  401ada:	f114 34ff 	adds.w	r4, r4, #4294967295
  401ade:	d33b      	bcc.n	401b58 <memset+0x90>
  401ae0:	f803 2b01 	strb.w	r2, [r3], #1
  401ae4:	079d      	lsls	r5, r3, #30
  401ae6:	d1f8      	bne.n	401ada <memset+0x12>
  401ae8:	2c03      	cmp	r4, #3
  401aea:	d92e      	bls.n	401b4a <memset+0x82>
  401aec:	b2cd      	uxtb	r5, r1
  401aee:	ea45 2505 	orr.w	r5, r5, r5, lsl #8
  401af2:	2c0f      	cmp	r4, #15
  401af4:	ea45 4505 	orr.w	r5, r5, r5, lsl #16
  401af8:	d919      	bls.n	401b2e <memset+0x66>
  401afa:	f103 0210 	add.w	r2, r3, #16
  401afe:	4626      	mov	r6, r4
  401b00:	3e10      	subs	r6, #16
  401b02:	2e0f      	cmp	r6, #15
  401b04:	f842 5c10 	str.w	r5, [r2, #-16]
  401b08:	f842 5c0c 	str.w	r5, [r2, #-12]
  401b0c:	f842 5c08 	str.w	r5, [r2, #-8]
  401b10:	f842 5c04 	str.w	r5, [r2, #-4]
  401b14:	f102 0210 	add.w	r2, r2, #16
  401b18:	d8f2      	bhi.n	401b00 <memset+0x38>
  401b1a:	f1a4 0210 	sub.w	r2, r4, #16
  401b1e:	f022 020f 	bic.w	r2, r2, #15
  401b22:	f004 040f 	and.w	r4, r4, #15
  401b26:	3210      	adds	r2, #16
  401b28:	2c03      	cmp	r4, #3
  401b2a:	4413      	add	r3, r2
  401b2c:	d90d      	bls.n	401b4a <memset+0x82>
  401b2e:	461e      	mov	r6, r3
  401b30:	4622      	mov	r2, r4
  401b32:	3a04      	subs	r2, #4
  401b34:	2a03      	cmp	r2, #3
  401b36:	f846 5b04 	str.w	r5, [r6], #4
  401b3a:	d8fa      	bhi.n	401b32 <memset+0x6a>
  401b3c:	1f22      	subs	r2, r4, #4
  401b3e:	f022 0203 	bic.w	r2, r2, #3
  401b42:	3204      	adds	r2, #4
  401b44:	4413      	add	r3, r2
  401b46:	f004 0403 	and.w	r4, r4, #3
  401b4a:	b12c      	cbz	r4, 401b58 <memset+0x90>
  401b4c:	b2c9      	uxtb	r1, r1
  401b4e:	441c      	add	r4, r3
  401b50:	f803 1b01 	strb.w	r1, [r3], #1
  401b54:	429c      	cmp	r4, r3
  401b56:	d1fb      	bne.n	401b50 <memset+0x88>
  401b58:	bc70      	pop	{r4, r5, r6}
  401b5a:	4770      	bx	lr
  401b5c:	4614      	mov	r4, r2
  401b5e:	4603      	mov	r3, r0
  401b60:	e7c2      	b.n	401ae8 <memset+0x20>
  401b62:	bf00      	nop

00401b64 <_puts_r>:
  401b64:	b5f0      	push	{r4, r5, r6, r7, lr}
  401b66:	4605      	mov	r5, r0
  401b68:	b089      	sub	sp, #36	; 0x24
  401b6a:	4608      	mov	r0, r1
  401b6c:	460c      	mov	r4, r1
  401b6e:	f000 f927 	bl	401dc0 <strlen>
  401b72:	6bab      	ldr	r3, [r5, #56]	; 0x38
  401b74:	4f21      	ldr	r7, [pc, #132]	; (401bfc <_puts_r+0x98>)
  401b76:	9404      	str	r4, [sp, #16]
  401b78:	2601      	movs	r6, #1
  401b7a:	1c44      	adds	r4, r0, #1
  401b7c:	a904      	add	r1, sp, #16
  401b7e:	2202      	movs	r2, #2
  401b80:	9403      	str	r4, [sp, #12]
  401b82:	9005      	str	r0, [sp, #20]
  401b84:	68ac      	ldr	r4, [r5, #8]
  401b86:	9706      	str	r7, [sp, #24]
  401b88:	9607      	str	r6, [sp, #28]
  401b8a:	9101      	str	r1, [sp, #4]
  401b8c:	9202      	str	r2, [sp, #8]
  401b8e:	b353      	cbz	r3, 401be6 <_puts_r+0x82>
  401b90:	6e63      	ldr	r3, [r4, #100]	; 0x64
  401b92:	f013 0f01 	tst.w	r3, #1
  401b96:	f9b4 300c 	ldrsh.w	r3, [r4, #12]
  401b9a:	b29a      	uxth	r2, r3
  401b9c:	d101      	bne.n	401ba2 <_puts_r+0x3e>
  401b9e:	0590      	lsls	r0, r2, #22
  401ba0:	d525      	bpl.n	401bee <_puts_r+0x8a>
  401ba2:	0491      	lsls	r1, r2, #18
  401ba4:	d406      	bmi.n	401bb4 <_puts_r+0x50>
  401ba6:	6e62      	ldr	r2, [r4, #100]	; 0x64
  401ba8:	f443 5300 	orr.w	r3, r3, #8192	; 0x2000
  401bac:	f422 5200 	bic.w	r2, r2, #8192	; 0x2000
  401bb0:	81a3      	strh	r3, [r4, #12]
  401bb2:	6662      	str	r2, [r4, #100]	; 0x64
  401bb4:	4628      	mov	r0, r5
  401bb6:	aa01      	add	r2, sp, #4
  401bb8:	4621      	mov	r1, r4
  401bba:	f001 fbb1 	bl	403320 <__sfvwrite_r>
  401bbe:	6e63      	ldr	r3, [r4, #100]	; 0x64
  401bc0:	2800      	cmp	r0, #0
  401bc2:	bf0c      	ite	eq
  401bc4:	250a      	moveq	r5, #10
  401bc6:	f04f 35ff 	movne.w	r5, #4294967295
  401bca:	07da      	lsls	r2, r3, #31
  401bcc:	d402      	bmi.n	401bd4 <_puts_r+0x70>
  401bce:	89a3      	ldrh	r3, [r4, #12]
  401bd0:	059b      	lsls	r3, r3, #22
  401bd2:	d502      	bpl.n	401bda <_puts_r+0x76>
  401bd4:	4628      	mov	r0, r5
  401bd6:	b009      	add	sp, #36	; 0x24
  401bd8:	bdf0      	pop	{r4, r5, r6, r7, pc}
  401bda:	6da0      	ldr	r0, [r4, #88]	; 0x58
  401bdc:	f001 fd56 	bl	40368c <__retarget_lock_release_recursive>
  401be0:	4628      	mov	r0, r5
  401be2:	b009      	add	sp, #36	; 0x24
  401be4:	bdf0      	pop	{r4, r5, r6, r7, pc}
  401be6:	4628      	mov	r0, r5
  401be8:	f001 f98e 	bl	402f08 <__sinit>
  401bec:	e7d0      	b.n	401b90 <_puts_r+0x2c>
  401bee:	6da0      	ldr	r0, [r4, #88]	; 0x58
  401bf0:	f001 fd4a 	bl	403688 <__retarget_lock_acquire_recursive>
  401bf4:	f9b4 300c 	ldrsh.w	r3, [r4, #12]
  401bf8:	b29a      	uxth	r2, r3
  401bfa:	e7d2      	b.n	401ba2 <_puts_r+0x3e>
  401bfc:	00404700 	.word	0x00404700

00401c00 <puts>:
  401c00:	4b02      	ldr	r3, [pc, #8]	; (401c0c <puts+0xc>)
  401c02:	4601      	mov	r1, r0
  401c04:	6818      	ldr	r0, [r3, #0]
  401c06:	f7ff bfad 	b.w	401b64 <_puts_r>
  401c0a:	bf00      	nop
  401c0c:	20400014 	.word	0x20400014

00401c10 <setbuf>:
  401c10:	2900      	cmp	r1, #0
  401c12:	bf0c      	ite	eq
  401c14:	2202      	moveq	r2, #2
  401c16:	2200      	movne	r2, #0
  401c18:	f44f 6380 	mov.w	r3, #1024	; 0x400
  401c1c:	f000 b800 	b.w	401c20 <setvbuf>

00401c20 <setvbuf>:
  401c20:	e92d 43f0 	stmdb	sp!, {r4, r5, r6, r7, r8, r9, lr}
  401c24:	4c61      	ldr	r4, [pc, #388]	; (401dac <setvbuf+0x18c>)
  401c26:	6825      	ldr	r5, [r4, #0]
  401c28:	b083      	sub	sp, #12
  401c2a:	4604      	mov	r4, r0
  401c2c:	460f      	mov	r7, r1
  401c2e:	4690      	mov	r8, r2
  401c30:	461e      	mov	r6, r3
  401c32:	b115      	cbz	r5, 401c3a <setvbuf+0x1a>
  401c34:	6bab      	ldr	r3, [r5, #56]	; 0x38
  401c36:	2b00      	cmp	r3, #0
  401c38:	d064      	beq.n	401d04 <setvbuf+0xe4>
  401c3a:	f1b8 0f02 	cmp.w	r8, #2
  401c3e:	d006      	beq.n	401c4e <setvbuf+0x2e>
  401c40:	f1b8 0f01 	cmp.w	r8, #1
  401c44:	f200 809f 	bhi.w	401d86 <setvbuf+0x166>
  401c48:	2e00      	cmp	r6, #0
  401c4a:	f2c0 809c 	blt.w	401d86 <setvbuf+0x166>
  401c4e:	6e63      	ldr	r3, [r4, #100]	; 0x64
  401c50:	07d8      	lsls	r0, r3, #31
  401c52:	d534      	bpl.n	401cbe <setvbuf+0x9e>
  401c54:	4621      	mov	r1, r4
  401c56:	4628      	mov	r0, r5
  401c58:	f001 f8fe 	bl	402e58 <_fflush_r>
  401c5c:	6b21      	ldr	r1, [r4, #48]	; 0x30
  401c5e:	b141      	cbz	r1, 401c72 <setvbuf+0x52>
  401c60:	f104 0340 	add.w	r3, r4, #64	; 0x40
  401c64:	4299      	cmp	r1, r3
  401c66:	d002      	beq.n	401c6e <setvbuf+0x4e>
  401c68:	4628      	mov	r0, r5
  401c6a:	f001 fa73 	bl	403154 <_free_r>
  401c6e:	2300      	movs	r3, #0
  401c70:	6323      	str	r3, [r4, #48]	; 0x30
  401c72:	f9b4 300c 	ldrsh.w	r3, [r4, #12]
  401c76:	2200      	movs	r2, #0
  401c78:	61a2      	str	r2, [r4, #24]
  401c7a:	6062      	str	r2, [r4, #4]
  401c7c:	061a      	lsls	r2, r3, #24
  401c7e:	d43a      	bmi.n	401cf6 <setvbuf+0xd6>
  401c80:	f423 634a 	bic.w	r3, r3, #3232	; 0xca0
  401c84:	f023 0303 	bic.w	r3, r3, #3
  401c88:	f1b8 0f02 	cmp.w	r8, #2
  401c8c:	81a3      	strh	r3, [r4, #12]
  401c8e:	d01d      	beq.n	401ccc <setvbuf+0xac>
  401c90:	ab01      	add	r3, sp, #4
  401c92:	466a      	mov	r2, sp
  401c94:	4621      	mov	r1, r4
  401c96:	4628      	mov	r0, r5
  401c98:	f001 fcfa 	bl	403690 <__swhatbuf_r>
  401c9c:	89a3      	ldrh	r3, [r4, #12]
  401c9e:	4318      	orrs	r0, r3
  401ca0:	81a0      	strh	r0, [r4, #12]
  401ca2:	2e00      	cmp	r6, #0
  401ca4:	d132      	bne.n	401d0c <setvbuf+0xec>
  401ca6:	9e00      	ldr	r6, [sp, #0]
  401ca8:	4630      	mov	r0, r6
  401caa:	f001 fd69 	bl	403780 <malloc>
  401cae:	4607      	mov	r7, r0
  401cb0:	2800      	cmp	r0, #0
  401cb2:	d06b      	beq.n	401d8c <setvbuf+0x16c>
  401cb4:	89a3      	ldrh	r3, [r4, #12]
  401cb6:	f043 0380 	orr.w	r3, r3, #128	; 0x80
  401cba:	81a3      	strh	r3, [r4, #12]
  401cbc:	e028      	b.n	401d10 <setvbuf+0xf0>
  401cbe:	89a3      	ldrh	r3, [r4, #12]
  401cc0:	0599      	lsls	r1, r3, #22
  401cc2:	d4c7      	bmi.n	401c54 <setvbuf+0x34>
  401cc4:	6da0      	ldr	r0, [r4, #88]	; 0x58
  401cc6:	f001 fcdf 	bl	403688 <__retarget_lock_acquire_recursive>
  401cca:	e7c3      	b.n	401c54 <setvbuf+0x34>
  401ccc:	2500      	movs	r5, #0
  401cce:	6e61      	ldr	r1, [r4, #100]	; 0x64
  401cd0:	2600      	movs	r6, #0
  401cd2:	f104 0243 	add.w	r2, r4, #67	; 0x43
  401cd6:	f043 0302 	orr.w	r3, r3, #2
  401cda:	2001      	movs	r0, #1
  401cdc:	60a6      	str	r6, [r4, #8]
  401cde:	07ce      	lsls	r6, r1, #31
  401ce0:	81a3      	strh	r3, [r4, #12]
  401ce2:	6022      	str	r2, [r4, #0]
  401ce4:	6122      	str	r2, [r4, #16]
  401ce6:	6160      	str	r0, [r4, #20]
  401ce8:	d401      	bmi.n	401cee <setvbuf+0xce>
  401cea:	0598      	lsls	r0, r3, #22
  401cec:	d53e      	bpl.n	401d6c <setvbuf+0x14c>
  401cee:	4628      	mov	r0, r5
  401cf0:	b003      	add	sp, #12
  401cf2:	e8bd 83f0 	ldmia.w	sp!, {r4, r5, r6, r7, r8, r9, pc}
  401cf6:	6921      	ldr	r1, [r4, #16]
  401cf8:	4628      	mov	r0, r5
  401cfa:	f001 fa2b 	bl	403154 <_free_r>
  401cfe:	f9b4 300c 	ldrsh.w	r3, [r4, #12]
  401d02:	e7bd      	b.n	401c80 <setvbuf+0x60>
  401d04:	4628      	mov	r0, r5
  401d06:	f001 f8ff 	bl	402f08 <__sinit>
  401d0a:	e796      	b.n	401c3a <setvbuf+0x1a>
  401d0c:	2f00      	cmp	r7, #0
  401d0e:	d0cb      	beq.n	401ca8 <setvbuf+0x88>
  401d10:	6bab      	ldr	r3, [r5, #56]	; 0x38
  401d12:	2b00      	cmp	r3, #0
  401d14:	d033      	beq.n	401d7e <setvbuf+0x15e>
  401d16:	9b00      	ldr	r3, [sp, #0]
  401d18:	f9b4 200c 	ldrsh.w	r2, [r4, #12]
  401d1c:	6027      	str	r7, [r4, #0]
  401d1e:	429e      	cmp	r6, r3
  401d20:	bf1c      	itt	ne
  401d22:	f442 6200 	orrne.w	r2, r2, #2048	; 0x800
  401d26:	81a2      	strhne	r2, [r4, #12]
  401d28:	f1b8 0f01 	cmp.w	r8, #1
  401d2c:	bf04      	itt	eq
  401d2e:	f042 0201 	orreq.w	r2, r2, #1
  401d32:	81a2      	strheq	r2, [r4, #12]
  401d34:	b292      	uxth	r2, r2
  401d36:	f012 0308 	ands.w	r3, r2, #8
  401d3a:	6127      	str	r7, [r4, #16]
  401d3c:	6166      	str	r6, [r4, #20]
  401d3e:	d00e      	beq.n	401d5e <setvbuf+0x13e>
  401d40:	07d1      	lsls	r1, r2, #31
  401d42:	d51a      	bpl.n	401d7a <setvbuf+0x15a>
  401d44:	6e65      	ldr	r5, [r4, #100]	; 0x64
  401d46:	4276      	negs	r6, r6
  401d48:	2300      	movs	r3, #0
  401d4a:	f015 0501 	ands.w	r5, r5, #1
  401d4e:	61a6      	str	r6, [r4, #24]
  401d50:	60a3      	str	r3, [r4, #8]
  401d52:	d009      	beq.n	401d68 <setvbuf+0x148>
  401d54:	2500      	movs	r5, #0
  401d56:	4628      	mov	r0, r5
  401d58:	b003      	add	sp, #12
  401d5a:	e8bd 83f0 	ldmia.w	sp!, {r4, r5, r6, r7, r8, r9, pc}
  401d5e:	60a3      	str	r3, [r4, #8]
  401d60:	6e65      	ldr	r5, [r4, #100]	; 0x64
  401d62:	f015 0501 	ands.w	r5, r5, #1
  401d66:	d1f5      	bne.n	401d54 <setvbuf+0x134>
  401d68:	0593      	lsls	r3, r2, #22
  401d6a:	d4c0      	bmi.n	401cee <setvbuf+0xce>
  401d6c:	6da0      	ldr	r0, [r4, #88]	; 0x58
  401d6e:	f001 fc8d 	bl	40368c <__retarget_lock_release_recursive>
  401d72:	4628      	mov	r0, r5
  401d74:	b003      	add	sp, #12
  401d76:	e8bd 83f0 	ldmia.w	sp!, {r4, r5, r6, r7, r8, r9, pc}
  401d7a:	60a6      	str	r6, [r4, #8]
  401d7c:	e7f0      	b.n	401d60 <setvbuf+0x140>
  401d7e:	4628      	mov	r0, r5
  401d80:	f001 f8c2 	bl	402f08 <__sinit>
  401d84:	e7c7      	b.n	401d16 <setvbuf+0xf6>
  401d86:	f04f 35ff 	mov.w	r5, #4294967295
  401d8a:	e7b0      	b.n	401cee <setvbuf+0xce>
  401d8c:	f8dd 9000 	ldr.w	r9, [sp]
  401d90:	45b1      	cmp	r9, r6
  401d92:	d004      	beq.n	401d9e <setvbuf+0x17e>
  401d94:	4648      	mov	r0, r9
  401d96:	f001 fcf3 	bl	403780 <malloc>
  401d9a:	4607      	mov	r7, r0
  401d9c:	b920      	cbnz	r0, 401da8 <setvbuf+0x188>
  401d9e:	f9b4 300c 	ldrsh.w	r3, [r4, #12]
  401da2:	f04f 35ff 	mov.w	r5, #4294967295
  401da6:	e792      	b.n	401cce <setvbuf+0xae>
  401da8:	464e      	mov	r6, r9
  401daa:	e783      	b.n	401cb4 <setvbuf+0x94>
  401dac:	20400014 	.word	0x20400014
	...

00401dc0 <strlen>:
  401dc0:	f890 f000 	pld	[r0]
  401dc4:	e96d 4502 	strd	r4, r5, [sp, #-8]!
  401dc8:	f020 0107 	bic.w	r1, r0, #7
  401dcc:	f06f 0c00 	mvn.w	ip, #0
  401dd0:	f010 0407 	ands.w	r4, r0, #7
  401dd4:	f891 f020 	pld	[r1, #32]
  401dd8:	f040 8049 	bne.w	401e6e <strlen+0xae>
  401ddc:	f04f 0400 	mov.w	r4, #0
  401de0:	f06f 0007 	mvn.w	r0, #7
  401de4:	e9d1 2300 	ldrd	r2, r3, [r1]
  401de8:	f891 f040 	pld	[r1, #64]	; 0x40
  401dec:	f100 0008 	add.w	r0, r0, #8
  401df0:	fa82 f24c 	uadd8	r2, r2, ip
  401df4:	faa4 f28c 	sel	r2, r4, ip
  401df8:	fa83 f34c 	uadd8	r3, r3, ip
  401dfc:	faa2 f38c 	sel	r3, r2, ip
  401e00:	bb4b      	cbnz	r3, 401e56 <strlen+0x96>
  401e02:	e9d1 2302 	ldrd	r2, r3, [r1, #8]
  401e06:	fa82 f24c 	uadd8	r2, r2, ip
  401e0a:	f100 0008 	add.w	r0, r0, #8
  401e0e:	faa4 f28c 	sel	r2, r4, ip
  401e12:	fa83 f34c 	uadd8	r3, r3, ip
  401e16:	faa2 f38c 	sel	r3, r2, ip
  401e1a:	b9e3      	cbnz	r3, 401e56 <strlen+0x96>
  401e1c:	e9d1 2304 	ldrd	r2, r3, [r1, #16]
  401e20:	fa82 f24c 	uadd8	r2, r2, ip
  401e24:	f100 0008 	add.w	r0, r0, #8
  401e28:	faa4 f28c 	sel	r2, r4, ip
  401e2c:	fa83 f34c 	uadd8	r3, r3, ip
  401e30:	faa2 f38c 	sel	r3, r2, ip
  401e34:	b97b      	cbnz	r3, 401e56 <strlen+0x96>
  401e36:	e9d1 2306 	ldrd	r2, r3, [r1, #24]
  401e3a:	f101 0120 	add.w	r1, r1, #32
  401e3e:	fa82 f24c 	uadd8	r2, r2, ip
  401e42:	f100 0008 	add.w	r0, r0, #8
  401e46:	faa4 f28c 	sel	r2, r4, ip
  401e4a:	fa83 f34c 	uadd8	r3, r3, ip
  401e4e:	faa2 f38c 	sel	r3, r2, ip
  401e52:	2b00      	cmp	r3, #0
  401e54:	d0c6      	beq.n	401de4 <strlen+0x24>
  401e56:	2a00      	cmp	r2, #0
  401e58:	bf04      	itt	eq
  401e5a:	3004      	addeq	r0, #4
  401e5c:	461a      	moveq	r2, r3
  401e5e:	ba12      	rev	r2, r2
  401e60:	fab2 f282 	clz	r2, r2
  401e64:	e8fd 4502 	ldrd	r4, r5, [sp], #8
  401e68:	eb00 00d2 	add.w	r0, r0, r2, lsr #3
  401e6c:	4770      	bx	lr
  401e6e:	e9d1 2300 	ldrd	r2, r3, [r1]
  401e72:	f004 0503 	and.w	r5, r4, #3
  401e76:	f1c4 0000 	rsb	r0, r4, #0
  401e7a:	ea4f 05c5 	mov.w	r5, r5, lsl #3
  401e7e:	f014 0f04 	tst.w	r4, #4
  401e82:	f891 f040 	pld	[r1, #64]	; 0x40
  401e86:	fa0c f505 	lsl.w	r5, ip, r5
  401e8a:	ea62 0205 	orn	r2, r2, r5
  401e8e:	bf1c      	itt	ne
  401e90:	ea63 0305 	ornne	r3, r3, r5
  401e94:	4662      	movne	r2, ip
  401e96:	f04f 0400 	mov.w	r4, #0
  401e9a:	e7a9      	b.n	401df0 <strlen+0x30>

00401e9c <__sprint_r.part.0>:
  401e9c:	e92d 4ff8 	stmdb	sp!, {r3, r4, r5, r6, r7, r8, r9, sl, fp, lr}
  401ea0:	6e4b      	ldr	r3, [r1, #100]	; 0x64
  401ea2:	049c      	lsls	r4, r3, #18
  401ea4:	4693      	mov	fp, r2
  401ea6:	d52f      	bpl.n	401f08 <__sprint_r.part.0+0x6c>
  401ea8:	6893      	ldr	r3, [r2, #8]
  401eaa:	6812      	ldr	r2, [r2, #0]
  401eac:	b353      	cbz	r3, 401f04 <__sprint_r.part.0+0x68>
  401eae:	460e      	mov	r6, r1
  401eb0:	4607      	mov	r7, r0
  401eb2:	f102 0908 	add.w	r9, r2, #8
  401eb6:	e919 0420 	ldmdb	r9, {r5, sl}
  401eba:	ea5f 089a 	movs.w	r8, sl, lsr #2
  401ebe:	d017      	beq.n	401ef0 <__sprint_r.part.0+0x54>
  401ec0:	3d04      	subs	r5, #4
  401ec2:	2400      	movs	r4, #0
  401ec4:	e001      	b.n	401eca <__sprint_r.part.0+0x2e>
  401ec6:	45a0      	cmp	r8, r4
  401ec8:	d010      	beq.n	401eec <__sprint_r.part.0+0x50>
  401eca:	4632      	mov	r2, r6
  401ecc:	f855 1f04 	ldr.w	r1, [r5, #4]!
  401ed0:	4638      	mov	r0, r7
  401ed2:	f001 f8bb 	bl	40304c <_fputwc_r>
  401ed6:	1c43      	adds	r3, r0, #1
  401ed8:	f104 0401 	add.w	r4, r4, #1
  401edc:	d1f3      	bne.n	401ec6 <__sprint_r.part.0+0x2a>
  401ede:	2300      	movs	r3, #0
  401ee0:	f8cb 3008 	str.w	r3, [fp, #8]
  401ee4:	f8cb 3004 	str.w	r3, [fp, #4]
  401ee8:	e8bd 8ff8 	ldmia.w	sp!, {r3, r4, r5, r6, r7, r8, r9, sl, fp, pc}
  401eec:	f8db 3008 	ldr.w	r3, [fp, #8]
  401ef0:	f02a 0a03 	bic.w	sl, sl, #3
  401ef4:	eba3 030a 	sub.w	r3, r3, sl
  401ef8:	f8cb 3008 	str.w	r3, [fp, #8]
  401efc:	f109 0908 	add.w	r9, r9, #8
  401f00:	2b00      	cmp	r3, #0
  401f02:	d1d8      	bne.n	401eb6 <__sprint_r.part.0+0x1a>
  401f04:	2000      	movs	r0, #0
  401f06:	e7ea      	b.n	401ede <__sprint_r.part.0+0x42>
  401f08:	f001 fa0a 	bl	403320 <__sfvwrite_r>
  401f0c:	2300      	movs	r3, #0
  401f0e:	f8cb 3008 	str.w	r3, [fp, #8]
  401f12:	f8cb 3004 	str.w	r3, [fp, #4]
  401f16:	e8bd 8ff8 	ldmia.w	sp!, {r3, r4, r5, r6, r7, r8, r9, sl, fp, pc}
  401f1a:	bf00      	nop

00401f1c <_vfiprintf_r>:
  401f1c:	e92d 4ff0 	stmdb	sp!, {r4, r5, r6, r7, r8, r9, sl, fp, lr}
  401f20:	b0ad      	sub	sp, #180	; 0xb4
  401f22:	461d      	mov	r5, r3
  401f24:	468b      	mov	fp, r1
  401f26:	4690      	mov	r8, r2
  401f28:	9307      	str	r3, [sp, #28]
  401f2a:	9006      	str	r0, [sp, #24]
  401f2c:	b118      	cbz	r0, 401f36 <_vfiprintf_r+0x1a>
  401f2e:	6b83      	ldr	r3, [r0, #56]	; 0x38
  401f30:	2b00      	cmp	r3, #0
  401f32:	f000 80f3 	beq.w	40211c <_vfiprintf_r+0x200>
  401f36:	f8db 3064 	ldr.w	r3, [fp, #100]	; 0x64
  401f3a:	f9bb 000c 	ldrsh.w	r0, [fp, #12]
  401f3e:	07df      	lsls	r7, r3, #31
  401f40:	b281      	uxth	r1, r0
  401f42:	d402      	bmi.n	401f4a <_vfiprintf_r+0x2e>
  401f44:	058e      	lsls	r6, r1, #22
  401f46:	f140 80fc 	bpl.w	402142 <_vfiprintf_r+0x226>
  401f4a:	048c      	lsls	r4, r1, #18
  401f4c:	d40a      	bmi.n	401f64 <_vfiprintf_r+0x48>
  401f4e:	f8db 3064 	ldr.w	r3, [fp, #100]	; 0x64
  401f52:	f440 5100 	orr.w	r1, r0, #8192	; 0x2000
  401f56:	f423 5300 	bic.w	r3, r3, #8192	; 0x2000
  401f5a:	f8ab 100c 	strh.w	r1, [fp, #12]
  401f5e:	f8cb 3064 	str.w	r3, [fp, #100]	; 0x64
  401f62:	b289      	uxth	r1, r1
  401f64:	0708      	lsls	r0, r1, #28
  401f66:	f140 80b3 	bpl.w	4020d0 <_vfiprintf_r+0x1b4>
  401f6a:	f8db 3010 	ldr.w	r3, [fp, #16]
  401f6e:	2b00      	cmp	r3, #0
  401f70:	f000 80ae 	beq.w	4020d0 <_vfiprintf_r+0x1b4>
  401f74:	f001 031a 	and.w	r3, r1, #26
  401f78:	2b0a      	cmp	r3, #10
  401f7a:	f000 80b5 	beq.w	4020e8 <_vfiprintf_r+0x1cc>
  401f7e:	2300      	movs	r3, #0
  401f80:	f10d 0970 	add.w	r9, sp, #112	; 0x70
  401f84:	930b      	str	r3, [sp, #44]	; 0x2c
  401f86:	9311      	str	r3, [sp, #68]	; 0x44
  401f88:	9310      	str	r3, [sp, #64]	; 0x40
  401f8a:	9303      	str	r3, [sp, #12]
  401f8c:	f8cd 903c 	str.w	r9, [sp, #60]	; 0x3c
  401f90:	46ca      	mov	sl, r9
  401f92:	f8cd b010 	str.w	fp, [sp, #16]
  401f96:	f898 3000 	ldrb.w	r3, [r8]
  401f9a:	4644      	mov	r4, r8
  401f9c:	b1fb      	cbz	r3, 401fde <_vfiprintf_r+0xc2>
  401f9e:	2b25      	cmp	r3, #37	; 0x25
  401fa0:	d102      	bne.n	401fa8 <_vfiprintf_r+0x8c>
  401fa2:	e01c      	b.n	401fde <_vfiprintf_r+0xc2>
  401fa4:	2b25      	cmp	r3, #37	; 0x25
  401fa6:	d003      	beq.n	401fb0 <_vfiprintf_r+0x94>
  401fa8:	f814 3f01 	ldrb.w	r3, [r4, #1]!
  401fac:	2b00      	cmp	r3, #0
  401fae:	d1f9      	bne.n	401fa4 <_vfiprintf_r+0x88>
  401fb0:	eba4 0508 	sub.w	r5, r4, r8
  401fb4:	b19d      	cbz	r5, 401fde <_vfiprintf_r+0xc2>
  401fb6:	9b10      	ldr	r3, [sp, #64]	; 0x40
  401fb8:	9a11      	ldr	r2, [sp, #68]	; 0x44
  401fba:	f8ca 8000 	str.w	r8, [sl]
  401fbe:	3301      	adds	r3, #1
  401fc0:	442a      	add	r2, r5
  401fc2:	2b07      	cmp	r3, #7
  401fc4:	f8ca 5004 	str.w	r5, [sl, #4]
  401fc8:	9211      	str	r2, [sp, #68]	; 0x44
  401fca:	9310      	str	r3, [sp, #64]	; 0x40
  401fcc:	dd7a      	ble.n	4020c4 <_vfiprintf_r+0x1a8>
  401fce:	2a00      	cmp	r2, #0
  401fd0:	f040 84b0 	bne.w	402934 <_vfiprintf_r+0xa18>
  401fd4:	9b03      	ldr	r3, [sp, #12]
  401fd6:	9210      	str	r2, [sp, #64]	; 0x40
  401fd8:	442b      	add	r3, r5
  401fda:	46ca      	mov	sl, r9
  401fdc:	9303      	str	r3, [sp, #12]
  401fde:	7823      	ldrb	r3, [r4, #0]
  401fe0:	2b00      	cmp	r3, #0
  401fe2:	f000 83e0 	beq.w	4027a6 <_vfiprintf_r+0x88a>
  401fe6:	2000      	movs	r0, #0
  401fe8:	f04f 0300 	mov.w	r3, #0
  401fec:	f88d 3037 	strb.w	r3, [sp, #55]	; 0x37
  401ff0:	f104 0801 	add.w	r8, r4, #1
  401ff4:	7862      	ldrb	r2, [r4, #1]
  401ff6:	4605      	mov	r5, r0
  401ff8:	4606      	mov	r6, r0
  401ffa:	4603      	mov	r3, r0
  401ffc:	f04f 34ff 	mov.w	r4, #4294967295
  402000:	f108 0801 	add.w	r8, r8, #1
  402004:	f1a2 0120 	sub.w	r1, r2, #32
  402008:	2958      	cmp	r1, #88	; 0x58
  40200a:	f200 82de 	bhi.w	4025ca <_vfiprintf_r+0x6ae>
  40200e:	e8df f011 	tbh	[pc, r1, lsl #1]
  402012:	0221      	.short	0x0221
  402014:	02dc02dc 	.word	0x02dc02dc
  402018:	02dc0229 	.word	0x02dc0229
  40201c:	02dc02dc 	.word	0x02dc02dc
  402020:	02dc02dc 	.word	0x02dc02dc
  402024:	028902dc 	.word	0x028902dc
  402028:	02dc0295 	.word	0x02dc0295
  40202c:	02bd00a2 	.word	0x02bd00a2
  402030:	019f02dc 	.word	0x019f02dc
  402034:	01a401a4 	.word	0x01a401a4
  402038:	01a401a4 	.word	0x01a401a4
  40203c:	01a401a4 	.word	0x01a401a4
  402040:	01a401a4 	.word	0x01a401a4
  402044:	02dc01a4 	.word	0x02dc01a4
  402048:	02dc02dc 	.word	0x02dc02dc
  40204c:	02dc02dc 	.word	0x02dc02dc
  402050:	02dc02dc 	.word	0x02dc02dc
  402054:	02dc02dc 	.word	0x02dc02dc
  402058:	01b202dc 	.word	0x01b202dc
  40205c:	02dc02dc 	.word	0x02dc02dc
  402060:	02dc02dc 	.word	0x02dc02dc
  402064:	02dc02dc 	.word	0x02dc02dc
  402068:	02dc02dc 	.word	0x02dc02dc
  40206c:	02dc02dc 	.word	0x02dc02dc
  402070:	02dc0197 	.word	0x02dc0197
  402074:	02dc02dc 	.word	0x02dc02dc
  402078:	02dc02dc 	.word	0x02dc02dc
  40207c:	02dc019b 	.word	0x02dc019b
  402080:	025302dc 	.word	0x025302dc
  402084:	02dc02dc 	.word	0x02dc02dc
  402088:	02dc02dc 	.word	0x02dc02dc
  40208c:	02dc02dc 	.word	0x02dc02dc
  402090:	02dc02dc 	.word	0x02dc02dc
  402094:	02dc02dc 	.word	0x02dc02dc
  402098:	021b025a 	.word	0x021b025a
  40209c:	02dc02dc 	.word	0x02dc02dc
  4020a0:	026e02dc 	.word	0x026e02dc
  4020a4:	02dc021b 	.word	0x02dc021b
  4020a8:	027302dc 	.word	0x027302dc
  4020ac:	01f502dc 	.word	0x01f502dc
  4020b0:	02090182 	.word	0x02090182
  4020b4:	02dc02d7 	.word	0x02dc02d7
  4020b8:	02dc029a 	.word	0x02dc029a
  4020bc:	02dc00a7 	.word	0x02dc00a7
  4020c0:	022e02dc 	.word	0x022e02dc
  4020c4:	f10a 0a08 	add.w	sl, sl, #8
  4020c8:	9b03      	ldr	r3, [sp, #12]
  4020ca:	442b      	add	r3, r5
  4020cc:	9303      	str	r3, [sp, #12]
  4020ce:	e786      	b.n	401fde <_vfiprintf_r+0xc2>
  4020d0:	4659      	mov	r1, fp
  4020d2:	9806      	ldr	r0, [sp, #24]
  4020d4:	f000 fdac 	bl	402c30 <__swsetup_r>
  4020d8:	bb18      	cbnz	r0, 402122 <_vfiprintf_r+0x206>
  4020da:	f8bb 100c 	ldrh.w	r1, [fp, #12]
  4020de:	f001 031a 	and.w	r3, r1, #26
  4020e2:	2b0a      	cmp	r3, #10
  4020e4:	f47f af4b 	bne.w	401f7e <_vfiprintf_r+0x62>
  4020e8:	f9bb 300e 	ldrsh.w	r3, [fp, #14]
  4020ec:	2b00      	cmp	r3, #0
  4020ee:	f6ff af46 	blt.w	401f7e <_vfiprintf_r+0x62>
  4020f2:	f8db 3064 	ldr.w	r3, [fp, #100]	; 0x64
  4020f6:	07db      	lsls	r3, r3, #31
  4020f8:	d405      	bmi.n	402106 <_vfiprintf_r+0x1ea>
  4020fa:	058f      	lsls	r7, r1, #22
  4020fc:	d403      	bmi.n	402106 <_vfiprintf_r+0x1ea>
  4020fe:	f8db 0058 	ldr.w	r0, [fp, #88]	; 0x58
  402102:	f001 fac3 	bl	40368c <__retarget_lock_release_recursive>
  402106:	462b      	mov	r3, r5
  402108:	4642      	mov	r2, r8
  40210a:	4659      	mov	r1, fp
  40210c:	9806      	ldr	r0, [sp, #24]
  40210e:	f000 fd4d 	bl	402bac <__sbprintf>
  402112:	9003      	str	r0, [sp, #12]
  402114:	9803      	ldr	r0, [sp, #12]
  402116:	b02d      	add	sp, #180	; 0xb4
  402118:	e8bd 8ff0 	ldmia.w	sp!, {r4, r5, r6, r7, r8, r9, sl, fp, pc}
  40211c:	f000 fef4 	bl	402f08 <__sinit>
  402120:	e709      	b.n	401f36 <_vfiprintf_r+0x1a>
  402122:	f8db 3064 	ldr.w	r3, [fp, #100]	; 0x64
  402126:	07d9      	lsls	r1, r3, #31
  402128:	d404      	bmi.n	402134 <_vfiprintf_r+0x218>
  40212a:	f8bb 300c 	ldrh.w	r3, [fp, #12]
  40212e:	059a      	lsls	r2, r3, #22
  402130:	f140 84aa 	bpl.w	402a88 <_vfiprintf_r+0xb6c>
  402134:	f04f 33ff 	mov.w	r3, #4294967295
  402138:	9303      	str	r3, [sp, #12]
  40213a:	9803      	ldr	r0, [sp, #12]
  40213c:	b02d      	add	sp, #180	; 0xb4
  40213e:	e8bd 8ff0 	ldmia.w	sp!, {r4, r5, r6, r7, r8, r9, sl, fp, pc}
  402142:	f8db 0058 	ldr.w	r0, [fp, #88]	; 0x58
  402146:	f001 fa9f 	bl	403688 <__retarget_lock_acquire_recursive>
  40214a:	f9bb 000c 	ldrsh.w	r0, [fp, #12]
  40214e:	b281      	uxth	r1, r0
  402150:	e6fb      	b.n	401f4a <_vfiprintf_r+0x2e>
  402152:	4276      	negs	r6, r6
  402154:	9207      	str	r2, [sp, #28]
  402156:	f043 0304 	orr.w	r3, r3, #4
  40215a:	f898 2000 	ldrb.w	r2, [r8]
  40215e:	e74f      	b.n	402000 <_vfiprintf_r+0xe4>
  402160:	9608      	str	r6, [sp, #32]
  402162:	069e      	lsls	r6, r3, #26
  402164:	f100 8450 	bmi.w	402a08 <_vfiprintf_r+0xaec>
  402168:	9907      	ldr	r1, [sp, #28]
  40216a:	06dd      	lsls	r5, r3, #27
  40216c:	460a      	mov	r2, r1
  40216e:	f100 83ef 	bmi.w	402950 <_vfiprintf_r+0xa34>
  402172:	0658      	lsls	r0, r3, #25
  402174:	f140 83ec 	bpl.w	402950 <_vfiprintf_r+0xa34>
  402178:	880e      	ldrh	r6, [r1, #0]
  40217a:	3104      	adds	r1, #4
  40217c:	2700      	movs	r7, #0
  40217e:	2201      	movs	r2, #1
  402180:	9107      	str	r1, [sp, #28]
  402182:	f04f 0100 	mov.w	r1, #0
  402186:	f88d 1037 	strb.w	r1, [sp, #55]	; 0x37
  40218a:	2500      	movs	r5, #0
  40218c:	1c61      	adds	r1, r4, #1
  40218e:	f000 8116 	beq.w	4023be <_vfiprintf_r+0x4a2>
  402192:	f023 0180 	bic.w	r1, r3, #128	; 0x80
  402196:	9102      	str	r1, [sp, #8]
  402198:	ea56 0107 	orrs.w	r1, r6, r7
  40219c:	f040 8114 	bne.w	4023c8 <_vfiprintf_r+0x4ac>
  4021a0:	2c00      	cmp	r4, #0
  4021a2:	f040 835c 	bne.w	40285e <_vfiprintf_r+0x942>
  4021a6:	2a00      	cmp	r2, #0
  4021a8:	f040 83b7 	bne.w	40291a <_vfiprintf_r+0x9fe>
  4021ac:	f013 0301 	ands.w	r3, r3, #1
  4021b0:	9305      	str	r3, [sp, #20]
  4021b2:	f000 8457 	beq.w	402a64 <_vfiprintf_r+0xb48>
  4021b6:	f10d 0bb0 	add.w	fp, sp, #176	; 0xb0
  4021ba:	2330      	movs	r3, #48	; 0x30
  4021bc:	f80b 3d41 	strb.w	r3, [fp, #-65]!
  4021c0:	9b05      	ldr	r3, [sp, #20]
  4021c2:	42a3      	cmp	r3, r4
  4021c4:	bfb8      	it	lt
  4021c6:	4623      	movlt	r3, r4
  4021c8:	9301      	str	r3, [sp, #4]
  4021ca:	b10d      	cbz	r5, 4021d0 <_vfiprintf_r+0x2b4>
  4021cc:	3301      	adds	r3, #1
  4021ce:	9301      	str	r3, [sp, #4]
  4021d0:	9b02      	ldr	r3, [sp, #8]
  4021d2:	f013 0302 	ands.w	r3, r3, #2
  4021d6:	9309      	str	r3, [sp, #36]	; 0x24
  4021d8:	d002      	beq.n	4021e0 <_vfiprintf_r+0x2c4>
  4021da:	9b01      	ldr	r3, [sp, #4]
  4021dc:	3302      	adds	r3, #2
  4021de:	9301      	str	r3, [sp, #4]
  4021e0:	9b02      	ldr	r3, [sp, #8]
  4021e2:	f013 0384 	ands.w	r3, r3, #132	; 0x84
  4021e6:	930a      	str	r3, [sp, #40]	; 0x28
  4021e8:	f040 8217 	bne.w	40261a <_vfiprintf_r+0x6fe>
  4021ec:	9b08      	ldr	r3, [sp, #32]
  4021ee:	9a01      	ldr	r2, [sp, #4]
  4021f0:	1a9d      	subs	r5, r3, r2
  4021f2:	2d00      	cmp	r5, #0
  4021f4:	f340 8211 	ble.w	40261a <_vfiprintf_r+0x6fe>
  4021f8:	2d10      	cmp	r5, #16
  4021fa:	f340 8490 	ble.w	402b1e <_vfiprintf_r+0xc02>
  4021fe:	9b10      	ldr	r3, [sp, #64]	; 0x40
  402200:	9a11      	ldr	r2, [sp, #68]	; 0x44
  402202:	4ec4      	ldr	r6, [pc, #784]	; (402514 <_vfiprintf_r+0x5f8>)
  402204:	46d6      	mov	lr, sl
  402206:	2710      	movs	r7, #16
  402208:	46a2      	mov	sl, r4
  40220a:	4619      	mov	r1, r3
  40220c:	9c06      	ldr	r4, [sp, #24]
  40220e:	e007      	b.n	402220 <_vfiprintf_r+0x304>
  402210:	f101 0c02 	add.w	ip, r1, #2
  402214:	f10e 0e08 	add.w	lr, lr, #8
  402218:	4601      	mov	r1, r0
  40221a:	3d10      	subs	r5, #16
  40221c:	2d10      	cmp	r5, #16
  40221e:	dd11      	ble.n	402244 <_vfiprintf_r+0x328>
  402220:	1c48      	adds	r0, r1, #1
  402222:	3210      	adds	r2, #16
  402224:	2807      	cmp	r0, #7
  402226:	9211      	str	r2, [sp, #68]	; 0x44
  402228:	e88e 00c0 	stmia.w	lr, {r6, r7}
  40222c:	9010      	str	r0, [sp, #64]	; 0x40
  40222e:	ddef      	ble.n	402210 <_vfiprintf_r+0x2f4>
  402230:	2a00      	cmp	r2, #0
  402232:	f040 81e4 	bne.w	4025fe <_vfiprintf_r+0x6e2>
  402236:	3d10      	subs	r5, #16
  402238:	2d10      	cmp	r5, #16
  40223a:	4611      	mov	r1, r2
  40223c:	f04f 0c01 	mov.w	ip, #1
  402240:	46ce      	mov	lr, r9
  402242:	dced      	bgt.n	402220 <_vfiprintf_r+0x304>
  402244:	4654      	mov	r4, sl
  402246:	4661      	mov	r1, ip
  402248:	46f2      	mov	sl, lr
  40224a:	442a      	add	r2, r5
  40224c:	2907      	cmp	r1, #7
  40224e:	9211      	str	r2, [sp, #68]	; 0x44
  402250:	f8ca 6000 	str.w	r6, [sl]
  402254:	f8ca 5004 	str.w	r5, [sl, #4]
  402258:	9110      	str	r1, [sp, #64]	; 0x40
  40225a:	f300 82ec 	bgt.w	402836 <_vfiprintf_r+0x91a>
  40225e:	f89d 5037 	ldrb.w	r5, [sp, #55]	; 0x37
  402262:	f10a 0a08 	add.w	sl, sl, #8
  402266:	1c48      	adds	r0, r1, #1
  402268:	2d00      	cmp	r5, #0
  40226a:	f040 81de 	bne.w	40262a <_vfiprintf_r+0x70e>
  40226e:	9b09      	ldr	r3, [sp, #36]	; 0x24
  402270:	2b00      	cmp	r3, #0
  402272:	f000 81f8 	beq.w	402666 <_vfiprintf_r+0x74a>
  402276:	3202      	adds	r2, #2
  402278:	a90e      	add	r1, sp, #56	; 0x38
  40227a:	2302      	movs	r3, #2
  40227c:	2807      	cmp	r0, #7
  40227e:	9211      	str	r2, [sp, #68]	; 0x44
  402280:	9010      	str	r0, [sp, #64]	; 0x40
  402282:	e88a 000a 	stmia.w	sl, {r1, r3}
  402286:	f340 81ea 	ble.w	40265e <_vfiprintf_r+0x742>
  40228a:	2a00      	cmp	r2, #0
  40228c:	f040 838c 	bne.w	4029a8 <_vfiprintf_r+0xa8c>
  402290:	9b0a      	ldr	r3, [sp, #40]	; 0x28
  402292:	2b80      	cmp	r3, #128	; 0x80
  402294:	f04f 0001 	mov.w	r0, #1
  402298:	4611      	mov	r1, r2
  40229a:	46ca      	mov	sl, r9
  40229c:	f040 81e7 	bne.w	40266e <_vfiprintf_r+0x752>
  4022a0:	9b08      	ldr	r3, [sp, #32]
  4022a2:	9d01      	ldr	r5, [sp, #4]
  4022a4:	1b5e      	subs	r6, r3, r5
  4022a6:	2e00      	cmp	r6, #0
  4022a8:	f340 81e1 	ble.w	40266e <_vfiprintf_r+0x752>
  4022ac:	2e10      	cmp	r6, #16
  4022ae:	4d9a      	ldr	r5, [pc, #616]	; (402518 <_vfiprintf_r+0x5fc>)
  4022b0:	f340 8450 	ble.w	402b54 <_vfiprintf_r+0xc38>
  4022b4:	46d4      	mov	ip, sl
  4022b6:	2710      	movs	r7, #16
  4022b8:	46a2      	mov	sl, r4
  4022ba:	9c06      	ldr	r4, [sp, #24]
  4022bc:	e007      	b.n	4022ce <_vfiprintf_r+0x3b2>
  4022be:	f101 0e02 	add.w	lr, r1, #2
  4022c2:	f10c 0c08 	add.w	ip, ip, #8
  4022c6:	4601      	mov	r1, r0
  4022c8:	3e10      	subs	r6, #16
  4022ca:	2e10      	cmp	r6, #16
  4022cc:	dd11      	ble.n	4022f2 <_vfiprintf_r+0x3d6>
  4022ce:	1c48      	adds	r0, r1, #1
  4022d0:	3210      	adds	r2, #16
  4022d2:	2807      	cmp	r0, #7
  4022d4:	9211      	str	r2, [sp, #68]	; 0x44
  4022d6:	e88c 00a0 	stmia.w	ip, {r5, r7}
  4022da:	9010      	str	r0, [sp, #64]	; 0x40
  4022dc:	ddef      	ble.n	4022be <_vfiprintf_r+0x3a2>
  4022de:	2a00      	cmp	r2, #0
  4022e0:	f040 829d 	bne.w	40281e <_vfiprintf_r+0x902>
  4022e4:	3e10      	subs	r6, #16
  4022e6:	2e10      	cmp	r6, #16
  4022e8:	f04f 0e01 	mov.w	lr, #1
  4022ec:	4611      	mov	r1, r2
  4022ee:	46cc      	mov	ip, r9
  4022f0:	dced      	bgt.n	4022ce <_vfiprintf_r+0x3b2>
  4022f2:	4654      	mov	r4, sl
  4022f4:	46e2      	mov	sl, ip
  4022f6:	4432      	add	r2, r6
  4022f8:	f1be 0f07 	cmp.w	lr, #7
  4022fc:	9211      	str	r2, [sp, #68]	; 0x44
  4022fe:	e88a 0060 	stmia.w	sl, {r5, r6}
  402302:	f8cd e040 	str.w	lr, [sp, #64]	; 0x40
  402306:	f300 8369 	bgt.w	4029dc <_vfiprintf_r+0xac0>
  40230a:	f10a 0a08 	add.w	sl, sl, #8
  40230e:	f10e 0001 	add.w	r0, lr, #1
  402312:	4671      	mov	r1, lr
  402314:	e1ab      	b.n	40266e <_vfiprintf_r+0x752>
  402316:	9608      	str	r6, [sp, #32]
  402318:	f013 0220 	ands.w	r2, r3, #32
  40231c:	f040 838c 	bne.w	402a38 <_vfiprintf_r+0xb1c>
  402320:	f013 0110 	ands.w	r1, r3, #16
  402324:	f040 831a 	bne.w	40295c <_vfiprintf_r+0xa40>
  402328:	f013 0240 	ands.w	r2, r3, #64	; 0x40
  40232c:	f000 8316 	beq.w	40295c <_vfiprintf_r+0xa40>
  402330:	9807      	ldr	r0, [sp, #28]
  402332:	460a      	mov	r2, r1
  402334:	4601      	mov	r1, r0
  402336:	3104      	adds	r1, #4
  402338:	8806      	ldrh	r6, [r0, #0]
  40233a:	9107      	str	r1, [sp, #28]
  40233c:	2700      	movs	r7, #0
  40233e:	e720      	b.n	402182 <_vfiprintf_r+0x266>
  402340:	9608      	str	r6, [sp, #32]
  402342:	f043 0310 	orr.w	r3, r3, #16
  402346:	e7e7      	b.n	402318 <_vfiprintf_r+0x3fc>
  402348:	9608      	str	r6, [sp, #32]
  40234a:	f043 0310 	orr.w	r3, r3, #16
  40234e:	e708      	b.n	402162 <_vfiprintf_r+0x246>
  402350:	f043 0380 	orr.w	r3, r3, #128	; 0x80
  402354:	f898 2000 	ldrb.w	r2, [r8]
  402358:	e652      	b.n	402000 <_vfiprintf_r+0xe4>
  40235a:	f1a2 0130 	sub.w	r1, r2, #48	; 0x30
  40235e:	2600      	movs	r6, #0
  402360:	f818 2b01 	ldrb.w	r2, [r8], #1
  402364:	eb06 0686 	add.w	r6, r6, r6, lsl #2
  402368:	eb01 0646 	add.w	r6, r1, r6, lsl #1
  40236c:	f1a2 0130 	sub.w	r1, r2, #48	; 0x30
  402370:	2909      	cmp	r1, #9
  402372:	d9f5      	bls.n	402360 <_vfiprintf_r+0x444>
  402374:	e646      	b.n	402004 <_vfiprintf_r+0xe8>
  402376:	9608      	str	r6, [sp, #32]
  402378:	2800      	cmp	r0, #0
  40237a:	f040 8408 	bne.w	402b8e <_vfiprintf_r+0xc72>
  40237e:	f043 0310 	orr.w	r3, r3, #16
  402382:	069e      	lsls	r6, r3, #26
  402384:	f100 834c 	bmi.w	402a20 <_vfiprintf_r+0xb04>
  402388:	06dd      	lsls	r5, r3, #27
  40238a:	f100 82f3 	bmi.w	402974 <_vfiprintf_r+0xa58>
  40238e:	0658      	lsls	r0, r3, #25
  402390:	f140 82f0 	bpl.w	402974 <_vfiprintf_r+0xa58>
  402394:	9d07      	ldr	r5, [sp, #28]
  402396:	f9b5 6000 	ldrsh.w	r6, [r5]
  40239a:	462a      	mov	r2, r5
  40239c:	17f7      	asrs	r7, r6, #31
  40239e:	3204      	adds	r2, #4
  4023a0:	4630      	mov	r0, r6
  4023a2:	4639      	mov	r1, r7
  4023a4:	9207      	str	r2, [sp, #28]
  4023a6:	2800      	cmp	r0, #0
  4023a8:	f171 0200 	sbcs.w	r2, r1, #0
  4023ac:	f2c0 835d 	blt.w	402a6a <_vfiprintf_r+0xb4e>
  4023b0:	1c61      	adds	r1, r4, #1
  4023b2:	f89d 5037 	ldrb.w	r5, [sp, #55]	; 0x37
  4023b6:	f04f 0201 	mov.w	r2, #1
  4023ba:	f47f aeea 	bne.w	402192 <_vfiprintf_r+0x276>
  4023be:	ea56 0107 	orrs.w	r1, r6, r7
  4023c2:	f000 824d 	beq.w	402860 <_vfiprintf_r+0x944>
  4023c6:	9302      	str	r3, [sp, #8]
  4023c8:	2a01      	cmp	r2, #1
  4023ca:	f000 828c 	beq.w	4028e6 <_vfiprintf_r+0x9ca>
  4023ce:	2a02      	cmp	r2, #2
  4023d0:	f040 825c 	bne.w	40288c <_vfiprintf_r+0x970>
  4023d4:	980b      	ldr	r0, [sp, #44]	; 0x2c
  4023d6:	46cb      	mov	fp, r9
  4023d8:	0933      	lsrs	r3, r6, #4
  4023da:	f006 010f 	and.w	r1, r6, #15
  4023de:	ea43 7307 	orr.w	r3, r3, r7, lsl #28
  4023e2:	093a      	lsrs	r2, r7, #4
  4023e4:	461e      	mov	r6, r3
  4023e6:	4617      	mov	r7, r2
  4023e8:	5c43      	ldrb	r3, [r0, r1]
  4023ea:	f80b 3d01 	strb.w	r3, [fp, #-1]!
  4023ee:	ea56 0307 	orrs.w	r3, r6, r7
  4023f2:	d1f1      	bne.n	4023d8 <_vfiprintf_r+0x4bc>
  4023f4:	eba9 030b 	sub.w	r3, r9, fp
  4023f8:	9305      	str	r3, [sp, #20]
  4023fa:	e6e1      	b.n	4021c0 <_vfiprintf_r+0x2a4>
  4023fc:	2800      	cmp	r0, #0
  4023fe:	f040 83c0 	bne.w	402b82 <_vfiprintf_r+0xc66>
  402402:	0699      	lsls	r1, r3, #26
  402404:	f100 8367 	bmi.w	402ad6 <_vfiprintf_r+0xbba>
  402408:	06da      	lsls	r2, r3, #27
  40240a:	f100 80f1 	bmi.w	4025f0 <_vfiprintf_r+0x6d4>
  40240e:	065b      	lsls	r3, r3, #25
  402410:	f140 80ee 	bpl.w	4025f0 <_vfiprintf_r+0x6d4>
  402414:	9a07      	ldr	r2, [sp, #28]
  402416:	6813      	ldr	r3, [r2, #0]
  402418:	3204      	adds	r2, #4
  40241a:	9207      	str	r2, [sp, #28]
  40241c:	f8bd 200c 	ldrh.w	r2, [sp, #12]
  402420:	801a      	strh	r2, [r3, #0]
  402422:	e5b8      	b.n	401f96 <_vfiprintf_r+0x7a>
  402424:	9807      	ldr	r0, [sp, #28]
  402426:	4a3d      	ldr	r2, [pc, #244]	; (40251c <_vfiprintf_r+0x600>)
  402428:	9608      	str	r6, [sp, #32]
  40242a:	920b      	str	r2, [sp, #44]	; 0x2c
  40242c:	6806      	ldr	r6, [r0, #0]
  40242e:	2278      	movs	r2, #120	; 0x78
  402430:	2130      	movs	r1, #48	; 0x30
  402432:	3004      	adds	r0, #4
  402434:	f88d 2039 	strb.w	r2, [sp, #57]	; 0x39
  402438:	f043 0302 	orr.w	r3, r3, #2
  40243c:	9007      	str	r0, [sp, #28]
  40243e:	2700      	movs	r7, #0
  402440:	f88d 1038 	strb.w	r1, [sp, #56]	; 0x38
  402444:	2202      	movs	r2, #2
  402446:	e69c      	b.n	402182 <_vfiprintf_r+0x266>
  402448:	9608      	str	r6, [sp, #32]
  40244a:	2800      	cmp	r0, #0
  40244c:	d099      	beq.n	402382 <_vfiprintf_r+0x466>
  40244e:	f88d 5037 	strb.w	r5, [sp, #55]	; 0x37
  402452:	e796      	b.n	402382 <_vfiprintf_r+0x466>
  402454:	f898 2000 	ldrb.w	r2, [r8]
  402458:	2d00      	cmp	r5, #0
  40245a:	f47f add1 	bne.w	402000 <_vfiprintf_r+0xe4>
  40245e:	2001      	movs	r0, #1
  402460:	2520      	movs	r5, #32
  402462:	e5cd      	b.n	402000 <_vfiprintf_r+0xe4>
  402464:	f043 0301 	orr.w	r3, r3, #1
  402468:	f898 2000 	ldrb.w	r2, [r8]
  40246c:	e5c8      	b.n	402000 <_vfiprintf_r+0xe4>
  40246e:	9608      	str	r6, [sp, #32]
  402470:	2800      	cmp	r0, #0
  402472:	f040 8393 	bne.w	402b9c <_vfiprintf_r+0xc80>
  402476:	4929      	ldr	r1, [pc, #164]	; (40251c <_vfiprintf_r+0x600>)
  402478:	910b      	str	r1, [sp, #44]	; 0x2c
  40247a:	069f      	lsls	r7, r3, #26
  40247c:	f100 82e8 	bmi.w	402a50 <_vfiprintf_r+0xb34>
  402480:	9807      	ldr	r0, [sp, #28]
  402482:	06de      	lsls	r6, r3, #27
  402484:	4601      	mov	r1, r0
  402486:	f100 8270 	bmi.w	40296a <_vfiprintf_r+0xa4e>
  40248a:	065d      	lsls	r5, r3, #25
  40248c:	f140 826d 	bpl.w	40296a <_vfiprintf_r+0xa4e>
  402490:	3104      	adds	r1, #4
  402492:	8806      	ldrh	r6, [r0, #0]
  402494:	9107      	str	r1, [sp, #28]
  402496:	2700      	movs	r7, #0
  402498:	07d8      	lsls	r0, r3, #31
  40249a:	f140 8222 	bpl.w	4028e2 <_vfiprintf_r+0x9c6>
  40249e:	ea56 0107 	orrs.w	r1, r6, r7
  4024a2:	f000 821e 	beq.w	4028e2 <_vfiprintf_r+0x9c6>
  4024a6:	2130      	movs	r1, #48	; 0x30
  4024a8:	f88d 2039 	strb.w	r2, [sp, #57]	; 0x39
  4024ac:	f043 0302 	orr.w	r3, r3, #2
  4024b0:	f88d 1038 	strb.w	r1, [sp, #56]	; 0x38
  4024b4:	2202      	movs	r2, #2
  4024b6:	e664      	b.n	402182 <_vfiprintf_r+0x266>
  4024b8:	9608      	str	r6, [sp, #32]
  4024ba:	2800      	cmp	r0, #0
  4024bc:	f040 836b 	bne.w	402b96 <_vfiprintf_r+0xc7a>
  4024c0:	4917      	ldr	r1, [pc, #92]	; (402520 <_vfiprintf_r+0x604>)
  4024c2:	910b      	str	r1, [sp, #44]	; 0x2c
  4024c4:	e7d9      	b.n	40247a <_vfiprintf_r+0x55e>
  4024c6:	9907      	ldr	r1, [sp, #28]
  4024c8:	9608      	str	r6, [sp, #32]
  4024ca:	680a      	ldr	r2, [r1, #0]
  4024cc:	f88d 2048 	strb.w	r2, [sp, #72]	; 0x48
  4024d0:	f04f 0000 	mov.w	r0, #0
  4024d4:	460a      	mov	r2, r1
  4024d6:	f88d 0037 	strb.w	r0, [sp, #55]	; 0x37
  4024da:	3204      	adds	r2, #4
  4024dc:	2001      	movs	r0, #1
  4024de:	9001      	str	r0, [sp, #4]
  4024e0:	9207      	str	r2, [sp, #28]
  4024e2:	9005      	str	r0, [sp, #20]
  4024e4:	f10d 0b48 	add.w	fp, sp, #72	; 0x48
  4024e8:	9302      	str	r3, [sp, #8]
  4024ea:	2400      	movs	r4, #0
  4024ec:	e670      	b.n	4021d0 <_vfiprintf_r+0x2b4>
  4024ee:	f043 0340 	orr.w	r3, r3, #64	; 0x40
  4024f2:	f898 2000 	ldrb.w	r2, [r8]
  4024f6:	e583      	b.n	402000 <_vfiprintf_r+0xe4>
  4024f8:	f898 2000 	ldrb.w	r2, [r8]
  4024fc:	2a6c      	cmp	r2, #108	; 0x6c
  4024fe:	bf03      	ittte	eq
  402500:	f898 2001 	ldrbeq.w	r2, [r8, #1]
  402504:	f043 0320 	orreq.w	r3, r3, #32
  402508:	f108 0801 	addeq.w	r8, r8, #1
  40250c:	f043 0310 	orrne.w	r3, r3, #16
  402510:	e576      	b.n	402000 <_vfiprintf_r+0xe4>
  402512:	bf00      	nop
  402514:	00404734 	.word	0x00404734
  402518:	00404744 	.word	0x00404744
  40251c:	00404718 	.word	0x00404718
  402520:	00404704 	.word	0x00404704
  402524:	9907      	ldr	r1, [sp, #28]
  402526:	680e      	ldr	r6, [r1, #0]
  402528:	460a      	mov	r2, r1
  40252a:	2e00      	cmp	r6, #0
  40252c:	f102 0204 	add.w	r2, r2, #4
  402530:	f6ff ae0f 	blt.w	402152 <_vfiprintf_r+0x236>
  402534:	9207      	str	r2, [sp, #28]
  402536:	f898 2000 	ldrb.w	r2, [r8]
  40253a:	e561      	b.n	402000 <_vfiprintf_r+0xe4>
  40253c:	f898 2000 	ldrb.w	r2, [r8]
  402540:	2001      	movs	r0, #1
  402542:	252b      	movs	r5, #43	; 0x2b
  402544:	e55c      	b.n	402000 <_vfiprintf_r+0xe4>
  402546:	9907      	ldr	r1, [sp, #28]
  402548:	9608      	str	r6, [sp, #32]
  40254a:	f8d1 b000 	ldr.w	fp, [r1]
  40254e:	f04f 0200 	mov.w	r2, #0
  402552:	f88d 2037 	strb.w	r2, [sp, #55]	; 0x37
  402556:	1d0e      	adds	r6, r1, #4
  402558:	f1bb 0f00 	cmp.w	fp, #0
  40255c:	f000 82e5 	beq.w	402b2a <_vfiprintf_r+0xc0e>
  402560:	1c67      	adds	r7, r4, #1
  402562:	f000 82c4 	beq.w	402aee <_vfiprintf_r+0xbd2>
  402566:	4622      	mov	r2, r4
  402568:	2100      	movs	r1, #0
  40256a:	4658      	mov	r0, fp
  40256c:	9301      	str	r3, [sp, #4]
  40256e:	f001 fbd7 	bl	403d20 <memchr>
  402572:	9b01      	ldr	r3, [sp, #4]
  402574:	2800      	cmp	r0, #0
  402576:	f000 82e5 	beq.w	402b44 <_vfiprintf_r+0xc28>
  40257a:	eba0 020b 	sub.w	r2, r0, fp
  40257e:	9205      	str	r2, [sp, #20]
  402580:	9607      	str	r6, [sp, #28]
  402582:	9302      	str	r3, [sp, #8]
  402584:	f89d 5037 	ldrb.w	r5, [sp, #55]	; 0x37
  402588:	2400      	movs	r4, #0
  40258a:	e619      	b.n	4021c0 <_vfiprintf_r+0x2a4>
  40258c:	f898 2000 	ldrb.w	r2, [r8]
  402590:	2a2a      	cmp	r2, #42	; 0x2a
  402592:	f108 0701 	add.w	r7, r8, #1
  402596:	f000 82e9 	beq.w	402b6c <_vfiprintf_r+0xc50>
  40259a:	f1a2 0130 	sub.w	r1, r2, #48	; 0x30
  40259e:	2909      	cmp	r1, #9
  4025a0:	46b8      	mov	r8, r7
  4025a2:	f04f 0400 	mov.w	r4, #0
  4025a6:	f63f ad2d 	bhi.w	402004 <_vfiprintf_r+0xe8>
  4025aa:	f818 2b01 	ldrb.w	r2, [r8], #1
  4025ae:	eb04 0484 	add.w	r4, r4, r4, lsl #2
  4025b2:	eb01 0444 	add.w	r4, r1, r4, lsl #1
  4025b6:	f1a2 0130 	sub.w	r1, r2, #48	; 0x30
  4025ba:	2909      	cmp	r1, #9
  4025bc:	d9f5      	bls.n	4025aa <_vfiprintf_r+0x68e>
  4025be:	e521      	b.n	402004 <_vfiprintf_r+0xe8>
  4025c0:	f043 0320 	orr.w	r3, r3, #32
  4025c4:	f898 2000 	ldrb.w	r2, [r8]
  4025c8:	e51a      	b.n	402000 <_vfiprintf_r+0xe4>
  4025ca:	9608      	str	r6, [sp, #32]
  4025cc:	2800      	cmp	r0, #0
  4025ce:	f040 82db 	bne.w	402b88 <_vfiprintf_r+0xc6c>
  4025d2:	2a00      	cmp	r2, #0
  4025d4:	f000 80e7 	beq.w	4027a6 <_vfiprintf_r+0x88a>
  4025d8:	2101      	movs	r1, #1
  4025da:	f88d 2048 	strb.w	r2, [sp, #72]	; 0x48
  4025de:	f04f 0200 	mov.w	r2, #0
  4025e2:	9101      	str	r1, [sp, #4]
  4025e4:	f88d 2037 	strb.w	r2, [sp, #55]	; 0x37
  4025e8:	9105      	str	r1, [sp, #20]
  4025ea:	f10d 0b48 	add.w	fp, sp, #72	; 0x48
  4025ee:	e77b      	b.n	4024e8 <_vfiprintf_r+0x5cc>
  4025f0:	9a07      	ldr	r2, [sp, #28]
  4025f2:	6813      	ldr	r3, [r2, #0]
  4025f4:	3204      	adds	r2, #4
  4025f6:	9207      	str	r2, [sp, #28]
  4025f8:	9a03      	ldr	r2, [sp, #12]
  4025fa:	601a      	str	r2, [r3, #0]
  4025fc:	e4cb      	b.n	401f96 <_vfiprintf_r+0x7a>
  4025fe:	aa0f      	add	r2, sp, #60	; 0x3c
  402600:	9904      	ldr	r1, [sp, #16]
  402602:	4620      	mov	r0, r4
  402604:	f7ff fc4a 	bl	401e9c <__sprint_r.part.0>
  402608:	2800      	cmp	r0, #0
  40260a:	f040 8139 	bne.w	402880 <_vfiprintf_r+0x964>
  40260e:	9910      	ldr	r1, [sp, #64]	; 0x40
  402610:	9a11      	ldr	r2, [sp, #68]	; 0x44
  402612:	f101 0c01 	add.w	ip, r1, #1
  402616:	46ce      	mov	lr, r9
  402618:	e5ff      	b.n	40221a <_vfiprintf_r+0x2fe>
  40261a:	9910      	ldr	r1, [sp, #64]	; 0x40
  40261c:	9a11      	ldr	r2, [sp, #68]	; 0x44
  40261e:	1c48      	adds	r0, r1, #1
  402620:	f89d 5037 	ldrb.w	r5, [sp, #55]	; 0x37
  402624:	2d00      	cmp	r5, #0
  402626:	f43f ae22 	beq.w	40226e <_vfiprintf_r+0x352>
  40262a:	3201      	adds	r2, #1
  40262c:	f10d 0537 	add.w	r5, sp, #55	; 0x37
  402630:	2101      	movs	r1, #1
  402632:	2807      	cmp	r0, #7
  402634:	9211      	str	r2, [sp, #68]	; 0x44
  402636:	9010      	str	r0, [sp, #64]	; 0x40
  402638:	f8ca 5000 	str.w	r5, [sl]
  40263c:	f8ca 1004 	str.w	r1, [sl, #4]
  402640:	f340 8108 	ble.w	402854 <_vfiprintf_r+0x938>
  402644:	2a00      	cmp	r2, #0
  402646:	f040 81bc 	bne.w	4029c2 <_vfiprintf_r+0xaa6>
  40264a:	9b09      	ldr	r3, [sp, #36]	; 0x24
  40264c:	2b00      	cmp	r3, #0
  40264e:	f43f ae1f 	beq.w	402290 <_vfiprintf_r+0x374>
  402652:	ab0e      	add	r3, sp, #56	; 0x38
  402654:	2202      	movs	r2, #2
  402656:	4608      	mov	r0, r1
  402658:	931c      	str	r3, [sp, #112]	; 0x70
  40265a:	921d      	str	r2, [sp, #116]	; 0x74
  40265c:	46ca      	mov	sl, r9
  40265e:	4601      	mov	r1, r0
  402660:	f10a 0a08 	add.w	sl, sl, #8
  402664:	3001      	adds	r0, #1
  402666:	9b0a      	ldr	r3, [sp, #40]	; 0x28
  402668:	2b80      	cmp	r3, #128	; 0x80
  40266a:	f43f ae19 	beq.w	4022a0 <_vfiprintf_r+0x384>
  40266e:	9b05      	ldr	r3, [sp, #20]
  402670:	1ae4      	subs	r4, r4, r3
  402672:	2c00      	cmp	r4, #0
  402674:	dd2e      	ble.n	4026d4 <_vfiprintf_r+0x7b8>
  402676:	2c10      	cmp	r4, #16
  402678:	4db3      	ldr	r5, [pc, #716]	; (402948 <_vfiprintf_r+0xa2c>)
  40267a:	dd1e      	ble.n	4026ba <_vfiprintf_r+0x79e>
  40267c:	46d6      	mov	lr, sl
  40267e:	2610      	movs	r6, #16
  402680:	9f06      	ldr	r7, [sp, #24]
  402682:	f8dd a010 	ldr.w	sl, [sp, #16]
  402686:	e006      	b.n	402696 <_vfiprintf_r+0x77a>
  402688:	1c88      	adds	r0, r1, #2
  40268a:	f10e 0e08 	add.w	lr, lr, #8
  40268e:	4619      	mov	r1, r3
  402690:	3c10      	subs	r4, #16
  402692:	2c10      	cmp	r4, #16
  402694:	dd10      	ble.n	4026b8 <_vfiprintf_r+0x79c>
  402696:	1c4b      	adds	r3, r1, #1
  402698:	3210      	adds	r2, #16
  40269a:	2b07      	cmp	r3, #7
  40269c:	9211      	str	r2, [sp, #68]	; 0x44
  40269e:	e88e 0060 	stmia.w	lr, {r5, r6}
  4026a2:	9310      	str	r3, [sp, #64]	; 0x40
  4026a4:	ddf0      	ble.n	402688 <_vfiprintf_r+0x76c>
  4026a6:	2a00      	cmp	r2, #0
  4026a8:	d165      	bne.n	402776 <_vfiprintf_r+0x85a>
  4026aa:	3c10      	subs	r4, #16
  4026ac:	2c10      	cmp	r4, #16
  4026ae:	f04f 0001 	mov.w	r0, #1
  4026b2:	4611      	mov	r1, r2
  4026b4:	46ce      	mov	lr, r9
  4026b6:	dcee      	bgt.n	402696 <_vfiprintf_r+0x77a>
  4026b8:	46f2      	mov	sl, lr
  4026ba:	4422      	add	r2, r4
  4026bc:	2807      	cmp	r0, #7
  4026be:	9211      	str	r2, [sp, #68]	; 0x44
  4026c0:	f8ca 5000 	str.w	r5, [sl]
  4026c4:	f8ca 4004 	str.w	r4, [sl, #4]
  4026c8:	9010      	str	r0, [sp, #64]	; 0x40
  4026ca:	f300 8085 	bgt.w	4027d8 <_vfiprintf_r+0x8bc>
  4026ce:	f10a 0a08 	add.w	sl, sl, #8
  4026d2:	3001      	adds	r0, #1
  4026d4:	9905      	ldr	r1, [sp, #20]
  4026d6:	f8ca b000 	str.w	fp, [sl]
  4026da:	440a      	add	r2, r1
  4026dc:	2807      	cmp	r0, #7
  4026de:	9211      	str	r2, [sp, #68]	; 0x44
  4026e0:	f8ca 1004 	str.w	r1, [sl, #4]
  4026e4:	9010      	str	r0, [sp, #64]	; 0x40
  4026e6:	f340 8082 	ble.w	4027ee <_vfiprintf_r+0x8d2>
  4026ea:	2a00      	cmp	r2, #0
  4026ec:	f040 8118 	bne.w	402920 <_vfiprintf_r+0xa04>
  4026f0:	9b02      	ldr	r3, [sp, #8]
  4026f2:	9210      	str	r2, [sp, #64]	; 0x40
  4026f4:	0758      	lsls	r0, r3, #29
  4026f6:	d535      	bpl.n	402764 <_vfiprintf_r+0x848>
  4026f8:	9b08      	ldr	r3, [sp, #32]
  4026fa:	9901      	ldr	r1, [sp, #4]
  4026fc:	1a5c      	subs	r4, r3, r1
  4026fe:	2c00      	cmp	r4, #0
  402700:	f340 80e7 	ble.w	4028d2 <_vfiprintf_r+0x9b6>
  402704:	46ca      	mov	sl, r9
  402706:	2c10      	cmp	r4, #16
  402708:	f340 8218 	ble.w	402b3c <_vfiprintf_r+0xc20>
  40270c:	9910      	ldr	r1, [sp, #64]	; 0x40
  40270e:	4e8f      	ldr	r6, [pc, #572]	; (40294c <_vfiprintf_r+0xa30>)
  402710:	9f06      	ldr	r7, [sp, #24]
  402712:	f8dd b010 	ldr.w	fp, [sp, #16]
  402716:	2510      	movs	r5, #16
  402718:	e006      	b.n	402728 <_vfiprintf_r+0x80c>
  40271a:	1c88      	adds	r0, r1, #2
  40271c:	f10a 0a08 	add.w	sl, sl, #8
  402720:	4619      	mov	r1, r3
  402722:	3c10      	subs	r4, #16
  402724:	2c10      	cmp	r4, #16
  402726:	dd11      	ble.n	40274c <_vfiprintf_r+0x830>
  402728:	1c4b      	adds	r3, r1, #1
  40272a:	3210      	adds	r2, #16
  40272c:	2b07      	cmp	r3, #7
  40272e:	9211      	str	r2, [sp, #68]	; 0x44
  402730:	f8ca 6000 	str.w	r6, [sl]
  402734:	f8ca 5004 	str.w	r5, [sl, #4]
  402738:	9310      	str	r3, [sp, #64]	; 0x40
  40273a:	ddee      	ble.n	40271a <_vfiprintf_r+0x7fe>
  40273c:	bb42      	cbnz	r2, 402790 <_vfiprintf_r+0x874>
  40273e:	3c10      	subs	r4, #16
  402740:	2c10      	cmp	r4, #16
  402742:	f04f 0001 	mov.w	r0, #1
  402746:	4611      	mov	r1, r2
  402748:	46ca      	mov	sl, r9
  40274a:	dced      	bgt.n	402728 <_vfiprintf_r+0x80c>
  40274c:	4422      	add	r2, r4
  40274e:	2807      	cmp	r0, #7
  402750:	9211      	str	r2, [sp, #68]	; 0x44
  402752:	f8ca 6000 	str.w	r6, [sl]
  402756:	f8ca 4004 	str.w	r4, [sl, #4]
  40275a:	9010      	str	r0, [sp, #64]	; 0x40
  40275c:	dd51      	ble.n	402802 <_vfiprintf_r+0x8e6>
  40275e:	2a00      	cmp	r2, #0
  402760:	f040 819b 	bne.w	402a9a <_vfiprintf_r+0xb7e>
  402764:	9b03      	ldr	r3, [sp, #12]
  402766:	9a08      	ldr	r2, [sp, #32]
  402768:	9901      	ldr	r1, [sp, #4]
  40276a:	428a      	cmp	r2, r1
  40276c:	bfac      	ite	ge
  40276e:	189b      	addge	r3, r3, r2
  402770:	185b      	addlt	r3, r3, r1
  402772:	9303      	str	r3, [sp, #12]
  402774:	e04e      	b.n	402814 <_vfiprintf_r+0x8f8>
  402776:	aa0f      	add	r2, sp, #60	; 0x3c
  402778:	4651      	mov	r1, sl
  40277a:	4638      	mov	r0, r7
  40277c:	f7ff fb8e 	bl	401e9c <__sprint_r.part.0>
  402780:	2800      	cmp	r0, #0
  402782:	f040 813f 	bne.w	402a04 <_vfiprintf_r+0xae8>
  402786:	9910      	ldr	r1, [sp, #64]	; 0x40
  402788:	9a11      	ldr	r2, [sp, #68]	; 0x44
  40278a:	1c48      	adds	r0, r1, #1
  40278c:	46ce      	mov	lr, r9
  40278e:	e77f      	b.n	402690 <_vfiprintf_r+0x774>
  402790:	aa0f      	add	r2, sp, #60	; 0x3c
  402792:	4659      	mov	r1, fp
  402794:	4638      	mov	r0, r7
  402796:	f7ff fb81 	bl	401e9c <__sprint_r.part.0>
  40279a:	b960      	cbnz	r0, 4027b6 <_vfiprintf_r+0x89a>
  40279c:	9910      	ldr	r1, [sp, #64]	; 0x40
  40279e:	9a11      	ldr	r2, [sp, #68]	; 0x44
  4027a0:	1c48      	adds	r0, r1, #1
  4027a2:	46ca      	mov	sl, r9
  4027a4:	e7bd      	b.n	402722 <_vfiprintf_r+0x806>
  4027a6:	9b11      	ldr	r3, [sp, #68]	; 0x44
  4027a8:	f8dd b010 	ldr.w	fp, [sp, #16]
  4027ac:	2b00      	cmp	r3, #0
  4027ae:	f040 81d4 	bne.w	402b5a <_vfiprintf_r+0xc3e>
  4027b2:	2300      	movs	r3, #0
  4027b4:	9310      	str	r3, [sp, #64]	; 0x40
  4027b6:	f8db 3064 	ldr.w	r3, [fp, #100]	; 0x64
  4027ba:	f013 0f01 	tst.w	r3, #1
  4027be:	f8bb 300c 	ldrh.w	r3, [fp, #12]
  4027c2:	d102      	bne.n	4027ca <_vfiprintf_r+0x8ae>
  4027c4:	059a      	lsls	r2, r3, #22
  4027c6:	f140 80de 	bpl.w	402986 <_vfiprintf_r+0xa6a>
  4027ca:	065b      	lsls	r3, r3, #25
  4027cc:	f53f acb2 	bmi.w	402134 <_vfiprintf_r+0x218>
  4027d0:	9803      	ldr	r0, [sp, #12]
  4027d2:	b02d      	add	sp, #180	; 0xb4
  4027d4:	e8bd 8ff0 	ldmia.w	sp!, {r4, r5, r6, r7, r8, r9, sl, fp, pc}
  4027d8:	2a00      	cmp	r2, #0
  4027da:	f040 8106 	bne.w	4029ea <_vfiprintf_r+0xace>
  4027de:	9a05      	ldr	r2, [sp, #20]
  4027e0:	921d      	str	r2, [sp, #116]	; 0x74
  4027e2:	2301      	movs	r3, #1
  4027e4:	9211      	str	r2, [sp, #68]	; 0x44
  4027e6:	f8cd b070 	str.w	fp, [sp, #112]	; 0x70
  4027ea:	9310      	str	r3, [sp, #64]	; 0x40
  4027ec:	46ca      	mov	sl, r9
  4027ee:	f10a 0a08 	add.w	sl, sl, #8
  4027f2:	9b02      	ldr	r3, [sp, #8]
  4027f4:	0759      	lsls	r1, r3, #29
  4027f6:	d504      	bpl.n	402802 <_vfiprintf_r+0x8e6>
  4027f8:	9b08      	ldr	r3, [sp, #32]
  4027fa:	9901      	ldr	r1, [sp, #4]
  4027fc:	1a5c      	subs	r4, r3, r1
  4027fe:	2c00      	cmp	r4, #0
  402800:	dc81      	bgt.n	402706 <_vfiprintf_r+0x7ea>
  402802:	9b03      	ldr	r3, [sp, #12]
  402804:	9908      	ldr	r1, [sp, #32]
  402806:	9801      	ldr	r0, [sp, #4]
  402808:	4281      	cmp	r1, r0
  40280a:	bfac      	ite	ge
  40280c:	185b      	addge	r3, r3, r1
  40280e:	181b      	addlt	r3, r3, r0
  402810:	9303      	str	r3, [sp, #12]
  402812:	bb72      	cbnz	r2, 402872 <_vfiprintf_r+0x956>
  402814:	2300      	movs	r3, #0
  402816:	9310      	str	r3, [sp, #64]	; 0x40
  402818:	46ca      	mov	sl, r9
  40281a:	f7ff bbbc 	b.w	401f96 <_vfiprintf_r+0x7a>
  40281e:	aa0f      	add	r2, sp, #60	; 0x3c
  402820:	9904      	ldr	r1, [sp, #16]
  402822:	4620      	mov	r0, r4
  402824:	f7ff fb3a 	bl	401e9c <__sprint_r.part.0>
  402828:	bb50      	cbnz	r0, 402880 <_vfiprintf_r+0x964>
  40282a:	9910      	ldr	r1, [sp, #64]	; 0x40
  40282c:	9a11      	ldr	r2, [sp, #68]	; 0x44
  40282e:	f101 0e01 	add.w	lr, r1, #1
  402832:	46cc      	mov	ip, r9
  402834:	e548      	b.n	4022c8 <_vfiprintf_r+0x3ac>
  402836:	2a00      	cmp	r2, #0
  402838:	f040 8140 	bne.w	402abc <_vfiprintf_r+0xba0>
  40283c:	f89d 1037 	ldrb.w	r1, [sp, #55]	; 0x37
  402840:	2900      	cmp	r1, #0
  402842:	f000 811b 	beq.w	402a7c <_vfiprintf_r+0xb60>
  402846:	2201      	movs	r2, #1
  402848:	f10d 0137 	add.w	r1, sp, #55	; 0x37
  40284c:	4610      	mov	r0, r2
  40284e:	921d      	str	r2, [sp, #116]	; 0x74
  402850:	911c      	str	r1, [sp, #112]	; 0x70
  402852:	46ca      	mov	sl, r9
  402854:	4601      	mov	r1, r0
  402856:	f10a 0a08 	add.w	sl, sl, #8
  40285a:	3001      	adds	r0, #1
  40285c:	e507      	b.n	40226e <_vfiprintf_r+0x352>
  40285e:	9b02      	ldr	r3, [sp, #8]
  402860:	2a01      	cmp	r2, #1
  402862:	f000 8098 	beq.w	402996 <_vfiprintf_r+0xa7a>
  402866:	2a02      	cmp	r2, #2
  402868:	d10d      	bne.n	402886 <_vfiprintf_r+0x96a>
  40286a:	9302      	str	r3, [sp, #8]
  40286c:	2600      	movs	r6, #0
  40286e:	2700      	movs	r7, #0
  402870:	e5b0      	b.n	4023d4 <_vfiprintf_r+0x4b8>
  402872:	aa0f      	add	r2, sp, #60	; 0x3c
  402874:	9904      	ldr	r1, [sp, #16]
  402876:	9806      	ldr	r0, [sp, #24]
  402878:	f7ff fb10 	bl	401e9c <__sprint_r.part.0>
  40287c:	2800      	cmp	r0, #0
  40287e:	d0c9      	beq.n	402814 <_vfiprintf_r+0x8f8>
  402880:	f8dd b010 	ldr.w	fp, [sp, #16]
  402884:	e797      	b.n	4027b6 <_vfiprintf_r+0x89a>
  402886:	9302      	str	r3, [sp, #8]
  402888:	2600      	movs	r6, #0
  40288a:	2700      	movs	r7, #0
  40288c:	4649      	mov	r1, r9
  40288e:	e000      	b.n	402892 <_vfiprintf_r+0x976>
  402890:	4659      	mov	r1, fp
  402892:	08f2      	lsrs	r2, r6, #3
  402894:	ea42 7247 	orr.w	r2, r2, r7, lsl #29
  402898:	08f8      	lsrs	r0, r7, #3
  40289a:	f006 0307 	and.w	r3, r6, #7
  40289e:	4607      	mov	r7, r0
  4028a0:	4616      	mov	r6, r2
  4028a2:	3330      	adds	r3, #48	; 0x30
  4028a4:	ea56 0207 	orrs.w	r2, r6, r7
  4028a8:	f801 3c01 	strb.w	r3, [r1, #-1]
  4028ac:	f101 3bff 	add.w	fp, r1, #4294967295
  4028b0:	d1ee      	bne.n	402890 <_vfiprintf_r+0x974>
  4028b2:	9a02      	ldr	r2, [sp, #8]
  4028b4:	07d6      	lsls	r6, r2, #31
  4028b6:	f57f ad9d 	bpl.w	4023f4 <_vfiprintf_r+0x4d8>
  4028ba:	2b30      	cmp	r3, #48	; 0x30
  4028bc:	f43f ad9a 	beq.w	4023f4 <_vfiprintf_r+0x4d8>
  4028c0:	3902      	subs	r1, #2
  4028c2:	2330      	movs	r3, #48	; 0x30
  4028c4:	f80b 3c01 	strb.w	r3, [fp, #-1]
  4028c8:	eba9 0301 	sub.w	r3, r9, r1
  4028cc:	9305      	str	r3, [sp, #20]
  4028ce:	468b      	mov	fp, r1
  4028d0:	e476      	b.n	4021c0 <_vfiprintf_r+0x2a4>
  4028d2:	9b03      	ldr	r3, [sp, #12]
  4028d4:	9a08      	ldr	r2, [sp, #32]
  4028d6:	428a      	cmp	r2, r1
  4028d8:	bfac      	ite	ge
  4028da:	189b      	addge	r3, r3, r2
  4028dc:	185b      	addlt	r3, r3, r1
  4028de:	9303      	str	r3, [sp, #12]
  4028e0:	e798      	b.n	402814 <_vfiprintf_r+0x8f8>
  4028e2:	2202      	movs	r2, #2
  4028e4:	e44d      	b.n	402182 <_vfiprintf_r+0x266>
  4028e6:	2f00      	cmp	r7, #0
  4028e8:	bf08      	it	eq
  4028ea:	2e0a      	cmpeq	r6, #10
  4028ec:	d352      	bcc.n	402994 <_vfiprintf_r+0xa78>
  4028ee:	46cb      	mov	fp, r9
  4028f0:	4630      	mov	r0, r6
  4028f2:	4639      	mov	r1, r7
  4028f4:	220a      	movs	r2, #10
  4028f6:	2300      	movs	r3, #0
  4028f8:	f7fe fe88 	bl	40160c <__aeabi_uldivmod>
  4028fc:	3230      	adds	r2, #48	; 0x30
  4028fe:	f80b 2d01 	strb.w	r2, [fp, #-1]!
  402902:	4630      	mov	r0, r6
  402904:	4639      	mov	r1, r7
  402906:	2300      	movs	r3, #0
  402908:	220a      	movs	r2, #10
  40290a:	f7fe fe7f 	bl	40160c <__aeabi_uldivmod>
  40290e:	4606      	mov	r6, r0
  402910:	460f      	mov	r7, r1
  402912:	ea56 0307 	orrs.w	r3, r6, r7
  402916:	d1eb      	bne.n	4028f0 <_vfiprintf_r+0x9d4>
  402918:	e56c      	b.n	4023f4 <_vfiprintf_r+0x4d8>
  40291a:	9405      	str	r4, [sp, #20]
  40291c:	46cb      	mov	fp, r9
  40291e:	e44f      	b.n	4021c0 <_vfiprintf_r+0x2a4>
  402920:	aa0f      	add	r2, sp, #60	; 0x3c
  402922:	9904      	ldr	r1, [sp, #16]
  402924:	9806      	ldr	r0, [sp, #24]
  402926:	f7ff fab9 	bl	401e9c <__sprint_r.part.0>
  40292a:	2800      	cmp	r0, #0
  40292c:	d1a8      	bne.n	402880 <_vfiprintf_r+0x964>
  40292e:	9a11      	ldr	r2, [sp, #68]	; 0x44
  402930:	46ca      	mov	sl, r9
  402932:	e75e      	b.n	4027f2 <_vfiprintf_r+0x8d6>
  402934:	aa0f      	add	r2, sp, #60	; 0x3c
  402936:	9904      	ldr	r1, [sp, #16]
  402938:	9806      	ldr	r0, [sp, #24]
  40293a:	f7ff faaf 	bl	401e9c <__sprint_r.part.0>
  40293e:	2800      	cmp	r0, #0
  402940:	d19e      	bne.n	402880 <_vfiprintf_r+0x964>
  402942:	46ca      	mov	sl, r9
  402944:	f7ff bbc0 	b.w	4020c8 <_vfiprintf_r+0x1ac>
  402948:	00404744 	.word	0x00404744
  40294c:	00404734 	.word	0x00404734
  402950:	3104      	adds	r1, #4
  402952:	6816      	ldr	r6, [r2, #0]
  402954:	9107      	str	r1, [sp, #28]
  402956:	2201      	movs	r2, #1
  402958:	2700      	movs	r7, #0
  40295a:	e412      	b.n	402182 <_vfiprintf_r+0x266>
  40295c:	9807      	ldr	r0, [sp, #28]
  40295e:	4601      	mov	r1, r0
  402960:	3104      	adds	r1, #4
  402962:	6806      	ldr	r6, [r0, #0]
  402964:	9107      	str	r1, [sp, #28]
  402966:	2700      	movs	r7, #0
  402968:	e40b      	b.n	402182 <_vfiprintf_r+0x266>
  40296a:	680e      	ldr	r6, [r1, #0]
  40296c:	3104      	adds	r1, #4
  40296e:	9107      	str	r1, [sp, #28]
  402970:	2700      	movs	r7, #0
  402972:	e591      	b.n	402498 <_vfiprintf_r+0x57c>
  402974:	9907      	ldr	r1, [sp, #28]
  402976:	680e      	ldr	r6, [r1, #0]
  402978:	460a      	mov	r2, r1
  40297a:	17f7      	asrs	r7, r6, #31
  40297c:	3204      	adds	r2, #4
  40297e:	9207      	str	r2, [sp, #28]
  402980:	4630      	mov	r0, r6
  402982:	4639      	mov	r1, r7
  402984:	e50f      	b.n	4023a6 <_vfiprintf_r+0x48a>
  402986:	f8db 0058 	ldr.w	r0, [fp, #88]	; 0x58
  40298a:	f000 fe7f 	bl	40368c <__retarget_lock_release_recursive>
  40298e:	f8bb 300c 	ldrh.w	r3, [fp, #12]
  402992:	e71a      	b.n	4027ca <_vfiprintf_r+0x8ae>
  402994:	9b02      	ldr	r3, [sp, #8]
  402996:	9302      	str	r3, [sp, #8]
  402998:	f10d 0bb0 	add.w	fp, sp, #176	; 0xb0
  40299c:	3630      	adds	r6, #48	; 0x30
  40299e:	2301      	movs	r3, #1
  4029a0:	f80b 6d41 	strb.w	r6, [fp, #-65]!
  4029a4:	9305      	str	r3, [sp, #20]
  4029a6:	e40b      	b.n	4021c0 <_vfiprintf_r+0x2a4>
  4029a8:	aa0f      	add	r2, sp, #60	; 0x3c
  4029aa:	9904      	ldr	r1, [sp, #16]
  4029ac:	9806      	ldr	r0, [sp, #24]
  4029ae:	f7ff fa75 	bl	401e9c <__sprint_r.part.0>
  4029b2:	2800      	cmp	r0, #0
  4029b4:	f47f af64 	bne.w	402880 <_vfiprintf_r+0x964>
  4029b8:	9910      	ldr	r1, [sp, #64]	; 0x40
  4029ba:	9a11      	ldr	r2, [sp, #68]	; 0x44
  4029bc:	1c48      	adds	r0, r1, #1
  4029be:	46ca      	mov	sl, r9
  4029c0:	e651      	b.n	402666 <_vfiprintf_r+0x74a>
  4029c2:	aa0f      	add	r2, sp, #60	; 0x3c
  4029c4:	9904      	ldr	r1, [sp, #16]
  4029c6:	9806      	ldr	r0, [sp, #24]
  4029c8:	f7ff fa68 	bl	401e9c <__sprint_r.part.0>
  4029cc:	2800      	cmp	r0, #0
  4029ce:	f47f af57 	bne.w	402880 <_vfiprintf_r+0x964>
  4029d2:	9910      	ldr	r1, [sp, #64]	; 0x40
  4029d4:	9a11      	ldr	r2, [sp, #68]	; 0x44
  4029d6:	1c48      	adds	r0, r1, #1
  4029d8:	46ca      	mov	sl, r9
  4029da:	e448      	b.n	40226e <_vfiprintf_r+0x352>
  4029dc:	2a00      	cmp	r2, #0
  4029de:	f040 8091 	bne.w	402b04 <_vfiprintf_r+0xbe8>
  4029e2:	2001      	movs	r0, #1
  4029e4:	4611      	mov	r1, r2
  4029e6:	46ca      	mov	sl, r9
  4029e8:	e641      	b.n	40266e <_vfiprintf_r+0x752>
  4029ea:	aa0f      	add	r2, sp, #60	; 0x3c
  4029ec:	9904      	ldr	r1, [sp, #16]
  4029ee:	9806      	ldr	r0, [sp, #24]
  4029f0:	f7ff fa54 	bl	401e9c <__sprint_r.part.0>
  4029f4:	2800      	cmp	r0, #0
  4029f6:	f47f af43 	bne.w	402880 <_vfiprintf_r+0x964>
  4029fa:	9810      	ldr	r0, [sp, #64]	; 0x40
  4029fc:	9a11      	ldr	r2, [sp, #68]	; 0x44
  4029fe:	3001      	adds	r0, #1
  402a00:	46ca      	mov	sl, r9
  402a02:	e667      	b.n	4026d4 <_vfiprintf_r+0x7b8>
  402a04:	46d3      	mov	fp, sl
  402a06:	e6d6      	b.n	4027b6 <_vfiprintf_r+0x89a>
  402a08:	9e07      	ldr	r6, [sp, #28]
  402a0a:	3607      	adds	r6, #7
  402a0c:	f026 0207 	bic.w	r2, r6, #7
  402a10:	f102 0108 	add.w	r1, r2, #8
  402a14:	e9d2 6700 	ldrd	r6, r7, [r2]
  402a18:	9107      	str	r1, [sp, #28]
  402a1a:	2201      	movs	r2, #1
  402a1c:	f7ff bbb1 	b.w	402182 <_vfiprintf_r+0x266>
  402a20:	9e07      	ldr	r6, [sp, #28]
  402a22:	3607      	adds	r6, #7
  402a24:	f026 0607 	bic.w	r6, r6, #7
  402a28:	e9d6 0100 	ldrd	r0, r1, [r6]
  402a2c:	f106 0208 	add.w	r2, r6, #8
  402a30:	9207      	str	r2, [sp, #28]
  402a32:	4606      	mov	r6, r0
  402a34:	460f      	mov	r7, r1
  402a36:	e4b6      	b.n	4023a6 <_vfiprintf_r+0x48a>
  402a38:	9e07      	ldr	r6, [sp, #28]
  402a3a:	3607      	adds	r6, #7
  402a3c:	f026 0207 	bic.w	r2, r6, #7
  402a40:	f102 0108 	add.w	r1, r2, #8
  402a44:	e9d2 6700 	ldrd	r6, r7, [r2]
  402a48:	9107      	str	r1, [sp, #28]
  402a4a:	2200      	movs	r2, #0
  402a4c:	f7ff bb99 	b.w	402182 <_vfiprintf_r+0x266>
  402a50:	9e07      	ldr	r6, [sp, #28]
  402a52:	3607      	adds	r6, #7
  402a54:	f026 0107 	bic.w	r1, r6, #7
  402a58:	f101 0008 	add.w	r0, r1, #8
  402a5c:	9007      	str	r0, [sp, #28]
  402a5e:	e9d1 6700 	ldrd	r6, r7, [r1]
  402a62:	e519      	b.n	402498 <_vfiprintf_r+0x57c>
  402a64:	46cb      	mov	fp, r9
  402a66:	f7ff bbab 	b.w	4021c0 <_vfiprintf_r+0x2a4>
  402a6a:	252d      	movs	r5, #45	; 0x2d
  402a6c:	4276      	negs	r6, r6
  402a6e:	eb67 0747 	sbc.w	r7, r7, r7, lsl #1
  402a72:	f88d 5037 	strb.w	r5, [sp, #55]	; 0x37
  402a76:	2201      	movs	r2, #1
  402a78:	f7ff bb88 	b.w	40218c <_vfiprintf_r+0x270>
  402a7c:	9b09      	ldr	r3, [sp, #36]	; 0x24
  402a7e:	b9b3      	cbnz	r3, 402aae <_vfiprintf_r+0xb92>
  402a80:	4611      	mov	r1, r2
  402a82:	2001      	movs	r0, #1
  402a84:	46ca      	mov	sl, r9
  402a86:	e5f2      	b.n	40266e <_vfiprintf_r+0x752>
  402a88:	f8db 0058 	ldr.w	r0, [fp, #88]	; 0x58
  402a8c:	f000 fdfe 	bl	40368c <__retarget_lock_release_recursive>
  402a90:	f04f 33ff 	mov.w	r3, #4294967295
  402a94:	9303      	str	r3, [sp, #12]
  402a96:	f7ff bb50 	b.w	40213a <_vfiprintf_r+0x21e>
  402a9a:	aa0f      	add	r2, sp, #60	; 0x3c
  402a9c:	9904      	ldr	r1, [sp, #16]
  402a9e:	9806      	ldr	r0, [sp, #24]
  402aa0:	f7ff f9fc 	bl	401e9c <__sprint_r.part.0>
  402aa4:	2800      	cmp	r0, #0
  402aa6:	f47f aeeb 	bne.w	402880 <_vfiprintf_r+0x964>
  402aaa:	9a11      	ldr	r2, [sp, #68]	; 0x44
  402aac:	e6a9      	b.n	402802 <_vfiprintf_r+0x8e6>
  402aae:	ab0e      	add	r3, sp, #56	; 0x38
  402ab0:	2202      	movs	r2, #2
  402ab2:	931c      	str	r3, [sp, #112]	; 0x70
  402ab4:	921d      	str	r2, [sp, #116]	; 0x74
  402ab6:	2001      	movs	r0, #1
  402ab8:	46ca      	mov	sl, r9
  402aba:	e5d0      	b.n	40265e <_vfiprintf_r+0x742>
  402abc:	aa0f      	add	r2, sp, #60	; 0x3c
  402abe:	9904      	ldr	r1, [sp, #16]
  402ac0:	9806      	ldr	r0, [sp, #24]
  402ac2:	f7ff f9eb 	bl	401e9c <__sprint_r.part.0>
  402ac6:	2800      	cmp	r0, #0
  402ac8:	f47f aeda 	bne.w	402880 <_vfiprintf_r+0x964>
  402acc:	9910      	ldr	r1, [sp, #64]	; 0x40
  402ace:	9a11      	ldr	r2, [sp, #68]	; 0x44
  402ad0:	1c48      	adds	r0, r1, #1
  402ad2:	46ca      	mov	sl, r9
  402ad4:	e5a4      	b.n	402620 <_vfiprintf_r+0x704>
  402ad6:	9a07      	ldr	r2, [sp, #28]
  402ad8:	9903      	ldr	r1, [sp, #12]
  402ada:	6813      	ldr	r3, [r2, #0]
  402adc:	17cd      	asrs	r5, r1, #31
  402ade:	4608      	mov	r0, r1
  402ae0:	3204      	adds	r2, #4
  402ae2:	4629      	mov	r1, r5
  402ae4:	9207      	str	r2, [sp, #28]
  402ae6:	e9c3 0100 	strd	r0, r1, [r3]
  402aea:	f7ff ba54 	b.w	401f96 <_vfiprintf_r+0x7a>
  402aee:	4658      	mov	r0, fp
  402af0:	9607      	str	r6, [sp, #28]
  402af2:	9302      	str	r3, [sp, #8]
  402af4:	f7ff f964 	bl	401dc0 <strlen>
  402af8:	2400      	movs	r4, #0
  402afa:	9005      	str	r0, [sp, #20]
  402afc:	f89d 5037 	ldrb.w	r5, [sp, #55]	; 0x37
  402b00:	f7ff bb5e 	b.w	4021c0 <_vfiprintf_r+0x2a4>
  402b04:	aa0f      	add	r2, sp, #60	; 0x3c
  402b06:	9904      	ldr	r1, [sp, #16]
  402b08:	9806      	ldr	r0, [sp, #24]
  402b0a:	f7ff f9c7 	bl	401e9c <__sprint_r.part.0>
  402b0e:	2800      	cmp	r0, #0
  402b10:	f47f aeb6 	bne.w	402880 <_vfiprintf_r+0x964>
  402b14:	9910      	ldr	r1, [sp, #64]	; 0x40
  402b16:	9a11      	ldr	r2, [sp, #68]	; 0x44
  402b18:	1c48      	adds	r0, r1, #1
  402b1a:	46ca      	mov	sl, r9
  402b1c:	e5a7      	b.n	40266e <_vfiprintf_r+0x752>
  402b1e:	9910      	ldr	r1, [sp, #64]	; 0x40
  402b20:	9a11      	ldr	r2, [sp, #68]	; 0x44
  402b22:	4e20      	ldr	r6, [pc, #128]	; (402ba4 <_vfiprintf_r+0xc88>)
  402b24:	3101      	adds	r1, #1
  402b26:	f7ff bb90 	b.w	40224a <_vfiprintf_r+0x32e>
  402b2a:	2c06      	cmp	r4, #6
  402b2c:	bf28      	it	cs
  402b2e:	2406      	movcs	r4, #6
  402b30:	9405      	str	r4, [sp, #20]
  402b32:	9607      	str	r6, [sp, #28]
  402b34:	9401      	str	r4, [sp, #4]
  402b36:	f8df b070 	ldr.w	fp, [pc, #112]	; 402ba8 <_vfiprintf_r+0xc8c>
  402b3a:	e4d5      	b.n	4024e8 <_vfiprintf_r+0x5cc>
  402b3c:	9810      	ldr	r0, [sp, #64]	; 0x40
  402b3e:	4e19      	ldr	r6, [pc, #100]	; (402ba4 <_vfiprintf_r+0xc88>)
  402b40:	3001      	adds	r0, #1
  402b42:	e603      	b.n	40274c <_vfiprintf_r+0x830>
  402b44:	9405      	str	r4, [sp, #20]
  402b46:	f89d 5037 	ldrb.w	r5, [sp, #55]	; 0x37
  402b4a:	9607      	str	r6, [sp, #28]
  402b4c:	9302      	str	r3, [sp, #8]
  402b4e:	4604      	mov	r4, r0
  402b50:	f7ff bb36 	b.w	4021c0 <_vfiprintf_r+0x2a4>
  402b54:	4686      	mov	lr, r0
  402b56:	f7ff bbce 	b.w	4022f6 <_vfiprintf_r+0x3da>
  402b5a:	9806      	ldr	r0, [sp, #24]
  402b5c:	aa0f      	add	r2, sp, #60	; 0x3c
  402b5e:	4659      	mov	r1, fp
  402b60:	f7ff f99c 	bl	401e9c <__sprint_r.part.0>
  402b64:	2800      	cmp	r0, #0
  402b66:	f43f ae24 	beq.w	4027b2 <_vfiprintf_r+0x896>
  402b6a:	e624      	b.n	4027b6 <_vfiprintf_r+0x89a>
  402b6c:	9907      	ldr	r1, [sp, #28]
  402b6e:	f898 2001 	ldrb.w	r2, [r8, #1]
  402b72:	680c      	ldr	r4, [r1, #0]
  402b74:	3104      	adds	r1, #4
  402b76:	ea44 74e4 	orr.w	r4, r4, r4, asr #31
  402b7a:	46b8      	mov	r8, r7
  402b7c:	9107      	str	r1, [sp, #28]
  402b7e:	f7ff ba3f 	b.w	402000 <_vfiprintf_r+0xe4>
  402b82:	f88d 5037 	strb.w	r5, [sp, #55]	; 0x37
  402b86:	e43c      	b.n	402402 <_vfiprintf_r+0x4e6>
  402b88:	f88d 5037 	strb.w	r5, [sp, #55]	; 0x37
  402b8c:	e521      	b.n	4025d2 <_vfiprintf_r+0x6b6>
  402b8e:	f88d 5037 	strb.w	r5, [sp, #55]	; 0x37
  402b92:	f7ff bbf4 	b.w	40237e <_vfiprintf_r+0x462>
  402b96:	f88d 5037 	strb.w	r5, [sp, #55]	; 0x37
  402b9a:	e491      	b.n	4024c0 <_vfiprintf_r+0x5a4>
  402b9c:	f88d 5037 	strb.w	r5, [sp, #55]	; 0x37
  402ba0:	e469      	b.n	402476 <_vfiprintf_r+0x55a>
  402ba2:	bf00      	nop
  402ba4:	00404734 	.word	0x00404734
  402ba8:	0040472c 	.word	0x0040472c

00402bac <__sbprintf>:
  402bac:	e92d 41f0 	stmdb	sp!, {r4, r5, r6, r7, r8, lr}
  402bb0:	460c      	mov	r4, r1
  402bb2:	f5ad 6d8d 	sub.w	sp, sp, #1128	; 0x468
  402bb6:	8989      	ldrh	r1, [r1, #12]
  402bb8:	6e66      	ldr	r6, [r4, #100]	; 0x64
  402bba:	89e5      	ldrh	r5, [r4, #14]
  402bbc:	9619      	str	r6, [sp, #100]	; 0x64
  402bbe:	f021 0102 	bic.w	r1, r1, #2
  402bc2:	4606      	mov	r6, r0
  402bc4:	69e0      	ldr	r0, [r4, #28]
  402bc6:	f8ad 100c 	strh.w	r1, [sp, #12]
  402bca:	4617      	mov	r7, r2
  402bcc:	f44f 6180 	mov.w	r1, #1024	; 0x400
  402bd0:	6a62      	ldr	r2, [r4, #36]	; 0x24
  402bd2:	f8ad 500e 	strh.w	r5, [sp, #14]
  402bd6:	4698      	mov	r8, r3
  402bd8:	ad1a      	add	r5, sp, #104	; 0x68
  402bda:	2300      	movs	r3, #0
  402bdc:	9007      	str	r0, [sp, #28]
  402bde:	a816      	add	r0, sp, #88	; 0x58
  402be0:	9209      	str	r2, [sp, #36]	; 0x24
  402be2:	9306      	str	r3, [sp, #24]
  402be4:	9500      	str	r5, [sp, #0]
  402be6:	9504      	str	r5, [sp, #16]
  402be8:	9102      	str	r1, [sp, #8]
  402bea:	9105      	str	r1, [sp, #20]
  402bec:	f000 fd48 	bl	403680 <__retarget_lock_init_recursive>
  402bf0:	4643      	mov	r3, r8
  402bf2:	463a      	mov	r2, r7
  402bf4:	4669      	mov	r1, sp
  402bf6:	4630      	mov	r0, r6
  402bf8:	f7ff f990 	bl	401f1c <_vfiprintf_r>
  402bfc:	1e05      	subs	r5, r0, #0
  402bfe:	db07      	blt.n	402c10 <__sbprintf+0x64>
  402c00:	4630      	mov	r0, r6
  402c02:	4669      	mov	r1, sp
  402c04:	f000 f928 	bl	402e58 <_fflush_r>
  402c08:	2800      	cmp	r0, #0
  402c0a:	bf18      	it	ne
  402c0c:	f04f 35ff 	movne.w	r5, #4294967295
  402c10:	f8bd 300c 	ldrh.w	r3, [sp, #12]
  402c14:	065b      	lsls	r3, r3, #25
  402c16:	d503      	bpl.n	402c20 <__sbprintf+0x74>
  402c18:	89a3      	ldrh	r3, [r4, #12]
  402c1a:	f043 0340 	orr.w	r3, r3, #64	; 0x40
  402c1e:	81a3      	strh	r3, [r4, #12]
  402c20:	9816      	ldr	r0, [sp, #88]	; 0x58
  402c22:	f000 fd2f 	bl	403684 <__retarget_lock_close_recursive>
  402c26:	4628      	mov	r0, r5
  402c28:	f50d 6d8d 	add.w	sp, sp, #1128	; 0x468
  402c2c:	e8bd 81f0 	ldmia.w	sp!, {r4, r5, r6, r7, r8, pc}

00402c30 <__swsetup_r>:
  402c30:	b538      	push	{r3, r4, r5, lr}
  402c32:	4b30      	ldr	r3, [pc, #192]	; (402cf4 <__swsetup_r+0xc4>)
  402c34:	681b      	ldr	r3, [r3, #0]
  402c36:	4605      	mov	r5, r0
  402c38:	460c      	mov	r4, r1
  402c3a:	b113      	cbz	r3, 402c42 <__swsetup_r+0x12>
  402c3c:	6b9a      	ldr	r2, [r3, #56]	; 0x38
  402c3e:	2a00      	cmp	r2, #0
  402c40:	d038      	beq.n	402cb4 <__swsetup_r+0x84>
  402c42:	f9b4 200c 	ldrsh.w	r2, [r4, #12]
  402c46:	b293      	uxth	r3, r2
  402c48:	0718      	lsls	r0, r3, #28
  402c4a:	d50c      	bpl.n	402c66 <__swsetup_r+0x36>
  402c4c:	6920      	ldr	r0, [r4, #16]
  402c4e:	b1a8      	cbz	r0, 402c7c <__swsetup_r+0x4c>
  402c50:	f013 0201 	ands.w	r2, r3, #1
  402c54:	d01e      	beq.n	402c94 <__swsetup_r+0x64>
  402c56:	6963      	ldr	r3, [r4, #20]
  402c58:	2200      	movs	r2, #0
  402c5a:	425b      	negs	r3, r3
  402c5c:	61a3      	str	r3, [r4, #24]
  402c5e:	60a2      	str	r2, [r4, #8]
  402c60:	b1f0      	cbz	r0, 402ca0 <__swsetup_r+0x70>
  402c62:	2000      	movs	r0, #0
  402c64:	bd38      	pop	{r3, r4, r5, pc}
  402c66:	06d9      	lsls	r1, r3, #27
  402c68:	d53c      	bpl.n	402ce4 <__swsetup_r+0xb4>
  402c6a:	0758      	lsls	r0, r3, #29
  402c6c:	d426      	bmi.n	402cbc <__swsetup_r+0x8c>
  402c6e:	6920      	ldr	r0, [r4, #16]
  402c70:	f042 0308 	orr.w	r3, r2, #8
  402c74:	81a3      	strh	r3, [r4, #12]
  402c76:	b29b      	uxth	r3, r3
  402c78:	2800      	cmp	r0, #0
  402c7a:	d1e9      	bne.n	402c50 <__swsetup_r+0x20>
  402c7c:	f403 7220 	and.w	r2, r3, #640	; 0x280
  402c80:	f5b2 7f00 	cmp.w	r2, #512	; 0x200
  402c84:	d0e4      	beq.n	402c50 <__swsetup_r+0x20>
  402c86:	4628      	mov	r0, r5
  402c88:	4621      	mov	r1, r4
  402c8a:	f000 fd2f 	bl	4036ec <__smakebuf_r>
  402c8e:	89a3      	ldrh	r3, [r4, #12]
  402c90:	6920      	ldr	r0, [r4, #16]
  402c92:	e7dd      	b.n	402c50 <__swsetup_r+0x20>
  402c94:	0799      	lsls	r1, r3, #30
  402c96:	bf58      	it	pl
  402c98:	6962      	ldrpl	r2, [r4, #20]
  402c9a:	60a2      	str	r2, [r4, #8]
  402c9c:	2800      	cmp	r0, #0
  402c9e:	d1e0      	bne.n	402c62 <__swsetup_r+0x32>
  402ca0:	f9b4 300c 	ldrsh.w	r3, [r4, #12]
  402ca4:	061a      	lsls	r2, r3, #24
  402ca6:	d5dd      	bpl.n	402c64 <__swsetup_r+0x34>
  402ca8:	f043 0340 	orr.w	r3, r3, #64	; 0x40
  402cac:	81a3      	strh	r3, [r4, #12]
  402cae:	f04f 30ff 	mov.w	r0, #4294967295
  402cb2:	bd38      	pop	{r3, r4, r5, pc}
  402cb4:	4618      	mov	r0, r3
  402cb6:	f000 f927 	bl	402f08 <__sinit>
  402cba:	e7c2      	b.n	402c42 <__swsetup_r+0x12>
  402cbc:	6b21      	ldr	r1, [r4, #48]	; 0x30
  402cbe:	b151      	cbz	r1, 402cd6 <__swsetup_r+0xa6>
  402cc0:	f104 0340 	add.w	r3, r4, #64	; 0x40
  402cc4:	4299      	cmp	r1, r3
  402cc6:	d004      	beq.n	402cd2 <__swsetup_r+0xa2>
  402cc8:	4628      	mov	r0, r5
  402cca:	f000 fa43 	bl	403154 <_free_r>
  402cce:	f9b4 200c 	ldrsh.w	r2, [r4, #12]
  402cd2:	2300      	movs	r3, #0
  402cd4:	6323      	str	r3, [r4, #48]	; 0x30
  402cd6:	2300      	movs	r3, #0
  402cd8:	6920      	ldr	r0, [r4, #16]
  402cda:	6063      	str	r3, [r4, #4]
  402cdc:	f022 0224 	bic.w	r2, r2, #36	; 0x24
  402ce0:	6020      	str	r0, [r4, #0]
  402ce2:	e7c5      	b.n	402c70 <__swsetup_r+0x40>
  402ce4:	f042 0240 	orr.w	r2, r2, #64	; 0x40
  402ce8:	2309      	movs	r3, #9
  402cea:	602b      	str	r3, [r5, #0]
  402cec:	f04f 30ff 	mov.w	r0, #4294967295
  402cf0:	81a2      	strh	r2, [r4, #12]
  402cf2:	bd38      	pop	{r3, r4, r5, pc}
  402cf4:	20400014 	.word	0x20400014

00402cf8 <register_fini>:
  402cf8:	4b02      	ldr	r3, [pc, #8]	; (402d04 <register_fini+0xc>)
  402cfa:	b113      	cbz	r3, 402d02 <register_fini+0xa>
  402cfc:	4802      	ldr	r0, [pc, #8]	; (402d08 <register_fini+0x10>)
  402cfe:	f000 b805 	b.w	402d0c <atexit>
  402d02:	4770      	bx	lr
  402d04:	00000000 	.word	0x00000000
  402d08:	00402f79 	.word	0x00402f79

00402d0c <atexit>:
  402d0c:	2300      	movs	r3, #0
  402d0e:	4601      	mov	r1, r0
  402d10:	461a      	mov	r2, r3
  402d12:	4618      	mov	r0, r3
  402d14:	f001 bb66 	b.w	4043e4 <__register_exitproc>

00402d18 <__sflush_r>:
  402d18:	f9b1 300c 	ldrsh.w	r3, [r1, #12]
  402d1c:	b29a      	uxth	r2, r3
  402d1e:	e92d 41f0 	stmdb	sp!, {r4, r5, r6, r7, r8, lr}
  402d22:	460d      	mov	r5, r1
  402d24:	0711      	lsls	r1, r2, #28
  402d26:	4680      	mov	r8, r0
  402d28:	d43a      	bmi.n	402da0 <__sflush_r+0x88>
  402d2a:	686a      	ldr	r2, [r5, #4]
  402d2c:	f443 6300 	orr.w	r3, r3, #2048	; 0x800
  402d30:	2a00      	cmp	r2, #0
  402d32:	81ab      	strh	r3, [r5, #12]
  402d34:	dd6f      	ble.n	402e16 <__sflush_r+0xfe>
  402d36:	6aac      	ldr	r4, [r5, #40]	; 0x28
  402d38:	2c00      	cmp	r4, #0
  402d3a:	d049      	beq.n	402dd0 <__sflush_r+0xb8>
  402d3c:	2200      	movs	r2, #0
  402d3e:	b29b      	uxth	r3, r3
  402d40:	f8d8 6000 	ldr.w	r6, [r8]
  402d44:	f8c8 2000 	str.w	r2, [r8]
  402d48:	f413 5280 	ands.w	r2, r3, #4096	; 0x1000
  402d4c:	d067      	beq.n	402e1e <__sflush_r+0x106>
  402d4e:	6d2a      	ldr	r2, [r5, #80]	; 0x50
  402d50:	075f      	lsls	r7, r3, #29
  402d52:	d505      	bpl.n	402d60 <__sflush_r+0x48>
  402d54:	6869      	ldr	r1, [r5, #4]
  402d56:	6b2b      	ldr	r3, [r5, #48]	; 0x30
  402d58:	1a52      	subs	r2, r2, r1
  402d5a:	b10b      	cbz	r3, 402d60 <__sflush_r+0x48>
  402d5c:	6beb      	ldr	r3, [r5, #60]	; 0x3c
  402d5e:	1ad2      	subs	r2, r2, r3
  402d60:	2300      	movs	r3, #0
  402d62:	69e9      	ldr	r1, [r5, #28]
  402d64:	4640      	mov	r0, r8
  402d66:	47a0      	blx	r4
  402d68:	1c44      	adds	r4, r0, #1
  402d6a:	d03c      	beq.n	402de6 <__sflush_r+0xce>
  402d6c:	f9b5 300c 	ldrsh.w	r3, [r5, #12]
  402d70:	692a      	ldr	r2, [r5, #16]
  402d72:	602a      	str	r2, [r5, #0]
  402d74:	f423 6300 	bic.w	r3, r3, #2048	; 0x800
  402d78:	2200      	movs	r2, #0
  402d7a:	81ab      	strh	r3, [r5, #12]
  402d7c:	04db      	lsls	r3, r3, #19
  402d7e:	606a      	str	r2, [r5, #4]
  402d80:	d447      	bmi.n	402e12 <__sflush_r+0xfa>
  402d82:	6b29      	ldr	r1, [r5, #48]	; 0x30
  402d84:	f8c8 6000 	str.w	r6, [r8]
  402d88:	b311      	cbz	r1, 402dd0 <__sflush_r+0xb8>
  402d8a:	f105 0340 	add.w	r3, r5, #64	; 0x40
  402d8e:	4299      	cmp	r1, r3
  402d90:	d002      	beq.n	402d98 <__sflush_r+0x80>
  402d92:	4640      	mov	r0, r8
  402d94:	f000 f9de 	bl	403154 <_free_r>
  402d98:	2000      	movs	r0, #0
  402d9a:	6328      	str	r0, [r5, #48]	; 0x30
  402d9c:	e8bd 81f0 	ldmia.w	sp!, {r4, r5, r6, r7, r8, pc}
  402da0:	692e      	ldr	r6, [r5, #16]
  402da2:	b1ae      	cbz	r6, 402dd0 <__sflush_r+0xb8>
  402da4:	682c      	ldr	r4, [r5, #0]
  402da6:	602e      	str	r6, [r5, #0]
  402da8:	0791      	lsls	r1, r2, #30
  402daa:	bf0c      	ite	eq
  402dac:	696b      	ldreq	r3, [r5, #20]
  402dae:	2300      	movne	r3, #0
  402db0:	1ba4      	subs	r4, r4, r6
  402db2:	60ab      	str	r3, [r5, #8]
  402db4:	e00a      	b.n	402dcc <__sflush_r+0xb4>
  402db6:	4623      	mov	r3, r4
  402db8:	4632      	mov	r2, r6
  402dba:	6a6f      	ldr	r7, [r5, #36]	; 0x24
  402dbc:	69e9      	ldr	r1, [r5, #28]
  402dbe:	4640      	mov	r0, r8
  402dc0:	47b8      	blx	r7
  402dc2:	2800      	cmp	r0, #0
  402dc4:	eba4 0400 	sub.w	r4, r4, r0
  402dc8:	4406      	add	r6, r0
  402dca:	dd04      	ble.n	402dd6 <__sflush_r+0xbe>
  402dcc:	2c00      	cmp	r4, #0
  402dce:	dcf2      	bgt.n	402db6 <__sflush_r+0x9e>
  402dd0:	2000      	movs	r0, #0
  402dd2:	e8bd 81f0 	ldmia.w	sp!, {r4, r5, r6, r7, r8, pc}
  402dd6:	89ab      	ldrh	r3, [r5, #12]
  402dd8:	f043 0340 	orr.w	r3, r3, #64	; 0x40
  402ddc:	81ab      	strh	r3, [r5, #12]
  402dde:	f04f 30ff 	mov.w	r0, #4294967295
  402de2:	e8bd 81f0 	ldmia.w	sp!, {r4, r5, r6, r7, r8, pc}
  402de6:	f8d8 4000 	ldr.w	r4, [r8]
  402dea:	2c1d      	cmp	r4, #29
  402dec:	d8f3      	bhi.n	402dd6 <__sflush_r+0xbe>
  402dee:	4b19      	ldr	r3, [pc, #100]	; (402e54 <__sflush_r+0x13c>)
  402df0:	40e3      	lsrs	r3, r4
  402df2:	43db      	mvns	r3, r3
  402df4:	f013 0301 	ands.w	r3, r3, #1
  402df8:	d1ed      	bne.n	402dd6 <__sflush_r+0xbe>
  402dfa:	f9b5 200c 	ldrsh.w	r2, [r5, #12]
  402dfe:	606b      	str	r3, [r5, #4]
  402e00:	f422 6300 	bic.w	r3, r2, #2048	; 0x800
  402e04:	6929      	ldr	r1, [r5, #16]
  402e06:	81ab      	strh	r3, [r5, #12]
  402e08:	04da      	lsls	r2, r3, #19
  402e0a:	6029      	str	r1, [r5, #0]
  402e0c:	d5b9      	bpl.n	402d82 <__sflush_r+0x6a>
  402e0e:	2c00      	cmp	r4, #0
  402e10:	d1b7      	bne.n	402d82 <__sflush_r+0x6a>
  402e12:	6528      	str	r0, [r5, #80]	; 0x50
  402e14:	e7b5      	b.n	402d82 <__sflush_r+0x6a>
  402e16:	6bea      	ldr	r2, [r5, #60]	; 0x3c
  402e18:	2a00      	cmp	r2, #0
  402e1a:	dc8c      	bgt.n	402d36 <__sflush_r+0x1e>
  402e1c:	e7d8      	b.n	402dd0 <__sflush_r+0xb8>
  402e1e:	2301      	movs	r3, #1
  402e20:	69e9      	ldr	r1, [r5, #28]
  402e22:	4640      	mov	r0, r8
  402e24:	47a0      	blx	r4
  402e26:	1c43      	adds	r3, r0, #1
  402e28:	4602      	mov	r2, r0
  402e2a:	d002      	beq.n	402e32 <__sflush_r+0x11a>
  402e2c:	89ab      	ldrh	r3, [r5, #12]
  402e2e:	6aac      	ldr	r4, [r5, #40]	; 0x28
  402e30:	e78e      	b.n	402d50 <__sflush_r+0x38>
  402e32:	f8d8 3000 	ldr.w	r3, [r8]
  402e36:	2b00      	cmp	r3, #0
  402e38:	d0f8      	beq.n	402e2c <__sflush_r+0x114>
  402e3a:	2b1d      	cmp	r3, #29
  402e3c:	d001      	beq.n	402e42 <__sflush_r+0x12a>
  402e3e:	2b16      	cmp	r3, #22
  402e40:	d102      	bne.n	402e48 <__sflush_r+0x130>
  402e42:	f8c8 6000 	str.w	r6, [r8]
  402e46:	e7c3      	b.n	402dd0 <__sflush_r+0xb8>
  402e48:	89ab      	ldrh	r3, [r5, #12]
  402e4a:	f043 0340 	orr.w	r3, r3, #64	; 0x40
  402e4e:	81ab      	strh	r3, [r5, #12]
  402e50:	e8bd 81f0 	ldmia.w	sp!, {r4, r5, r6, r7, r8, pc}
  402e54:	20400001 	.word	0x20400001

00402e58 <_fflush_r>:
  402e58:	b538      	push	{r3, r4, r5, lr}
  402e5a:	460d      	mov	r5, r1
  402e5c:	4604      	mov	r4, r0
  402e5e:	b108      	cbz	r0, 402e64 <_fflush_r+0xc>
  402e60:	6b83      	ldr	r3, [r0, #56]	; 0x38
  402e62:	b1bb      	cbz	r3, 402e94 <_fflush_r+0x3c>
  402e64:	f9b5 000c 	ldrsh.w	r0, [r5, #12]
  402e68:	b188      	cbz	r0, 402e8e <_fflush_r+0x36>
  402e6a:	6e6b      	ldr	r3, [r5, #100]	; 0x64
  402e6c:	07db      	lsls	r3, r3, #31
  402e6e:	d401      	bmi.n	402e74 <_fflush_r+0x1c>
  402e70:	0581      	lsls	r1, r0, #22
  402e72:	d517      	bpl.n	402ea4 <_fflush_r+0x4c>
  402e74:	4620      	mov	r0, r4
  402e76:	4629      	mov	r1, r5
  402e78:	f7ff ff4e 	bl	402d18 <__sflush_r>
  402e7c:	6e6b      	ldr	r3, [r5, #100]	; 0x64
  402e7e:	07da      	lsls	r2, r3, #31
  402e80:	4604      	mov	r4, r0
  402e82:	d402      	bmi.n	402e8a <_fflush_r+0x32>
  402e84:	89ab      	ldrh	r3, [r5, #12]
  402e86:	059b      	lsls	r3, r3, #22
  402e88:	d507      	bpl.n	402e9a <_fflush_r+0x42>
  402e8a:	4620      	mov	r0, r4
  402e8c:	bd38      	pop	{r3, r4, r5, pc}
  402e8e:	4604      	mov	r4, r0
  402e90:	4620      	mov	r0, r4
  402e92:	bd38      	pop	{r3, r4, r5, pc}
  402e94:	f000 f838 	bl	402f08 <__sinit>
  402e98:	e7e4      	b.n	402e64 <_fflush_r+0xc>
  402e9a:	6da8      	ldr	r0, [r5, #88]	; 0x58
  402e9c:	f000 fbf6 	bl	40368c <__retarget_lock_release_recursive>
  402ea0:	4620      	mov	r0, r4
  402ea2:	bd38      	pop	{r3, r4, r5, pc}
  402ea4:	6da8      	ldr	r0, [r5, #88]	; 0x58
  402ea6:	f000 fbef 	bl	403688 <__retarget_lock_acquire_recursive>
  402eaa:	e7e3      	b.n	402e74 <_fflush_r+0x1c>

00402eac <_cleanup_r>:
  402eac:	4901      	ldr	r1, [pc, #4]	; (402eb4 <_cleanup_r+0x8>)
  402eae:	f000 bbaf 	b.w	403610 <_fwalk_reent>
  402eb2:	bf00      	nop
  402eb4:	004044cd 	.word	0x004044cd

00402eb8 <std.isra.0>:
  402eb8:	b510      	push	{r4, lr}
  402eba:	2300      	movs	r3, #0
  402ebc:	4604      	mov	r4, r0
  402ebe:	8181      	strh	r1, [r0, #12]
  402ec0:	81c2      	strh	r2, [r0, #14]
  402ec2:	6003      	str	r3, [r0, #0]
  402ec4:	6043      	str	r3, [r0, #4]
  402ec6:	6083      	str	r3, [r0, #8]
  402ec8:	6643      	str	r3, [r0, #100]	; 0x64
  402eca:	6103      	str	r3, [r0, #16]
  402ecc:	6143      	str	r3, [r0, #20]
  402ece:	6183      	str	r3, [r0, #24]
  402ed0:	4619      	mov	r1, r3
  402ed2:	2208      	movs	r2, #8
  402ed4:	305c      	adds	r0, #92	; 0x5c
  402ed6:	f7fe fdf7 	bl	401ac8 <memset>
  402eda:	4807      	ldr	r0, [pc, #28]	; (402ef8 <std.isra.0+0x40>)
  402edc:	4907      	ldr	r1, [pc, #28]	; (402efc <std.isra.0+0x44>)
  402ede:	4a08      	ldr	r2, [pc, #32]	; (402f00 <std.isra.0+0x48>)
  402ee0:	4b08      	ldr	r3, [pc, #32]	; (402f04 <std.isra.0+0x4c>)
  402ee2:	6220      	str	r0, [r4, #32]
  402ee4:	61e4      	str	r4, [r4, #28]
  402ee6:	6261      	str	r1, [r4, #36]	; 0x24
  402ee8:	62a2      	str	r2, [r4, #40]	; 0x28
  402eea:	62e3      	str	r3, [r4, #44]	; 0x2c
  402eec:	f104 0058 	add.w	r0, r4, #88	; 0x58
  402ef0:	e8bd 4010 	ldmia.w	sp!, {r4, lr}
  402ef4:	f000 bbc4 	b.w	403680 <__retarget_lock_init_recursive>
  402ef8:	00404211 	.word	0x00404211
  402efc:	00404235 	.word	0x00404235
  402f00:	00404271 	.word	0x00404271
  402f04:	00404291 	.word	0x00404291

00402f08 <__sinit>:
  402f08:	b510      	push	{r4, lr}
  402f0a:	4604      	mov	r4, r0
  402f0c:	4812      	ldr	r0, [pc, #72]	; (402f58 <__sinit+0x50>)
  402f0e:	f000 fbbb 	bl	403688 <__retarget_lock_acquire_recursive>
  402f12:	6ba2      	ldr	r2, [r4, #56]	; 0x38
  402f14:	b9d2      	cbnz	r2, 402f4c <__sinit+0x44>
  402f16:	f504 733b 	add.w	r3, r4, #748	; 0x2ec
  402f1a:	4810      	ldr	r0, [pc, #64]	; (402f5c <__sinit+0x54>)
  402f1c:	f8c4 32e8 	str.w	r3, [r4, #744]	; 0x2e8
  402f20:	2103      	movs	r1, #3
  402f22:	f8c4 22e0 	str.w	r2, [r4, #736]	; 0x2e0
  402f26:	63e0      	str	r0, [r4, #60]	; 0x3c
  402f28:	f8c4 12e4 	str.w	r1, [r4, #740]	; 0x2e4
  402f2c:	6860      	ldr	r0, [r4, #4]
  402f2e:	2104      	movs	r1, #4
  402f30:	f7ff ffc2 	bl	402eb8 <std.isra.0>
  402f34:	2201      	movs	r2, #1
  402f36:	2109      	movs	r1, #9
  402f38:	68a0      	ldr	r0, [r4, #8]
  402f3a:	f7ff ffbd 	bl	402eb8 <std.isra.0>
  402f3e:	2202      	movs	r2, #2
  402f40:	2112      	movs	r1, #18
  402f42:	68e0      	ldr	r0, [r4, #12]
  402f44:	f7ff ffb8 	bl	402eb8 <std.isra.0>
  402f48:	2301      	movs	r3, #1
  402f4a:	63a3      	str	r3, [r4, #56]	; 0x38
  402f4c:	4802      	ldr	r0, [pc, #8]	; (402f58 <__sinit+0x50>)
  402f4e:	e8bd 4010 	ldmia.w	sp!, {r4, lr}
  402f52:	f000 bb9b 	b.w	40368c <__retarget_lock_release_recursive>
  402f56:	bf00      	nop
  402f58:	20400ae8 	.word	0x20400ae8
  402f5c:	00402ead 	.word	0x00402ead

00402f60 <__sfp_lock_acquire>:
  402f60:	4801      	ldr	r0, [pc, #4]	; (402f68 <__sfp_lock_acquire+0x8>)
  402f62:	f000 bb91 	b.w	403688 <__retarget_lock_acquire_recursive>
  402f66:	bf00      	nop
  402f68:	20400afc 	.word	0x20400afc

00402f6c <__sfp_lock_release>:
  402f6c:	4801      	ldr	r0, [pc, #4]	; (402f74 <__sfp_lock_release+0x8>)
  402f6e:	f000 bb8d 	b.w	40368c <__retarget_lock_release_recursive>
  402f72:	bf00      	nop
  402f74:	20400afc 	.word	0x20400afc

00402f78 <__libc_fini_array>:
  402f78:	b538      	push	{r3, r4, r5, lr}
  402f7a:	4c0a      	ldr	r4, [pc, #40]	; (402fa4 <__libc_fini_array+0x2c>)
  402f7c:	4d0a      	ldr	r5, [pc, #40]	; (402fa8 <__libc_fini_array+0x30>)
  402f7e:	1b64      	subs	r4, r4, r5
  402f80:	10a4      	asrs	r4, r4, #2
  402f82:	d00a      	beq.n	402f9a <__libc_fini_array+0x22>
  402f84:	f104 4380 	add.w	r3, r4, #1073741824	; 0x40000000
  402f88:	3b01      	subs	r3, #1
  402f8a:	eb05 0583 	add.w	r5, r5, r3, lsl #2
  402f8e:	3c01      	subs	r4, #1
  402f90:	f855 3904 	ldr.w	r3, [r5], #-4
  402f94:	4798      	blx	r3
  402f96:	2c00      	cmp	r4, #0
  402f98:	d1f9      	bne.n	402f8e <__libc_fini_array+0x16>
  402f9a:	e8bd 4038 	ldmia.w	sp!, {r3, r4, r5, lr}
  402f9e:	f001 bc6d 	b.w	40487c <_fini>
  402fa2:	bf00      	nop
  402fa4:	0040488c 	.word	0x0040488c
  402fa8:	00404888 	.word	0x00404888

00402fac <__fputwc>:
  402fac:	e92d 47f0 	stmdb	sp!, {r4, r5, r6, r7, r8, r9, sl, lr}
  402fb0:	b082      	sub	sp, #8
  402fb2:	4680      	mov	r8, r0
  402fb4:	4689      	mov	r9, r1
  402fb6:	4614      	mov	r4, r2
  402fb8:	f000 fb54 	bl	403664 <__locale_mb_cur_max>
  402fbc:	2801      	cmp	r0, #1
  402fbe:	d036      	beq.n	40302e <__fputwc+0x82>
  402fc0:	464a      	mov	r2, r9
  402fc2:	f104 035c 	add.w	r3, r4, #92	; 0x5c
  402fc6:	a901      	add	r1, sp, #4
  402fc8:	4640      	mov	r0, r8
  402fca:	f001 f9bd 	bl	404348 <_wcrtomb_r>
  402fce:	1c42      	adds	r2, r0, #1
  402fd0:	4606      	mov	r6, r0
  402fd2:	d025      	beq.n	403020 <__fputwc+0x74>
  402fd4:	b3a8      	cbz	r0, 403042 <__fputwc+0x96>
  402fd6:	f89d e004 	ldrb.w	lr, [sp, #4]
  402fda:	2500      	movs	r5, #0
  402fdc:	f10d 0a04 	add.w	sl, sp, #4
  402fe0:	e009      	b.n	402ff6 <__fputwc+0x4a>
  402fe2:	6823      	ldr	r3, [r4, #0]
  402fe4:	1c5a      	adds	r2, r3, #1
  402fe6:	6022      	str	r2, [r4, #0]
  402fe8:	f883 e000 	strb.w	lr, [r3]
  402fec:	3501      	adds	r5, #1
  402fee:	42b5      	cmp	r5, r6
  402ff0:	d227      	bcs.n	403042 <__fputwc+0x96>
  402ff2:	f815 e00a 	ldrb.w	lr, [r5, sl]
  402ff6:	68a3      	ldr	r3, [r4, #8]
  402ff8:	3b01      	subs	r3, #1
  402ffa:	2b00      	cmp	r3, #0
  402ffc:	60a3      	str	r3, [r4, #8]
  402ffe:	daf0      	bge.n	402fe2 <__fputwc+0x36>
  403000:	69a7      	ldr	r7, [r4, #24]
  403002:	42bb      	cmp	r3, r7
  403004:	4671      	mov	r1, lr
  403006:	4622      	mov	r2, r4
  403008:	4640      	mov	r0, r8
  40300a:	db02      	blt.n	403012 <__fputwc+0x66>
  40300c:	f1be 0f0a 	cmp.w	lr, #10
  403010:	d1e7      	bne.n	402fe2 <__fputwc+0x36>
  403012:	f001 f941 	bl	404298 <__swbuf_r>
  403016:	1c43      	adds	r3, r0, #1
  403018:	d1e8      	bne.n	402fec <__fputwc+0x40>
  40301a:	b002      	add	sp, #8
  40301c:	e8bd 87f0 	ldmia.w	sp!, {r4, r5, r6, r7, r8, r9, sl, pc}
  403020:	89a3      	ldrh	r3, [r4, #12]
  403022:	f043 0340 	orr.w	r3, r3, #64	; 0x40
  403026:	81a3      	strh	r3, [r4, #12]
  403028:	b002      	add	sp, #8
  40302a:	e8bd 87f0 	ldmia.w	sp!, {r4, r5, r6, r7, r8, r9, sl, pc}
  40302e:	f109 33ff 	add.w	r3, r9, #4294967295
  403032:	2bfe      	cmp	r3, #254	; 0xfe
  403034:	d8c4      	bhi.n	402fc0 <__fputwc+0x14>
  403036:	fa5f fe89 	uxtb.w	lr, r9
  40303a:	4606      	mov	r6, r0
  40303c:	f88d e004 	strb.w	lr, [sp, #4]
  403040:	e7cb      	b.n	402fda <__fputwc+0x2e>
  403042:	4648      	mov	r0, r9
  403044:	b002      	add	sp, #8
  403046:	e8bd 87f0 	ldmia.w	sp!, {r4, r5, r6, r7, r8, r9, sl, pc}
  40304a:	bf00      	nop

0040304c <_fputwc_r>:
  40304c:	b530      	push	{r4, r5, lr}
  40304e:	6e53      	ldr	r3, [r2, #100]	; 0x64
  403050:	f013 0f01 	tst.w	r3, #1
  403054:	f9b2 300c 	ldrsh.w	r3, [r2, #12]
  403058:	4614      	mov	r4, r2
  40305a:	b083      	sub	sp, #12
  40305c:	4605      	mov	r5, r0
  40305e:	b29a      	uxth	r2, r3
  403060:	d101      	bne.n	403066 <_fputwc_r+0x1a>
  403062:	0590      	lsls	r0, r2, #22
  403064:	d51c      	bpl.n	4030a0 <_fputwc_r+0x54>
  403066:	0490      	lsls	r0, r2, #18
  403068:	d406      	bmi.n	403078 <_fputwc_r+0x2c>
  40306a:	6e62      	ldr	r2, [r4, #100]	; 0x64
  40306c:	f443 5300 	orr.w	r3, r3, #8192	; 0x2000
  403070:	f442 5200 	orr.w	r2, r2, #8192	; 0x2000
  403074:	81a3      	strh	r3, [r4, #12]
  403076:	6662      	str	r2, [r4, #100]	; 0x64
  403078:	4628      	mov	r0, r5
  40307a:	4622      	mov	r2, r4
  40307c:	f7ff ff96 	bl	402fac <__fputwc>
  403080:	6e63      	ldr	r3, [r4, #100]	; 0x64
  403082:	07da      	lsls	r2, r3, #31
  403084:	4605      	mov	r5, r0
  403086:	d402      	bmi.n	40308e <_fputwc_r+0x42>
  403088:	89a3      	ldrh	r3, [r4, #12]
  40308a:	059b      	lsls	r3, r3, #22
  40308c:	d502      	bpl.n	403094 <_fputwc_r+0x48>
  40308e:	4628      	mov	r0, r5
  403090:	b003      	add	sp, #12
  403092:	bd30      	pop	{r4, r5, pc}
  403094:	6da0      	ldr	r0, [r4, #88]	; 0x58
  403096:	f000 faf9 	bl	40368c <__retarget_lock_release_recursive>
  40309a:	4628      	mov	r0, r5
  40309c:	b003      	add	sp, #12
  40309e:	bd30      	pop	{r4, r5, pc}
  4030a0:	6da0      	ldr	r0, [r4, #88]	; 0x58
  4030a2:	9101      	str	r1, [sp, #4]
  4030a4:	f000 faf0 	bl	403688 <__retarget_lock_acquire_recursive>
  4030a8:	f9b4 300c 	ldrsh.w	r3, [r4, #12]
  4030ac:	9901      	ldr	r1, [sp, #4]
  4030ae:	b29a      	uxth	r2, r3
  4030b0:	e7d9      	b.n	403066 <_fputwc_r+0x1a>
  4030b2:	bf00      	nop

004030b4 <_malloc_trim_r>:
  4030b4:	b5f8      	push	{r3, r4, r5, r6, r7, lr}
  4030b6:	4f24      	ldr	r7, [pc, #144]	; (403148 <_malloc_trim_r+0x94>)
  4030b8:	460c      	mov	r4, r1
  4030ba:	4606      	mov	r6, r0
  4030bc:	f000 fee4 	bl	403e88 <__malloc_lock>
  4030c0:	68bb      	ldr	r3, [r7, #8]
  4030c2:	685d      	ldr	r5, [r3, #4]
  4030c4:	f5c4 617e 	rsb	r1, r4, #4064	; 0xfe0
  4030c8:	310f      	adds	r1, #15
  4030ca:	f025 0503 	bic.w	r5, r5, #3
  4030ce:	4429      	add	r1, r5
  4030d0:	f421 617f 	bic.w	r1, r1, #4080	; 0xff0
  4030d4:	f021 010f 	bic.w	r1, r1, #15
  4030d8:	f5a1 5480 	sub.w	r4, r1, #4096	; 0x1000
  4030dc:	f5b4 5f80 	cmp.w	r4, #4096	; 0x1000
  4030e0:	db07      	blt.n	4030f2 <_malloc_trim_r+0x3e>
  4030e2:	2100      	movs	r1, #0
  4030e4:	4630      	mov	r0, r6
  4030e6:	f001 f881 	bl	4041ec <_sbrk_r>
  4030ea:	68bb      	ldr	r3, [r7, #8]
  4030ec:	442b      	add	r3, r5
  4030ee:	4298      	cmp	r0, r3
  4030f0:	d004      	beq.n	4030fc <_malloc_trim_r+0x48>
  4030f2:	4630      	mov	r0, r6
  4030f4:	f000 fece 	bl	403e94 <__malloc_unlock>
  4030f8:	2000      	movs	r0, #0
  4030fa:	bdf8      	pop	{r3, r4, r5, r6, r7, pc}
  4030fc:	4261      	negs	r1, r4
  4030fe:	4630      	mov	r0, r6
  403100:	f001 f874 	bl	4041ec <_sbrk_r>
  403104:	3001      	adds	r0, #1
  403106:	d00d      	beq.n	403124 <_malloc_trim_r+0x70>
  403108:	4b10      	ldr	r3, [pc, #64]	; (40314c <_malloc_trim_r+0x98>)
  40310a:	68ba      	ldr	r2, [r7, #8]
  40310c:	6819      	ldr	r1, [r3, #0]
  40310e:	1b2d      	subs	r5, r5, r4
  403110:	f045 0501 	orr.w	r5, r5, #1
  403114:	4630      	mov	r0, r6
  403116:	1b09      	subs	r1, r1, r4
  403118:	6055      	str	r5, [r2, #4]
  40311a:	6019      	str	r1, [r3, #0]
  40311c:	f000 feba 	bl	403e94 <__malloc_unlock>
  403120:	2001      	movs	r0, #1
  403122:	bdf8      	pop	{r3, r4, r5, r6, r7, pc}
  403124:	2100      	movs	r1, #0
  403126:	4630      	mov	r0, r6
  403128:	f001 f860 	bl	4041ec <_sbrk_r>
  40312c:	68ba      	ldr	r2, [r7, #8]
  40312e:	1a83      	subs	r3, r0, r2
  403130:	2b0f      	cmp	r3, #15
  403132:	ddde      	ble.n	4030f2 <_malloc_trim_r+0x3e>
  403134:	4c06      	ldr	r4, [pc, #24]	; (403150 <_malloc_trim_r+0x9c>)
  403136:	4905      	ldr	r1, [pc, #20]	; (40314c <_malloc_trim_r+0x98>)
  403138:	6824      	ldr	r4, [r4, #0]
  40313a:	f043 0301 	orr.w	r3, r3, #1
  40313e:	1b00      	subs	r0, r0, r4
  403140:	6053      	str	r3, [r2, #4]
  403142:	6008      	str	r0, [r1, #0]
  403144:	e7d5      	b.n	4030f2 <_malloc_trim_r+0x3e>
  403146:	bf00      	nop
  403148:	204005b0 	.word	0x204005b0
  40314c:	20400a58 	.word	0x20400a58
  403150:	204009b8 	.word	0x204009b8

00403154 <_free_r>:
  403154:	2900      	cmp	r1, #0
  403156:	d044      	beq.n	4031e2 <_free_r+0x8e>
  403158:	e92d 41f0 	stmdb	sp!, {r4, r5, r6, r7, r8, lr}
  40315c:	460d      	mov	r5, r1
  40315e:	4680      	mov	r8, r0
  403160:	f000 fe92 	bl	403e88 <__malloc_lock>
  403164:	f855 7c04 	ldr.w	r7, [r5, #-4]
  403168:	4969      	ldr	r1, [pc, #420]	; (403310 <_free_r+0x1bc>)
  40316a:	f027 0301 	bic.w	r3, r7, #1
  40316e:	f1a5 0408 	sub.w	r4, r5, #8
  403172:	18e2      	adds	r2, r4, r3
  403174:	688e      	ldr	r6, [r1, #8]
  403176:	6850      	ldr	r0, [r2, #4]
  403178:	42b2      	cmp	r2, r6
  40317a:	f020 0003 	bic.w	r0, r0, #3
  40317e:	d05e      	beq.n	40323e <_free_r+0xea>
  403180:	07fe      	lsls	r6, r7, #31
  403182:	6050      	str	r0, [r2, #4]
  403184:	d40b      	bmi.n	40319e <_free_r+0x4a>
  403186:	f855 7c08 	ldr.w	r7, [r5, #-8]
  40318a:	1be4      	subs	r4, r4, r7
  40318c:	f101 0e08 	add.w	lr, r1, #8
  403190:	68a5      	ldr	r5, [r4, #8]
  403192:	4575      	cmp	r5, lr
  403194:	443b      	add	r3, r7
  403196:	d06d      	beq.n	403274 <_free_r+0x120>
  403198:	68e7      	ldr	r7, [r4, #12]
  40319a:	60ef      	str	r7, [r5, #12]
  40319c:	60bd      	str	r5, [r7, #8]
  40319e:	1815      	adds	r5, r2, r0
  4031a0:	686d      	ldr	r5, [r5, #4]
  4031a2:	07ed      	lsls	r5, r5, #31
  4031a4:	d53e      	bpl.n	403224 <_free_r+0xd0>
  4031a6:	f043 0201 	orr.w	r2, r3, #1
  4031aa:	6062      	str	r2, [r4, #4]
  4031ac:	50e3      	str	r3, [r4, r3]
  4031ae:	f5b3 7f00 	cmp.w	r3, #512	; 0x200
  4031b2:	d217      	bcs.n	4031e4 <_free_r+0x90>
  4031b4:	08db      	lsrs	r3, r3, #3
  4031b6:	1c58      	adds	r0, r3, #1
  4031b8:	109a      	asrs	r2, r3, #2
  4031ba:	684d      	ldr	r5, [r1, #4]
  4031bc:	f851 7030 	ldr.w	r7, [r1, r0, lsl #3]
  4031c0:	60a7      	str	r7, [r4, #8]
  4031c2:	2301      	movs	r3, #1
  4031c4:	4093      	lsls	r3, r2
  4031c6:	eb01 02c0 	add.w	r2, r1, r0, lsl #3
  4031ca:	432b      	orrs	r3, r5
  4031cc:	3a08      	subs	r2, #8
  4031ce:	60e2      	str	r2, [r4, #12]
  4031d0:	604b      	str	r3, [r1, #4]
  4031d2:	f841 4030 	str.w	r4, [r1, r0, lsl #3]
  4031d6:	60fc      	str	r4, [r7, #12]
  4031d8:	4640      	mov	r0, r8
  4031da:	e8bd 41f0 	ldmia.w	sp!, {r4, r5, r6, r7, r8, lr}
  4031de:	f000 be59 	b.w	403e94 <__malloc_unlock>
  4031e2:	4770      	bx	lr
  4031e4:	0a5a      	lsrs	r2, r3, #9
  4031e6:	2a04      	cmp	r2, #4
  4031e8:	d852      	bhi.n	403290 <_free_r+0x13c>
  4031ea:	099a      	lsrs	r2, r3, #6
  4031ec:	f102 0739 	add.w	r7, r2, #57	; 0x39
  4031f0:	00ff      	lsls	r7, r7, #3
  4031f2:	f102 0538 	add.w	r5, r2, #56	; 0x38
  4031f6:	19c8      	adds	r0, r1, r7
  4031f8:	59ca      	ldr	r2, [r1, r7]
  4031fa:	3808      	subs	r0, #8
  4031fc:	4290      	cmp	r0, r2
  4031fe:	d04f      	beq.n	4032a0 <_free_r+0x14c>
  403200:	6851      	ldr	r1, [r2, #4]
  403202:	f021 0103 	bic.w	r1, r1, #3
  403206:	428b      	cmp	r3, r1
  403208:	d232      	bcs.n	403270 <_free_r+0x11c>
  40320a:	6892      	ldr	r2, [r2, #8]
  40320c:	4290      	cmp	r0, r2
  40320e:	d1f7      	bne.n	403200 <_free_r+0xac>
  403210:	68c3      	ldr	r3, [r0, #12]
  403212:	60a0      	str	r0, [r4, #8]
  403214:	60e3      	str	r3, [r4, #12]
  403216:	609c      	str	r4, [r3, #8]
  403218:	60c4      	str	r4, [r0, #12]
  40321a:	4640      	mov	r0, r8
  40321c:	e8bd 41f0 	ldmia.w	sp!, {r4, r5, r6, r7, r8, lr}
  403220:	f000 be38 	b.w	403e94 <__malloc_unlock>
  403224:	6895      	ldr	r5, [r2, #8]
  403226:	4f3b      	ldr	r7, [pc, #236]	; (403314 <_free_r+0x1c0>)
  403228:	42bd      	cmp	r5, r7
  40322a:	4403      	add	r3, r0
  40322c:	d040      	beq.n	4032b0 <_free_r+0x15c>
  40322e:	68d0      	ldr	r0, [r2, #12]
  403230:	60e8      	str	r0, [r5, #12]
  403232:	f043 0201 	orr.w	r2, r3, #1
  403236:	6085      	str	r5, [r0, #8]
  403238:	6062      	str	r2, [r4, #4]
  40323a:	50e3      	str	r3, [r4, r3]
  40323c:	e7b7      	b.n	4031ae <_free_r+0x5a>
  40323e:	07ff      	lsls	r7, r7, #31
  403240:	4403      	add	r3, r0
  403242:	d407      	bmi.n	403254 <_free_r+0x100>
  403244:	f855 2c08 	ldr.w	r2, [r5, #-8]
  403248:	1aa4      	subs	r4, r4, r2
  40324a:	4413      	add	r3, r2
  40324c:	68a0      	ldr	r0, [r4, #8]
  40324e:	68e2      	ldr	r2, [r4, #12]
  403250:	60c2      	str	r2, [r0, #12]
  403252:	6090      	str	r0, [r2, #8]
  403254:	4a30      	ldr	r2, [pc, #192]	; (403318 <_free_r+0x1c4>)
  403256:	6812      	ldr	r2, [r2, #0]
  403258:	f043 0001 	orr.w	r0, r3, #1
  40325c:	4293      	cmp	r3, r2
  40325e:	6060      	str	r0, [r4, #4]
  403260:	608c      	str	r4, [r1, #8]
  403262:	d3b9      	bcc.n	4031d8 <_free_r+0x84>
  403264:	4b2d      	ldr	r3, [pc, #180]	; (40331c <_free_r+0x1c8>)
  403266:	4640      	mov	r0, r8
  403268:	6819      	ldr	r1, [r3, #0]
  40326a:	f7ff ff23 	bl	4030b4 <_malloc_trim_r>
  40326e:	e7b3      	b.n	4031d8 <_free_r+0x84>
  403270:	4610      	mov	r0, r2
  403272:	e7cd      	b.n	403210 <_free_r+0xbc>
  403274:	1811      	adds	r1, r2, r0
  403276:	6849      	ldr	r1, [r1, #4]
  403278:	07c9      	lsls	r1, r1, #31
  40327a:	d444      	bmi.n	403306 <_free_r+0x1b2>
  40327c:	6891      	ldr	r1, [r2, #8]
  40327e:	68d2      	ldr	r2, [r2, #12]
  403280:	60ca      	str	r2, [r1, #12]
  403282:	4403      	add	r3, r0
  403284:	f043 0001 	orr.w	r0, r3, #1
  403288:	6091      	str	r1, [r2, #8]
  40328a:	6060      	str	r0, [r4, #4]
  40328c:	50e3      	str	r3, [r4, r3]
  40328e:	e7a3      	b.n	4031d8 <_free_r+0x84>
  403290:	2a14      	cmp	r2, #20
  403292:	d816      	bhi.n	4032c2 <_free_r+0x16e>
  403294:	f102 075c 	add.w	r7, r2, #92	; 0x5c
  403298:	00ff      	lsls	r7, r7, #3
  40329a:	f102 055b 	add.w	r5, r2, #91	; 0x5b
  40329e:	e7aa      	b.n	4031f6 <_free_r+0xa2>
  4032a0:	10aa      	asrs	r2, r5, #2
  4032a2:	2301      	movs	r3, #1
  4032a4:	684d      	ldr	r5, [r1, #4]
  4032a6:	4093      	lsls	r3, r2
  4032a8:	432b      	orrs	r3, r5
  4032aa:	604b      	str	r3, [r1, #4]
  4032ac:	4603      	mov	r3, r0
  4032ae:	e7b0      	b.n	403212 <_free_r+0xbe>
  4032b0:	f043 0201 	orr.w	r2, r3, #1
  4032b4:	614c      	str	r4, [r1, #20]
  4032b6:	610c      	str	r4, [r1, #16]
  4032b8:	60e5      	str	r5, [r4, #12]
  4032ba:	60a5      	str	r5, [r4, #8]
  4032bc:	6062      	str	r2, [r4, #4]
  4032be:	50e3      	str	r3, [r4, r3]
  4032c0:	e78a      	b.n	4031d8 <_free_r+0x84>
  4032c2:	2a54      	cmp	r2, #84	; 0x54
  4032c4:	d806      	bhi.n	4032d4 <_free_r+0x180>
  4032c6:	0b1a      	lsrs	r2, r3, #12
  4032c8:	f102 076f 	add.w	r7, r2, #111	; 0x6f
  4032cc:	00ff      	lsls	r7, r7, #3
  4032ce:	f102 056e 	add.w	r5, r2, #110	; 0x6e
  4032d2:	e790      	b.n	4031f6 <_free_r+0xa2>
  4032d4:	f5b2 7faa 	cmp.w	r2, #340	; 0x154
  4032d8:	d806      	bhi.n	4032e8 <_free_r+0x194>
  4032da:	0bda      	lsrs	r2, r3, #15
  4032dc:	f102 0778 	add.w	r7, r2, #120	; 0x78
  4032e0:	00ff      	lsls	r7, r7, #3
  4032e2:	f102 0577 	add.w	r5, r2, #119	; 0x77
  4032e6:	e786      	b.n	4031f6 <_free_r+0xa2>
  4032e8:	f240 5054 	movw	r0, #1364	; 0x554
  4032ec:	4282      	cmp	r2, r0
  4032ee:	d806      	bhi.n	4032fe <_free_r+0x1aa>
  4032f0:	0c9a      	lsrs	r2, r3, #18
  4032f2:	f102 077d 	add.w	r7, r2, #125	; 0x7d
  4032f6:	00ff      	lsls	r7, r7, #3
  4032f8:	f102 057c 	add.w	r5, r2, #124	; 0x7c
  4032fc:	e77b      	b.n	4031f6 <_free_r+0xa2>
  4032fe:	f44f 777e 	mov.w	r7, #1016	; 0x3f8
  403302:	257e      	movs	r5, #126	; 0x7e
  403304:	e777      	b.n	4031f6 <_free_r+0xa2>
  403306:	f043 0101 	orr.w	r1, r3, #1
  40330a:	6061      	str	r1, [r4, #4]
  40330c:	6013      	str	r3, [r2, #0]
  40330e:	e763      	b.n	4031d8 <_free_r+0x84>
  403310:	204005b0 	.word	0x204005b0
  403314:	204005b8 	.word	0x204005b8
  403318:	204009bc 	.word	0x204009bc
  40331c:	20400a88 	.word	0x20400a88

00403320 <__sfvwrite_r>:
  403320:	6893      	ldr	r3, [r2, #8]
  403322:	2b00      	cmp	r3, #0
  403324:	d073      	beq.n	40340e <__sfvwrite_r+0xee>
  403326:	e92d 4ff0 	stmdb	sp!, {r4, r5, r6, r7, r8, r9, sl, fp, lr}
  40332a:	898b      	ldrh	r3, [r1, #12]
  40332c:	b083      	sub	sp, #12
  40332e:	460c      	mov	r4, r1
  403330:	0719      	lsls	r1, r3, #28
  403332:	9000      	str	r0, [sp, #0]
  403334:	4616      	mov	r6, r2
  403336:	d526      	bpl.n	403386 <__sfvwrite_r+0x66>
  403338:	6922      	ldr	r2, [r4, #16]
  40333a:	b322      	cbz	r2, 403386 <__sfvwrite_r+0x66>
  40333c:	f013 0002 	ands.w	r0, r3, #2
  403340:	6835      	ldr	r5, [r6, #0]
  403342:	d02c      	beq.n	40339e <__sfvwrite_r+0x7e>
  403344:	f04f 0900 	mov.w	r9, #0
  403348:	4fb0      	ldr	r7, [pc, #704]	; (40360c <__sfvwrite_r+0x2ec>)
  40334a:	46c8      	mov	r8, r9
  40334c:	46b2      	mov	sl, r6
  40334e:	45b8      	cmp	r8, r7
  403350:	4643      	mov	r3, r8
  403352:	464a      	mov	r2, r9
  403354:	bf28      	it	cs
  403356:	463b      	movcs	r3, r7
  403358:	9800      	ldr	r0, [sp, #0]
  40335a:	f1b8 0f00 	cmp.w	r8, #0
  40335e:	d050      	beq.n	403402 <__sfvwrite_r+0xe2>
  403360:	69e1      	ldr	r1, [r4, #28]
  403362:	6a66      	ldr	r6, [r4, #36]	; 0x24
  403364:	47b0      	blx	r6
  403366:	2800      	cmp	r0, #0
  403368:	dd58      	ble.n	40341c <__sfvwrite_r+0xfc>
  40336a:	f8da 3008 	ldr.w	r3, [sl, #8]
  40336e:	1a1b      	subs	r3, r3, r0
  403370:	4481      	add	r9, r0
  403372:	eba8 0800 	sub.w	r8, r8, r0
  403376:	f8ca 3008 	str.w	r3, [sl, #8]
  40337a:	2b00      	cmp	r3, #0
  40337c:	d1e7      	bne.n	40334e <__sfvwrite_r+0x2e>
  40337e:	2000      	movs	r0, #0
  403380:	b003      	add	sp, #12
  403382:	e8bd 8ff0 	ldmia.w	sp!, {r4, r5, r6, r7, r8, r9, sl, fp, pc}
  403386:	4621      	mov	r1, r4
  403388:	9800      	ldr	r0, [sp, #0]
  40338a:	f7ff fc51 	bl	402c30 <__swsetup_r>
  40338e:	2800      	cmp	r0, #0
  403390:	f040 8133 	bne.w	4035fa <__sfvwrite_r+0x2da>
  403394:	89a3      	ldrh	r3, [r4, #12]
  403396:	6835      	ldr	r5, [r6, #0]
  403398:	f013 0002 	ands.w	r0, r3, #2
  40339c:	d1d2      	bne.n	403344 <__sfvwrite_r+0x24>
  40339e:	f013 0901 	ands.w	r9, r3, #1
  4033a2:	d145      	bne.n	403430 <__sfvwrite_r+0x110>
  4033a4:	464f      	mov	r7, r9
  4033a6:	9601      	str	r6, [sp, #4]
  4033a8:	b337      	cbz	r7, 4033f8 <__sfvwrite_r+0xd8>
  4033aa:	059a      	lsls	r2, r3, #22
  4033ac:	f8d4 8008 	ldr.w	r8, [r4, #8]
  4033b0:	f140 8083 	bpl.w	4034ba <__sfvwrite_r+0x19a>
  4033b4:	4547      	cmp	r7, r8
  4033b6:	46c3      	mov	fp, r8
  4033b8:	f0c0 80ab 	bcc.w	403512 <__sfvwrite_r+0x1f2>
  4033bc:	f413 6f90 	tst.w	r3, #1152	; 0x480
  4033c0:	f040 80ac 	bne.w	40351c <__sfvwrite_r+0x1fc>
  4033c4:	6820      	ldr	r0, [r4, #0]
  4033c6:	46ba      	mov	sl, r7
  4033c8:	465a      	mov	r2, fp
  4033ca:	4649      	mov	r1, r9
  4033cc:	f000 fcf8 	bl	403dc0 <memmove>
  4033d0:	68a2      	ldr	r2, [r4, #8]
  4033d2:	6823      	ldr	r3, [r4, #0]
  4033d4:	eba2 0208 	sub.w	r2, r2, r8
  4033d8:	445b      	add	r3, fp
  4033da:	60a2      	str	r2, [r4, #8]
  4033dc:	6023      	str	r3, [r4, #0]
  4033de:	9a01      	ldr	r2, [sp, #4]
  4033e0:	6893      	ldr	r3, [r2, #8]
  4033e2:	eba3 030a 	sub.w	r3, r3, sl
  4033e6:	44d1      	add	r9, sl
  4033e8:	eba7 070a 	sub.w	r7, r7, sl
  4033ec:	6093      	str	r3, [r2, #8]
  4033ee:	2b00      	cmp	r3, #0
  4033f0:	d0c5      	beq.n	40337e <__sfvwrite_r+0x5e>
  4033f2:	89a3      	ldrh	r3, [r4, #12]
  4033f4:	2f00      	cmp	r7, #0
  4033f6:	d1d8      	bne.n	4033aa <__sfvwrite_r+0x8a>
  4033f8:	f8d5 9000 	ldr.w	r9, [r5]
  4033fc:	686f      	ldr	r7, [r5, #4]
  4033fe:	3508      	adds	r5, #8
  403400:	e7d2      	b.n	4033a8 <__sfvwrite_r+0x88>
  403402:	f8d5 9000 	ldr.w	r9, [r5]
  403406:	f8d5 8004 	ldr.w	r8, [r5, #4]
  40340a:	3508      	adds	r5, #8
  40340c:	e79f      	b.n	40334e <__sfvwrite_r+0x2e>
  40340e:	2000      	movs	r0, #0
  403410:	4770      	bx	lr
  403412:	4621      	mov	r1, r4
  403414:	9800      	ldr	r0, [sp, #0]
  403416:	f7ff fd1f 	bl	402e58 <_fflush_r>
  40341a:	b370      	cbz	r0, 40347a <__sfvwrite_r+0x15a>
  40341c:	f9b4 300c 	ldrsh.w	r3, [r4, #12]
  403420:	f043 0340 	orr.w	r3, r3, #64	; 0x40
  403424:	f04f 30ff 	mov.w	r0, #4294967295
  403428:	81a3      	strh	r3, [r4, #12]
  40342a:	b003      	add	sp, #12
  40342c:	e8bd 8ff0 	ldmia.w	sp!, {r4, r5, r6, r7, r8, r9, sl, fp, pc}
  403430:	4681      	mov	r9, r0
  403432:	4633      	mov	r3, r6
  403434:	464e      	mov	r6, r9
  403436:	46a8      	mov	r8, r5
  403438:	469a      	mov	sl, r3
  40343a:	464d      	mov	r5, r9
  40343c:	b34e      	cbz	r6, 403492 <__sfvwrite_r+0x172>
  40343e:	b380      	cbz	r0, 4034a2 <__sfvwrite_r+0x182>
  403440:	6820      	ldr	r0, [r4, #0]
  403442:	6923      	ldr	r3, [r4, #16]
  403444:	6962      	ldr	r2, [r4, #20]
  403446:	45b1      	cmp	r9, r6
  403448:	46cb      	mov	fp, r9
  40344a:	bf28      	it	cs
  40344c:	46b3      	movcs	fp, r6
  40344e:	4298      	cmp	r0, r3
  403450:	465f      	mov	r7, fp
  403452:	d904      	bls.n	40345e <__sfvwrite_r+0x13e>
  403454:	68a3      	ldr	r3, [r4, #8]
  403456:	4413      	add	r3, r2
  403458:	459b      	cmp	fp, r3
  40345a:	f300 80a6 	bgt.w	4035aa <__sfvwrite_r+0x28a>
  40345e:	4593      	cmp	fp, r2
  403460:	db4b      	blt.n	4034fa <__sfvwrite_r+0x1da>
  403462:	4613      	mov	r3, r2
  403464:	6a67      	ldr	r7, [r4, #36]	; 0x24
  403466:	69e1      	ldr	r1, [r4, #28]
  403468:	9800      	ldr	r0, [sp, #0]
  40346a:	462a      	mov	r2, r5
  40346c:	47b8      	blx	r7
  40346e:	1e07      	subs	r7, r0, #0
  403470:	ddd4      	ble.n	40341c <__sfvwrite_r+0xfc>
  403472:	ebb9 0907 	subs.w	r9, r9, r7
  403476:	d0cc      	beq.n	403412 <__sfvwrite_r+0xf2>
  403478:	2001      	movs	r0, #1
  40347a:	f8da 3008 	ldr.w	r3, [sl, #8]
  40347e:	1bdb      	subs	r3, r3, r7
  403480:	443d      	add	r5, r7
  403482:	1bf6      	subs	r6, r6, r7
  403484:	f8ca 3008 	str.w	r3, [sl, #8]
  403488:	2b00      	cmp	r3, #0
  40348a:	f43f af78 	beq.w	40337e <__sfvwrite_r+0x5e>
  40348e:	2e00      	cmp	r6, #0
  403490:	d1d5      	bne.n	40343e <__sfvwrite_r+0x11e>
  403492:	f108 0308 	add.w	r3, r8, #8
  403496:	e913 0060 	ldmdb	r3, {r5, r6}
  40349a:	4698      	mov	r8, r3
  40349c:	3308      	adds	r3, #8
  40349e:	2e00      	cmp	r6, #0
  4034a0:	d0f9      	beq.n	403496 <__sfvwrite_r+0x176>
  4034a2:	4632      	mov	r2, r6
  4034a4:	210a      	movs	r1, #10
  4034a6:	4628      	mov	r0, r5
  4034a8:	f000 fc3a 	bl	403d20 <memchr>
  4034ac:	2800      	cmp	r0, #0
  4034ae:	f000 80a1 	beq.w	4035f4 <__sfvwrite_r+0x2d4>
  4034b2:	3001      	adds	r0, #1
  4034b4:	eba0 0905 	sub.w	r9, r0, r5
  4034b8:	e7c2      	b.n	403440 <__sfvwrite_r+0x120>
  4034ba:	6820      	ldr	r0, [r4, #0]
  4034bc:	6923      	ldr	r3, [r4, #16]
  4034be:	4298      	cmp	r0, r3
  4034c0:	d802      	bhi.n	4034c8 <__sfvwrite_r+0x1a8>
  4034c2:	6963      	ldr	r3, [r4, #20]
  4034c4:	429f      	cmp	r7, r3
  4034c6:	d25d      	bcs.n	403584 <__sfvwrite_r+0x264>
  4034c8:	45b8      	cmp	r8, r7
  4034ca:	bf28      	it	cs
  4034cc:	46b8      	movcs	r8, r7
  4034ce:	4642      	mov	r2, r8
  4034d0:	4649      	mov	r1, r9
  4034d2:	f000 fc75 	bl	403dc0 <memmove>
  4034d6:	68a3      	ldr	r3, [r4, #8]
  4034d8:	6822      	ldr	r2, [r4, #0]
  4034da:	eba3 0308 	sub.w	r3, r3, r8
  4034de:	4442      	add	r2, r8
  4034e0:	60a3      	str	r3, [r4, #8]
  4034e2:	6022      	str	r2, [r4, #0]
  4034e4:	b10b      	cbz	r3, 4034ea <__sfvwrite_r+0x1ca>
  4034e6:	46c2      	mov	sl, r8
  4034e8:	e779      	b.n	4033de <__sfvwrite_r+0xbe>
  4034ea:	4621      	mov	r1, r4
  4034ec:	9800      	ldr	r0, [sp, #0]
  4034ee:	f7ff fcb3 	bl	402e58 <_fflush_r>
  4034f2:	2800      	cmp	r0, #0
  4034f4:	d192      	bne.n	40341c <__sfvwrite_r+0xfc>
  4034f6:	46c2      	mov	sl, r8
  4034f8:	e771      	b.n	4033de <__sfvwrite_r+0xbe>
  4034fa:	465a      	mov	r2, fp
  4034fc:	4629      	mov	r1, r5
  4034fe:	f000 fc5f 	bl	403dc0 <memmove>
  403502:	68a2      	ldr	r2, [r4, #8]
  403504:	6823      	ldr	r3, [r4, #0]
  403506:	eba2 020b 	sub.w	r2, r2, fp
  40350a:	445b      	add	r3, fp
  40350c:	60a2      	str	r2, [r4, #8]
  40350e:	6023      	str	r3, [r4, #0]
  403510:	e7af      	b.n	403472 <__sfvwrite_r+0x152>
  403512:	6820      	ldr	r0, [r4, #0]
  403514:	46b8      	mov	r8, r7
  403516:	46ba      	mov	sl, r7
  403518:	46bb      	mov	fp, r7
  40351a:	e755      	b.n	4033c8 <__sfvwrite_r+0xa8>
  40351c:	6962      	ldr	r2, [r4, #20]
  40351e:	6820      	ldr	r0, [r4, #0]
  403520:	6921      	ldr	r1, [r4, #16]
  403522:	eb02 0842 	add.w	r8, r2, r2, lsl #1
  403526:	eba0 0a01 	sub.w	sl, r0, r1
  40352a:	eb08 78d8 	add.w	r8, r8, r8, lsr #31
  40352e:	f10a 0001 	add.w	r0, sl, #1
  403532:	ea4f 0868 	mov.w	r8, r8, asr #1
  403536:	4438      	add	r0, r7
  403538:	4540      	cmp	r0, r8
  40353a:	4642      	mov	r2, r8
  40353c:	bf84      	itt	hi
  40353e:	4680      	movhi	r8, r0
  403540:	4642      	movhi	r2, r8
  403542:	055b      	lsls	r3, r3, #21
  403544:	d544      	bpl.n	4035d0 <__sfvwrite_r+0x2b0>
  403546:	4611      	mov	r1, r2
  403548:	9800      	ldr	r0, [sp, #0]
  40354a:	f000 f921 	bl	403790 <_malloc_r>
  40354e:	4683      	mov	fp, r0
  403550:	2800      	cmp	r0, #0
  403552:	d055      	beq.n	403600 <__sfvwrite_r+0x2e0>
  403554:	4652      	mov	r2, sl
  403556:	6921      	ldr	r1, [r4, #16]
  403558:	f7fe fa1c 	bl	401994 <memcpy>
  40355c:	89a3      	ldrh	r3, [r4, #12]
  40355e:	f423 6390 	bic.w	r3, r3, #1152	; 0x480
  403562:	f043 0380 	orr.w	r3, r3, #128	; 0x80
  403566:	81a3      	strh	r3, [r4, #12]
  403568:	eb0b 000a 	add.w	r0, fp, sl
  40356c:	eba8 030a 	sub.w	r3, r8, sl
  403570:	f8c4 b010 	str.w	fp, [r4, #16]
  403574:	f8c4 8014 	str.w	r8, [r4, #20]
  403578:	6020      	str	r0, [r4, #0]
  40357a:	60a3      	str	r3, [r4, #8]
  40357c:	46b8      	mov	r8, r7
  40357e:	46ba      	mov	sl, r7
  403580:	46bb      	mov	fp, r7
  403582:	e721      	b.n	4033c8 <__sfvwrite_r+0xa8>
  403584:	f06f 4100 	mvn.w	r1, #2147483648	; 0x80000000
  403588:	42b9      	cmp	r1, r7
  40358a:	bf28      	it	cs
  40358c:	4639      	movcs	r1, r7
  40358e:	464a      	mov	r2, r9
  403590:	fb91 f1f3 	sdiv	r1, r1, r3
  403594:	9800      	ldr	r0, [sp, #0]
  403596:	6a66      	ldr	r6, [r4, #36]	; 0x24
  403598:	fb03 f301 	mul.w	r3, r3, r1
  40359c:	69e1      	ldr	r1, [r4, #28]
  40359e:	47b0      	blx	r6
  4035a0:	f1b0 0a00 	subs.w	sl, r0, #0
  4035a4:	f73f af1b 	bgt.w	4033de <__sfvwrite_r+0xbe>
  4035a8:	e738      	b.n	40341c <__sfvwrite_r+0xfc>
  4035aa:	461a      	mov	r2, r3
  4035ac:	4629      	mov	r1, r5
  4035ae:	9301      	str	r3, [sp, #4]
  4035b0:	f000 fc06 	bl	403dc0 <memmove>
  4035b4:	6822      	ldr	r2, [r4, #0]
  4035b6:	9b01      	ldr	r3, [sp, #4]
  4035b8:	9800      	ldr	r0, [sp, #0]
  4035ba:	441a      	add	r2, r3
  4035bc:	6022      	str	r2, [r4, #0]
  4035be:	4621      	mov	r1, r4
  4035c0:	f7ff fc4a 	bl	402e58 <_fflush_r>
  4035c4:	9b01      	ldr	r3, [sp, #4]
  4035c6:	2800      	cmp	r0, #0
  4035c8:	f47f af28 	bne.w	40341c <__sfvwrite_r+0xfc>
  4035cc:	461f      	mov	r7, r3
  4035ce:	e750      	b.n	403472 <__sfvwrite_r+0x152>
  4035d0:	9800      	ldr	r0, [sp, #0]
  4035d2:	f000 fc65 	bl	403ea0 <_realloc_r>
  4035d6:	4683      	mov	fp, r0
  4035d8:	2800      	cmp	r0, #0
  4035da:	d1c5      	bne.n	403568 <__sfvwrite_r+0x248>
  4035dc:	9d00      	ldr	r5, [sp, #0]
  4035de:	6921      	ldr	r1, [r4, #16]
  4035e0:	4628      	mov	r0, r5
  4035e2:	f7ff fdb7 	bl	403154 <_free_r>
  4035e6:	f9b4 300c 	ldrsh.w	r3, [r4, #12]
  4035ea:	220c      	movs	r2, #12
  4035ec:	f023 0380 	bic.w	r3, r3, #128	; 0x80
  4035f0:	602a      	str	r2, [r5, #0]
  4035f2:	e715      	b.n	403420 <__sfvwrite_r+0x100>
  4035f4:	f106 0901 	add.w	r9, r6, #1
  4035f8:	e722      	b.n	403440 <__sfvwrite_r+0x120>
  4035fa:	f04f 30ff 	mov.w	r0, #4294967295
  4035fe:	e6bf      	b.n	403380 <__sfvwrite_r+0x60>
  403600:	9a00      	ldr	r2, [sp, #0]
  403602:	230c      	movs	r3, #12
  403604:	6013      	str	r3, [r2, #0]
  403606:	f9b4 300c 	ldrsh.w	r3, [r4, #12]
  40360a:	e709      	b.n	403420 <__sfvwrite_r+0x100>
  40360c:	7ffffc00 	.word	0x7ffffc00

00403610 <_fwalk_reent>:
  403610:	e92d 43f8 	stmdb	sp!, {r3, r4, r5, r6, r7, r8, r9, lr}
  403614:	f510 7738 	adds.w	r7, r0, #736	; 0x2e0
  403618:	d01f      	beq.n	40365a <_fwalk_reent+0x4a>
  40361a:	4688      	mov	r8, r1
  40361c:	4606      	mov	r6, r0
  40361e:	f04f 0900 	mov.w	r9, #0
  403622:	687d      	ldr	r5, [r7, #4]
  403624:	68bc      	ldr	r4, [r7, #8]
  403626:	3d01      	subs	r5, #1
  403628:	d411      	bmi.n	40364e <_fwalk_reent+0x3e>
  40362a:	89a3      	ldrh	r3, [r4, #12]
  40362c:	2b01      	cmp	r3, #1
  40362e:	f105 35ff 	add.w	r5, r5, #4294967295
  403632:	d908      	bls.n	403646 <_fwalk_reent+0x36>
  403634:	f9b4 300e 	ldrsh.w	r3, [r4, #14]
  403638:	3301      	adds	r3, #1
  40363a:	4621      	mov	r1, r4
  40363c:	4630      	mov	r0, r6
  40363e:	d002      	beq.n	403646 <_fwalk_reent+0x36>
  403640:	47c0      	blx	r8
  403642:	ea49 0900 	orr.w	r9, r9, r0
  403646:	1c6b      	adds	r3, r5, #1
  403648:	f104 0468 	add.w	r4, r4, #104	; 0x68
  40364c:	d1ed      	bne.n	40362a <_fwalk_reent+0x1a>
  40364e:	683f      	ldr	r7, [r7, #0]
  403650:	2f00      	cmp	r7, #0
  403652:	d1e6      	bne.n	403622 <_fwalk_reent+0x12>
  403654:	4648      	mov	r0, r9
  403656:	e8bd 83f8 	ldmia.w	sp!, {r3, r4, r5, r6, r7, r8, r9, pc}
  40365a:	46b9      	mov	r9, r7
  40365c:	4648      	mov	r0, r9
  40365e:	e8bd 83f8 	ldmia.w	sp!, {r3, r4, r5, r6, r7, r8, r9, pc}
  403662:	bf00      	nop

00403664 <__locale_mb_cur_max>:
  403664:	4b04      	ldr	r3, [pc, #16]	; (403678 <__locale_mb_cur_max+0x14>)
  403666:	4a05      	ldr	r2, [pc, #20]	; (40367c <__locale_mb_cur_max+0x18>)
  403668:	681b      	ldr	r3, [r3, #0]
  40366a:	6b5b      	ldr	r3, [r3, #52]	; 0x34
  40366c:	2b00      	cmp	r3, #0
  40366e:	bf08      	it	eq
  403670:	4613      	moveq	r3, r2
  403672:	f893 0128 	ldrb.w	r0, [r3, #296]	; 0x128
  403676:	4770      	bx	lr
  403678:	20400014 	.word	0x20400014
  40367c:	20400444 	.word	0x20400444

00403680 <__retarget_lock_init_recursive>:
  403680:	4770      	bx	lr
  403682:	bf00      	nop

00403684 <__retarget_lock_close_recursive>:
  403684:	4770      	bx	lr
  403686:	bf00      	nop

00403688 <__retarget_lock_acquire_recursive>:
  403688:	4770      	bx	lr
  40368a:	bf00      	nop

0040368c <__retarget_lock_release_recursive>:
  40368c:	4770      	bx	lr
  40368e:	bf00      	nop

00403690 <__swhatbuf_r>:
  403690:	b570      	push	{r4, r5, r6, lr}
  403692:	460c      	mov	r4, r1
  403694:	f9b1 100e 	ldrsh.w	r1, [r1, #14]
  403698:	2900      	cmp	r1, #0
  40369a:	b090      	sub	sp, #64	; 0x40
  40369c:	4615      	mov	r5, r2
  40369e:	461e      	mov	r6, r3
  4036a0:	db14      	blt.n	4036cc <__swhatbuf_r+0x3c>
  4036a2:	aa01      	add	r2, sp, #4
  4036a4:	f000 ff74 	bl	404590 <_fstat_r>
  4036a8:	2800      	cmp	r0, #0
  4036aa:	db0f      	blt.n	4036cc <__swhatbuf_r+0x3c>
  4036ac:	9a02      	ldr	r2, [sp, #8]
  4036ae:	f402 4270 	and.w	r2, r2, #61440	; 0xf000
  4036b2:	f5a2 5200 	sub.w	r2, r2, #8192	; 0x2000
  4036b6:	fab2 f282 	clz	r2, r2
  4036ba:	0952      	lsrs	r2, r2, #5
  4036bc:	f44f 6380 	mov.w	r3, #1024	; 0x400
  4036c0:	f44f 6000 	mov.w	r0, #2048	; 0x800
  4036c4:	6032      	str	r2, [r6, #0]
  4036c6:	602b      	str	r3, [r5, #0]
  4036c8:	b010      	add	sp, #64	; 0x40
  4036ca:	bd70      	pop	{r4, r5, r6, pc}
  4036cc:	89a2      	ldrh	r2, [r4, #12]
  4036ce:	2300      	movs	r3, #0
  4036d0:	f012 0080 	ands.w	r0, r2, #128	; 0x80
  4036d4:	6033      	str	r3, [r6, #0]
  4036d6:	d004      	beq.n	4036e2 <__swhatbuf_r+0x52>
  4036d8:	2240      	movs	r2, #64	; 0x40
  4036da:	4618      	mov	r0, r3
  4036dc:	602a      	str	r2, [r5, #0]
  4036de:	b010      	add	sp, #64	; 0x40
  4036e0:	bd70      	pop	{r4, r5, r6, pc}
  4036e2:	f44f 6380 	mov.w	r3, #1024	; 0x400
  4036e6:	602b      	str	r3, [r5, #0]
  4036e8:	b010      	add	sp, #64	; 0x40
  4036ea:	bd70      	pop	{r4, r5, r6, pc}

004036ec <__smakebuf_r>:
  4036ec:	898a      	ldrh	r2, [r1, #12]
  4036ee:	0792      	lsls	r2, r2, #30
  4036f0:	460b      	mov	r3, r1
  4036f2:	d506      	bpl.n	403702 <__smakebuf_r+0x16>
  4036f4:	f101 0243 	add.w	r2, r1, #67	; 0x43
  4036f8:	2101      	movs	r1, #1
  4036fa:	601a      	str	r2, [r3, #0]
  4036fc:	611a      	str	r2, [r3, #16]
  4036fe:	6159      	str	r1, [r3, #20]
  403700:	4770      	bx	lr
  403702:	b5f0      	push	{r4, r5, r6, r7, lr}
  403704:	b083      	sub	sp, #12
  403706:	ab01      	add	r3, sp, #4
  403708:	466a      	mov	r2, sp
  40370a:	460c      	mov	r4, r1
  40370c:	4606      	mov	r6, r0
  40370e:	f7ff ffbf 	bl	403690 <__swhatbuf_r>
  403712:	9900      	ldr	r1, [sp, #0]
  403714:	4605      	mov	r5, r0
  403716:	4630      	mov	r0, r6
  403718:	f000 f83a 	bl	403790 <_malloc_r>
  40371c:	f9b4 300c 	ldrsh.w	r3, [r4, #12]
  403720:	b1d8      	cbz	r0, 40375a <__smakebuf_r+0x6e>
  403722:	9a01      	ldr	r2, [sp, #4]
  403724:	4f15      	ldr	r7, [pc, #84]	; (40377c <__smakebuf_r+0x90>)
  403726:	9900      	ldr	r1, [sp, #0]
  403728:	63f7      	str	r7, [r6, #60]	; 0x3c
  40372a:	f043 0380 	orr.w	r3, r3, #128	; 0x80
  40372e:	81a3      	strh	r3, [r4, #12]
  403730:	6020      	str	r0, [r4, #0]
  403732:	6120      	str	r0, [r4, #16]
  403734:	6161      	str	r1, [r4, #20]
  403736:	b91a      	cbnz	r2, 403740 <__smakebuf_r+0x54>
  403738:	432b      	orrs	r3, r5
  40373a:	81a3      	strh	r3, [r4, #12]
  40373c:	b003      	add	sp, #12
  40373e:	bdf0      	pop	{r4, r5, r6, r7, pc}
  403740:	4630      	mov	r0, r6
  403742:	f9b4 100e 	ldrsh.w	r1, [r4, #14]
  403746:	f000 ff37 	bl	4045b8 <_isatty_r>
  40374a:	b1a0      	cbz	r0, 403776 <__smakebuf_r+0x8a>
  40374c:	89a3      	ldrh	r3, [r4, #12]
  40374e:	f023 0303 	bic.w	r3, r3, #3
  403752:	f043 0301 	orr.w	r3, r3, #1
  403756:	b21b      	sxth	r3, r3
  403758:	e7ee      	b.n	403738 <__smakebuf_r+0x4c>
  40375a:	059a      	lsls	r2, r3, #22
  40375c:	d4ee      	bmi.n	40373c <__smakebuf_r+0x50>
  40375e:	f023 0303 	bic.w	r3, r3, #3
  403762:	f104 0243 	add.w	r2, r4, #67	; 0x43
  403766:	f043 0302 	orr.w	r3, r3, #2
  40376a:	2101      	movs	r1, #1
  40376c:	81a3      	strh	r3, [r4, #12]
  40376e:	6022      	str	r2, [r4, #0]
  403770:	6122      	str	r2, [r4, #16]
  403772:	6161      	str	r1, [r4, #20]
  403774:	e7e2      	b.n	40373c <__smakebuf_r+0x50>
  403776:	f9b4 300c 	ldrsh.w	r3, [r4, #12]
  40377a:	e7dd      	b.n	403738 <__smakebuf_r+0x4c>
  40377c:	00402ead 	.word	0x00402ead

00403780 <malloc>:
  403780:	4b02      	ldr	r3, [pc, #8]	; (40378c <malloc+0xc>)
  403782:	4601      	mov	r1, r0
  403784:	6818      	ldr	r0, [r3, #0]
  403786:	f000 b803 	b.w	403790 <_malloc_r>
  40378a:	bf00      	nop
  40378c:	20400014 	.word	0x20400014

00403790 <_malloc_r>:
  403790:	e92d 4ff0 	stmdb	sp!, {r4, r5, r6, r7, r8, r9, sl, fp, lr}
  403794:	f101 060b 	add.w	r6, r1, #11
  403798:	2e16      	cmp	r6, #22
  40379a:	b083      	sub	sp, #12
  40379c:	4605      	mov	r5, r0
  40379e:	f240 809e 	bls.w	4038de <_malloc_r+0x14e>
  4037a2:	f036 0607 	bics.w	r6, r6, #7
  4037a6:	f100 80bd 	bmi.w	403924 <_malloc_r+0x194>
  4037aa:	42b1      	cmp	r1, r6
  4037ac:	f200 80ba 	bhi.w	403924 <_malloc_r+0x194>
  4037b0:	f000 fb6a 	bl	403e88 <__malloc_lock>
  4037b4:	f5b6 7ffc 	cmp.w	r6, #504	; 0x1f8
  4037b8:	f0c0 8293 	bcc.w	403ce2 <_malloc_r+0x552>
  4037bc:	0a73      	lsrs	r3, r6, #9
  4037be:	f000 80b8 	beq.w	403932 <_malloc_r+0x1a2>
  4037c2:	2b04      	cmp	r3, #4
  4037c4:	f200 8179 	bhi.w	403aba <_malloc_r+0x32a>
  4037c8:	09b3      	lsrs	r3, r6, #6
  4037ca:	f103 0039 	add.w	r0, r3, #57	; 0x39
  4037ce:	f103 0e38 	add.w	lr, r3, #56	; 0x38
  4037d2:	00c3      	lsls	r3, r0, #3
  4037d4:	4fbf      	ldr	r7, [pc, #764]	; (403ad4 <_malloc_r+0x344>)
  4037d6:	443b      	add	r3, r7
  4037d8:	f1a3 0108 	sub.w	r1, r3, #8
  4037dc:	685c      	ldr	r4, [r3, #4]
  4037de:	42a1      	cmp	r1, r4
  4037e0:	d106      	bne.n	4037f0 <_malloc_r+0x60>
  4037e2:	e00c      	b.n	4037fe <_malloc_r+0x6e>
  4037e4:	2a00      	cmp	r2, #0
  4037e6:	f280 80aa 	bge.w	40393e <_malloc_r+0x1ae>
  4037ea:	68e4      	ldr	r4, [r4, #12]
  4037ec:	42a1      	cmp	r1, r4
  4037ee:	d006      	beq.n	4037fe <_malloc_r+0x6e>
  4037f0:	6863      	ldr	r3, [r4, #4]
  4037f2:	f023 0303 	bic.w	r3, r3, #3
  4037f6:	1b9a      	subs	r2, r3, r6
  4037f8:	2a0f      	cmp	r2, #15
  4037fa:	ddf3      	ble.n	4037e4 <_malloc_r+0x54>
  4037fc:	4670      	mov	r0, lr
  4037fe:	693c      	ldr	r4, [r7, #16]
  403800:	f8df e2e4 	ldr.w	lr, [pc, #740]	; 403ae8 <_malloc_r+0x358>
  403804:	4574      	cmp	r4, lr
  403806:	f000 81ab 	beq.w	403b60 <_malloc_r+0x3d0>
  40380a:	6863      	ldr	r3, [r4, #4]
  40380c:	f023 0303 	bic.w	r3, r3, #3
  403810:	1b9a      	subs	r2, r3, r6
  403812:	2a0f      	cmp	r2, #15
  403814:	f300 8190 	bgt.w	403b38 <_malloc_r+0x3a8>
  403818:	2a00      	cmp	r2, #0
  40381a:	f8c7 e014 	str.w	lr, [r7, #20]
  40381e:	f8c7 e010 	str.w	lr, [r7, #16]
  403822:	f280 809d 	bge.w	403960 <_malloc_r+0x1d0>
  403826:	f5b3 7f00 	cmp.w	r3, #512	; 0x200
  40382a:	f080 8161 	bcs.w	403af0 <_malloc_r+0x360>
  40382e:	08db      	lsrs	r3, r3, #3
  403830:	f103 0c01 	add.w	ip, r3, #1
  403834:	1099      	asrs	r1, r3, #2
  403836:	687a      	ldr	r2, [r7, #4]
  403838:	f857 803c 	ldr.w	r8, [r7, ip, lsl #3]
  40383c:	f8c4 8008 	str.w	r8, [r4, #8]
  403840:	2301      	movs	r3, #1
  403842:	408b      	lsls	r3, r1
  403844:	eb07 01cc 	add.w	r1, r7, ip, lsl #3
  403848:	4313      	orrs	r3, r2
  40384a:	3908      	subs	r1, #8
  40384c:	60e1      	str	r1, [r4, #12]
  40384e:	607b      	str	r3, [r7, #4]
  403850:	f847 403c 	str.w	r4, [r7, ip, lsl #3]
  403854:	f8c8 400c 	str.w	r4, [r8, #12]
  403858:	1082      	asrs	r2, r0, #2
  40385a:	2401      	movs	r4, #1
  40385c:	4094      	lsls	r4, r2
  40385e:	429c      	cmp	r4, r3
  403860:	f200 808b 	bhi.w	40397a <_malloc_r+0x1ea>
  403864:	421c      	tst	r4, r3
  403866:	d106      	bne.n	403876 <_malloc_r+0xe6>
  403868:	f020 0003 	bic.w	r0, r0, #3
  40386c:	0064      	lsls	r4, r4, #1
  40386e:	421c      	tst	r4, r3
  403870:	f100 0004 	add.w	r0, r0, #4
  403874:	d0fa      	beq.n	40386c <_malloc_r+0xdc>
  403876:	eb07 09c0 	add.w	r9, r7, r0, lsl #3
  40387a:	46cc      	mov	ip, r9
  40387c:	4680      	mov	r8, r0
  40387e:	f8dc 300c 	ldr.w	r3, [ip, #12]
  403882:	459c      	cmp	ip, r3
  403884:	d107      	bne.n	403896 <_malloc_r+0x106>
  403886:	e16d      	b.n	403b64 <_malloc_r+0x3d4>
  403888:	2a00      	cmp	r2, #0
  40388a:	f280 817b 	bge.w	403b84 <_malloc_r+0x3f4>
  40388e:	68db      	ldr	r3, [r3, #12]
  403890:	459c      	cmp	ip, r3
  403892:	f000 8167 	beq.w	403b64 <_malloc_r+0x3d4>
  403896:	6859      	ldr	r1, [r3, #4]
  403898:	f021 0103 	bic.w	r1, r1, #3
  40389c:	1b8a      	subs	r2, r1, r6
  40389e:	2a0f      	cmp	r2, #15
  4038a0:	ddf2      	ble.n	403888 <_malloc_r+0xf8>
  4038a2:	f8d3 c00c 	ldr.w	ip, [r3, #12]
  4038a6:	f8d3 8008 	ldr.w	r8, [r3, #8]
  4038aa:	9300      	str	r3, [sp, #0]
  4038ac:	199c      	adds	r4, r3, r6
  4038ae:	4628      	mov	r0, r5
  4038b0:	f046 0601 	orr.w	r6, r6, #1
  4038b4:	f042 0501 	orr.w	r5, r2, #1
  4038b8:	605e      	str	r6, [r3, #4]
  4038ba:	f8c8 c00c 	str.w	ip, [r8, #12]
  4038be:	f8cc 8008 	str.w	r8, [ip, #8]
  4038c2:	617c      	str	r4, [r7, #20]
  4038c4:	613c      	str	r4, [r7, #16]
  4038c6:	f8c4 e00c 	str.w	lr, [r4, #12]
  4038ca:	f8c4 e008 	str.w	lr, [r4, #8]
  4038ce:	6065      	str	r5, [r4, #4]
  4038d0:	505a      	str	r2, [r3, r1]
  4038d2:	f000 fadf 	bl	403e94 <__malloc_unlock>
  4038d6:	9b00      	ldr	r3, [sp, #0]
  4038d8:	f103 0408 	add.w	r4, r3, #8
  4038dc:	e01e      	b.n	40391c <_malloc_r+0x18c>
  4038de:	2910      	cmp	r1, #16
  4038e0:	d820      	bhi.n	403924 <_malloc_r+0x194>
  4038e2:	f000 fad1 	bl	403e88 <__malloc_lock>
  4038e6:	2610      	movs	r6, #16
  4038e8:	2318      	movs	r3, #24
  4038ea:	2002      	movs	r0, #2
  4038ec:	4f79      	ldr	r7, [pc, #484]	; (403ad4 <_malloc_r+0x344>)
  4038ee:	443b      	add	r3, r7
  4038f0:	f1a3 0208 	sub.w	r2, r3, #8
  4038f4:	685c      	ldr	r4, [r3, #4]
  4038f6:	4294      	cmp	r4, r2
  4038f8:	f000 813d 	beq.w	403b76 <_malloc_r+0x3e6>
  4038fc:	6863      	ldr	r3, [r4, #4]
  4038fe:	68e1      	ldr	r1, [r4, #12]
  403900:	68a6      	ldr	r6, [r4, #8]
  403902:	f023 0303 	bic.w	r3, r3, #3
  403906:	4423      	add	r3, r4
  403908:	4628      	mov	r0, r5
  40390a:	685a      	ldr	r2, [r3, #4]
  40390c:	60f1      	str	r1, [r6, #12]
  40390e:	f042 0201 	orr.w	r2, r2, #1
  403912:	608e      	str	r6, [r1, #8]
  403914:	605a      	str	r2, [r3, #4]
  403916:	f000 fabd 	bl	403e94 <__malloc_unlock>
  40391a:	3408      	adds	r4, #8
  40391c:	4620      	mov	r0, r4
  40391e:	b003      	add	sp, #12
  403920:	e8bd 8ff0 	ldmia.w	sp!, {r4, r5, r6, r7, r8, r9, sl, fp, pc}
  403924:	2400      	movs	r4, #0
  403926:	230c      	movs	r3, #12
  403928:	4620      	mov	r0, r4
  40392a:	602b      	str	r3, [r5, #0]
  40392c:	b003      	add	sp, #12
  40392e:	e8bd 8ff0 	ldmia.w	sp!, {r4, r5, r6, r7, r8, r9, sl, fp, pc}
  403932:	2040      	movs	r0, #64	; 0x40
  403934:	f44f 7300 	mov.w	r3, #512	; 0x200
  403938:	f04f 0e3f 	mov.w	lr, #63	; 0x3f
  40393c:	e74a      	b.n	4037d4 <_malloc_r+0x44>
  40393e:	4423      	add	r3, r4
  403940:	68e1      	ldr	r1, [r4, #12]
  403942:	685a      	ldr	r2, [r3, #4]
  403944:	68a6      	ldr	r6, [r4, #8]
  403946:	f042 0201 	orr.w	r2, r2, #1
  40394a:	60f1      	str	r1, [r6, #12]
  40394c:	4628      	mov	r0, r5
  40394e:	608e      	str	r6, [r1, #8]
  403950:	605a      	str	r2, [r3, #4]
  403952:	f000 fa9f 	bl	403e94 <__malloc_unlock>
  403956:	3408      	adds	r4, #8
  403958:	4620      	mov	r0, r4
  40395a:	b003      	add	sp, #12
  40395c:	e8bd 8ff0 	ldmia.w	sp!, {r4, r5, r6, r7, r8, r9, sl, fp, pc}
  403960:	4423      	add	r3, r4
  403962:	4628      	mov	r0, r5
  403964:	685a      	ldr	r2, [r3, #4]
  403966:	f042 0201 	orr.w	r2, r2, #1
  40396a:	605a      	str	r2, [r3, #4]
  40396c:	f000 fa92 	bl	403e94 <__malloc_unlock>
  403970:	3408      	adds	r4, #8
  403972:	4620      	mov	r0, r4
  403974:	b003      	add	sp, #12
  403976:	e8bd 8ff0 	ldmia.w	sp!, {r4, r5, r6, r7, r8, r9, sl, fp, pc}
  40397a:	68bc      	ldr	r4, [r7, #8]
  40397c:	6863      	ldr	r3, [r4, #4]
  40397e:	f023 0803 	bic.w	r8, r3, #3
  403982:	45b0      	cmp	r8, r6
  403984:	d304      	bcc.n	403990 <_malloc_r+0x200>
  403986:	eba8 0306 	sub.w	r3, r8, r6
  40398a:	2b0f      	cmp	r3, #15
  40398c:	f300 8085 	bgt.w	403a9a <_malloc_r+0x30a>
  403990:	f8df 9158 	ldr.w	r9, [pc, #344]	; 403aec <_malloc_r+0x35c>
  403994:	4b50      	ldr	r3, [pc, #320]	; (403ad8 <_malloc_r+0x348>)
  403996:	f8d9 2000 	ldr.w	r2, [r9]
  40399a:	681b      	ldr	r3, [r3, #0]
  40399c:	3201      	adds	r2, #1
  40399e:	4433      	add	r3, r6
  4039a0:	eb04 0a08 	add.w	sl, r4, r8
  4039a4:	f000 8155 	beq.w	403c52 <_malloc_r+0x4c2>
  4039a8:	f503 5380 	add.w	r3, r3, #4096	; 0x1000
  4039ac:	330f      	adds	r3, #15
  4039ae:	f423 6b7f 	bic.w	fp, r3, #4080	; 0xff0
  4039b2:	f02b 0b0f 	bic.w	fp, fp, #15
  4039b6:	4659      	mov	r1, fp
  4039b8:	4628      	mov	r0, r5
  4039ba:	f000 fc17 	bl	4041ec <_sbrk_r>
  4039be:	1c41      	adds	r1, r0, #1
  4039c0:	4602      	mov	r2, r0
  4039c2:	f000 80fc 	beq.w	403bbe <_malloc_r+0x42e>
  4039c6:	4582      	cmp	sl, r0
  4039c8:	f200 80f7 	bhi.w	403bba <_malloc_r+0x42a>
  4039cc:	4b43      	ldr	r3, [pc, #268]	; (403adc <_malloc_r+0x34c>)
  4039ce:	6819      	ldr	r1, [r3, #0]
  4039d0:	4459      	add	r1, fp
  4039d2:	6019      	str	r1, [r3, #0]
  4039d4:	f000 814d 	beq.w	403c72 <_malloc_r+0x4e2>
  4039d8:	f8d9 0000 	ldr.w	r0, [r9]
  4039dc:	3001      	adds	r0, #1
  4039de:	bf1b      	ittet	ne
  4039e0:	eba2 0a0a 	subne.w	sl, r2, sl
  4039e4:	4451      	addne	r1, sl
  4039e6:	f8c9 2000 	streq.w	r2, [r9]
  4039ea:	6019      	strne	r1, [r3, #0]
  4039ec:	f012 0107 	ands.w	r1, r2, #7
  4039f0:	f000 8115 	beq.w	403c1e <_malloc_r+0x48e>
  4039f4:	f1c1 0008 	rsb	r0, r1, #8
  4039f8:	f5c1 5180 	rsb	r1, r1, #4096	; 0x1000
  4039fc:	4402      	add	r2, r0
  4039fe:	3108      	adds	r1, #8
  403a00:	eb02 090b 	add.w	r9, r2, fp
  403a04:	f3c9 090b 	ubfx	r9, r9, #0, #12
  403a08:	eba1 0909 	sub.w	r9, r1, r9
  403a0c:	4649      	mov	r1, r9
  403a0e:	4628      	mov	r0, r5
  403a10:	9301      	str	r3, [sp, #4]
  403a12:	9200      	str	r2, [sp, #0]
  403a14:	f000 fbea 	bl	4041ec <_sbrk_r>
  403a18:	1c43      	adds	r3, r0, #1
  403a1a:	e89d 000c 	ldmia.w	sp, {r2, r3}
  403a1e:	f000 8143 	beq.w	403ca8 <_malloc_r+0x518>
  403a22:	1a80      	subs	r0, r0, r2
  403a24:	4448      	add	r0, r9
  403a26:	f040 0001 	orr.w	r0, r0, #1
  403a2a:	6819      	ldr	r1, [r3, #0]
  403a2c:	60ba      	str	r2, [r7, #8]
  403a2e:	4449      	add	r1, r9
  403a30:	42bc      	cmp	r4, r7
  403a32:	6050      	str	r0, [r2, #4]
  403a34:	6019      	str	r1, [r3, #0]
  403a36:	d017      	beq.n	403a68 <_malloc_r+0x2d8>
  403a38:	f1b8 0f0f 	cmp.w	r8, #15
  403a3c:	f240 80fb 	bls.w	403c36 <_malloc_r+0x4a6>
  403a40:	6860      	ldr	r0, [r4, #4]
  403a42:	f1a8 020c 	sub.w	r2, r8, #12
  403a46:	f022 0207 	bic.w	r2, r2, #7
  403a4a:	eb04 0e02 	add.w	lr, r4, r2
  403a4e:	f000 0001 	and.w	r0, r0, #1
  403a52:	f04f 0c05 	mov.w	ip, #5
  403a56:	4310      	orrs	r0, r2
  403a58:	2a0f      	cmp	r2, #15
  403a5a:	6060      	str	r0, [r4, #4]
  403a5c:	f8ce c004 	str.w	ip, [lr, #4]
  403a60:	f8ce c008 	str.w	ip, [lr, #8]
  403a64:	f200 8117 	bhi.w	403c96 <_malloc_r+0x506>
  403a68:	4b1d      	ldr	r3, [pc, #116]	; (403ae0 <_malloc_r+0x350>)
  403a6a:	68bc      	ldr	r4, [r7, #8]
  403a6c:	681a      	ldr	r2, [r3, #0]
  403a6e:	4291      	cmp	r1, r2
  403a70:	bf88      	it	hi
  403a72:	6019      	strhi	r1, [r3, #0]
  403a74:	4b1b      	ldr	r3, [pc, #108]	; (403ae4 <_malloc_r+0x354>)
  403a76:	681a      	ldr	r2, [r3, #0]
  403a78:	4291      	cmp	r1, r2
  403a7a:	6862      	ldr	r2, [r4, #4]
  403a7c:	bf88      	it	hi
  403a7e:	6019      	strhi	r1, [r3, #0]
  403a80:	f022 0203 	bic.w	r2, r2, #3
  403a84:	4296      	cmp	r6, r2
  403a86:	eba2 0306 	sub.w	r3, r2, r6
  403a8a:	d801      	bhi.n	403a90 <_malloc_r+0x300>
  403a8c:	2b0f      	cmp	r3, #15
  403a8e:	dc04      	bgt.n	403a9a <_malloc_r+0x30a>
  403a90:	4628      	mov	r0, r5
  403a92:	f000 f9ff 	bl	403e94 <__malloc_unlock>
  403a96:	2400      	movs	r4, #0
  403a98:	e740      	b.n	40391c <_malloc_r+0x18c>
  403a9a:	19a2      	adds	r2, r4, r6
  403a9c:	f043 0301 	orr.w	r3, r3, #1
  403aa0:	f046 0601 	orr.w	r6, r6, #1
  403aa4:	6066      	str	r6, [r4, #4]
  403aa6:	4628      	mov	r0, r5
  403aa8:	60ba      	str	r2, [r7, #8]
  403aaa:	6053      	str	r3, [r2, #4]
  403aac:	f000 f9f2 	bl	403e94 <__malloc_unlock>
  403ab0:	3408      	adds	r4, #8
  403ab2:	4620      	mov	r0, r4
  403ab4:	b003      	add	sp, #12
  403ab6:	e8bd 8ff0 	ldmia.w	sp!, {r4, r5, r6, r7, r8, r9, sl, fp, pc}
  403aba:	2b14      	cmp	r3, #20
  403abc:	d971      	bls.n	403ba2 <_malloc_r+0x412>
  403abe:	2b54      	cmp	r3, #84	; 0x54
  403ac0:	f200 80a3 	bhi.w	403c0a <_malloc_r+0x47a>
  403ac4:	0b33      	lsrs	r3, r6, #12
  403ac6:	f103 006f 	add.w	r0, r3, #111	; 0x6f
  403aca:	f103 0e6e 	add.w	lr, r3, #110	; 0x6e
  403ace:	00c3      	lsls	r3, r0, #3
  403ad0:	e680      	b.n	4037d4 <_malloc_r+0x44>
  403ad2:	bf00      	nop
  403ad4:	204005b0 	.word	0x204005b0
  403ad8:	20400a88 	.word	0x20400a88
  403adc:	20400a58 	.word	0x20400a58
  403ae0:	20400a80 	.word	0x20400a80
  403ae4:	20400a84 	.word	0x20400a84
  403ae8:	204005b8 	.word	0x204005b8
  403aec:	204009b8 	.word	0x204009b8
  403af0:	0a5a      	lsrs	r2, r3, #9
  403af2:	2a04      	cmp	r2, #4
  403af4:	d95b      	bls.n	403bae <_malloc_r+0x41e>
  403af6:	2a14      	cmp	r2, #20
  403af8:	f200 80ae 	bhi.w	403c58 <_malloc_r+0x4c8>
  403afc:	f102 015c 	add.w	r1, r2, #92	; 0x5c
  403b00:	00c9      	lsls	r1, r1, #3
  403b02:	325b      	adds	r2, #91	; 0x5b
  403b04:	eb07 0c01 	add.w	ip, r7, r1
  403b08:	5879      	ldr	r1, [r7, r1]
  403b0a:	f1ac 0c08 	sub.w	ip, ip, #8
  403b0e:	458c      	cmp	ip, r1
  403b10:	f000 8088 	beq.w	403c24 <_malloc_r+0x494>
  403b14:	684a      	ldr	r2, [r1, #4]
  403b16:	f022 0203 	bic.w	r2, r2, #3
  403b1a:	4293      	cmp	r3, r2
  403b1c:	d273      	bcs.n	403c06 <_malloc_r+0x476>
  403b1e:	6889      	ldr	r1, [r1, #8]
  403b20:	458c      	cmp	ip, r1
  403b22:	d1f7      	bne.n	403b14 <_malloc_r+0x384>
  403b24:	f8dc 200c 	ldr.w	r2, [ip, #12]
  403b28:	687b      	ldr	r3, [r7, #4]
  403b2a:	60e2      	str	r2, [r4, #12]
  403b2c:	f8c4 c008 	str.w	ip, [r4, #8]
  403b30:	6094      	str	r4, [r2, #8]
  403b32:	f8cc 400c 	str.w	r4, [ip, #12]
  403b36:	e68f      	b.n	403858 <_malloc_r+0xc8>
  403b38:	19a1      	adds	r1, r4, r6
  403b3a:	f046 0c01 	orr.w	ip, r6, #1
  403b3e:	f042 0601 	orr.w	r6, r2, #1
  403b42:	f8c4 c004 	str.w	ip, [r4, #4]
  403b46:	4628      	mov	r0, r5
  403b48:	6179      	str	r1, [r7, #20]
  403b4a:	6139      	str	r1, [r7, #16]
  403b4c:	f8c1 e00c 	str.w	lr, [r1, #12]
  403b50:	f8c1 e008 	str.w	lr, [r1, #8]
  403b54:	604e      	str	r6, [r1, #4]
  403b56:	50e2      	str	r2, [r4, r3]
  403b58:	f000 f99c 	bl	403e94 <__malloc_unlock>
  403b5c:	3408      	adds	r4, #8
  403b5e:	e6dd      	b.n	40391c <_malloc_r+0x18c>
  403b60:	687b      	ldr	r3, [r7, #4]
  403b62:	e679      	b.n	403858 <_malloc_r+0xc8>
  403b64:	f108 0801 	add.w	r8, r8, #1
  403b68:	f018 0f03 	tst.w	r8, #3
  403b6c:	f10c 0c08 	add.w	ip, ip, #8
  403b70:	f47f ae85 	bne.w	40387e <_malloc_r+0xee>
  403b74:	e02d      	b.n	403bd2 <_malloc_r+0x442>
  403b76:	68dc      	ldr	r4, [r3, #12]
  403b78:	42a3      	cmp	r3, r4
  403b7a:	bf08      	it	eq
  403b7c:	3002      	addeq	r0, #2
  403b7e:	f43f ae3e 	beq.w	4037fe <_malloc_r+0x6e>
  403b82:	e6bb      	b.n	4038fc <_malloc_r+0x16c>
  403b84:	4419      	add	r1, r3
  403b86:	461c      	mov	r4, r3
  403b88:	684a      	ldr	r2, [r1, #4]
  403b8a:	68db      	ldr	r3, [r3, #12]
  403b8c:	f854 6f08 	ldr.w	r6, [r4, #8]!
  403b90:	f042 0201 	orr.w	r2, r2, #1
  403b94:	604a      	str	r2, [r1, #4]
  403b96:	4628      	mov	r0, r5
  403b98:	60f3      	str	r3, [r6, #12]
  403b9a:	609e      	str	r6, [r3, #8]
  403b9c:	f000 f97a 	bl	403e94 <__malloc_unlock>
  403ba0:	e6bc      	b.n	40391c <_malloc_r+0x18c>
  403ba2:	f103 005c 	add.w	r0, r3, #92	; 0x5c
  403ba6:	f103 0e5b 	add.w	lr, r3, #91	; 0x5b
  403baa:	00c3      	lsls	r3, r0, #3
  403bac:	e612      	b.n	4037d4 <_malloc_r+0x44>
  403bae:	099a      	lsrs	r2, r3, #6
  403bb0:	f102 0139 	add.w	r1, r2, #57	; 0x39
  403bb4:	00c9      	lsls	r1, r1, #3
  403bb6:	3238      	adds	r2, #56	; 0x38
  403bb8:	e7a4      	b.n	403b04 <_malloc_r+0x374>
  403bba:	42bc      	cmp	r4, r7
  403bbc:	d054      	beq.n	403c68 <_malloc_r+0x4d8>
  403bbe:	68bc      	ldr	r4, [r7, #8]
  403bc0:	6862      	ldr	r2, [r4, #4]
  403bc2:	f022 0203 	bic.w	r2, r2, #3
  403bc6:	e75d      	b.n	403a84 <_malloc_r+0x2f4>
  403bc8:	f859 3908 	ldr.w	r3, [r9], #-8
  403bcc:	4599      	cmp	r9, r3
  403bce:	f040 8086 	bne.w	403cde <_malloc_r+0x54e>
  403bd2:	f010 0f03 	tst.w	r0, #3
  403bd6:	f100 30ff 	add.w	r0, r0, #4294967295
  403bda:	d1f5      	bne.n	403bc8 <_malloc_r+0x438>
  403bdc:	687b      	ldr	r3, [r7, #4]
  403bde:	ea23 0304 	bic.w	r3, r3, r4
  403be2:	607b      	str	r3, [r7, #4]
  403be4:	0064      	lsls	r4, r4, #1
  403be6:	429c      	cmp	r4, r3
  403be8:	f63f aec7 	bhi.w	40397a <_malloc_r+0x1ea>
  403bec:	2c00      	cmp	r4, #0
  403bee:	f43f aec4 	beq.w	40397a <_malloc_r+0x1ea>
  403bf2:	421c      	tst	r4, r3
  403bf4:	4640      	mov	r0, r8
  403bf6:	f47f ae3e 	bne.w	403876 <_malloc_r+0xe6>
  403bfa:	0064      	lsls	r4, r4, #1
  403bfc:	421c      	tst	r4, r3
  403bfe:	f100 0004 	add.w	r0, r0, #4
  403c02:	d0fa      	beq.n	403bfa <_malloc_r+0x46a>
  403c04:	e637      	b.n	403876 <_malloc_r+0xe6>
  403c06:	468c      	mov	ip, r1
  403c08:	e78c      	b.n	403b24 <_malloc_r+0x394>
  403c0a:	f5b3 7faa 	cmp.w	r3, #340	; 0x154
  403c0e:	d815      	bhi.n	403c3c <_malloc_r+0x4ac>
  403c10:	0bf3      	lsrs	r3, r6, #15
  403c12:	f103 0078 	add.w	r0, r3, #120	; 0x78
  403c16:	f103 0e77 	add.w	lr, r3, #119	; 0x77
  403c1a:	00c3      	lsls	r3, r0, #3
  403c1c:	e5da      	b.n	4037d4 <_malloc_r+0x44>
  403c1e:	f44f 5180 	mov.w	r1, #4096	; 0x1000
  403c22:	e6ed      	b.n	403a00 <_malloc_r+0x270>
  403c24:	687b      	ldr	r3, [r7, #4]
  403c26:	1092      	asrs	r2, r2, #2
  403c28:	2101      	movs	r1, #1
  403c2a:	fa01 f202 	lsl.w	r2, r1, r2
  403c2e:	4313      	orrs	r3, r2
  403c30:	607b      	str	r3, [r7, #4]
  403c32:	4662      	mov	r2, ip
  403c34:	e779      	b.n	403b2a <_malloc_r+0x39a>
  403c36:	2301      	movs	r3, #1
  403c38:	6053      	str	r3, [r2, #4]
  403c3a:	e729      	b.n	403a90 <_malloc_r+0x300>
  403c3c:	f240 5254 	movw	r2, #1364	; 0x554
  403c40:	4293      	cmp	r3, r2
  403c42:	d822      	bhi.n	403c8a <_malloc_r+0x4fa>
  403c44:	0cb3      	lsrs	r3, r6, #18
  403c46:	f103 007d 	add.w	r0, r3, #125	; 0x7d
  403c4a:	f103 0e7c 	add.w	lr, r3, #124	; 0x7c
  403c4e:	00c3      	lsls	r3, r0, #3
  403c50:	e5c0      	b.n	4037d4 <_malloc_r+0x44>
  403c52:	f103 0b10 	add.w	fp, r3, #16
  403c56:	e6ae      	b.n	4039b6 <_malloc_r+0x226>
  403c58:	2a54      	cmp	r2, #84	; 0x54
  403c5a:	d829      	bhi.n	403cb0 <_malloc_r+0x520>
  403c5c:	0b1a      	lsrs	r2, r3, #12
  403c5e:	f102 016f 	add.w	r1, r2, #111	; 0x6f
  403c62:	00c9      	lsls	r1, r1, #3
  403c64:	326e      	adds	r2, #110	; 0x6e
  403c66:	e74d      	b.n	403b04 <_malloc_r+0x374>
  403c68:	4b20      	ldr	r3, [pc, #128]	; (403cec <_malloc_r+0x55c>)
  403c6a:	6819      	ldr	r1, [r3, #0]
  403c6c:	4459      	add	r1, fp
  403c6e:	6019      	str	r1, [r3, #0]
  403c70:	e6b2      	b.n	4039d8 <_malloc_r+0x248>
  403c72:	f3ca 000b 	ubfx	r0, sl, #0, #12
  403c76:	2800      	cmp	r0, #0
  403c78:	f47f aeae 	bne.w	4039d8 <_malloc_r+0x248>
  403c7c:	eb08 030b 	add.w	r3, r8, fp
  403c80:	68ba      	ldr	r2, [r7, #8]
  403c82:	f043 0301 	orr.w	r3, r3, #1
  403c86:	6053      	str	r3, [r2, #4]
  403c88:	e6ee      	b.n	403a68 <_malloc_r+0x2d8>
  403c8a:	207f      	movs	r0, #127	; 0x7f
  403c8c:	f44f 737e 	mov.w	r3, #1016	; 0x3f8
  403c90:	f04f 0e7e 	mov.w	lr, #126	; 0x7e
  403c94:	e59e      	b.n	4037d4 <_malloc_r+0x44>
  403c96:	f104 0108 	add.w	r1, r4, #8
  403c9a:	4628      	mov	r0, r5
  403c9c:	9300      	str	r3, [sp, #0]
  403c9e:	f7ff fa59 	bl	403154 <_free_r>
  403ca2:	9b00      	ldr	r3, [sp, #0]
  403ca4:	6819      	ldr	r1, [r3, #0]
  403ca6:	e6df      	b.n	403a68 <_malloc_r+0x2d8>
  403ca8:	2001      	movs	r0, #1
  403caa:	f04f 0900 	mov.w	r9, #0
  403cae:	e6bc      	b.n	403a2a <_malloc_r+0x29a>
  403cb0:	f5b2 7faa 	cmp.w	r2, #340	; 0x154
  403cb4:	d805      	bhi.n	403cc2 <_malloc_r+0x532>
  403cb6:	0bda      	lsrs	r2, r3, #15
  403cb8:	f102 0178 	add.w	r1, r2, #120	; 0x78
  403cbc:	00c9      	lsls	r1, r1, #3
  403cbe:	3277      	adds	r2, #119	; 0x77
  403cc0:	e720      	b.n	403b04 <_malloc_r+0x374>
  403cc2:	f240 5154 	movw	r1, #1364	; 0x554
  403cc6:	428a      	cmp	r2, r1
  403cc8:	d805      	bhi.n	403cd6 <_malloc_r+0x546>
  403cca:	0c9a      	lsrs	r2, r3, #18
  403ccc:	f102 017d 	add.w	r1, r2, #125	; 0x7d
  403cd0:	00c9      	lsls	r1, r1, #3
  403cd2:	327c      	adds	r2, #124	; 0x7c
  403cd4:	e716      	b.n	403b04 <_malloc_r+0x374>
  403cd6:	f44f 717e 	mov.w	r1, #1016	; 0x3f8
  403cda:	227e      	movs	r2, #126	; 0x7e
  403cdc:	e712      	b.n	403b04 <_malloc_r+0x374>
  403cde:	687b      	ldr	r3, [r7, #4]
  403ce0:	e780      	b.n	403be4 <_malloc_r+0x454>
  403ce2:	08f0      	lsrs	r0, r6, #3
  403ce4:	f106 0308 	add.w	r3, r6, #8
  403ce8:	e600      	b.n	4038ec <_malloc_r+0x15c>
  403cea:	bf00      	nop
  403cec:	20400a58 	.word	0x20400a58

00403cf0 <__ascii_mbtowc>:
  403cf0:	b082      	sub	sp, #8
  403cf2:	b149      	cbz	r1, 403d08 <__ascii_mbtowc+0x18>
  403cf4:	b15a      	cbz	r2, 403d0e <__ascii_mbtowc+0x1e>
  403cf6:	b16b      	cbz	r3, 403d14 <__ascii_mbtowc+0x24>
  403cf8:	7813      	ldrb	r3, [r2, #0]
  403cfa:	600b      	str	r3, [r1, #0]
  403cfc:	7812      	ldrb	r2, [r2, #0]
  403cfe:	1c10      	adds	r0, r2, #0
  403d00:	bf18      	it	ne
  403d02:	2001      	movne	r0, #1
  403d04:	b002      	add	sp, #8
  403d06:	4770      	bx	lr
  403d08:	a901      	add	r1, sp, #4
  403d0a:	2a00      	cmp	r2, #0
  403d0c:	d1f3      	bne.n	403cf6 <__ascii_mbtowc+0x6>
  403d0e:	4610      	mov	r0, r2
  403d10:	b002      	add	sp, #8
  403d12:	4770      	bx	lr
  403d14:	f06f 0001 	mvn.w	r0, #1
  403d18:	e7f4      	b.n	403d04 <__ascii_mbtowc+0x14>
  403d1a:	bf00      	nop
  403d1c:	0000      	movs	r0, r0
	...

00403d20 <memchr>:
  403d20:	f001 01ff 	and.w	r1, r1, #255	; 0xff
  403d24:	2a10      	cmp	r2, #16
  403d26:	db2b      	blt.n	403d80 <memchr+0x60>
  403d28:	f010 0f07 	tst.w	r0, #7
  403d2c:	d008      	beq.n	403d40 <memchr+0x20>
  403d2e:	f810 3b01 	ldrb.w	r3, [r0], #1
  403d32:	3a01      	subs	r2, #1
  403d34:	428b      	cmp	r3, r1
  403d36:	d02d      	beq.n	403d94 <memchr+0x74>
  403d38:	f010 0f07 	tst.w	r0, #7
  403d3c:	b342      	cbz	r2, 403d90 <memchr+0x70>
  403d3e:	d1f6      	bne.n	403d2e <memchr+0xe>
  403d40:	b4f0      	push	{r4, r5, r6, r7}
  403d42:	ea41 2101 	orr.w	r1, r1, r1, lsl #8
  403d46:	ea41 4101 	orr.w	r1, r1, r1, lsl #16
  403d4a:	f022 0407 	bic.w	r4, r2, #7
  403d4e:	f07f 0700 	mvns.w	r7, #0
  403d52:	2300      	movs	r3, #0
  403d54:	e8f0 5602 	ldrd	r5, r6, [r0], #8
  403d58:	3c08      	subs	r4, #8
  403d5a:	ea85 0501 	eor.w	r5, r5, r1
  403d5e:	ea86 0601 	eor.w	r6, r6, r1
  403d62:	fa85 f547 	uadd8	r5, r5, r7
  403d66:	faa3 f587 	sel	r5, r3, r7
  403d6a:	fa86 f647 	uadd8	r6, r6, r7
  403d6e:	faa5 f687 	sel	r6, r5, r7
  403d72:	b98e      	cbnz	r6, 403d98 <memchr+0x78>
  403d74:	d1ee      	bne.n	403d54 <memchr+0x34>
  403d76:	bcf0      	pop	{r4, r5, r6, r7}
  403d78:	f001 01ff 	and.w	r1, r1, #255	; 0xff
  403d7c:	f002 0207 	and.w	r2, r2, #7
  403d80:	b132      	cbz	r2, 403d90 <memchr+0x70>
  403d82:	f810 3b01 	ldrb.w	r3, [r0], #1
  403d86:	3a01      	subs	r2, #1
  403d88:	ea83 0301 	eor.w	r3, r3, r1
  403d8c:	b113      	cbz	r3, 403d94 <memchr+0x74>
  403d8e:	d1f8      	bne.n	403d82 <memchr+0x62>
  403d90:	2000      	movs	r0, #0
  403d92:	4770      	bx	lr
  403d94:	3801      	subs	r0, #1
  403d96:	4770      	bx	lr
  403d98:	2d00      	cmp	r5, #0
  403d9a:	bf06      	itte	eq
  403d9c:	4635      	moveq	r5, r6
  403d9e:	3803      	subeq	r0, #3
  403da0:	3807      	subne	r0, #7
  403da2:	f015 0f01 	tst.w	r5, #1
  403da6:	d107      	bne.n	403db8 <memchr+0x98>
  403da8:	3001      	adds	r0, #1
  403daa:	f415 7f80 	tst.w	r5, #256	; 0x100
  403dae:	bf02      	ittt	eq
  403db0:	3001      	addeq	r0, #1
  403db2:	f415 3fc0 	tsteq.w	r5, #98304	; 0x18000
  403db6:	3001      	addeq	r0, #1
  403db8:	bcf0      	pop	{r4, r5, r6, r7}
  403dba:	3801      	subs	r0, #1
  403dbc:	4770      	bx	lr
  403dbe:	bf00      	nop

00403dc0 <memmove>:
  403dc0:	4288      	cmp	r0, r1
  403dc2:	b5f0      	push	{r4, r5, r6, r7, lr}
  403dc4:	d90d      	bls.n	403de2 <memmove+0x22>
  403dc6:	188b      	adds	r3, r1, r2
  403dc8:	4298      	cmp	r0, r3
  403dca:	d20a      	bcs.n	403de2 <memmove+0x22>
  403dcc:	1884      	adds	r4, r0, r2
  403dce:	2a00      	cmp	r2, #0
  403dd0:	d051      	beq.n	403e76 <memmove+0xb6>
  403dd2:	4622      	mov	r2, r4
  403dd4:	f813 4d01 	ldrb.w	r4, [r3, #-1]!
  403dd8:	f802 4d01 	strb.w	r4, [r2, #-1]!
  403ddc:	4299      	cmp	r1, r3
  403dde:	d1f9      	bne.n	403dd4 <memmove+0x14>
  403de0:	bdf0      	pop	{r4, r5, r6, r7, pc}
  403de2:	2a0f      	cmp	r2, #15
  403de4:	d948      	bls.n	403e78 <memmove+0xb8>
  403de6:	ea41 0300 	orr.w	r3, r1, r0
  403dea:	079b      	lsls	r3, r3, #30
  403dec:	d146      	bne.n	403e7c <memmove+0xbc>
  403dee:	f100 0410 	add.w	r4, r0, #16
  403df2:	f101 0310 	add.w	r3, r1, #16
  403df6:	4615      	mov	r5, r2
  403df8:	f853 6c10 	ldr.w	r6, [r3, #-16]
  403dfc:	f844 6c10 	str.w	r6, [r4, #-16]
  403e00:	f853 6c0c 	ldr.w	r6, [r3, #-12]
  403e04:	f844 6c0c 	str.w	r6, [r4, #-12]
  403e08:	f853 6c08 	ldr.w	r6, [r3, #-8]
  403e0c:	f844 6c08 	str.w	r6, [r4, #-8]
  403e10:	3d10      	subs	r5, #16
  403e12:	f853 6c04 	ldr.w	r6, [r3, #-4]
  403e16:	f844 6c04 	str.w	r6, [r4, #-4]
  403e1a:	2d0f      	cmp	r5, #15
  403e1c:	f103 0310 	add.w	r3, r3, #16
  403e20:	f104 0410 	add.w	r4, r4, #16
  403e24:	d8e8      	bhi.n	403df8 <memmove+0x38>
  403e26:	f1a2 0310 	sub.w	r3, r2, #16
  403e2a:	f023 030f 	bic.w	r3, r3, #15
  403e2e:	f002 0e0f 	and.w	lr, r2, #15
  403e32:	3310      	adds	r3, #16
  403e34:	f1be 0f03 	cmp.w	lr, #3
  403e38:	4419      	add	r1, r3
  403e3a:	4403      	add	r3, r0
  403e3c:	d921      	bls.n	403e82 <memmove+0xc2>
  403e3e:	1f1e      	subs	r6, r3, #4
  403e40:	460d      	mov	r5, r1
  403e42:	4674      	mov	r4, lr
  403e44:	3c04      	subs	r4, #4
  403e46:	f855 7b04 	ldr.w	r7, [r5], #4
  403e4a:	f846 7f04 	str.w	r7, [r6, #4]!
  403e4e:	2c03      	cmp	r4, #3
  403e50:	d8f8      	bhi.n	403e44 <memmove+0x84>
  403e52:	f1ae 0404 	sub.w	r4, lr, #4
  403e56:	f024 0403 	bic.w	r4, r4, #3
  403e5a:	3404      	adds	r4, #4
  403e5c:	4421      	add	r1, r4
  403e5e:	4423      	add	r3, r4
  403e60:	f002 0203 	and.w	r2, r2, #3
  403e64:	b162      	cbz	r2, 403e80 <memmove+0xc0>
  403e66:	3b01      	subs	r3, #1
  403e68:	440a      	add	r2, r1
  403e6a:	f811 4b01 	ldrb.w	r4, [r1], #1
  403e6e:	f803 4f01 	strb.w	r4, [r3, #1]!
  403e72:	428a      	cmp	r2, r1
  403e74:	d1f9      	bne.n	403e6a <memmove+0xaa>
  403e76:	bdf0      	pop	{r4, r5, r6, r7, pc}
  403e78:	4603      	mov	r3, r0
  403e7a:	e7f3      	b.n	403e64 <memmove+0xa4>
  403e7c:	4603      	mov	r3, r0
  403e7e:	e7f2      	b.n	403e66 <memmove+0xa6>
  403e80:	bdf0      	pop	{r4, r5, r6, r7, pc}
  403e82:	4672      	mov	r2, lr
  403e84:	e7ee      	b.n	403e64 <memmove+0xa4>
  403e86:	bf00      	nop

00403e88 <__malloc_lock>:
  403e88:	4801      	ldr	r0, [pc, #4]	; (403e90 <__malloc_lock+0x8>)
  403e8a:	f7ff bbfd 	b.w	403688 <__retarget_lock_acquire_recursive>
  403e8e:	bf00      	nop
  403e90:	20400aec 	.word	0x20400aec

00403e94 <__malloc_unlock>:
  403e94:	4801      	ldr	r0, [pc, #4]	; (403e9c <__malloc_unlock+0x8>)
  403e96:	f7ff bbf9 	b.w	40368c <__retarget_lock_release_recursive>
  403e9a:	bf00      	nop
  403e9c:	20400aec 	.word	0x20400aec

00403ea0 <_realloc_r>:
  403ea0:	2900      	cmp	r1, #0
  403ea2:	f000 8095 	beq.w	403fd0 <_realloc_r+0x130>
  403ea6:	e92d 4ff0 	stmdb	sp!, {r4, r5, r6, r7, r8, r9, sl, fp, lr}
  403eaa:	460d      	mov	r5, r1
  403eac:	4616      	mov	r6, r2
  403eae:	b083      	sub	sp, #12
  403eb0:	4680      	mov	r8, r0
  403eb2:	f106 070b 	add.w	r7, r6, #11
  403eb6:	f7ff ffe7 	bl	403e88 <__malloc_lock>
  403eba:	f855 ec04 	ldr.w	lr, [r5, #-4]
  403ebe:	2f16      	cmp	r7, #22
  403ec0:	f02e 0403 	bic.w	r4, lr, #3
  403ec4:	f1a5 0908 	sub.w	r9, r5, #8
  403ec8:	d83c      	bhi.n	403f44 <_realloc_r+0xa4>
  403eca:	2210      	movs	r2, #16
  403ecc:	4617      	mov	r7, r2
  403ece:	42be      	cmp	r6, r7
  403ed0:	d83d      	bhi.n	403f4e <_realloc_r+0xae>
  403ed2:	4294      	cmp	r4, r2
  403ed4:	da43      	bge.n	403f5e <_realloc_r+0xbe>
  403ed6:	4bc4      	ldr	r3, [pc, #784]	; (4041e8 <_realloc_r+0x348>)
  403ed8:	6899      	ldr	r1, [r3, #8]
  403eda:	eb09 0004 	add.w	r0, r9, r4
  403ede:	4288      	cmp	r0, r1
  403ee0:	f000 80b4 	beq.w	40404c <_realloc_r+0x1ac>
  403ee4:	6843      	ldr	r3, [r0, #4]
  403ee6:	f023 0101 	bic.w	r1, r3, #1
  403eea:	4401      	add	r1, r0
  403eec:	6849      	ldr	r1, [r1, #4]
  403eee:	07c9      	lsls	r1, r1, #31
  403ef0:	d54c      	bpl.n	403f8c <_realloc_r+0xec>
  403ef2:	f01e 0f01 	tst.w	lr, #1
  403ef6:	f000 809b 	beq.w	404030 <_realloc_r+0x190>
  403efa:	4631      	mov	r1, r6
  403efc:	4640      	mov	r0, r8
  403efe:	f7ff fc47 	bl	403790 <_malloc_r>
  403f02:	4606      	mov	r6, r0
  403f04:	2800      	cmp	r0, #0
  403f06:	d03a      	beq.n	403f7e <_realloc_r+0xde>
  403f08:	f855 3c04 	ldr.w	r3, [r5, #-4]
  403f0c:	f023 0301 	bic.w	r3, r3, #1
  403f10:	444b      	add	r3, r9
  403f12:	f1a0 0208 	sub.w	r2, r0, #8
  403f16:	429a      	cmp	r2, r3
  403f18:	f000 8121 	beq.w	40415e <_realloc_r+0x2be>
  403f1c:	1f22      	subs	r2, r4, #4
  403f1e:	2a24      	cmp	r2, #36	; 0x24
  403f20:	f200 8107 	bhi.w	404132 <_realloc_r+0x292>
  403f24:	2a13      	cmp	r2, #19
  403f26:	f200 80db 	bhi.w	4040e0 <_realloc_r+0x240>
  403f2a:	4603      	mov	r3, r0
  403f2c:	462a      	mov	r2, r5
  403f2e:	6811      	ldr	r1, [r2, #0]
  403f30:	6019      	str	r1, [r3, #0]
  403f32:	6851      	ldr	r1, [r2, #4]
  403f34:	6059      	str	r1, [r3, #4]
  403f36:	6892      	ldr	r2, [r2, #8]
  403f38:	609a      	str	r2, [r3, #8]
  403f3a:	4629      	mov	r1, r5
  403f3c:	4640      	mov	r0, r8
  403f3e:	f7ff f909 	bl	403154 <_free_r>
  403f42:	e01c      	b.n	403f7e <_realloc_r+0xde>
  403f44:	f027 0707 	bic.w	r7, r7, #7
  403f48:	2f00      	cmp	r7, #0
  403f4a:	463a      	mov	r2, r7
  403f4c:	dabf      	bge.n	403ece <_realloc_r+0x2e>
  403f4e:	2600      	movs	r6, #0
  403f50:	230c      	movs	r3, #12
  403f52:	4630      	mov	r0, r6
  403f54:	f8c8 3000 	str.w	r3, [r8]
  403f58:	b003      	add	sp, #12
  403f5a:	e8bd 8ff0 	ldmia.w	sp!, {r4, r5, r6, r7, r8, r9, sl, fp, pc}
  403f5e:	462e      	mov	r6, r5
  403f60:	1be3      	subs	r3, r4, r7
  403f62:	2b0f      	cmp	r3, #15
  403f64:	d81e      	bhi.n	403fa4 <_realloc_r+0x104>
  403f66:	f8d9 3004 	ldr.w	r3, [r9, #4]
  403f6a:	f003 0301 	and.w	r3, r3, #1
  403f6e:	4323      	orrs	r3, r4
  403f70:	444c      	add	r4, r9
  403f72:	f8c9 3004 	str.w	r3, [r9, #4]
  403f76:	6863      	ldr	r3, [r4, #4]
  403f78:	f043 0301 	orr.w	r3, r3, #1
  403f7c:	6063      	str	r3, [r4, #4]
  403f7e:	4640      	mov	r0, r8
  403f80:	f7ff ff88 	bl	403e94 <__malloc_unlock>
  403f84:	4630      	mov	r0, r6
  403f86:	b003      	add	sp, #12
  403f88:	e8bd 8ff0 	ldmia.w	sp!, {r4, r5, r6, r7, r8, r9, sl, fp, pc}
  403f8c:	f023 0303 	bic.w	r3, r3, #3
  403f90:	18e1      	adds	r1, r4, r3
  403f92:	4291      	cmp	r1, r2
  403f94:	db1f      	blt.n	403fd6 <_realloc_r+0x136>
  403f96:	68c3      	ldr	r3, [r0, #12]
  403f98:	6882      	ldr	r2, [r0, #8]
  403f9a:	462e      	mov	r6, r5
  403f9c:	60d3      	str	r3, [r2, #12]
  403f9e:	460c      	mov	r4, r1
  403fa0:	609a      	str	r2, [r3, #8]
  403fa2:	e7dd      	b.n	403f60 <_realloc_r+0xc0>
  403fa4:	f8d9 2004 	ldr.w	r2, [r9, #4]
  403fa8:	eb09 0107 	add.w	r1, r9, r7
  403fac:	f002 0201 	and.w	r2, r2, #1
  403fb0:	444c      	add	r4, r9
  403fb2:	f043 0301 	orr.w	r3, r3, #1
  403fb6:	4317      	orrs	r7, r2
  403fb8:	f8c9 7004 	str.w	r7, [r9, #4]
  403fbc:	604b      	str	r3, [r1, #4]
  403fbe:	6863      	ldr	r3, [r4, #4]
  403fc0:	f043 0301 	orr.w	r3, r3, #1
  403fc4:	3108      	adds	r1, #8
  403fc6:	6063      	str	r3, [r4, #4]
  403fc8:	4640      	mov	r0, r8
  403fca:	f7ff f8c3 	bl	403154 <_free_r>
  403fce:	e7d6      	b.n	403f7e <_realloc_r+0xde>
  403fd0:	4611      	mov	r1, r2
  403fd2:	f7ff bbdd 	b.w	403790 <_malloc_r>
  403fd6:	f01e 0f01 	tst.w	lr, #1
  403fda:	d18e      	bne.n	403efa <_realloc_r+0x5a>
  403fdc:	f855 1c08 	ldr.w	r1, [r5, #-8]
  403fe0:	eba9 0a01 	sub.w	sl, r9, r1
  403fe4:	f8da 1004 	ldr.w	r1, [sl, #4]
  403fe8:	f021 0103 	bic.w	r1, r1, #3
  403fec:	440b      	add	r3, r1
  403fee:	4423      	add	r3, r4
  403ff0:	4293      	cmp	r3, r2
  403ff2:	db25      	blt.n	404040 <_realloc_r+0x1a0>
  403ff4:	68c2      	ldr	r2, [r0, #12]
  403ff6:	6881      	ldr	r1, [r0, #8]
  403ff8:	4656      	mov	r6, sl
  403ffa:	60ca      	str	r2, [r1, #12]
  403ffc:	6091      	str	r1, [r2, #8]
  403ffe:	f8da 100c 	ldr.w	r1, [sl, #12]
  404002:	f856 0f08 	ldr.w	r0, [r6, #8]!
  404006:	1f22      	subs	r2, r4, #4
  404008:	2a24      	cmp	r2, #36	; 0x24
  40400a:	60c1      	str	r1, [r0, #12]
  40400c:	6088      	str	r0, [r1, #8]
  40400e:	f200 8094 	bhi.w	40413a <_realloc_r+0x29a>
  404012:	2a13      	cmp	r2, #19
  404014:	d96f      	bls.n	4040f6 <_realloc_r+0x256>
  404016:	6829      	ldr	r1, [r5, #0]
  404018:	f8ca 1008 	str.w	r1, [sl, #8]
  40401c:	6869      	ldr	r1, [r5, #4]
  40401e:	f8ca 100c 	str.w	r1, [sl, #12]
  404022:	2a1b      	cmp	r2, #27
  404024:	f200 80a2 	bhi.w	40416c <_realloc_r+0x2cc>
  404028:	3508      	adds	r5, #8
  40402a:	f10a 0210 	add.w	r2, sl, #16
  40402e:	e063      	b.n	4040f8 <_realloc_r+0x258>
  404030:	f855 3c08 	ldr.w	r3, [r5, #-8]
  404034:	eba9 0a03 	sub.w	sl, r9, r3
  404038:	f8da 1004 	ldr.w	r1, [sl, #4]
  40403c:	f021 0103 	bic.w	r1, r1, #3
  404040:	1863      	adds	r3, r4, r1
  404042:	4293      	cmp	r3, r2
  404044:	f6ff af59 	blt.w	403efa <_realloc_r+0x5a>
  404048:	4656      	mov	r6, sl
  40404a:	e7d8      	b.n	403ffe <_realloc_r+0x15e>
  40404c:	6841      	ldr	r1, [r0, #4]
  40404e:	f021 0b03 	bic.w	fp, r1, #3
  404052:	44a3      	add	fp, r4
  404054:	f107 0010 	add.w	r0, r7, #16
  404058:	4583      	cmp	fp, r0
  40405a:	da56      	bge.n	40410a <_realloc_r+0x26a>
  40405c:	f01e 0f01 	tst.w	lr, #1
  404060:	f47f af4b 	bne.w	403efa <_realloc_r+0x5a>
  404064:	f855 1c08 	ldr.w	r1, [r5, #-8]
  404068:	eba9 0a01 	sub.w	sl, r9, r1
  40406c:	f8da 1004 	ldr.w	r1, [sl, #4]
  404070:	f021 0103 	bic.w	r1, r1, #3
  404074:	448b      	add	fp, r1
  404076:	4558      	cmp	r0, fp
  404078:	dce2      	bgt.n	404040 <_realloc_r+0x1a0>
  40407a:	4656      	mov	r6, sl
  40407c:	f8da 100c 	ldr.w	r1, [sl, #12]
  404080:	f856 0f08 	ldr.w	r0, [r6, #8]!
  404084:	1f22      	subs	r2, r4, #4
  404086:	2a24      	cmp	r2, #36	; 0x24
  404088:	60c1      	str	r1, [r0, #12]
  40408a:	6088      	str	r0, [r1, #8]
  40408c:	f200 808f 	bhi.w	4041ae <_realloc_r+0x30e>
  404090:	2a13      	cmp	r2, #19
  404092:	f240 808a 	bls.w	4041aa <_realloc_r+0x30a>
  404096:	6829      	ldr	r1, [r5, #0]
  404098:	f8ca 1008 	str.w	r1, [sl, #8]
  40409c:	6869      	ldr	r1, [r5, #4]
  40409e:	f8ca 100c 	str.w	r1, [sl, #12]
  4040a2:	2a1b      	cmp	r2, #27
  4040a4:	f200 808a 	bhi.w	4041bc <_realloc_r+0x31c>
  4040a8:	3508      	adds	r5, #8
  4040aa:	f10a 0210 	add.w	r2, sl, #16
  4040ae:	6829      	ldr	r1, [r5, #0]
  4040b0:	6011      	str	r1, [r2, #0]
  4040b2:	6869      	ldr	r1, [r5, #4]
  4040b4:	6051      	str	r1, [r2, #4]
  4040b6:	68a9      	ldr	r1, [r5, #8]
  4040b8:	6091      	str	r1, [r2, #8]
  4040ba:	eb0a 0107 	add.w	r1, sl, r7
  4040be:	ebab 0207 	sub.w	r2, fp, r7
  4040c2:	f042 0201 	orr.w	r2, r2, #1
  4040c6:	6099      	str	r1, [r3, #8]
  4040c8:	604a      	str	r2, [r1, #4]
  4040ca:	f8da 3004 	ldr.w	r3, [sl, #4]
  4040ce:	f003 0301 	and.w	r3, r3, #1
  4040d2:	431f      	orrs	r7, r3
  4040d4:	4640      	mov	r0, r8
  4040d6:	f8ca 7004 	str.w	r7, [sl, #4]
  4040da:	f7ff fedb 	bl	403e94 <__malloc_unlock>
  4040de:	e751      	b.n	403f84 <_realloc_r+0xe4>
  4040e0:	682b      	ldr	r3, [r5, #0]
  4040e2:	6003      	str	r3, [r0, #0]
  4040e4:	686b      	ldr	r3, [r5, #4]
  4040e6:	6043      	str	r3, [r0, #4]
  4040e8:	2a1b      	cmp	r2, #27
  4040ea:	d82d      	bhi.n	404148 <_realloc_r+0x2a8>
  4040ec:	f100 0308 	add.w	r3, r0, #8
  4040f0:	f105 0208 	add.w	r2, r5, #8
  4040f4:	e71b      	b.n	403f2e <_realloc_r+0x8e>
  4040f6:	4632      	mov	r2, r6
  4040f8:	6829      	ldr	r1, [r5, #0]
  4040fa:	6011      	str	r1, [r2, #0]
  4040fc:	6869      	ldr	r1, [r5, #4]
  4040fe:	6051      	str	r1, [r2, #4]
  404100:	68a9      	ldr	r1, [r5, #8]
  404102:	6091      	str	r1, [r2, #8]
  404104:	461c      	mov	r4, r3
  404106:	46d1      	mov	r9, sl
  404108:	e72a      	b.n	403f60 <_realloc_r+0xc0>
  40410a:	eb09 0107 	add.w	r1, r9, r7
  40410e:	ebab 0b07 	sub.w	fp, fp, r7
  404112:	f04b 0201 	orr.w	r2, fp, #1
  404116:	6099      	str	r1, [r3, #8]
  404118:	604a      	str	r2, [r1, #4]
  40411a:	f855 3c04 	ldr.w	r3, [r5, #-4]
  40411e:	f003 0301 	and.w	r3, r3, #1
  404122:	431f      	orrs	r7, r3
  404124:	4640      	mov	r0, r8
  404126:	f845 7c04 	str.w	r7, [r5, #-4]
  40412a:	f7ff feb3 	bl	403e94 <__malloc_unlock>
  40412e:	462e      	mov	r6, r5
  404130:	e728      	b.n	403f84 <_realloc_r+0xe4>
  404132:	4629      	mov	r1, r5
  404134:	f7ff fe44 	bl	403dc0 <memmove>
  404138:	e6ff      	b.n	403f3a <_realloc_r+0x9a>
  40413a:	4629      	mov	r1, r5
  40413c:	4630      	mov	r0, r6
  40413e:	461c      	mov	r4, r3
  404140:	46d1      	mov	r9, sl
  404142:	f7ff fe3d 	bl	403dc0 <memmove>
  404146:	e70b      	b.n	403f60 <_realloc_r+0xc0>
  404148:	68ab      	ldr	r3, [r5, #8]
  40414a:	6083      	str	r3, [r0, #8]
  40414c:	68eb      	ldr	r3, [r5, #12]
  40414e:	60c3      	str	r3, [r0, #12]
  404150:	2a24      	cmp	r2, #36	; 0x24
  404152:	d017      	beq.n	404184 <_realloc_r+0x2e4>
  404154:	f100 0310 	add.w	r3, r0, #16
  404158:	f105 0210 	add.w	r2, r5, #16
  40415c:	e6e7      	b.n	403f2e <_realloc_r+0x8e>
  40415e:	f850 3c04 	ldr.w	r3, [r0, #-4]
  404162:	f023 0303 	bic.w	r3, r3, #3
  404166:	441c      	add	r4, r3
  404168:	462e      	mov	r6, r5
  40416a:	e6f9      	b.n	403f60 <_realloc_r+0xc0>
  40416c:	68a9      	ldr	r1, [r5, #8]
  40416e:	f8ca 1010 	str.w	r1, [sl, #16]
  404172:	68e9      	ldr	r1, [r5, #12]
  404174:	f8ca 1014 	str.w	r1, [sl, #20]
  404178:	2a24      	cmp	r2, #36	; 0x24
  40417a:	d00c      	beq.n	404196 <_realloc_r+0x2f6>
  40417c:	3510      	adds	r5, #16
  40417e:	f10a 0218 	add.w	r2, sl, #24
  404182:	e7b9      	b.n	4040f8 <_realloc_r+0x258>
  404184:	692b      	ldr	r3, [r5, #16]
  404186:	6103      	str	r3, [r0, #16]
  404188:	696b      	ldr	r3, [r5, #20]
  40418a:	6143      	str	r3, [r0, #20]
  40418c:	f105 0218 	add.w	r2, r5, #24
  404190:	f100 0318 	add.w	r3, r0, #24
  404194:	e6cb      	b.n	403f2e <_realloc_r+0x8e>
  404196:	692a      	ldr	r2, [r5, #16]
  404198:	f8ca 2018 	str.w	r2, [sl, #24]
  40419c:	696a      	ldr	r2, [r5, #20]
  40419e:	f8ca 201c 	str.w	r2, [sl, #28]
  4041a2:	3518      	adds	r5, #24
  4041a4:	f10a 0220 	add.w	r2, sl, #32
  4041a8:	e7a6      	b.n	4040f8 <_realloc_r+0x258>
  4041aa:	4632      	mov	r2, r6
  4041ac:	e77f      	b.n	4040ae <_realloc_r+0x20e>
  4041ae:	4629      	mov	r1, r5
  4041b0:	4630      	mov	r0, r6
  4041b2:	9301      	str	r3, [sp, #4]
  4041b4:	f7ff fe04 	bl	403dc0 <memmove>
  4041b8:	9b01      	ldr	r3, [sp, #4]
  4041ba:	e77e      	b.n	4040ba <_realloc_r+0x21a>
  4041bc:	68a9      	ldr	r1, [r5, #8]
  4041be:	f8ca 1010 	str.w	r1, [sl, #16]
  4041c2:	68e9      	ldr	r1, [r5, #12]
  4041c4:	f8ca 1014 	str.w	r1, [sl, #20]
  4041c8:	2a24      	cmp	r2, #36	; 0x24
  4041ca:	d003      	beq.n	4041d4 <_realloc_r+0x334>
  4041cc:	3510      	adds	r5, #16
  4041ce:	f10a 0218 	add.w	r2, sl, #24
  4041d2:	e76c      	b.n	4040ae <_realloc_r+0x20e>
  4041d4:	692a      	ldr	r2, [r5, #16]
  4041d6:	f8ca 2018 	str.w	r2, [sl, #24]
  4041da:	696a      	ldr	r2, [r5, #20]
  4041dc:	f8ca 201c 	str.w	r2, [sl, #28]
  4041e0:	3518      	adds	r5, #24
  4041e2:	f10a 0220 	add.w	r2, sl, #32
  4041e6:	e762      	b.n	4040ae <_realloc_r+0x20e>
  4041e8:	204005b0 	.word	0x204005b0

004041ec <_sbrk_r>:
  4041ec:	b538      	push	{r3, r4, r5, lr}
  4041ee:	4c07      	ldr	r4, [pc, #28]	; (40420c <_sbrk_r+0x20>)
  4041f0:	2300      	movs	r3, #0
  4041f2:	4605      	mov	r5, r0
  4041f4:	4608      	mov	r0, r1
  4041f6:	6023      	str	r3, [r4, #0]
  4041f8:	f7fc fce4 	bl	400bc4 <_sbrk>
  4041fc:	1c43      	adds	r3, r0, #1
  4041fe:	d000      	beq.n	404202 <_sbrk_r+0x16>
  404200:	bd38      	pop	{r3, r4, r5, pc}
  404202:	6823      	ldr	r3, [r4, #0]
  404204:	2b00      	cmp	r3, #0
  404206:	d0fb      	beq.n	404200 <_sbrk_r+0x14>
  404208:	602b      	str	r3, [r5, #0]
  40420a:	bd38      	pop	{r3, r4, r5, pc}
  40420c:	20400b00 	.word	0x20400b00

00404210 <__sread>:
  404210:	b510      	push	{r4, lr}
  404212:	460c      	mov	r4, r1
  404214:	f9b1 100e 	ldrsh.w	r1, [r1, #14]
  404218:	f000 f9f6 	bl	404608 <_read_r>
  40421c:	2800      	cmp	r0, #0
  40421e:	db03      	blt.n	404228 <__sread+0x18>
  404220:	6d23      	ldr	r3, [r4, #80]	; 0x50
  404222:	4403      	add	r3, r0
  404224:	6523      	str	r3, [r4, #80]	; 0x50
  404226:	bd10      	pop	{r4, pc}
  404228:	89a3      	ldrh	r3, [r4, #12]
  40422a:	f423 5380 	bic.w	r3, r3, #4096	; 0x1000
  40422e:	81a3      	strh	r3, [r4, #12]
  404230:	bd10      	pop	{r4, pc}
  404232:	bf00      	nop

00404234 <__swrite>:
  404234:	e92d 41f0 	stmdb	sp!, {r4, r5, r6, r7, r8, lr}
  404238:	4616      	mov	r6, r2
  40423a:	f9b1 200c 	ldrsh.w	r2, [r1, #12]
  40423e:	461f      	mov	r7, r3
  404240:	05d3      	lsls	r3, r2, #23
  404242:	460c      	mov	r4, r1
  404244:	4605      	mov	r5, r0
  404246:	d507      	bpl.n	404258 <__swrite+0x24>
  404248:	2200      	movs	r2, #0
  40424a:	2302      	movs	r3, #2
  40424c:	f9b1 100e 	ldrsh.w	r1, [r1, #14]
  404250:	f000 f9c4 	bl	4045dc <_lseek_r>
  404254:	f9b4 200c 	ldrsh.w	r2, [r4, #12]
  404258:	f9b4 100e 	ldrsh.w	r1, [r4, #14]
  40425c:	f422 5280 	bic.w	r2, r2, #4096	; 0x1000
  404260:	81a2      	strh	r2, [r4, #12]
  404262:	463b      	mov	r3, r7
  404264:	4632      	mov	r2, r6
  404266:	4628      	mov	r0, r5
  404268:	e8bd 41f0 	ldmia.w	sp!, {r4, r5, r6, r7, r8, lr}
  40426c:	f000 b8a4 	b.w	4043b8 <_write_r>

00404270 <__sseek>:
  404270:	b510      	push	{r4, lr}
  404272:	460c      	mov	r4, r1
  404274:	f9b1 100e 	ldrsh.w	r1, [r1, #14]
  404278:	f000 f9b0 	bl	4045dc <_lseek_r>
  40427c:	89a3      	ldrh	r3, [r4, #12]
  40427e:	1c42      	adds	r2, r0, #1
  404280:	bf0e      	itee	eq
  404282:	f423 5380 	biceq.w	r3, r3, #4096	; 0x1000
  404286:	f443 5380 	orrne.w	r3, r3, #4096	; 0x1000
  40428a:	6520      	strne	r0, [r4, #80]	; 0x50
  40428c:	81a3      	strh	r3, [r4, #12]
  40428e:	bd10      	pop	{r4, pc}

00404290 <__sclose>:
  404290:	f9b1 100e 	ldrsh.w	r1, [r1, #14]
  404294:	f000 b908 	b.w	4044a8 <_close_r>

00404298 <__swbuf_r>:
  404298:	b5f8      	push	{r3, r4, r5, r6, r7, lr}
  40429a:	460d      	mov	r5, r1
  40429c:	4614      	mov	r4, r2
  40429e:	4606      	mov	r6, r0
  4042a0:	b110      	cbz	r0, 4042a8 <__swbuf_r+0x10>
  4042a2:	6b83      	ldr	r3, [r0, #56]	; 0x38
  4042a4:	2b00      	cmp	r3, #0
  4042a6:	d04b      	beq.n	404340 <__swbuf_r+0xa8>
  4042a8:	f9b4 200c 	ldrsh.w	r2, [r4, #12]
  4042ac:	69a3      	ldr	r3, [r4, #24]
  4042ae:	60a3      	str	r3, [r4, #8]
  4042b0:	b291      	uxth	r1, r2
  4042b2:	0708      	lsls	r0, r1, #28
  4042b4:	d539      	bpl.n	40432a <__swbuf_r+0x92>
  4042b6:	6923      	ldr	r3, [r4, #16]
  4042b8:	2b00      	cmp	r3, #0
  4042ba:	d036      	beq.n	40432a <__swbuf_r+0x92>
  4042bc:	b2ed      	uxtb	r5, r5
  4042be:	0489      	lsls	r1, r1, #18
  4042c0:	462f      	mov	r7, r5
  4042c2:	d515      	bpl.n	4042f0 <__swbuf_r+0x58>
  4042c4:	6822      	ldr	r2, [r4, #0]
  4042c6:	6961      	ldr	r1, [r4, #20]
  4042c8:	1ad3      	subs	r3, r2, r3
  4042ca:	428b      	cmp	r3, r1
  4042cc:	da1c      	bge.n	404308 <__swbuf_r+0x70>
  4042ce:	3301      	adds	r3, #1
  4042d0:	68a1      	ldr	r1, [r4, #8]
  4042d2:	1c50      	adds	r0, r2, #1
  4042d4:	3901      	subs	r1, #1
  4042d6:	60a1      	str	r1, [r4, #8]
  4042d8:	6020      	str	r0, [r4, #0]
  4042da:	7015      	strb	r5, [r2, #0]
  4042dc:	6962      	ldr	r2, [r4, #20]
  4042de:	429a      	cmp	r2, r3
  4042e0:	d01a      	beq.n	404318 <__swbuf_r+0x80>
  4042e2:	89a3      	ldrh	r3, [r4, #12]
  4042e4:	07db      	lsls	r3, r3, #31
  4042e6:	d501      	bpl.n	4042ec <__swbuf_r+0x54>
  4042e8:	2d0a      	cmp	r5, #10
  4042ea:	d015      	beq.n	404318 <__swbuf_r+0x80>
  4042ec:	4638      	mov	r0, r7
  4042ee:	bdf8      	pop	{r3, r4, r5, r6, r7, pc}
  4042f0:	6e61      	ldr	r1, [r4, #100]	; 0x64
  4042f2:	f442 5200 	orr.w	r2, r2, #8192	; 0x2000
  4042f6:	f421 5100 	bic.w	r1, r1, #8192	; 0x2000
  4042fa:	81a2      	strh	r2, [r4, #12]
  4042fc:	6822      	ldr	r2, [r4, #0]
  4042fe:	6661      	str	r1, [r4, #100]	; 0x64
  404300:	6961      	ldr	r1, [r4, #20]
  404302:	1ad3      	subs	r3, r2, r3
  404304:	428b      	cmp	r3, r1
  404306:	dbe2      	blt.n	4042ce <__swbuf_r+0x36>
  404308:	4621      	mov	r1, r4
  40430a:	4630      	mov	r0, r6
  40430c:	f7fe fda4 	bl	402e58 <_fflush_r>
  404310:	b940      	cbnz	r0, 404324 <__swbuf_r+0x8c>
  404312:	6822      	ldr	r2, [r4, #0]
  404314:	2301      	movs	r3, #1
  404316:	e7db      	b.n	4042d0 <__swbuf_r+0x38>
  404318:	4621      	mov	r1, r4
  40431a:	4630      	mov	r0, r6
  40431c:	f7fe fd9c 	bl	402e58 <_fflush_r>
  404320:	2800      	cmp	r0, #0
  404322:	d0e3      	beq.n	4042ec <__swbuf_r+0x54>
  404324:	f04f 37ff 	mov.w	r7, #4294967295
  404328:	e7e0      	b.n	4042ec <__swbuf_r+0x54>
  40432a:	4621      	mov	r1, r4
  40432c:	4630      	mov	r0, r6
  40432e:	f7fe fc7f 	bl	402c30 <__swsetup_r>
  404332:	2800      	cmp	r0, #0
  404334:	d1f6      	bne.n	404324 <__swbuf_r+0x8c>
  404336:	f9b4 200c 	ldrsh.w	r2, [r4, #12]
  40433a:	6923      	ldr	r3, [r4, #16]
  40433c:	b291      	uxth	r1, r2
  40433e:	e7bd      	b.n	4042bc <__swbuf_r+0x24>
  404340:	f7fe fde2 	bl	402f08 <__sinit>
  404344:	e7b0      	b.n	4042a8 <__swbuf_r+0x10>
  404346:	bf00      	nop

00404348 <_wcrtomb_r>:
  404348:	b5f0      	push	{r4, r5, r6, r7, lr}
  40434a:	4606      	mov	r6, r0
  40434c:	b085      	sub	sp, #20
  40434e:	461f      	mov	r7, r3
  404350:	b189      	cbz	r1, 404376 <_wcrtomb_r+0x2e>
  404352:	4c10      	ldr	r4, [pc, #64]	; (404394 <_wcrtomb_r+0x4c>)
  404354:	4d10      	ldr	r5, [pc, #64]	; (404398 <_wcrtomb_r+0x50>)
  404356:	6824      	ldr	r4, [r4, #0]
  404358:	6b64      	ldr	r4, [r4, #52]	; 0x34
  40435a:	2c00      	cmp	r4, #0
  40435c:	bf08      	it	eq
  40435e:	462c      	moveq	r4, r5
  404360:	f8d4 40e0 	ldr.w	r4, [r4, #224]	; 0xe0
  404364:	47a0      	blx	r4
  404366:	1c43      	adds	r3, r0, #1
  404368:	d103      	bne.n	404372 <_wcrtomb_r+0x2a>
  40436a:	2200      	movs	r2, #0
  40436c:	238a      	movs	r3, #138	; 0x8a
  40436e:	603a      	str	r2, [r7, #0]
  404370:	6033      	str	r3, [r6, #0]
  404372:	b005      	add	sp, #20
  404374:	bdf0      	pop	{r4, r5, r6, r7, pc}
  404376:	460c      	mov	r4, r1
  404378:	4906      	ldr	r1, [pc, #24]	; (404394 <_wcrtomb_r+0x4c>)
  40437a:	4a07      	ldr	r2, [pc, #28]	; (404398 <_wcrtomb_r+0x50>)
  40437c:	6809      	ldr	r1, [r1, #0]
  40437e:	6b49      	ldr	r1, [r1, #52]	; 0x34
  404380:	2900      	cmp	r1, #0
  404382:	bf08      	it	eq
  404384:	4611      	moveq	r1, r2
  404386:	4622      	mov	r2, r4
  404388:	f8d1 40e0 	ldr.w	r4, [r1, #224]	; 0xe0
  40438c:	a901      	add	r1, sp, #4
  40438e:	47a0      	blx	r4
  404390:	e7e9      	b.n	404366 <_wcrtomb_r+0x1e>
  404392:	bf00      	nop
  404394:	20400014 	.word	0x20400014
  404398:	20400444 	.word	0x20400444

0040439c <__ascii_wctomb>:
  40439c:	b121      	cbz	r1, 4043a8 <__ascii_wctomb+0xc>
  40439e:	2aff      	cmp	r2, #255	; 0xff
  4043a0:	d804      	bhi.n	4043ac <__ascii_wctomb+0x10>
  4043a2:	700a      	strb	r2, [r1, #0]
  4043a4:	2001      	movs	r0, #1
  4043a6:	4770      	bx	lr
  4043a8:	4608      	mov	r0, r1
  4043aa:	4770      	bx	lr
  4043ac:	238a      	movs	r3, #138	; 0x8a
  4043ae:	6003      	str	r3, [r0, #0]
  4043b0:	f04f 30ff 	mov.w	r0, #4294967295
  4043b4:	4770      	bx	lr
  4043b6:	bf00      	nop

004043b8 <_write_r>:
  4043b8:	b570      	push	{r4, r5, r6, lr}
  4043ba:	460d      	mov	r5, r1
  4043bc:	4c08      	ldr	r4, [pc, #32]	; (4043e0 <_write_r+0x28>)
  4043be:	4611      	mov	r1, r2
  4043c0:	4606      	mov	r6, r0
  4043c2:	461a      	mov	r2, r3
  4043c4:	4628      	mov	r0, r5
  4043c6:	2300      	movs	r3, #0
  4043c8:	6023      	str	r3, [r4, #0]
  4043ca:	f7fb ffab 	bl	400324 <_write>
  4043ce:	1c43      	adds	r3, r0, #1
  4043d0:	d000      	beq.n	4043d4 <_write_r+0x1c>
  4043d2:	bd70      	pop	{r4, r5, r6, pc}
  4043d4:	6823      	ldr	r3, [r4, #0]
  4043d6:	2b00      	cmp	r3, #0
  4043d8:	d0fb      	beq.n	4043d2 <_write_r+0x1a>
  4043da:	6033      	str	r3, [r6, #0]
  4043dc:	bd70      	pop	{r4, r5, r6, pc}
  4043de:	bf00      	nop
  4043e0:	20400b00 	.word	0x20400b00

004043e4 <__register_exitproc>:
  4043e4:	e92d 43f8 	stmdb	sp!, {r3, r4, r5, r6, r7, r8, r9, lr}
  4043e8:	4d2c      	ldr	r5, [pc, #176]	; (40449c <__register_exitproc+0xb8>)
  4043ea:	4606      	mov	r6, r0
  4043ec:	6828      	ldr	r0, [r5, #0]
  4043ee:	4698      	mov	r8, r3
  4043f0:	460f      	mov	r7, r1
  4043f2:	4691      	mov	r9, r2
  4043f4:	f7ff f948 	bl	403688 <__retarget_lock_acquire_recursive>
  4043f8:	4b29      	ldr	r3, [pc, #164]	; (4044a0 <__register_exitproc+0xbc>)
  4043fa:	681c      	ldr	r4, [r3, #0]
  4043fc:	f8d4 3148 	ldr.w	r3, [r4, #328]	; 0x148
  404400:	2b00      	cmp	r3, #0
  404402:	d03e      	beq.n	404482 <__register_exitproc+0x9e>
  404404:	685a      	ldr	r2, [r3, #4]
  404406:	2a1f      	cmp	r2, #31
  404408:	dc1c      	bgt.n	404444 <__register_exitproc+0x60>
  40440a:	f102 0e01 	add.w	lr, r2, #1
  40440e:	b176      	cbz	r6, 40442e <__register_exitproc+0x4a>
  404410:	eb03 0182 	add.w	r1, r3, r2, lsl #2
  404414:	2401      	movs	r4, #1
  404416:	f8c1 9088 	str.w	r9, [r1, #136]	; 0x88
  40441a:	f8d3 0188 	ldr.w	r0, [r3, #392]	; 0x188
  40441e:	4094      	lsls	r4, r2
  404420:	4320      	orrs	r0, r4
  404422:	2e02      	cmp	r6, #2
  404424:	f8c3 0188 	str.w	r0, [r3, #392]	; 0x188
  404428:	f8c1 8108 	str.w	r8, [r1, #264]	; 0x108
  40442c:	d023      	beq.n	404476 <__register_exitproc+0x92>
  40442e:	3202      	adds	r2, #2
  404430:	f8c3 e004 	str.w	lr, [r3, #4]
  404434:	6828      	ldr	r0, [r5, #0]
  404436:	f843 7022 	str.w	r7, [r3, r2, lsl #2]
  40443a:	f7ff f927 	bl	40368c <__retarget_lock_release_recursive>
  40443e:	2000      	movs	r0, #0
  404440:	e8bd 83f8 	ldmia.w	sp!, {r3, r4, r5, r6, r7, r8, r9, pc}
  404444:	4b17      	ldr	r3, [pc, #92]	; (4044a4 <__register_exitproc+0xc0>)
  404446:	b30b      	cbz	r3, 40448c <__register_exitproc+0xa8>
  404448:	f44f 70c8 	mov.w	r0, #400	; 0x190
  40444c:	f7ff f998 	bl	403780 <malloc>
  404450:	4603      	mov	r3, r0
  404452:	b1d8      	cbz	r0, 40448c <__register_exitproc+0xa8>
  404454:	f8d4 2148 	ldr.w	r2, [r4, #328]	; 0x148
  404458:	6002      	str	r2, [r0, #0]
  40445a:	2100      	movs	r1, #0
  40445c:	6041      	str	r1, [r0, #4]
  40445e:	460a      	mov	r2, r1
  404460:	f8c4 0148 	str.w	r0, [r4, #328]	; 0x148
  404464:	f04f 0e01 	mov.w	lr, #1
  404468:	f8c0 1188 	str.w	r1, [r0, #392]	; 0x188
  40446c:	f8c0 118c 	str.w	r1, [r0, #396]	; 0x18c
  404470:	2e00      	cmp	r6, #0
  404472:	d0dc      	beq.n	40442e <__register_exitproc+0x4a>
  404474:	e7cc      	b.n	404410 <__register_exitproc+0x2c>
  404476:	f8d3 118c 	ldr.w	r1, [r3, #396]	; 0x18c
  40447a:	430c      	orrs	r4, r1
  40447c:	f8c3 418c 	str.w	r4, [r3, #396]	; 0x18c
  404480:	e7d5      	b.n	40442e <__register_exitproc+0x4a>
  404482:	f504 73a6 	add.w	r3, r4, #332	; 0x14c
  404486:	f8c4 3148 	str.w	r3, [r4, #328]	; 0x148
  40448a:	e7bb      	b.n	404404 <__register_exitproc+0x20>
  40448c:	6828      	ldr	r0, [r5, #0]
  40448e:	f7ff f8fd 	bl	40368c <__retarget_lock_release_recursive>
  404492:	f04f 30ff 	mov.w	r0, #4294967295
  404496:	e8bd 83f8 	ldmia.w	sp!, {r3, r4, r5, r6, r7, r8, r9, pc}
  40449a:	bf00      	nop
  40449c:	20400440 	.word	0x20400440
  4044a0:	004046fc 	.word	0x004046fc
  4044a4:	00403781 	.word	0x00403781

004044a8 <_close_r>:
  4044a8:	b538      	push	{r3, r4, r5, lr}
  4044aa:	4c07      	ldr	r4, [pc, #28]	; (4044c8 <_close_r+0x20>)
  4044ac:	2300      	movs	r3, #0
  4044ae:	4605      	mov	r5, r0
  4044b0:	4608      	mov	r0, r1
  4044b2:	6023      	str	r3, [r4, #0]
  4044b4:	f7fc fba2 	bl	400bfc <_close>
  4044b8:	1c43      	adds	r3, r0, #1
  4044ba:	d000      	beq.n	4044be <_close_r+0x16>
  4044bc:	bd38      	pop	{r3, r4, r5, pc}
  4044be:	6823      	ldr	r3, [r4, #0]
  4044c0:	2b00      	cmp	r3, #0
  4044c2:	d0fb      	beq.n	4044bc <_close_r+0x14>
  4044c4:	602b      	str	r3, [r5, #0]
  4044c6:	bd38      	pop	{r3, r4, r5, pc}
  4044c8:	20400b00 	.word	0x20400b00

004044cc <_fclose_r>:
  4044cc:	b570      	push	{r4, r5, r6, lr}
  4044ce:	b159      	cbz	r1, 4044e8 <_fclose_r+0x1c>
  4044d0:	4605      	mov	r5, r0
  4044d2:	460c      	mov	r4, r1
  4044d4:	b110      	cbz	r0, 4044dc <_fclose_r+0x10>
  4044d6:	6b83      	ldr	r3, [r0, #56]	; 0x38
  4044d8:	2b00      	cmp	r3, #0
  4044da:	d03c      	beq.n	404556 <_fclose_r+0x8a>
  4044dc:	6e63      	ldr	r3, [r4, #100]	; 0x64
  4044de:	07d8      	lsls	r0, r3, #31
  4044e0:	d505      	bpl.n	4044ee <_fclose_r+0x22>
  4044e2:	f9b4 300c 	ldrsh.w	r3, [r4, #12]
  4044e6:	b92b      	cbnz	r3, 4044f4 <_fclose_r+0x28>
  4044e8:	2600      	movs	r6, #0
  4044ea:	4630      	mov	r0, r6
  4044ec:	bd70      	pop	{r4, r5, r6, pc}
  4044ee:	89a3      	ldrh	r3, [r4, #12]
  4044f0:	0599      	lsls	r1, r3, #22
  4044f2:	d53c      	bpl.n	40456e <_fclose_r+0xa2>
  4044f4:	4621      	mov	r1, r4
  4044f6:	4628      	mov	r0, r5
  4044f8:	f7fe fc0e 	bl	402d18 <__sflush_r>
  4044fc:	6ae3      	ldr	r3, [r4, #44]	; 0x2c
  4044fe:	4606      	mov	r6, r0
  404500:	b133      	cbz	r3, 404510 <_fclose_r+0x44>
  404502:	69e1      	ldr	r1, [r4, #28]
  404504:	4628      	mov	r0, r5
  404506:	4798      	blx	r3
  404508:	2800      	cmp	r0, #0
  40450a:	bfb8      	it	lt
  40450c:	f04f 36ff 	movlt.w	r6, #4294967295
  404510:	89a3      	ldrh	r3, [r4, #12]
  404512:	061a      	lsls	r2, r3, #24
  404514:	d422      	bmi.n	40455c <_fclose_r+0x90>
  404516:	6b21      	ldr	r1, [r4, #48]	; 0x30
  404518:	b141      	cbz	r1, 40452c <_fclose_r+0x60>
  40451a:	f104 0340 	add.w	r3, r4, #64	; 0x40
  40451e:	4299      	cmp	r1, r3
  404520:	d002      	beq.n	404528 <_fclose_r+0x5c>
  404522:	4628      	mov	r0, r5
  404524:	f7fe fe16 	bl	403154 <_free_r>
  404528:	2300      	movs	r3, #0
  40452a:	6323      	str	r3, [r4, #48]	; 0x30
  40452c:	6c61      	ldr	r1, [r4, #68]	; 0x44
  40452e:	b121      	cbz	r1, 40453a <_fclose_r+0x6e>
  404530:	4628      	mov	r0, r5
  404532:	f7fe fe0f 	bl	403154 <_free_r>
  404536:	2300      	movs	r3, #0
  404538:	6463      	str	r3, [r4, #68]	; 0x44
  40453a:	f7fe fd11 	bl	402f60 <__sfp_lock_acquire>
  40453e:	6e63      	ldr	r3, [r4, #100]	; 0x64
  404540:	2200      	movs	r2, #0
  404542:	07db      	lsls	r3, r3, #31
  404544:	81a2      	strh	r2, [r4, #12]
  404546:	d50e      	bpl.n	404566 <_fclose_r+0x9a>
  404548:	6da0      	ldr	r0, [r4, #88]	; 0x58
  40454a:	f7ff f89b 	bl	403684 <__retarget_lock_close_recursive>
  40454e:	f7fe fd0d 	bl	402f6c <__sfp_lock_release>
  404552:	4630      	mov	r0, r6
  404554:	bd70      	pop	{r4, r5, r6, pc}
  404556:	f7fe fcd7 	bl	402f08 <__sinit>
  40455a:	e7bf      	b.n	4044dc <_fclose_r+0x10>
  40455c:	6921      	ldr	r1, [r4, #16]
  40455e:	4628      	mov	r0, r5
  404560:	f7fe fdf8 	bl	403154 <_free_r>
  404564:	e7d7      	b.n	404516 <_fclose_r+0x4a>
  404566:	6da0      	ldr	r0, [r4, #88]	; 0x58
  404568:	f7ff f890 	bl	40368c <__retarget_lock_release_recursive>
  40456c:	e7ec      	b.n	404548 <_fclose_r+0x7c>
  40456e:	6da0      	ldr	r0, [r4, #88]	; 0x58
  404570:	f7ff f88a 	bl	403688 <__retarget_lock_acquire_recursive>
  404574:	f9b4 300c 	ldrsh.w	r3, [r4, #12]
  404578:	2b00      	cmp	r3, #0
  40457a:	d1bb      	bne.n	4044f4 <_fclose_r+0x28>
  40457c:	6e66      	ldr	r6, [r4, #100]	; 0x64
  40457e:	f016 0601 	ands.w	r6, r6, #1
  404582:	d1b1      	bne.n	4044e8 <_fclose_r+0x1c>
  404584:	6da0      	ldr	r0, [r4, #88]	; 0x58
  404586:	f7ff f881 	bl	40368c <__retarget_lock_release_recursive>
  40458a:	4630      	mov	r0, r6
  40458c:	bd70      	pop	{r4, r5, r6, pc}
  40458e:	bf00      	nop

00404590 <_fstat_r>:
  404590:	b538      	push	{r3, r4, r5, lr}
  404592:	460b      	mov	r3, r1
  404594:	4c07      	ldr	r4, [pc, #28]	; (4045b4 <_fstat_r+0x24>)
  404596:	4605      	mov	r5, r0
  404598:	4611      	mov	r1, r2
  40459a:	4618      	mov	r0, r3
  40459c:	2300      	movs	r3, #0
  40459e:	6023      	str	r3, [r4, #0]
  4045a0:	f7fc fb2f 	bl	400c02 <_fstat>
  4045a4:	1c43      	adds	r3, r0, #1
  4045a6:	d000      	beq.n	4045aa <_fstat_r+0x1a>
  4045a8:	bd38      	pop	{r3, r4, r5, pc}
  4045aa:	6823      	ldr	r3, [r4, #0]
  4045ac:	2b00      	cmp	r3, #0
  4045ae:	d0fb      	beq.n	4045a8 <_fstat_r+0x18>
  4045b0:	602b      	str	r3, [r5, #0]
  4045b2:	bd38      	pop	{r3, r4, r5, pc}
  4045b4:	20400b00 	.word	0x20400b00

004045b8 <_isatty_r>:
  4045b8:	b538      	push	{r3, r4, r5, lr}
  4045ba:	4c07      	ldr	r4, [pc, #28]	; (4045d8 <_isatty_r+0x20>)
  4045bc:	2300      	movs	r3, #0
  4045be:	4605      	mov	r5, r0
  4045c0:	4608      	mov	r0, r1
  4045c2:	6023      	str	r3, [r4, #0]
  4045c4:	f7fc fb22 	bl	400c0c <_isatty>
  4045c8:	1c43      	adds	r3, r0, #1
  4045ca:	d000      	beq.n	4045ce <_isatty_r+0x16>
  4045cc:	bd38      	pop	{r3, r4, r5, pc}
  4045ce:	6823      	ldr	r3, [r4, #0]
  4045d0:	2b00      	cmp	r3, #0
  4045d2:	d0fb      	beq.n	4045cc <_isatty_r+0x14>
  4045d4:	602b      	str	r3, [r5, #0]
  4045d6:	bd38      	pop	{r3, r4, r5, pc}
  4045d8:	20400b00 	.word	0x20400b00

004045dc <_lseek_r>:
  4045dc:	b570      	push	{r4, r5, r6, lr}
  4045de:	460d      	mov	r5, r1
  4045e0:	4c08      	ldr	r4, [pc, #32]	; (404604 <_lseek_r+0x28>)
  4045e2:	4611      	mov	r1, r2
  4045e4:	4606      	mov	r6, r0
  4045e6:	461a      	mov	r2, r3
  4045e8:	4628      	mov	r0, r5
  4045ea:	2300      	movs	r3, #0
  4045ec:	6023      	str	r3, [r4, #0]
  4045ee:	f7fc fb0f 	bl	400c10 <_lseek>
  4045f2:	1c43      	adds	r3, r0, #1
  4045f4:	d000      	beq.n	4045f8 <_lseek_r+0x1c>
  4045f6:	bd70      	pop	{r4, r5, r6, pc}
  4045f8:	6823      	ldr	r3, [r4, #0]
  4045fa:	2b00      	cmp	r3, #0
  4045fc:	d0fb      	beq.n	4045f6 <_lseek_r+0x1a>
  4045fe:	6033      	str	r3, [r6, #0]
  404600:	bd70      	pop	{r4, r5, r6, pc}
  404602:	bf00      	nop
  404604:	20400b00 	.word	0x20400b00

00404608 <_read_r>:
  404608:	b570      	push	{r4, r5, r6, lr}
  40460a:	460d      	mov	r5, r1
  40460c:	4c08      	ldr	r4, [pc, #32]	; (404630 <_read_r+0x28>)
  40460e:	4611      	mov	r1, r2
  404610:	4606      	mov	r6, r0
  404612:	461a      	mov	r2, r3
  404614:	4628      	mov	r0, r5
  404616:	2300      	movs	r3, #0
  404618:	6023      	str	r3, [r4, #0]
  40461a:	f7fb fddb 	bl	4001d4 <_read>
  40461e:	1c43      	adds	r3, r0, #1
  404620:	d000      	beq.n	404624 <_read_r+0x1c>
  404622:	bd70      	pop	{r4, r5, r6, pc}
  404624:	6823      	ldr	r3, [r4, #0]
  404626:	2b00      	cmp	r3, #0
  404628:	d0fb      	beq.n	404622 <_read_r+0x1a>
  40462a:	6033      	str	r3, [r6, #0]
  40462c:	bd70      	pop	{r4, r5, r6, pc}
  40462e:	bf00      	nop
  404630:	20400b00 	.word	0x20400b00
  404634:	00007350 	.word	0x00007350
  404638:	70532d2d 	.word	0x70532d2d
  40463c:	526e2069 	.word	0x526e2069
  404640:	4c343246 	.word	0x4c343246
  404644:	54203130 	.word	0x54203130
  404648:	20747365 	.word	0x20747365
  40464c:	0a0d2d2d 	.word	0x0a0d2d2d
  404650:	53202d2d 	.word	0x53202d2d
  404654:	37454d41 	.word	0x37454d41
  404658:	50582d30 	.word	0x50582d30
  40465c:	2d20444c 	.word	0x2d20444c
  404660:	2d0a0d2d 	.word	0x2d0a0d2d
  404664:	6f43202d 	.word	0x6f43202d
  404668:	6c69706d 	.word	0x6c69706d
  40466c:	203a6465 	.word	0x203a6465
  404670:	206c754a 	.word	0x206c754a
  404674:	32203133 	.word	0x32203133
  404678:	20303230 	.word	0x20303230
  40467c:	313a3030 	.word	0x313a3030
  404680:	32313a31 	.word	0x32313a31
  404684:	0d2d2d20 	.word	0x0d2d2d20
  404688:	00000000 	.word	0x00000000
  40468c:	74746553 	.word	0x74746553
  404690:	20676e69 	.word	0x20676e69
  404694:	20495053 	.word	0x20495053
  404698:	636f6c63 	.word	0x636f6c63
  40469c:	2523206b 	.word	0x2523206b
  4046a0:	2e20756c 	.word	0x2e20756c
  4046a4:	0a202e2e 	.word	0x0a202e2e
  4046a8:	0000000d 	.word	0x0000000d
  4046ac:	202d492d 	.word	0x202d492d
  4046b0:	74696e49 	.word	0x74696e49
  4046b4:	696c6169 	.word	0x696c6169
  4046b8:	5320657a 	.word	0x5320657a
  4046bc:	61204950 	.word	0x61204950
  4046c0:	616d2073 	.word	0x616d2073
  4046c4:	72657473 	.word	0x72657473
  4046c8:	0000000d 	.word	0x0000000d
  4046cc:	6e617274 	.word	0x6e617274
  4046d0:	73696d73 	.word	0x73696d73
  4046d4:	6e6f6973 	.word	0x6e6f6973
  4046d8:	69616620 	.word	0x69616620
  4046dc:	2064656c 	.word	0x2064656c
  4046e0:	00000d0a 	.word	0x00000d0a

004046e4 <pipe_enable_s>:
  4046e4:	03020100 00000504                       ........

004046ec <pipe_s>:
  4046ec:	0d0c0b0a 00000f0e                       ........

004046f4 <pipe_size_s>:
  4046f4:	14131211 00001615                       ........

004046fc <_global_impure_ptr>:
  4046fc:	20400018 0000000a 33323130 37363534     ..@ ....01234567
  40470c:	42413938 46454443 00000000 33323130     89ABCDEF....0123
  40471c:	37363534 62613938 66656463 00000000     456789abcdef....
  40472c:	6c756e28 0000296c                       (null)..

00404734 <blanks.7217>:
  404734:	20202020 20202020 20202020 20202020                     

00404744 <zeroes.7218>:
  404744:	30303030 30303030 30303030 30303030     0000000000000000
  404754:	00000043 49534f50 00000058 0000002e     C...POSIX.......

00404764 <_ctype_>:
  404764:	20202000 20202020 28282020 20282828     .         ((((( 
  404774:	20202020 20202020 20202020 20202020                     
  404784:	10108820 10101010 10101010 10101010      ...............
  404794:	04040410 04040404 10040404 10101010     ................
  4047a4:	41411010 41414141 01010101 01010101     ..AAAAAA........
  4047b4:	01010101 01010101 01010101 10101010     ................
  4047c4:	42421010 42424242 02020202 02020202     ..BBBBBB........
  4047d4:	02020202 02020202 02020202 10101010     ................
  4047e4:	00000020 00000000 00000000 00000000      ...............
	...

00404868 <_init>:
  404868:	b5f8      	push	{r3, r4, r5, r6, r7, lr}
  40486a:	bf00      	nop
  40486c:	bcf8      	pop	{r3, r4, r5, r6, r7}
  40486e:	bc08      	pop	{r3}
  404870:	469e      	mov	lr, r3
  404872:	4770      	bx	lr

00404874 <__init_array_start>:
  404874:	00402cf9 	.word	0x00402cf9

00404878 <__frame_dummy_init_array_entry>:
  404878:	0040018d                                ..@.

0040487c <_fini>:
  40487c:	b5f8      	push	{r3, r4, r5, r6, r7, lr}
  40487e:	bf00      	nop
  404880:	bcf8      	pop	{r3, r4, r5, r6, r7}
  404882:	bc08      	pop	{r3}
  404884:	469e      	mov	lr, r3
  404886:	4770      	bx	lr

00404888 <__fini_array_start>:
  404888:	00400169 	.word	0x00400169

Disassembly of section .relocate:

20400000 <portable_delay_cycles>:
RAMFUNC
void portable_delay_cycles(unsigned long n)
{
	UNUSED(n);

	__asm (
20400000:	f3bf 8f5f 	dmb	sy
20400004:	3801      	subs	r0, #1
20400006:	d1fb      	bne.n	20400000 <portable_delay_cycles>
20400008:	4770      	bx	lr

2040000a <g_interrupt_enabled>:
2040000a:	0001                                        ..

2040000c <SystemCoreClock>:
2040000c:	0900 003d                                   ..=.

20400010 <addr_width>:
20400010:	2005                                             .

20400011 <payload_size>:
20400011:	0020 1800                                         ..

20400014 <_impure_ptr>:
20400014:	0018 2040                                   ..@ 

20400018 <impure_data>:
20400018:	0000 0000 0304 2040 036c 2040 03d4 2040     ......@ l.@ ..@ 
	...
204000c0:	0001 0000 0000 0000 330e abcd 1234 e66d     .........3..4.m.
204000d0:	deec 0005 000b 0000 0000 0000 0000 0000     ................
	...

20400440 <__atexit_recursive_mutex>:
20400440:	0adc 2040                                   ..@ 

20400444 <__global_locale>:
20400444:	0043 0000 0000 0000 0000 0000 0000 0000     C...............
	...
20400464:	0043 0000 0000 0000 0000 0000 0000 0000     C...............
	...
20400484:	0043 0000 0000 0000 0000 0000 0000 0000     C...............
	...
204004a4:	0043 0000 0000 0000 0000 0000 0000 0000     C...............
	...
204004c4:	0043 0000 0000 0000 0000 0000 0000 0000     C...............
	...
204004e4:	0043 0000 0000 0000 0000 0000 0000 0000     C...............
	...
20400504:	0043 0000 0000 0000 0000 0000 0000 0000     C...............
	...
20400524:	439d 0040 3cf1 0040 0000 0000 4764 0040     .C@..<@.....dG@.
20400534:	4760 0040 4688 0040 4688 0040 4688 0040     `G@..F@..F@..F@.
20400544:	4688 0040 4688 0040 4688 0040 4688 0040     .F@..F@..F@..F@.
20400554:	4688 0040 4688 0040 ffff ffff ffff ffff     .F@..F@.........
20400564:	ffff ffff ffff 0000 0001 5341 4943 0049     ..........ASCII.
	...
2040058c:	0000 5341 4943 0049 0000 0000 0000 0000     ..ASCII.........
	...

204005b0 <__malloc_av_>:
	...
204005b8:	05b0 2040 05b0 2040 05b8 2040 05b8 2040     ..@ ..@ ..@ ..@ 
204005c8:	05c0 2040 05c0 2040 05c8 2040 05c8 2040     ..@ ..@ ..@ ..@ 
204005d8:	05d0 2040 05d0 2040 05d8 2040 05d8 2040     ..@ ..@ ..@ ..@ 
204005e8:	05e0 2040 05e0 2040 05e8 2040 05e8 2040     ..@ ..@ ..@ ..@ 
204005f8:	05f0 2040 05f0 2040 05f8 2040 05f8 2040     ..@ ..@ ..@ ..@ 
20400608:	0600 2040 0600 2040 0608 2040 0608 2040     ..@ ..@ ..@ ..@ 
20400618:	0610 2040 0610 2040 0618 2040 0618 2040     ..@ ..@ ..@ ..@ 
20400628:	0620 2040 0620 2040 0628 2040 0628 2040      .@  .@ (.@ (.@ 
20400638:	0630 2040 0630 2040 0638 2040 0638 2040     0.@ 0.@ 8.@ 8.@ 
20400648:	0640 2040 0640 2040 0648 2040 0648 2040     @.@ @.@ H.@ H.@ 
20400658:	0650 2040 0650 2040 0658 2040 0658 2040     P.@ P.@ X.@ X.@ 
20400668:	0660 2040 0660 2040 0668 2040 0668 2040     `.@ `.@ h.@ h.@ 
20400678:	0670 2040 0670 2040 0678 2040 0678 2040     p.@ p.@ x.@ x.@ 
20400688:	0680 2040 0680 2040 0688 2040 0688 2040     ..@ ..@ ..@ ..@ 
20400698:	0690 2040 0690 2040 0698 2040 0698 2040     ..@ ..@ ..@ ..@ 
204006a8:	06a0 2040 06a0 2040 06a8 2040 06a8 2040     ..@ ..@ ..@ ..@ 
204006b8:	06b0 2040 06b0 2040 06b8 2040 06b8 2040     ..@ ..@ ..@ ..@ 
204006c8:	06c0 2040 06c0 2040 06c8 2040 06c8 2040     ..@ ..@ ..@ ..@ 
204006d8:	06d0 2040 06d0 2040 06d8 2040 06d8 2040     ..@ ..@ ..@ ..@ 
204006e8:	06e0 2040 06e0 2040 06e8 2040 06e8 2040     ..@ ..@ ..@ ..@ 
204006f8:	06f0 2040 06f0 2040 06f8 2040 06f8 2040     ..@ ..@ ..@ ..@ 
20400708:	0700 2040 0700 2040 0708 2040 0708 2040     ..@ ..@ ..@ ..@ 
20400718:	0710 2040 0710 2040 0718 2040 0718 2040     ..@ ..@ ..@ ..@ 
20400728:	0720 2040 0720 2040 0728 2040 0728 2040      .@  .@ (.@ (.@ 
20400738:	0730 2040 0730 2040 0738 2040 0738 2040     0.@ 0.@ 8.@ 8.@ 
20400748:	0740 2040 0740 2040 0748 2040 0748 2040     @.@ @.@ H.@ H.@ 
20400758:	0750 2040 0750 2040 0758 2040 0758 2040     P.@ P.@ X.@ X.@ 
20400768:	0760 2040 0760 2040 0768 2040 0768 2040     `.@ `.@ h.@ h.@ 
20400778:	0770 2040 0770 2040 0778 2040 0778 2040     p.@ p.@ x.@ x.@ 
20400788:	0780 2040 0780 2040 0788 2040 0788 2040     ..@ ..@ ..@ ..@ 
20400798:	0790 2040 0790 2040 0798 2040 0798 2040     ..@ ..@ ..@ ..@ 
204007a8:	07a0 2040 07a0 2040 07a8 2040 07a8 2040     ..@ ..@ ..@ ..@ 
204007b8:	07b0 2040 07b0 2040 07b8 2040 07b8 2040     ..@ ..@ ..@ ..@ 
204007c8:	07c0 2040 07c0 2040 07c8 2040 07c8 2040     ..@ ..@ ..@ ..@ 
204007d8:	07d0 2040 07d0 2040 07d8 2040 07d8 2040     ..@ ..@ ..@ ..@ 
204007e8:	07e0 2040 07e0 2040 07e8 2040 07e8 2040     ..@ ..@ ..@ ..@ 
204007f8:	07f0 2040 07f0 2040 07f8 2040 07f8 2040     ..@ ..@ ..@ ..@ 
20400808:	0800 2040 0800 2040 0808 2040 0808 2040     ..@ ..@ ..@ ..@ 
20400818:	0810 2040 0810 2040 0818 2040 0818 2040     ..@ ..@ ..@ ..@ 
20400828:	0820 2040 0820 2040 0828 2040 0828 2040      .@  .@ (.@ (.@ 
20400838:	0830 2040 0830 2040 0838 2040 0838 2040     0.@ 0.@ 8.@ 8.@ 
20400848:	0840 2040 0840 2040 0848 2040 0848 2040     @.@ @.@ H.@ H.@ 
20400858:	0850 2040 0850 2040 0858 2040 0858 2040     P.@ P.@ X.@ X.@ 
20400868:	0860 2040 0860 2040 0868 2040 0868 2040     `.@ `.@ h.@ h.@ 
20400878:	0870 2040 0870 2040 0878 2040 0878 2040     p.@ p.@ x.@ x.@ 
20400888:	0880 2040 0880 2040 0888 2040 0888 2040     ..@ ..@ ..@ ..@ 
20400898:	0890 2040 0890 2040 0898 2040 0898 2040     ..@ ..@ ..@ ..@ 
204008a8:	08a0 2040 08a0 2040 08a8 2040 08a8 2040     ..@ ..@ ..@ ..@ 
204008b8:	08b0 2040 08b0 2040 08b8 2040 08b8 2040     ..@ ..@ ..@ ..@ 
204008c8:	08c0 2040 08c0 2040 08c8 2040 08c8 2040     ..@ ..@ ..@ ..@ 
204008d8:	08d0 2040 08d0 2040 08d8 2040 08d8 2040     ..@ ..@ ..@ ..@ 
204008e8:	08e0 2040 08e0 2040 08e8 2040 08e8 2040     ..@ ..@ ..@ ..@ 
204008f8:	08f0 2040 08f0 2040 08f8 2040 08f8 2040     ..@ ..@ ..@ ..@ 
20400908:	0900 2040 0900 2040 0908 2040 0908 2040     ..@ ..@ ..@ ..@ 
20400918:	0910 2040 0910 2040 0918 2040 0918 2040     ..@ ..@ ..@ ..@ 
20400928:	0920 2040 0920 2040 0928 2040 0928 2040      .@  .@ (.@ (.@ 
20400938:	0930 2040 0930 2040 0938 2040 0938 2040     0.@ 0.@ 8.@ 8.@ 
20400948:	0940 2040 0940 2040 0948 2040 0948 2040     @.@ @.@ H.@ H.@ 
20400958:	0950 2040 0950 2040 0958 2040 0958 2040     P.@ P.@ X.@ X.@ 
20400968:	0960 2040 0960 2040 0968 2040 0968 2040     `.@ `.@ h.@ h.@ 
20400978:	0970 2040 0970 2040 0978 2040 0978 2040     p.@ p.@ x.@ x.@ 
20400988:	0980 2040 0980 2040 0988 2040 0988 2040     ..@ ..@ ..@ ..@ 
20400998:	0990 2040 0990 2040 0998 2040 0998 2040     ..@ ..@ ..@ ..@ 
204009a8:	09a0 2040 09a0 2040 09a8 2040 09a8 2040     ..@ ..@ ..@ ..@ 

204009b8 <__malloc_sbrk_base>:
204009b8:	ffff ffff                                   ....

204009bc <__malloc_trim_threshold>:
204009bc:	0000 0002                                   ....
