
nRF24L01_SPI.elf:     file format elf32-littlearm

Sections:
Idx Name          Size      VMA       LMA       File off  Algn
  0 .text         00004d84  00400000  00400000  00010000  2**6
                  CONTENTS, ALLOC, LOAD, READONLY, CODE
  1 .ARM.exidx    00000008  00404d84  00404d84  00014d84  2**2
                  CONTENTS, ALLOC, LOAD, READONLY, DATA
  2 .relocate     000009c0  20400000  00404d8c  00020000  2**3
                  CONTENTS, ALLOC, LOAD, CODE
  3 .bss          00000120  204009c0  0040574c  000209c0  2**2
                  ALLOC
  4 .stack        00002000  20400ae0  0040586c  000209c0  2**0
                  ALLOC
  5 .heap         00000200  20402ae0  0040786c  000209c0  2**0
                  ALLOC
  6 .ARM.attributes 0000002e  00000000  00000000  000209c0  2**0
                  CONTENTS, READONLY
  7 .comment      00000059  00000000  00000000  000209ee  2**0
                  CONTENTS, READONLY
  8 .debug_info   00017034  00000000  00000000  00020a47  2**0
                  CONTENTS, READONLY, DEBUGGING
  9 .debug_abbrev 00002f3f  00000000  00000000  00037a7b  2**0
                  CONTENTS, READONLY, DEBUGGING
 10 .debug_aranges 00000b98  00000000  00000000  0003a9ba  2**0
                  CONTENTS, READONLY, DEBUGGING
 11 .debug_ranges 00000bb8  00000000  00000000  0003b552  2**0
                  CONTENTS, READONLY, DEBUGGING
 12 .debug_macro  0002023f  00000000  00000000  0003c10a  2**0
                  CONTENTS, READONLY, DEBUGGING
 13 .debug_line   0000bf7d  00000000  00000000  0005c349  2**0
                  CONTENTS, READONLY, DEBUGGING
 14 .debug_str    00094d40  00000000  00000000  000682c6  2**0
                  CONTENTS, READONLY, DEBUGGING
 15 .debug_frame  00002728  00000000  00000000  000fd008  2**2
                  CONTENTS, READONLY, DEBUGGING
 16 .debug_loc    000058a1  00000000  00000000  000ff730  2**0
                  CONTENTS, READONLY, DEBUGGING

Disassembly of section .text:

00400000 <exception_table>:
  400000:	e0 2a 40 20 65 09 40 00 61 09 40 00 61 09 40 00     .*@ e.@.a.@.a.@.
  400010:	61 09 40 00 61 09 40 00 61 09 40 00 00 00 00 00     a.@.a.@.a.@.....
	...
  40002c:	61 09 40 00 61 09 40 00 00 00 00 00 61 09 40 00     a.@.a.@.....a.@.
  40003c:	61 09 40 00 61 09 40 00 61 09 40 00 61 09 40 00     a.@.a.@.a.@.a.@.
  40004c:	61 09 40 00 61 09 40 00 61 09 40 00 61 09 40 00     a.@.a.@.a.@.a.@.
  40005c:	61 09 40 00 61 09 40 00 00 00 00 00 bd 07 40 00     a.@.a.@.......@.
  40006c:	d1 07 40 00 e5 07 40 00 61 09 40 00 61 09 40 00     ..@...@.a.@.a.@.
  40007c:	61 09 40 00 f9 07 40 00 0d 08 40 00 61 09 40 00     a.@...@...@.a.@.
  40008c:	61 09 40 00 61 09 40 00 61 09 40 00 61 09 40 00     a.@.a.@.a.@.a.@.
  40009c:	61 09 40 00 61 09 40 00 61 09 40 00 61 09 40 00     a.@.a.@.a.@.a.@.
  4000ac:	61 09 40 00 61 09 40 00 61 09 40 00 61 09 40 00     a.@.a.@.a.@.a.@.
  4000bc:	61 09 40 00 61 09 40 00 61 09 40 00 61 09 40 00     a.@.a.@.a.@.a.@.
  4000cc:	61 09 40 00 61 09 40 00 61 09 40 00 61 09 40 00     a.@.a.@.a.@.a.@.
  4000dc:	61 09 40 00 61 09 40 00 61 09 40 00 61 09 40 00     a.@.a.@.a.@.a.@.
  4000ec:	61 09 40 00 61 09 40 00 61 09 40 00 61 09 40 00     a.@.a.@.a.@.a.@.
  4000fc:	61 09 40 00 61 09 40 00 61 09 40 00 61 09 40 00     a.@.a.@.a.@.a.@.
  40010c:	61 09 40 00 61 09 40 00 00 00 00 00 00 00 00 00     a.@.a.@.........
  40011c:	00 00 00 00 61 09 40 00 61 09 40 00 61 09 40 00     ....a.@.a.@.a.@.
  40012c:	61 09 40 00 61 09 40 00 61 09 40 00 61 09 40 00     a.@.a.@.a.@.a.@.
  40013c:	61 09 40 00 61 09 40 00 61 09 40 00 61 09 40 00     a.@.a.@.a.@.a.@.
  40014c:	61 09 40 00 61 09 40 00 61 09 40 00 61 09 40 00     a.@.a.@.a.@.a.@.
  40015c:	61 09 40 00 61 09 40 00 61 09 40 00                 a.@.a.@.a.@.

00400168 <__do_global_dtors_aux>:
  400168:	b510      	push	{r4, lr}
  40016a:	4c05      	ldr	r4, [pc, #20]	; (400180 <__do_global_dtors_aux+0x18>)
  40016c:	7823      	ldrb	r3, [r4, #0]
  40016e:	b933      	cbnz	r3, 40017e <__do_global_dtors_aux+0x16>
  400170:	4b04      	ldr	r3, [pc, #16]	; (400184 <__do_global_dtors_aux+0x1c>)
  400172:	b113      	cbz	r3, 40017a <__do_global_dtors_aux+0x12>
  400174:	4804      	ldr	r0, [pc, #16]	; (400188 <__do_global_dtors_aux+0x20>)
  400176:	f3af 8000 	nop.w
  40017a:	2301      	movs	r3, #1
  40017c:	7023      	strb	r3, [r4, #0]
  40017e:	bd10      	pop	{r4, pc}
  400180:	204009c0 	.word	0x204009c0
  400184:	00000000 	.word	0x00000000
  400188:	00404d8c 	.word	0x00404d8c

0040018c <frame_dummy>:
  40018c:	4b0c      	ldr	r3, [pc, #48]	; (4001c0 <frame_dummy+0x34>)
  40018e:	b143      	cbz	r3, 4001a2 <frame_dummy+0x16>
  400190:	480c      	ldr	r0, [pc, #48]	; (4001c4 <frame_dummy+0x38>)
  400192:	490d      	ldr	r1, [pc, #52]	; (4001c8 <frame_dummy+0x3c>)
  400194:	b510      	push	{r4, lr}
  400196:	f3af 8000 	nop.w
  40019a:	480c      	ldr	r0, [pc, #48]	; (4001cc <frame_dummy+0x40>)
  40019c:	6803      	ldr	r3, [r0, #0]
  40019e:	b923      	cbnz	r3, 4001aa <frame_dummy+0x1e>
  4001a0:	bd10      	pop	{r4, pc}
  4001a2:	480a      	ldr	r0, [pc, #40]	; (4001cc <frame_dummy+0x40>)
  4001a4:	6803      	ldr	r3, [r0, #0]
  4001a6:	b933      	cbnz	r3, 4001b6 <frame_dummy+0x2a>
  4001a8:	4770      	bx	lr
  4001aa:	4b09      	ldr	r3, [pc, #36]	; (4001d0 <frame_dummy+0x44>)
  4001ac:	2b00      	cmp	r3, #0
  4001ae:	d0f7      	beq.n	4001a0 <frame_dummy+0x14>
  4001b0:	e8bd 4010 	ldmia.w	sp!, {r4, lr}
  4001b4:	4718      	bx	r3
  4001b6:	4b06      	ldr	r3, [pc, #24]	; (4001d0 <frame_dummy+0x44>)
  4001b8:	2b00      	cmp	r3, #0
  4001ba:	d0f5      	beq.n	4001a8 <frame_dummy+0x1c>
  4001bc:	4718      	bx	r3
  4001be:	bf00      	nop
  4001c0:	00000000 	.word	0x00000000
  4001c4:	00404d8c 	.word	0x00404d8c
  4001c8:	204009c4 	.word	0x204009c4
  4001cc:	00404d8c 	.word	0x00404d8c
  4001d0:	00000000 	.word	0x00000000

004001d4 <_read>:
int __attribute__((weak))
_read (int file, char * ptr, int len); // Remove GCC compiler warning

int __attribute__((weak))
_read (int file, char * ptr, int len)
{
  4001d4:	e92d 41f0 	stmdb	sp!, {r4, r5, r6, r7, r8, lr}
	int nChars = 0;

	if (file != 0) {
  4001d8:	b980      	cbnz	r0, 4001fc <_read+0x28>
  4001da:	460c      	mov	r4, r1
  4001dc:	4690      	mov	r8, r2
		return -1;
	}

	for (; len > 0; --len) {
  4001de:	2a00      	cmp	r2, #0
  4001e0:	dd0f      	ble.n	400202 <_read+0x2e>
  4001e2:	188f      	adds	r7, r1, r2
		ptr_get(stdio_base, ptr);
  4001e4:	4e08      	ldr	r6, [pc, #32]	; (400208 <_read+0x34>)
  4001e6:	4d09      	ldr	r5, [pc, #36]	; (40020c <_read+0x38>)
  4001e8:	6830      	ldr	r0, [r6, #0]
  4001ea:	4621      	mov	r1, r4
  4001ec:	682b      	ldr	r3, [r5, #0]
  4001ee:	4798      	blx	r3
		ptr++;
  4001f0:	3401      	adds	r4, #1
	for (; len > 0; --len) {
  4001f2:	42bc      	cmp	r4, r7
  4001f4:	d1f8      	bne.n	4001e8 <_read+0x14>
		nChars++;
	}
	return nChars;
}
  4001f6:	4640      	mov	r0, r8
  4001f8:	e8bd 81f0 	ldmia.w	sp!, {r4, r5, r6, r7, r8, pc}
		return -1;
  4001fc:	f04f 38ff 	mov.w	r8, #4294967295
  400200:	e7f9      	b.n	4001f6 <_read+0x22>
	for (; len > 0; --len) {
  400202:	4680      	mov	r8, r0
  400204:	e7f7      	b.n	4001f6 <_read+0x22>
  400206:	bf00      	nop
  400208:	20400a94 	.word	0x20400a94
  40020c:	20400a8c 	.word	0x20400a8c

00400210 <usart_set_async_baudrate>:
 * \retval 1 Baud rate set point is out of range for the given input clock
 * frequency.
 */
uint32_t usart_set_async_baudrate(Usart *p_usart,
		uint32_t baudrate, uint32_t ul_mck)
{
  400210:	b410      	push	{r4}
	uint32_t cd_fp;
	uint32_t cd;
	uint32_t fp;

	/* Calculate the receiver sampling divide of baudrate clock. */
	if (ul_mck >= HIGH_FRQ_SAMPLE_DIV * baudrate) {
  400212:	010b      	lsls	r3, r1, #4
  400214:	4293      	cmp	r3, r2
  400216:	d914      	bls.n	400242 <usart_set_async_baudrate+0x32>
	} else {
		over = LOW_FRQ_SAMPLE_DIV;
	}

	/* Calculate clock divider according to the fraction calculated formula. */
	cd_fp = (8 * ul_mck + (over * baudrate) / 2) / (over * baudrate);
  400218:	00c9      	lsls	r1, r1, #3
  40021a:	084b      	lsrs	r3, r1, #1
  40021c:	eb03 02c2 	add.w	r2, r3, r2, lsl #3
  400220:	fbb2 f2f1 	udiv	r2, r2, r1
	cd = cd_fp >> 3;
  400224:	08d3      	lsrs	r3, r2, #3
	fp = cd_fp & 0x07;
	if (cd < MIN_CD_VALUE || cd > MAX_CD_VALUE) {
  400226:	1e5c      	subs	r4, r3, #1
  400228:	f64f 71fe 	movw	r1, #65534	; 0xfffe
  40022c:	428c      	cmp	r4, r1
  40022e:	d901      	bls.n	400234 <usart_set_async_baudrate+0x24>
		return 1;
  400230:	2001      	movs	r0, #1
  400232:	e017      	b.n	400264 <usart_set_async_baudrate+0x54>
	}

	/* Configure the OVER bit in MR register. */
	if (over == 8) {
		p_usart->US_MR |= US_MR_OVER;
  400234:	6841      	ldr	r1, [r0, #4]
  400236:	f441 2100 	orr.w	r1, r1, #524288	; 0x80000
  40023a:	6041      	str	r1, [r0, #4]
  40023c:	e00c      	b.n	400258 <usart_set_async_baudrate+0x48>
		return 1;
  40023e:	2001      	movs	r0, #1
  400240:	e010      	b.n	400264 <usart_set_async_baudrate+0x54>
	cd_fp = (8 * ul_mck + (over * baudrate) / 2) / (over * baudrate);
  400242:	0859      	lsrs	r1, r3, #1
  400244:	eb01 02c2 	add.w	r2, r1, r2, lsl #3
  400248:	fbb2 f2f3 	udiv	r2, r2, r3
	cd = cd_fp >> 3;
  40024c:	08d3      	lsrs	r3, r2, #3
	if (cd < MIN_CD_VALUE || cd > MAX_CD_VALUE) {
  40024e:	1e5c      	subs	r4, r3, #1
  400250:	f64f 71fe 	movw	r1, #65534	; 0xfffe
  400254:	428c      	cmp	r4, r1
  400256:	d8f2      	bhi.n	40023e <usart_set_async_baudrate+0x2e>
	}

	/* Configure the baudrate generate register. */
	p_usart->US_BRGR = (cd << US_BRGR_CD_Pos) | (fp << US_BRGR_FP_Pos);
  400258:	0412      	lsls	r2, r2, #16
  40025a:	f402 22e0 	and.w	r2, r2, #458752	; 0x70000
  40025e:	431a      	orrs	r2, r3
  400260:	6202      	str	r2, [r0, #32]

	return 0;
  400262:	2000      	movs	r0, #0
}
  400264:	f85d 4b04 	ldr.w	r4, [sp], #4
  400268:	4770      	bx	lr
	...

0040026c <usart_reset>:
 *
 * \param p_usart Pointer to a USART instance.
 */
void usart_disable_writeprotect(Usart *p_usart)
{
	p_usart->US_WPMR = US_WPMR_WPKEY_PASSWD;
  40026c:	4b08      	ldr	r3, [pc, #32]	; (400290 <usart_reset+0x24>)
  40026e:	f8c0 30e4 	str.w	r3, [r0, #228]	; 0xe4
	p_usart->US_MR = 0;
  400272:	2300      	movs	r3, #0
  400274:	6043      	str	r3, [r0, #4]
	p_usart->US_RTOR = 0;
  400276:	6243      	str	r3, [r0, #36]	; 0x24
	p_usart->US_TTGR = 0;
  400278:	6283      	str	r3, [r0, #40]	; 0x28
	p_usart->US_CR = US_CR_RSTTX | US_CR_TXDIS;
  40027a:	2388      	movs	r3, #136	; 0x88
  40027c:	6003      	str	r3, [r0, #0]
	p_usart->US_CR = US_CR_RSTRX | US_CR_RXDIS;
  40027e:	2324      	movs	r3, #36	; 0x24
  400280:	6003      	str	r3, [r0, #0]
	p_usart->US_CR = US_CR_RSTSTA;
  400282:	f44f 7380 	mov.w	r3, #256	; 0x100
  400286:	6003      	str	r3, [r0, #0]
	p_usart->US_CR = US_CR_RTSDIS;
  400288:	f44f 2300 	mov.w	r3, #524288	; 0x80000
  40028c:	6003      	str	r3, [r0, #0]
  40028e:	4770      	bx	lr
  400290:	55534100 	.word	0x55534100

00400294 <usart_init_rs232>:
{
  400294:	b570      	push	{r4, r5, r6, lr}
  400296:	4605      	mov	r5, r0
  400298:	460c      	mov	r4, r1
  40029a:	4616      	mov	r6, r2
	usart_reset(p_usart);
  40029c:	4b0f      	ldr	r3, [pc, #60]	; (4002dc <usart_init_rs232+0x48>)
  40029e:	4798      	blx	r3
	ul_reg_val = 0;
  4002a0:	2200      	movs	r2, #0
  4002a2:	4b0f      	ldr	r3, [pc, #60]	; (4002e0 <usart_init_rs232+0x4c>)
  4002a4:	601a      	str	r2, [r3, #0]
	if (!p_usart_opt || usart_set_async_baudrate(p_usart,
  4002a6:	b1a4      	cbz	r4, 4002d2 <usart_init_rs232+0x3e>
  4002a8:	4632      	mov	r2, r6
  4002aa:	6821      	ldr	r1, [r4, #0]
  4002ac:	4628      	mov	r0, r5
  4002ae:	4b0d      	ldr	r3, [pc, #52]	; (4002e4 <usart_init_rs232+0x50>)
  4002b0:	4798      	blx	r3
  4002b2:	4602      	mov	r2, r0
  4002b4:	b978      	cbnz	r0, 4002d6 <usart_init_rs232+0x42>
	ul_reg_val |= p_usart_opt->char_length | p_usart_opt->parity_type |
  4002b6:	6863      	ldr	r3, [r4, #4]
  4002b8:	68a1      	ldr	r1, [r4, #8]
  4002ba:	430b      	orrs	r3, r1
  4002bc:	6921      	ldr	r1, [r4, #16]
  4002be:	430b      	orrs	r3, r1
			p_usart_opt->channel_mode | p_usart_opt->stop_bits;
  4002c0:	68e1      	ldr	r1, [r4, #12]
  4002c2:	430b      	orrs	r3, r1
	ul_reg_val |= p_usart_opt->char_length | p_usart_opt->parity_type |
  4002c4:	4906      	ldr	r1, [pc, #24]	; (4002e0 <usart_init_rs232+0x4c>)
  4002c6:	600b      	str	r3, [r1, #0]
	p_usart->US_MR |= ul_reg_val;
  4002c8:	6869      	ldr	r1, [r5, #4]
  4002ca:	430b      	orrs	r3, r1
  4002cc:	606b      	str	r3, [r5, #4]
}
  4002ce:	4610      	mov	r0, r2
  4002d0:	bd70      	pop	{r4, r5, r6, pc}
		return 1;
  4002d2:	2201      	movs	r2, #1
  4002d4:	e7fb      	b.n	4002ce <usart_init_rs232+0x3a>
  4002d6:	2201      	movs	r2, #1
  4002d8:	e7f9      	b.n	4002ce <usart_init_rs232+0x3a>
  4002da:	bf00      	nop
  4002dc:	0040026d 	.word	0x0040026d
  4002e0:	204009dc 	.word	0x204009dc
  4002e4:	00400211 	.word	0x00400211

004002e8 <usart_enable_tx>:
	p_usart->US_CR = US_CR_TXEN;
  4002e8:	2340      	movs	r3, #64	; 0x40
  4002ea:	6003      	str	r3, [r0, #0]
  4002ec:	4770      	bx	lr

004002ee <usart_enable_rx>:
	p_usart->US_CR = US_CR_RXEN;
  4002ee:	2310      	movs	r3, #16
  4002f0:	6003      	str	r3, [r0, #0]
  4002f2:	4770      	bx	lr

004002f4 <usart_write>:
	if (!(p_usart->US_CSR & US_CSR_TXRDY)) {
  4002f4:	6943      	ldr	r3, [r0, #20]
  4002f6:	f013 0f02 	tst.w	r3, #2
  4002fa:	d004      	beq.n	400306 <usart_write+0x12>
	p_usart->US_THR = US_THR_TXCHR(c);
  4002fc:	f3c1 0108 	ubfx	r1, r1, #0, #9
  400300:	61c1      	str	r1, [r0, #28]
	return 0;
  400302:	2000      	movs	r0, #0
  400304:	4770      	bx	lr
		return 1;
  400306:	2001      	movs	r0, #1
}
  400308:	4770      	bx	lr

0040030a <usart_read>:
	if (!(p_usart->US_CSR & US_CSR_RXRDY)) {
  40030a:	6943      	ldr	r3, [r0, #20]
  40030c:	f013 0f01 	tst.w	r3, #1
  400310:	d005      	beq.n	40031e <usart_read+0x14>
	*c = p_usart->US_RHR & US_RHR_RXCHR_Msk;
  400312:	6983      	ldr	r3, [r0, #24]
  400314:	f3c3 0308 	ubfx	r3, r3, #0, #9
  400318:	600b      	str	r3, [r1, #0]
	return 0;
  40031a:	2000      	movs	r0, #0
  40031c:	4770      	bx	lr
		return 1;
  40031e:	2001      	movs	r0, #1
}
  400320:	4770      	bx	lr
	...

00400324 <_write>:
int __attribute__((weak))
_write (int file, const char *ptr, int len)
{
	int nChars = 0;

	if ((file != 1) && (file != 2) && (file!=3)) {
  400324:	3801      	subs	r0, #1
  400326:	2802      	cmp	r0, #2
  400328:	d815      	bhi.n	400356 <_write+0x32>
{
  40032a:	e92d 41f0 	stmdb	sp!, {r4, r5, r6, r7, r8, lr}
  40032e:	460e      	mov	r6, r1
  400330:	4614      	mov	r4, r2
		return -1;
	}

	for (; len != 0; --len) {
  400332:	b19a      	cbz	r2, 40035c <_write+0x38>
  400334:	460d      	mov	r5, r1
		if (ptr_put(stdio_base, *ptr++) < 0) {
  400336:	f8df 8038 	ldr.w	r8, [pc, #56]	; 400370 <_write+0x4c>
  40033a:	4f0c      	ldr	r7, [pc, #48]	; (40036c <_write+0x48>)
  40033c:	f8d8 0000 	ldr.w	r0, [r8]
  400340:	f815 1b01 	ldrb.w	r1, [r5], #1
  400344:	683b      	ldr	r3, [r7, #0]
  400346:	4798      	blx	r3
  400348:	2800      	cmp	r0, #0
  40034a:	db0a      	blt.n	400362 <_write+0x3e>
  40034c:	1ba8      	subs	r0, r5, r6
	for (; len != 0; --len) {
  40034e:	3c01      	subs	r4, #1
  400350:	d1f4      	bne.n	40033c <_write+0x18>
  400352:	e8bd 81f0 	ldmia.w	sp!, {r4, r5, r6, r7, r8, pc}
		return -1;
  400356:	f04f 30ff 	mov.w	r0, #4294967295
  40035a:	4770      	bx	lr
	for (; len != 0; --len) {
  40035c:	4610      	mov	r0, r2
  40035e:	e8bd 81f0 	ldmia.w	sp!, {r4, r5, r6, r7, r8, pc}
			return -1;
  400362:	f04f 30ff 	mov.w	r0, #4294967295
		}
		++nChars;
	}
	return nChars;
}
  400366:	e8bd 81f0 	ldmia.w	sp!, {r4, r5, r6, r7, r8, pc}
  40036a:	bf00      	nop
  40036c:	20400a90 	.word	0x20400a90
  400370:	20400a94 	.word	0x20400a94

00400374 <spi_enable_clock>:
 * \brief Enable SPI clock.
 *
 * \param p_spi Pointer to an SPI instance.
 */
void spi_enable_clock(Spi *p_spi)
{
  400374:	b508      	push	{r3, lr}
#if (SAM4S || SAM3S || SAM3N || SAM3U || SAM4E || SAM4N || SAMG51|| SAMG53|| SAMG54)
	UNUSED(p_spi);
	sysclk_enable_peripheral_clock(ID_SPI);
#elif (SAM3XA || SAM4C || SAM4CP || SAM4CM || SAMV71 || SAMV70 || SAME70 || SAMS70)
	if (p_spi == SPI0) {
  400376:	4b07      	ldr	r3, [pc, #28]	; (400394 <spi_enable_clock+0x20>)
  400378:	4298      	cmp	r0, r3
  40037a:	d003      	beq.n	400384 <spi_enable_clock+0x10>
		sysclk_enable_peripheral_clock(ID_SPI0);
	}
	#ifdef SPI1
	else if (p_spi == SPI1) {
  40037c:	4b06      	ldr	r3, [pc, #24]	; (400398 <spi_enable_clock+0x24>)
  40037e:	4298      	cmp	r0, r3
  400380:	d004      	beq.n	40038c <spi_enable_clock+0x18>
  400382:	bd08      	pop	{r3, pc}
 *
 * \param ul_id Id (number) of the peripheral clock.
 */
static inline void sysclk_enable_peripheral_clock(uint32_t ul_id)
{
	pmc_enable_periph_clk(ul_id);
  400384:	2015      	movs	r0, #21
  400386:	4b05      	ldr	r3, [pc, #20]	; (40039c <spi_enable_clock+0x28>)
  400388:	4798      	blx	r3
  40038a:	bd08      	pop	{r3, pc}
  40038c:	202a      	movs	r0, #42	; 0x2a
  40038e:	4b03      	ldr	r3, [pc, #12]	; (40039c <spi_enable_clock+0x28>)
  400390:	4798      	blx	r3
	}
	#endif
#elif SAM4L
	sysclk_enable_peripheral_clock(p_spi);
#endif
}
  400392:	e7f6      	b.n	400382 <spi_enable_clock+0xe>
  400394:	40008000 	.word	0x40008000
  400398:	40058000 	.word	0x40058000
  40039c:	00400941 	.word	0x00400941

004003a0 <spi_set_peripheral_chip_select_value>:
 *                 \ref spi_enable_peripheral_select_decode,
 *                 \ref spi_disable_peripheral_select_decode.
 */
void spi_set_peripheral_chip_select_value(Spi *p_spi, uint32_t ul_value)
{
	p_spi->SPI_MR &= (~SPI_MR_PCS_Msk);
  4003a0:	6843      	ldr	r3, [r0, #4]
  4003a2:	f423 2370 	bic.w	r3, r3, #983040	; 0xf0000
  4003a6:	6043      	str	r3, [r0, #4]
	p_spi->SPI_MR |= SPI_MR_PCS(ul_value);
  4003a8:	6843      	ldr	r3, [r0, #4]
  4003aa:	0409      	lsls	r1, r1, #16
  4003ac:	f401 2170 	and.w	r1, r1, #983040	; 0xf0000
  4003b0:	4319      	orrs	r1, r3
  4003b2:	6041      	str	r1, [r0, #4]
  4003b4:	4770      	bx	lr

004003b6 <spi_read>:
 *
 * \retval SPI_OK on Success.
 * \retval SPI_ERROR_TIMEOUT on Time-out.
 */
spi_status_t spi_read(Spi *p_spi, uint16_t *us_data, uint8_t *p_pcs)
{
  4003b6:	b410      	push	{r4}
	uint32_t timeout = SPI_TIMEOUT;
	static uint32_t reg_value;

	while (!(p_spi->SPI_SR & SPI_SR_RDRF)) {
  4003b8:	f643 2399 	movw	r3, #15001	; 0x3a99
  4003bc:	6904      	ldr	r4, [r0, #16]
  4003be:	f014 0f01 	tst.w	r4, #1
  4003c2:	d103      	bne.n	4003cc <spi_read+0x16>
		if (!timeout--) {
  4003c4:	3b01      	subs	r3, #1
  4003c6:	d1f9      	bne.n	4003bc <spi_read+0x6>
			return SPI_ERROR_TIMEOUT;
  4003c8:	2001      	movs	r0, #1
  4003ca:	e009      	b.n	4003e0 <spi_read+0x2a>
		}
	}

	reg_value = p_spi->SPI_RDR;
  4003cc:	6883      	ldr	r3, [r0, #8]
 *
 * \return 1 for Variable mode, 0 for fixed mode.
 */
static inline uint32_t spi_get_peripheral_select_mode(Spi *p_spi)
{
	if (p_spi->SPI_MR & SPI_MR_PS) {
  4003ce:	6840      	ldr	r0, [r0, #4]
	if (spi_get_peripheral_select_mode(p_spi)) {
  4003d0:	f010 0f02 	tst.w	r0, #2
  4003d4:	d002      	beq.n	4003dc <spi_read+0x26>
		*p_pcs = (uint8_t) ((reg_value & SPI_RDR_PCS_Msk) >> SPI_RDR_PCS_Pos);
  4003d6:	f3c3 4003 	ubfx	r0, r3, #16, #4
  4003da:	7010      	strb	r0, [r2, #0]
	}
	*us_data = (uint16_t) (reg_value & SPI_RDR_RD_Msk);
  4003dc:	800b      	strh	r3, [r1, #0]

	return SPI_OK;
  4003de:	2000      	movs	r0, #0
}
  4003e0:	f85d 4b04 	ldr.w	r4, [sp], #4
  4003e4:	4770      	bx	lr

004003e6 <spi_write>:
 * \retval SPI_OK on Success.
 * \retval SPI_ERROR_TIMEOUT on Time-out.
 */
spi_status_t spi_write(Spi *p_spi, uint16_t us_data,
		uint8_t uc_pcs, uint8_t uc_last)
{
  4003e6:	b430      	push	{r4, r5}
	uint32_t timeout = SPI_TIMEOUT;
	uint32_t value;

	while (!(p_spi->SPI_SR & SPI_SR_TDRE)) {
  4003e8:	f643 2499 	movw	r4, #15001	; 0x3a99
  4003ec:	6905      	ldr	r5, [r0, #16]
  4003ee:	f015 0f02 	tst.w	r5, #2
  4003f2:	d103      	bne.n	4003fc <spi_write+0x16>
		if (!timeout--) {
  4003f4:	3c01      	subs	r4, #1
  4003f6:	d1f9      	bne.n	4003ec <spi_write+0x6>
			return SPI_ERROR_TIMEOUT;
  4003f8:	2001      	movs	r0, #1
  4003fa:	e00c      	b.n	400416 <spi_write+0x30>
  4003fc:	6844      	ldr	r4, [r0, #4]
		}
	}

	if (spi_get_peripheral_select_mode(p_spi)) {
  4003fe:	f014 0f02 	tst.w	r4, #2
  400402:	d006      	beq.n	400412 <spi_write+0x2c>
		value = SPI_TDR_TD(us_data) | SPI_TDR_PCS(uc_pcs);
  400404:	0412      	lsls	r2, r2, #16
  400406:	f402 2270 	and.w	r2, r2, #983040	; 0xf0000
  40040a:	4311      	orrs	r1, r2
		if (uc_last) {
  40040c:	b10b      	cbz	r3, 400412 <spi_write+0x2c>
			value |= SPI_TDR_LASTXFER;
  40040e:	f041 7180 	orr.w	r1, r1, #16777216	; 0x1000000
		}
	} else {
		value = SPI_TDR_TD(us_data);
	}

	p_spi->SPI_TDR = value;
  400412:	60c1      	str	r1, [r0, #12]

	return SPI_OK;
  400414:	2000      	movs	r0, #0
}
  400416:	bc30      	pop	{r4, r5}
  400418:	4770      	bx	lr

0040041a <spi_set_clock_polarity>:
 * \param ul_polarity Default clock state is logical one(high)/zero(low).
 */
void spi_set_clock_polarity(Spi *p_spi, uint32_t ul_pcs_ch,
		uint32_t ul_polarity)
{
	if (ul_polarity) {
  40041a:	b932      	cbnz	r2, 40042a <spi_set_clock_polarity+0x10>
  40041c:	eb00 0081 	add.w	r0, r0, r1, lsl #2
		p_spi->SPI_CSR[ul_pcs_ch] |= SPI_CSR_CPOL;
	} else {
		p_spi->SPI_CSR[ul_pcs_ch] &= (~SPI_CSR_CPOL);
  400420:	6b03      	ldr	r3, [r0, #48]	; 0x30
  400422:	f023 0301 	bic.w	r3, r3, #1
  400426:	6303      	str	r3, [r0, #48]	; 0x30
  400428:	4770      	bx	lr
  40042a:	eb00 0081 	add.w	r0, r0, r1, lsl #2
		p_spi->SPI_CSR[ul_pcs_ch] |= SPI_CSR_CPOL;
  40042e:	6b03      	ldr	r3, [r0, #48]	; 0x30
  400430:	f043 0301 	orr.w	r3, r3, #1
  400434:	6303      	str	r3, [r0, #48]	; 0x30
  400436:	4770      	bx	lr

00400438 <spi_set_clock_phase>:
 *  \param ul_pcs_ch Peripheral Chip Select channel (0~3).
 *  \param ul_phase Data capture on the rising/falling edge of clock.
 */
void spi_set_clock_phase(Spi *p_spi, uint32_t ul_pcs_ch, uint32_t ul_phase)
{
	if (ul_phase) {
  400438:	b932      	cbnz	r2, 400448 <spi_set_clock_phase+0x10>
  40043a:	eb00 0081 	add.w	r0, r0, r1, lsl #2
		p_spi->SPI_CSR[ul_pcs_ch] |= SPI_CSR_NCPHA;
	} else {
		p_spi->SPI_CSR[ul_pcs_ch] &= (~SPI_CSR_NCPHA);
  40043e:	6b03      	ldr	r3, [r0, #48]	; 0x30
  400440:	f023 0302 	bic.w	r3, r3, #2
  400444:	6303      	str	r3, [r0, #48]	; 0x30
  400446:	4770      	bx	lr
  400448:	eb00 0081 	add.w	r0, r0, r1, lsl #2
		p_spi->SPI_CSR[ul_pcs_ch] |= SPI_CSR_NCPHA;
  40044c:	6b03      	ldr	r3, [r0, #48]	; 0x30
  40044e:	f043 0302 	orr.w	r3, r3, #2
  400452:	6303      	str	r3, [r0, #48]	; 0x30
  400454:	4770      	bx	lr

00400456 <spi_set_bits_per_transfer>:
 * \param ul_bits Number of bits (8~16), use the pattern defined
 *        in the device header file.
 */
void spi_set_bits_per_transfer(Spi *p_spi, uint32_t ul_pcs_ch,
		uint32_t ul_bits)
{
  400456:	eb00 0181 	add.w	r1, r0, r1, lsl #2
	p_spi->SPI_CSR[ul_pcs_ch] &= (~SPI_CSR_BITS_Msk);
  40045a:	6b0b      	ldr	r3, [r1, #48]	; 0x30
  40045c:	f023 03f0 	bic.w	r3, r3, #240	; 0xf0
  400460:	630b      	str	r3, [r1, #48]	; 0x30
	p_spi->SPI_CSR[ul_pcs_ch] |= ul_bits;
  400462:	6b0b      	ldr	r3, [r1, #48]	; 0x30
  400464:	431a      	orrs	r2, r3
  400466:	630a      	str	r2, [r1, #48]	; 0x30
  400468:	4770      	bx	lr

0040046a <spi_set_baudrate_div>:
 */
int16_t spi_set_baudrate_div(Spi *p_spi, uint32_t ul_pcs_ch,
		uint8_t uc_baudrate_divider)
{
    /* Programming the SCBR field to 0 is forbidden */
    if (!uc_baudrate_divider){
  40046a:	b17a      	cbz	r2, 40048c <spi_set_baudrate_div+0x22>
{
  40046c:	b410      	push	{r4}
  40046e:	4614      	mov	r4, r2
  400470:	eb00 0181 	add.w	r1, r0, r1, lsl #2
        return -1;
	}
	p_spi->SPI_CSR[ul_pcs_ch] &= (~SPI_CSR_SCBR_Msk);
  400474:	6b0b      	ldr	r3, [r1, #48]	; 0x30
  400476:	f423 437f 	bic.w	r3, r3, #65280	; 0xff00
  40047a:	630b      	str	r3, [r1, #48]	; 0x30
	p_spi->SPI_CSR[ul_pcs_ch] |= SPI_CSR_SCBR(uc_baudrate_divider);
  40047c:	6b0a      	ldr	r2, [r1, #48]	; 0x30
  40047e:	ea42 2204 	orr.w	r2, r2, r4, lsl #8
  400482:	630a      	str	r2, [r1, #48]	; 0x30
    return 0;
  400484:	2000      	movs	r0, #0
}
  400486:	f85d 4b04 	ldr.w	r4, [sp], #4
  40048a:	4770      	bx	lr
        return -1;
  40048c:	f04f 30ff 	mov.w	r0, #4294967295
  400490:	4770      	bx	lr

00400492 <spi_set_transfer_delay>:
 * \param uc_dlybs Delay before SPCK (in number of MCK clocks).
 * \param uc_dlybct Delay between consecutive transfers (in number of MCK clocks).
 */
void spi_set_transfer_delay(Spi *p_spi, uint32_t ul_pcs_ch,
		uint8_t uc_dlybs, uint8_t uc_dlybct)
{
  400492:	b410      	push	{r4}
  400494:	eb00 0181 	add.w	r1, r0, r1, lsl #2
	p_spi->SPI_CSR[ul_pcs_ch] &= ~(SPI_CSR_DLYBS_Msk | SPI_CSR_DLYBCT_Msk);
  400498:	6b08      	ldr	r0, [r1, #48]	; 0x30
  40049a:	b280      	uxth	r0, r0
  40049c:	6308      	str	r0, [r1, #48]	; 0x30
	p_spi->SPI_CSR[ul_pcs_ch] |= SPI_CSR_DLYBS(uc_dlybs)
  40049e:	6b0c      	ldr	r4, [r1, #48]	; 0x30
  4004a0:	ea44 6303 	orr.w	r3, r4, r3, lsl #24
  4004a4:	ea43 4302 	orr.w	r3, r3, r2, lsl #16
  4004a8:	630b      	str	r3, [r1, #48]	; 0x30
			| SPI_CSR_DLYBCT(uc_dlybct);
}
  4004aa:	f85d 4b04 	ldr.w	r4, [sp], #4
  4004ae:	4770      	bx	lr

004004b0 <uart_write>:
 * \retval 1 I/O Failure, UART is not ready.
 */
uint32_t uart_write(Uart *p_uart, const uint8_t uc_data)
{
	/* Check if the transmitter is ready */
	if (!(p_uart->UART_SR & UART_SR_TXRDY))
  4004b0:	6943      	ldr	r3, [r0, #20]
  4004b2:	f013 0f02 	tst.w	r3, #2
  4004b6:	d002      	beq.n	4004be <uart_write+0xe>
		return 1;

	/* Send character */
	p_uart->UART_THR = uc_data;
  4004b8:	61c1      	str	r1, [r0, #28]
	return 0;
  4004ba:	2000      	movs	r0, #0
  4004bc:	4770      	bx	lr
		return 1;
  4004be:	2001      	movs	r0, #1
}
  4004c0:	4770      	bx	lr

004004c2 <uart_read>:
 * \retval 1 I/O Failure, UART is not ready.
 */
uint32_t uart_read(Uart *p_uart, uint8_t *puc_data)
{
	/* Check if the receiver is ready */
	if ((p_uart->UART_SR & UART_SR_RXRDY) == 0)
  4004c2:	6943      	ldr	r3, [r0, #20]
  4004c4:	f013 0f01 	tst.w	r3, #1
  4004c8:	d003      	beq.n	4004d2 <uart_read+0x10>
		return 1;

	/* Read character */
	*puc_data = (uint8_t) p_uart->UART_RHR;
  4004ca:	6983      	ldr	r3, [r0, #24]
  4004cc:	700b      	strb	r3, [r1, #0]
	return 0;
  4004ce:	2000      	movs	r0, #0
  4004d0:	4770      	bx	lr
		return 1;
  4004d2:	2001      	movs	r0, #1
}
  4004d4:	4770      	bx	lr
	...

004004d8 <sysclk_init>:
	pmc_disable_udpck();
}
#endif // CONFIG_USBCLK_SOURCE

void sysclk_init(void)
{
  4004d8:	b510      	push	{r4, lr}
	struct pll_config pllcfg;

	/* Set flash wait state to max in case the below clock switching. */
	system_init_flash(CHIP_FREQ_CPU_MAX/2);
  4004da:	4810      	ldr	r0, [pc, #64]	; (40051c <sysclk_init+0x44>)
  4004dc:	4b10      	ldr	r3, [pc, #64]	; (400520 <sysclk_init+0x48>)
  4004de:	4798      	blx	r3
		pmc_switch_mainck_to_fastrc(CKGR_MOR_MOSCRCF_12_MHz);
		break;


	case OSC_MAINCK_XTAL:
		pmc_switch_mainck_to_xtal(PMC_OSC_XTAL,
  4004e0:	213e      	movs	r1, #62	; 0x3e
  4004e2:	2000      	movs	r0, #0
  4004e4:	4b0f      	ldr	r3, [pc, #60]	; (400524 <sysclk_init+0x4c>)
  4004e6:	4798      	blx	r3
	case OSC_MAINCK_4M_RC:
	case OSC_MAINCK_8M_RC:
	case OSC_MAINCK_12M_RC:
	case OSC_MAINCK_XTAL:
	case OSC_MAINCK_BYPASS:
		return pmc_osc_is_ready_mainck();
  4004e8:	4c0f      	ldr	r4, [pc, #60]	; (400528 <sysclk_init+0x50>)
  4004ea:	47a0      	blx	r4
 *
 * \param id A number identifying the oscillator to wait for.
 */
static inline void osc_wait_ready(uint8_t id)
{
	while (!osc_is_ready(id)) {
  4004ec:	2800      	cmp	r0, #0
  4004ee:	d0fc      	beq.n	4004ea <sysclk_init+0x12>
static inline void pll_enable(const struct pll_config *p_cfg, uint32_t ul_pll_id)
{
	Assert(ul_pll_id < NR_PLLS);

	if (ul_pll_id == PLLA_ID) {
		pmc_disable_pllack(); // Always stop PLL first!
  4004f0:	4b0e      	ldr	r3, [pc, #56]	; (40052c <sysclk_init+0x54>)
  4004f2:	4798      	blx	r3
		PMC->CKGR_PLLAR = CKGR_PLLAR_ONE | p_cfg->ctrl;
  4004f4:	4a0e      	ldr	r2, [pc, #56]	; (400530 <sysclk_init+0x58>)
  4004f6:	4b0f      	ldr	r3, [pc, #60]	; (400534 <sysclk_init+0x5c>)
  4004f8:	629a      	str	r2, [r3, #40]	; 0x28
static inline uint32_t pll_is_locked(uint32_t ul_pll_id)
{
	Assert(ul_pll_id < NR_PLLS);

	if (ul_pll_id == PLLA_ID) {
	return pmc_is_locked_pllack();
  4004fa:	4c0f      	ldr	r4, [pc, #60]	; (400538 <sysclk_init+0x60>)
  4004fc:	47a0      	blx	r4
 */
static inline int pll_wait_for_lock(unsigned int pll_id)
{
	Assert(pll_id < NR_PLLS);

	while (!pll_is_locked(pll_id)) {
  4004fe:	2800      	cmp	r0, #0
  400500:	d0fc      	beq.n	4004fc <sysclk_init+0x24>
	else if (CONFIG_SYSCLK_SOURCE == SYSCLK_SRC_PLLACK) {
		pll_enable_source(CONFIG_PLL0_SOURCE);
		pll_config_defaults(&pllcfg, 0);
		pll_enable(&pllcfg, 0);
		pll_wait_for_lock(0);
		pmc_mck_set_division(CONFIG_SYSCLK_DIV);
  400502:	2002      	movs	r0, #2
  400504:	4b0d      	ldr	r3, [pc, #52]	; (40053c <sysclk_init+0x64>)
  400506:	4798      	blx	r3
		pmc_switch_mck_to_pllack(CONFIG_SYSCLK_PRES);
  400508:	2000      	movs	r0, #0
  40050a:	4b0d      	ldr	r3, [pc, #52]	; (400540 <sysclk_init+0x68>)
  40050c:	4798      	blx	r3
		pll_wait_for_lock(1);
		pmc_mck_set_division(CONFIG_SYSCLK_DIV);
		pmc_switch_mck_to_upllck(CONFIG_SYSCLK_PRES);
	}
	/* Update the SystemFrequency variable */
	SystemCoreClockUpdate();
  40050e:	4b0d      	ldr	r3, [pc, #52]	; (400544 <sysclk_init+0x6c>)
  400510:	4798      	blx	r3

	/* Set a flash wait state depending on the master clock frequency */
	system_init_flash(sysclk_get_cpu_hz() / CONFIG_SYSCLK_DIV);
  400512:	4802      	ldr	r0, [pc, #8]	; (40051c <sysclk_init+0x44>)
  400514:	4b02      	ldr	r3, [pc, #8]	; (400520 <sysclk_init+0x48>)
  400516:	4798      	blx	r3
  400518:	bd10      	pop	{r4, pc}
  40051a:	bf00      	nop
  40051c:	08f0d180 	.word	0x08f0d180
  400520:	00400b39 	.word	0x00400b39
  400524:	004008bd 	.word	0x004008bd
  400528:	00400911 	.word	0x00400911
  40052c:	00400921 	.word	0x00400921
  400530:	20183f01 	.word	0x20183f01
  400534:	400e0600 	.word	0x400e0600
  400538:	00400931 	.word	0x00400931
  40053c:	00400821 	.word	0x00400821
  400540:	00400859 	.word	0x00400859
  400544:	00400a2d 	.word	0x00400a2d

00400548 <board_init>:
	__ISB();
}
#endif

void board_init(void)
{
  400548:	b5f8      	push	{r3, r4, r5, r6, r7, lr}
#ifndef CONF_BOARD_KEEP_WATCHDOG_AT_INIT
	/* Disable the watchdog */
	WDT->WDT_MR = WDT_MR_WDDIS;
  40054a:	f44f 4200 	mov.w	r2, #32768	; 0x8000
  40054e:	4b7d      	ldr	r3, [pc, #500]	; (400744 <board_init+0x1fc>)
  400550:	605a      	str	r2, [r3, #4]
  \details Acts as a special kind of Data Memory Barrier.
           It completes when all explicit memory accesses before this instruction complete.
 */
__STATIC_FORCEINLINE void __DSB(void)
{
  __ASM volatile ("dsb 0xF":::"memory");
  400552:	f3bf 8f4f 	dsb	sy
  __ASM volatile ("isb 0xF":::"memory");
  400556:	f3bf 8f6f 	isb	sy
__STATIC_INLINE void SCB_EnableICache (void)
{
  #if defined (__ICACHE_PRESENT) && (__ICACHE_PRESENT == 1U)
    __DSB();
    __ISB();
    SCB->ICIALLU = 0UL;                     /* invalidate I-Cache */
  40055a:	4b7b      	ldr	r3, [pc, #492]	; (400748 <board_init+0x200>)
  40055c:	2100      	movs	r1, #0
  40055e:	f8c3 1250 	str.w	r1, [r3, #592]	; 0x250
  __ASM volatile ("dsb 0xF":::"memory");
  400562:	f3bf 8f4f 	dsb	sy
  __ASM volatile ("isb 0xF":::"memory");
  400566:	f3bf 8f6f 	isb	sy
    __DSB();
    __ISB();
    SCB->CCR |=  (uint32_t)SCB_CCR_IC_Msk;  /* enable I-Cache */
  40056a:	695a      	ldr	r2, [r3, #20]
  40056c:	f442 3200 	orr.w	r2, r2, #131072	; 0x20000
  400570:	615a      	str	r2, [r3, #20]
  __ASM volatile ("dsb 0xF":::"memory");
  400572:	f3bf 8f4f 	dsb	sy
  __ASM volatile ("isb 0xF":::"memory");
  400576:	f3bf 8f6f 	isb	sy
  #if defined (__DCACHE_PRESENT) && (__DCACHE_PRESENT == 1U)
    uint32_t ccsidr;
    uint32_t sets;
    uint32_t ways;

    SCB->CSSELR = 0U; /*(0U << 1U) | 0U;*/  /* Level 1 data cache */
  40057a:	f8c3 1084 	str.w	r1, [r3, #132]	; 0x84
  __ASM volatile ("dsb 0xF":::"memory");
  40057e:	f3bf 8f4f 	dsb	sy
    __DSB();

    ccsidr = SCB->CCSIDR;
  400582:	f8d3 7080 	ldr.w	r7, [r3, #128]	; 0x80

                                            /* invalidate D-Cache */
    sets = (uint32_t)(CCSIDR_SETS(ccsidr));
  400586:	f3c7 354e 	ubfx	r5, r7, #13, #15
    do {
      ways = (uint32_t)(CCSIDR_WAYS(ccsidr));
  40058a:	f3c7 07c9 	ubfx	r7, r7, #3, #10
  40058e:	016e      	lsls	r6, r5, #5
  400590:	ea4f 7c87 	mov.w	ip, r7, lsl #30
      do {
        SCB->DCISW = (((sets << SCB_DCISW_SET_Pos) & SCB_DCISW_SET_Msk) |
  400594:	f643 7ee0 	movw	lr, #16352	; 0x3fe0
  400598:	461c      	mov	r4, r3
  40059a:	ea06 000e 	and.w	r0, r6, lr
  40059e:	4662      	mov	r2, ip
      ways = (uint32_t)(CCSIDR_WAYS(ccsidr));
  4005a0:	463b      	mov	r3, r7
        SCB->DCISW = (((sets << SCB_DCISW_SET_Pos) & SCB_DCISW_SET_Msk) |
  4005a2:	ea40 0102 	orr.w	r1, r0, r2
  4005a6:	f8c4 1260 	str.w	r1, [r4, #608]	; 0x260
                      ((ways << SCB_DCISW_WAY_Pos) & SCB_DCISW_WAY_Msk)  );
        #if defined ( __CC_ARM )
          __schedule_barrier();
        #endif
      } while (ways-- != 0U);
  4005aa:	3b01      	subs	r3, #1
  4005ac:	f102 4240 	add.w	r2, r2, #3221225472	; 0xc0000000
  4005b0:	f1b3 3fff 	cmp.w	r3, #4294967295
  4005b4:	d1f5      	bne.n	4005a2 <board_init+0x5a>
    } while(sets-- != 0U);
  4005b6:	3d01      	subs	r5, #1
  4005b8:	3e20      	subs	r6, #32
  4005ba:	f1b5 3fff 	cmp.w	r5, #4294967295
  4005be:	d1ec      	bne.n	40059a <board_init+0x52>
  4005c0:	f3bf 8f4f 	dsb	sy
    __DSB();

    SCB->CCR |=  (uint32_t)SCB_CCR_DC_Msk;  /* enable D-Cache */
  4005c4:	4b60      	ldr	r3, [pc, #384]	; (400748 <board_init+0x200>)
  4005c6:	695a      	ldr	r2, [r3, #20]
  4005c8:	f442 3280 	orr.w	r2, r2, #65536	; 0x10000
  4005cc:	615a      	str	r2, [r3, #20]
  4005ce:	f3bf 8f4f 	dsb	sy
  __ASM volatile ("isb 0xF":::"memory");
  4005d2:	f3bf 8f6f 	isb	sy
		*dst++ = *src++;
	}
#endif
#else
	/* TCM Configuration */
	EFC->EEFC_FCR = (EEFC_FCR_FKEY_PASSWD | EEFC_FCR_FCMD_CGPB 
  4005d6:	4a5d      	ldr	r2, [pc, #372]	; (40074c <board_init+0x204>)
  4005d8:	495d      	ldr	r1, [pc, #372]	; (400750 <board_init+0x208>)
  4005da:	6051      	str	r1, [r2, #4]
					| EEFC_FCR_FARG(8));
	EFC->EEFC_FCR = (EEFC_FCR_FKEY_PASSWD | EEFC_FCR_FCMD_CGPB 
  4005dc:	f5a1 7180 	sub.w	r1, r1, #256	; 0x100
  4005e0:	6051      	str	r1, [r2, #4]
  __ASM volatile ("dsb 0xF":::"memory");
  4005e2:	f3bf 8f4f 	dsb	sy
  __ASM volatile ("isb 0xF":::"memory");
  4005e6:	f3bf 8f6f 	isb	sy
	SCB->ITCMCR &= ~(uint32_t)(1UL);
  4005ea:	f8d3 2290 	ldr.w	r2, [r3, #656]	; 0x290
  4005ee:	f022 0201 	bic.w	r2, r2, #1
  4005f2:	f8c3 2290 	str.w	r2, [r3, #656]	; 0x290
	SCB->DTCMCR &= ~(uint32_t)SCB_DTCMCR_EN_Msk;
  4005f6:	f8d3 2294 	ldr.w	r2, [r3, #660]	; 0x294
  4005fa:	f022 0201 	bic.w	r2, r2, #1
  4005fe:	f8c3 2294 	str.w	r2, [r3, #660]	; 0x294
  __ASM volatile ("dsb 0xF":::"memory");
  400602:	f3bf 8f4f 	dsb	sy
  __ASM volatile ("isb 0xF":::"memory");
  400606:	f3bf 8f6f 	isb	sy
  40060a:	200a      	movs	r0, #10
  40060c:	4c51      	ldr	r4, [pc, #324]	; (400754 <board_init+0x20c>)
  40060e:	47a0      	blx	r4
  400610:	200b      	movs	r0, #11
  400612:	47a0      	blx	r4
  400614:	200c      	movs	r0, #12
  400616:	47a0      	blx	r4
  400618:	2010      	movs	r0, #16
  40061a:	47a0      	blx	r4
  40061c:	2011      	movs	r0, #17
  40061e:	47a0      	blx	r4
		enum ioport_direction dir)
{
	Pio *base = arch_ioport_pin_to_base(pin);

	if (dir == IOPORT_DIR_OUTPUT) {
		base->PIO_OER = arch_ioport_pin_to_mask(pin);
  400620:	4b4d      	ldr	r3, [pc, #308]	; (400758 <board_init+0x210>)
  400622:	f44f 7280 	mov.w	r2, #256	; 0x100
  400626:	611a      	str	r2, [r3, #16]
	} else if (dir == IOPORT_DIR_INPUT) {
		base->PIO_ODR = arch_ioport_pin_to_mask(pin);
	}

	base->PIO_OWER = arch_ioport_pin_to_mask(pin);
  400628:	f8c3 20a0 	str.w	r2, [r3, #160]	; 0xa0
		bool level)
{
	Pio *base = arch_ioport_pin_to_base(pin);

	if (level) {
		base->PIO_SODR = arch_ioport_pin_to_mask(pin);
  40062c:	631a      	str	r2, [r3, #48]	; 0x30
		base->PIO_ODR = arch_ioport_pin_to_mask(pin);
  40062e:	f5a3 6380 	sub.w	r3, r3, #1024	; 0x400
  400632:	f44f 6200 	mov.w	r2, #2048	; 0x800
  400636:	615a      	str	r2, [r3, #20]
	base->PIO_OWER = arch_ioport_pin_to_mask(pin);
  400638:	f8c3 20a0 	str.w	r2, [r3, #160]	; 0xa0
		base->PIO_PUER = mask;
  40063c:	665a      	str	r2, [r3, #100]	; 0x64
		base->PIO_PPDDR = mask;
  40063e:	f8c3 2090 	str.w	r2, [r3, #144]	; 0x90
		base->PIO_MDDR = mask;
  400642:	655a      	str	r2, [r3, #84]	; 0x54
		base->PIO_IFER = mask;
  400644:	621a      	str	r2, [r3, #32]
		base->PIO_IFSCER = mask;
  400646:	f8c3 2084 	str.w	r2, [r3, #132]	; 0x84
		base->PIO_ABCDSR[0] &= ~mask;
  40064a:	6f19      	ldr	r1, [r3, #112]	; 0x70
  40064c:	f421 6100 	bic.w	r1, r1, #2048	; 0x800
  400650:	6719      	str	r1, [r3, #112]	; 0x70
		base->PIO_ABCDSR[1] &= ~mask;
  400652:	6f59      	ldr	r1, [r3, #116]	; 0x74
  400654:	f421 6100 	bic.w	r1, r1, #2048	; 0x800
  400658:	6759      	str	r1, [r3, #116]	; 0x74
	case IOPORT_SENSE_FALLING:
		base->PIO_ESR = mask;
		base->PIO_FELLSR = mask;
		break;
	case IOPORT_SENSE_RISING:
		base->PIO_ESR = mask;
  40065a:	f8c3 20c0 	str.w	r2, [r3, #192]	; 0xc0
		base->PIO_REHLSR = mask;
  40065e:	f8c3 20d4 	str.w	r2, [r3, #212]	; 0xd4
		break;
	default:
		base->PIO_AIMDR = mask;
		return;
	}
	base->PIO_AIMER = mask;
  400662:	f8c3 20b0 	str.w	r2, [r3, #176]	; 0xb0
		base->PIO_PUDR = mask;
  400666:	f44f 1200 	mov.w	r2, #2097152	; 0x200000
  40066a:	661a      	str	r2, [r3, #96]	; 0x60
		base->PIO_PPDDR = mask;
  40066c:	f8c3 2090 	str.w	r2, [r3, #144]	; 0x90
		base->PIO_MDDR = mask;
  400670:	655a      	str	r2, [r3, #84]	; 0x54
		base->PIO_IFDR = mask;
  400672:	625a      	str	r2, [r3, #36]	; 0x24
		base->PIO_IFSCDR = mask;
  400674:	f8c3 2080 	str.w	r2, [r3, #128]	; 0x80
		base->PIO_ABCDSR[0] &= ~mask;
  400678:	6f19      	ldr	r1, [r3, #112]	; 0x70
  40067a:	f421 1100 	bic.w	r1, r1, #2097152	; 0x200000
  40067e:	6719      	str	r1, [r3, #112]	; 0x70
		base->PIO_ABCDSR[1] &= ~mask;
  400680:	6f59      	ldr	r1, [r3, #116]	; 0x74
  400682:	f421 1100 	bic.w	r1, r1, #2097152	; 0x200000
  400686:	6759      	str	r1, [r3, #116]	; 0x74
	arch_ioport_port_to_base(port)->PIO_PDR = mask;
  400688:	605a      	str	r2, [r3, #4]
			GPIO_PUSH_BUTTON_1_SENSE);

#ifdef CONF_BOARD_UART_CONSOLE
	/* Configure UART pins */
	ioport_set_pin_peripheral_mode(USART1_RXD_GPIO, USART1_RXD_FLAGS);
	MATRIX->CCFG_SYSIO |= CCFG_SYSIO_SYSIO4;
  40068a:	4934      	ldr	r1, [pc, #208]	; (40075c <board_init+0x214>)
  40068c:	f8d1 3114 	ldr.w	r3, [r1, #276]	; 0x114
  400690:	f043 0310 	orr.w	r3, r3, #16
  400694:	f8c1 3114 	str.w	r3, [r1, #276]	; 0x114
		base->PIO_PUDR = mask;
  400698:	4b31      	ldr	r3, [pc, #196]	; (400760 <board_init+0x218>)
  40069a:	2110      	movs	r1, #16
  40069c:	6619      	str	r1, [r3, #96]	; 0x60
		base->PIO_PPDDR = mask;
  40069e:	f8c3 1090 	str.w	r1, [r3, #144]	; 0x90
		base->PIO_MDDR = mask;
  4006a2:	6559      	str	r1, [r3, #84]	; 0x54
		base->PIO_IFDR = mask;
  4006a4:	6259      	str	r1, [r3, #36]	; 0x24
		base->PIO_IFSCDR = mask;
  4006a6:	f8c3 1080 	str.w	r1, [r3, #128]	; 0x80
		base->PIO_ABCDSR[0] |= mask;
  4006aa:	6f18      	ldr	r0, [r3, #112]	; 0x70
  4006ac:	4308      	orrs	r0, r1
  4006ae:	6718      	str	r0, [r3, #112]	; 0x70
		base->PIO_ABCDSR[1] |= mask;
  4006b0:	6f58      	ldr	r0, [r3, #116]	; 0x74
  4006b2:	4308      	orrs	r0, r1
  4006b4:	6758      	str	r0, [r3, #116]	; 0x74
	arch_ioport_port_to_base(port)->PIO_PDR = mask;
  4006b6:	6059      	str	r1, [r3, #4]
		base->PIO_PUDR = mask;
  4006b8:	f503 6380 	add.w	r3, r3, #1024	; 0x400
  4006bc:	f44f 1180 	mov.w	r1, #1048576	; 0x100000
  4006c0:	6619      	str	r1, [r3, #96]	; 0x60
		base->PIO_PPDDR = mask;
  4006c2:	f8c3 1090 	str.w	r1, [r3, #144]	; 0x90
		base->PIO_MDDR = mask;
  4006c6:	6559      	str	r1, [r3, #84]	; 0x54
		base->PIO_IFDR = mask;
  4006c8:	6259      	str	r1, [r3, #36]	; 0x24
		base->PIO_IFSCDR = mask;
  4006ca:	f8c3 1080 	str.w	r1, [r3, #128]	; 0x80
		base->PIO_ABCDSR[0] |= mask;
  4006ce:	6f18      	ldr	r0, [r3, #112]	; 0x70
  4006d0:	4308      	orrs	r0, r1
  4006d2:	6718      	str	r0, [r3, #112]	; 0x70
		base->PIO_ABCDSR[1] &= ~mask;
  4006d4:	6f58      	ldr	r0, [r3, #116]	; 0x74
  4006d6:	f420 1080 	bic.w	r0, r0, #1048576	; 0x100000
  4006da:	6758      	str	r0, [r3, #116]	; 0x74
	arch_ioport_port_to_base(port)->PIO_PDR = mask;
  4006dc:	6059      	str	r1, [r3, #4]
		base->PIO_PUDR = mask;
  4006de:	661a      	str	r2, [r3, #96]	; 0x60
		base->PIO_PPDDR = mask;
  4006e0:	f8c3 2090 	str.w	r2, [r3, #144]	; 0x90
		base->PIO_MDDR = mask;
  4006e4:	655a      	str	r2, [r3, #84]	; 0x54
		base->PIO_IFDR = mask;
  4006e6:	625a      	str	r2, [r3, #36]	; 0x24
		base->PIO_IFSCDR = mask;
  4006e8:	f8c3 2080 	str.w	r2, [r3, #128]	; 0x80
		base->PIO_ABCDSR[0] |= mask;
  4006ec:	6f19      	ldr	r1, [r3, #112]	; 0x70
  4006ee:	4311      	orrs	r1, r2
  4006f0:	6719      	str	r1, [r3, #112]	; 0x70
		base->PIO_ABCDSR[1] &= ~mask;
  4006f2:	6f59      	ldr	r1, [r3, #116]	; 0x74
  4006f4:	f421 1100 	bic.w	r1, r1, #2097152	; 0x200000
  4006f8:	6759      	str	r1, [r3, #116]	; 0x74
	arch_ioport_port_to_base(port)->PIO_PDR = mask;
  4006fa:	605a      	str	r2, [r3, #4]
		base->PIO_PUDR = mask;
  4006fc:	f44f 0280 	mov.w	r2, #4194304	; 0x400000
  400700:	661a      	str	r2, [r3, #96]	; 0x60
		base->PIO_PPDDR = mask;
  400702:	f8c3 2090 	str.w	r2, [r3, #144]	; 0x90
		base->PIO_MDDR = mask;
  400706:	655a      	str	r2, [r3, #84]	; 0x54
		base->PIO_IFDR = mask;
  400708:	625a      	str	r2, [r3, #36]	; 0x24
		base->PIO_IFSCDR = mask;
  40070a:	f8c3 2080 	str.w	r2, [r3, #128]	; 0x80
		base->PIO_ABCDSR[0] |= mask;
  40070e:	6f19      	ldr	r1, [r3, #112]	; 0x70
  400710:	4311      	orrs	r1, r2
  400712:	6719      	str	r1, [r3, #112]	; 0x70
		base->PIO_ABCDSR[1] &= ~mask;
  400714:	6f59      	ldr	r1, [r3, #116]	; 0x74
  400716:	f421 0180 	bic.w	r1, r1, #4194304	; 0x400000
  40071a:	6759      	str	r1, [r3, #116]	; 0x74
	arch_ioport_port_to_base(port)->PIO_PDR = mask;
  40071c:	605a      	str	r2, [r3, #4]
		base->PIO_PUDR = mask;
  40071e:	f04f 7200 	mov.w	r2, #33554432	; 0x2000000
  400722:	661a      	str	r2, [r3, #96]	; 0x60
		base->PIO_PPDDR = mask;
  400724:	f8c3 2090 	str.w	r2, [r3, #144]	; 0x90
		base->PIO_MDDR = mask;
  400728:	655a      	str	r2, [r3, #84]	; 0x54
		base->PIO_IFDR = mask;
  40072a:	625a      	str	r2, [r3, #36]	; 0x24
		base->PIO_IFSCDR = mask;
  40072c:	f8c3 2080 	str.w	r2, [r3, #128]	; 0x80
		base->PIO_ABCDSR[0] |= mask;
  400730:	6f19      	ldr	r1, [r3, #112]	; 0x70
  400732:	4311      	orrs	r1, r2
  400734:	6719      	str	r1, [r3, #112]	; 0x70
		base->PIO_ABCDSR[1] &= ~mask;
  400736:	6f59      	ldr	r1, [r3, #116]	; 0x74
  400738:	f021 7100 	bic.w	r1, r1, #33554432	; 0x2000000
  40073c:	6759      	str	r1, [r3, #116]	; 0x74
	arch_ioport_port_to_base(port)->PIO_PDR = mask;
  40073e:	605a      	str	r2, [r3, #4]
  400740:	bdf8      	pop	{r3, r4, r5, r6, r7, pc}
  400742:	bf00      	nop
  400744:	400e1850 	.word	0x400e1850
  400748:	e000ed00 	.word	0xe000ed00
  40074c:	400e0c00 	.word	0x400e0c00
  400750:	5a00080c 	.word	0x5a00080c
  400754:	00400941 	.word	0x00400941
  400758:	400e1200 	.word	0x400e1200
  40075c:	40088000 	.word	0x40088000
  400760:	400e1000 	.word	0x400e1000

00400764 <pio_get_interrupt_status>:
 *
 * \return The interrupt status value.
 */
uint32_t pio_get_interrupt_status(const Pio *p_pio)
{
	return p_pio->PIO_ISR;
  400764:	6cc0      	ldr	r0, [r0, #76]	; 0x4c
}
  400766:	4770      	bx	lr

00400768 <pio_get_interrupt_mask>:
 *
 * \return The interrupt mask value.
 */
uint32_t pio_get_interrupt_mask(const Pio *p_pio)
{
	return p_pio->PIO_IMR;
  400768:	6c80      	ldr	r0, [r0, #72]	; 0x48
}
  40076a:	4770      	bx	lr

0040076c <pio_handler_process>:
 *
 * \param p_pio PIO controller base address.
 * \param ul_id PIO controller ID.
 */
void pio_handler_process(Pio *p_pio, uint32_t ul_id)
{
  40076c:	e92d 41f0 	stmdb	sp!, {r4, r5, r6, r7, r8, lr}
  400770:	4604      	mov	r4, r0
  400772:	4688      	mov	r8, r1
	uint32_t status;
	uint32_t i;

	/* Read PIO controller status */
	status = pio_get_interrupt_status(p_pio);
  400774:	4b0e      	ldr	r3, [pc, #56]	; (4007b0 <pio_handler_process+0x44>)
  400776:	4798      	blx	r3
  400778:	4605      	mov	r5, r0
	status &= pio_get_interrupt_mask(p_pio);
  40077a:	4620      	mov	r0, r4
  40077c:	4b0d      	ldr	r3, [pc, #52]	; (4007b4 <pio_handler_process+0x48>)
  40077e:	4798      	blx	r3

	/* Check pending events */
	if (status != 0) {
  400780:	4005      	ands	r5, r0
  400782:	d013      	beq.n	4007ac <pio_handler_process+0x40>
  400784:	4c0c      	ldr	r4, [pc, #48]	; (4007b8 <pio_handler_process+0x4c>)
  400786:	f104 0660 	add.w	r6, r4, #96	; 0x60
  40078a:	e003      	b.n	400794 <pio_handler_process+0x28>
							gs_interrupt_sources[i].mask);
					status &= ~(gs_interrupt_sources[i].mask);
				}
			}
			i++;
			if (i >= MAX_INTERRUPT_SOURCES) {
  40078c:	42b4      	cmp	r4, r6
  40078e:	d00d      	beq.n	4007ac <pio_handler_process+0x40>
  400790:	3410      	adds	r4, #16
		while (status != 0) {
  400792:	b15d      	cbz	r5, 4007ac <pio_handler_process+0x40>
			if (gs_interrupt_sources[i].id == ul_id) {
  400794:	6820      	ldr	r0, [r4, #0]
  400796:	4540      	cmp	r0, r8
  400798:	d1f8      	bne.n	40078c <pio_handler_process+0x20>
				if ((status & gs_interrupt_sources[i].mask) != 0) {
  40079a:	6861      	ldr	r1, [r4, #4]
  40079c:	4229      	tst	r1, r5
  40079e:	d0f5      	beq.n	40078c <pio_handler_process+0x20>
					gs_interrupt_sources[i].handler(gs_interrupt_sources[i].id,
  4007a0:	68e3      	ldr	r3, [r4, #12]
  4007a2:	4798      	blx	r3
					status &= ~(gs_interrupt_sources[i].mask);
  4007a4:	6863      	ldr	r3, [r4, #4]
  4007a6:	ea25 0503 	bic.w	r5, r5, r3
  4007aa:	e7ef      	b.n	40078c <pio_handler_process+0x20>
  4007ac:	e8bd 81f0 	ldmia.w	sp!, {r4, r5, r6, r7, r8, pc}
  4007b0:	00400765 	.word	0x00400765
  4007b4:	00400769 	.word	0x00400769
  4007b8:	204009e0 	.word	0x204009e0

004007bc <PIOA_Handler>:
/**
 * \brief Parallel IO Controller A interrupt handler.
 * Redefined PIOA interrupt handler for NVIC interrupt table.
 */
void PIOA_Handler(void)
{
  4007bc:	b508      	push	{r3, lr}
	pio_handler_process(PIOA, ID_PIOA);
  4007be:	210a      	movs	r1, #10
  4007c0:	4801      	ldr	r0, [pc, #4]	; (4007c8 <PIOA_Handler+0xc>)
  4007c2:	4b02      	ldr	r3, [pc, #8]	; (4007cc <PIOA_Handler+0x10>)
  4007c4:	4798      	blx	r3
  4007c6:	bd08      	pop	{r3, pc}
  4007c8:	400e0e00 	.word	0x400e0e00
  4007cc:	0040076d 	.word	0x0040076d

004007d0 <PIOB_Handler>:
/**
 * \brief Parallel IO Controller B interrupt handler
 * Redefined PIOB interrupt handler for NVIC interrupt table.
 */
void PIOB_Handler(void)
{
  4007d0:	b508      	push	{r3, lr}
    pio_handler_process(PIOB, ID_PIOB);
  4007d2:	210b      	movs	r1, #11
  4007d4:	4801      	ldr	r0, [pc, #4]	; (4007dc <PIOB_Handler+0xc>)
  4007d6:	4b02      	ldr	r3, [pc, #8]	; (4007e0 <PIOB_Handler+0x10>)
  4007d8:	4798      	blx	r3
  4007da:	bd08      	pop	{r3, pc}
  4007dc:	400e1000 	.word	0x400e1000
  4007e0:	0040076d 	.word	0x0040076d

004007e4 <PIOC_Handler>:
/**
 * \brief Parallel IO Controller C interrupt handler.
 * Redefined PIOC interrupt handler for NVIC interrupt table.
 */
void PIOC_Handler(void)
{
  4007e4:	b508      	push	{r3, lr}
	pio_handler_process(PIOC, ID_PIOC);
  4007e6:	210c      	movs	r1, #12
  4007e8:	4801      	ldr	r0, [pc, #4]	; (4007f0 <PIOC_Handler+0xc>)
  4007ea:	4b02      	ldr	r3, [pc, #8]	; (4007f4 <PIOC_Handler+0x10>)
  4007ec:	4798      	blx	r3
  4007ee:	bd08      	pop	{r3, pc}
  4007f0:	400e1200 	.word	0x400e1200
  4007f4:	0040076d 	.word	0x0040076d

004007f8 <PIOD_Handler>:
/**
 * \brief Parallel IO Controller D interrupt handler.
 * Redefined PIOD interrupt handler for NVIC interrupt table.
 */
void PIOD_Handler(void)
{
  4007f8:	b508      	push	{r3, lr}
	pio_handler_process(PIOD, ID_PIOD);
  4007fa:	2110      	movs	r1, #16
  4007fc:	4801      	ldr	r0, [pc, #4]	; (400804 <PIOD_Handler+0xc>)
  4007fe:	4b02      	ldr	r3, [pc, #8]	; (400808 <PIOD_Handler+0x10>)
  400800:	4798      	blx	r3
  400802:	bd08      	pop	{r3, pc}
  400804:	400e1400 	.word	0x400e1400
  400808:	0040076d 	.word	0x0040076d

0040080c <PIOE_Handler>:
/**
 * \brief Parallel IO Controller E interrupt handler.
 * Redefined PIOE interrupt handler for NVIC interrupt table.
 */
void PIOE_Handler(void)
{
  40080c:	b508      	push	{r3, lr}
	pio_handler_process(PIOE, ID_PIOE);
  40080e:	2111      	movs	r1, #17
  400810:	4801      	ldr	r0, [pc, #4]	; (400818 <PIOE_Handler+0xc>)
  400812:	4b02      	ldr	r3, [pc, #8]	; (40081c <PIOE_Handler+0x10>)
  400814:	4798      	blx	r3
  400816:	bd08      	pop	{r3, pc}
  400818:	400e1600 	.word	0x400e1600
  40081c:	0040076d 	.word	0x0040076d

00400820 <pmc_mck_set_division>:
 *
 * \param ul_div Division value.
 */
void pmc_mck_set_division(uint32_t ul_div)
{
	switch (ul_div) {
  400820:	2803      	cmp	r0, #3
  400822:	d011      	beq.n	400848 <pmc_mck_set_division+0x28>
  400824:	2804      	cmp	r0, #4
  400826:	d012      	beq.n	40084e <pmc_mck_set_division+0x2e>
		case 1:
			ul_div = PMC_MCKR_MDIV_EQ_PCK;
  400828:	2802      	cmp	r0, #2
  40082a:	bf0c      	ite	eq
  40082c:	f44f 7180 	moveq.w	r1, #256	; 0x100
  400830:	2100      	movne	r1, #0
		default:
			ul_div = PMC_MCKR_MDIV_EQ_PCK;
			break;
	}
	PMC->PMC_MCKR =
			(PMC->PMC_MCKR & (~PMC_MCKR_MDIV_Msk)) | ul_div;
  400832:	4a08      	ldr	r2, [pc, #32]	; (400854 <pmc_mck_set_division+0x34>)
  400834:	6b13      	ldr	r3, [r2, #48]	; 0x30
  400836:	f423 7340 	bic.w	r3, r3, #768	; 0x300
  40083a:	430b      	orrs	r3, r1
	PMC->PMC_MCKR =
  40083c:	6313      	str	r3, [r2, #48]	; 0x30
	while (!(PMC->PMC_SR & PMC_SR_MCKRDY));
  40083e:	6e93      	ldr	r3, [r2, #104]	; 0x68
  400840:	f013 0f08 	tst.w	r3, #8
  400844:	d0fb      	beq.n	40083e <pmc_mck_set_division+0x1e>
}
  400846:	4770      	bx	lr
			ul_div = PMC_MCKR_MDIV_PCK_DIV3;
  400848:	f44f 7140 	mov.w	r1, #768	; 0x300
			break;
  40084c:	e7f1      	b.n	400832 <pmc_mck_set_division+0x12>
			ul_div = PMC_MCKR_MDIV_PCK_DIV4;
  40084e:	f44f 7100 	mov.w	r1, #512	; 0x200
			break;
  400852:	e7ee      	b.n	400832 <pmc_mck_set_division+0x12>
  400854:	400e0600 	.word	0x400e0600

00400858 <pmc_switch_mck_to_pllack>:
 */
uint32_t pmc_switch_mck_to_pllack(uint32_t ul_pres)
{
	uint32_t ul_timeout;

	PMC->PMC_MCKR = (PMC->PMC_MCKR & (~PMC_MCKR_PRES_Msk)) | ul_pres;
  400858:	4a17      	ldr	r2, [pc, #92]	; (4008b8 <pmc_switch_mck_to_pllack+0x60>)
  40085a:	6b13      	ldr	r3, [r2, #48]	; 0x30
  40085c:	f023 0370 	bic.w	r3, r3, #112	; 0x70
  400860:	4318      	orrs	r0, r3
  400862:	6310      	str	r0, [r2, #48]	; 0x30
	for (ul_timeout = PMC_TIMEOUT; !(PMC->PMC_SR & PMC_SR_MCKRDY);
  400864:	6e93      	ldr	r3, [r2, #104]	; 0x68
  400866:	f013 0f08 	tst.w	r3, #8
  40086a:	d10a      	bne.n	400882 <pmc_switch_mck_to_pllack+0x2a>
  40086c:	f44f 5380 	mov.w	r3, #4096	; 0x1000
  400870:	4911      	ldr	r1, [pc, #68]	; (4008b8 <pmc_switch_mck_to_pllack+0x60>)
  400872:	6e8a      	ldr	r2, [r1, #104]	; 0x68
  400874:	f012 0f08 	tst.w	r2, #8
  400878:	d103      	bne.n	400882 <pmc_switch_mck_to_pllack+0x2a>
			--ul_timeout) {
		if (ul_timeout == 0) {
  40087a:	3b01      	subs	r3, #1
  40087c:	d1f9      	bne.n	400872 <pmc_switch_mck_to_pllack+0x1a>
			return 1;
  40087e:	2001      	movs	r0, #1
  400880:	4770      	bx	lr
		}
	}

	PMC->PMC_MCKR = (PMC->PMC_MCKR & (~PMC_MCKR_CSS_Msk)) |
  400882:	4a0d      	ldr	r2, [pc, #52]	; (4008b8 <pmc_switch_mck_to_pllack+0x60>)
  400884:	6b13      	ldr	r3, [r2, #48]	; 0x30
  400886:	f023 0303 	bic.w	r3, r3, #3
  40088a:	f043 0302 	orr.w	r3, r3, #2
  40088e:	6313      	str	r3, [r2, #48]	; 0x30
			PMC_MCKR_CSS_PLLA_CLK;

	for (ul_timeout = PMC_TIMEOUT; !(PMC->PMC_SR & PMC_SR_MCKRDY);
  400890:	6e93      	ldr	r3, [r2, #104]	; 0x68
  400892:	f013 0f08 	tst.w	r3, #8
  400896:	d10a      	bne.n	4008ae <pmc_switch_mck_to_pllack+0x56>
  400898:	f44f 5380 	mov.w	r3, #4096	; 0x1000
  40089c:	4906      	ldr	r1, [pc, #24]	; (4008b8 <pmc_switch_mck_to_pllack+0x60>)
  40089e:	6e8a      	ldr	r2, [r1, #104]	; 0x68
  4008a0:	f012 0f08 	tst.w	r2, #8
  4008a4:	d105      	bne.n	4008b2 <pmc_switch_mck_to_pllack+0x5a>
			--ul_timeout) {
		if (ul_timeout == 0) {
  4008a6:	3b01      	subs	r3, #1
  4008a8:	d1f9      	bne.n	40089e <pmc_switch_mck_to_pllack+0x46>
			return 1;
  4008aa:	2001      	movs	r0, #1
		}
	}

	return 0;
}
  4008ac:	4770      	bx	lr
	return 0;
  4008ae:	2000      	movs	r0, #0
  4008b0:	4770      	bx	lr
  4008b2:	2000      	movs	r0, #0
  4008b4:	4770      	bx	lr
  4008b6:	bf00      	nop
  4008b8:	400e0600 	.word	0x400e0600

004008bc <pmc_switch_mainck_to_xtal>:
 */
void pmc_switch_mainck_to_xtal(uint32_t ul_bypass,
		uint32_t ul_xtal_startup_time)
{
	/* Enable Main Xtal oscillator */
	if (ul_bypass) {
  4008bc:	b9a0      	cbnz	r0, 4008e8 <pmc_switch_mainck_to_xtal+0x2c>
		PMC->CKGR_MOR = (PMC->CKGR_MOR & ~CKGR_MOR_MOSCXTEN) |
				CKGR_MOR_KEY_PASSWD | CKGR_MOR_MOSCXTBY |
				CKGR_MOR_MOSCSEL;
	} else {
		PMC->CKGR_MOR = (PMC->CKGR_MOR & ~CKGR_MOR_MOSCXTBY) |
  4008be:	480e      	ldr	r0, [pc, #56]	; (4008f8 <pmc_switch_mainck_to_xtal+0x3c>)
  4008c0:	6a03      	ldr	r3, [r0, #32]
				CKGR_MOR_KEY_PASSWD | CKGR_MOR_MOSCXTEN |
				CKGR_MOR_MOSCXTST(ul_xtal_startup_time);
  4008c2:	0209      	lsls	r1, r1, #8
  4008c4:	b289      	uxth	r1, r1
				CKGR_MOR_KEY_PASSWD | CKGR_MOR_MOSCXTEN |
  4008c6:	4a0d      	ldr	r2, [pc, #52]	; (4008fc <pmc_switch_mainck_to_xtal+0x40>)
  4008c8:	401a      	ands	r2, r3
  4008ca:	4b0d      	ldr	r3, [pc, #52]	; (400900 <pmc_switch_mainck_to_xtal+0x44>)
  4008cc:	4313      	orrs	r3, r2
  4008ce:	4319      	orrs	r1, r3
		PMC->CKGR_MOR = (PMC->CKGR_MOR & ~CKGR_MOR_MOSCXTBY) |
  4008d0:	6201      	str	r1, [r0, #32]
		/* Wait the Xtal to stabilize */
		while (!(PMC->PMC_SR & PMC_SR_MOSCXTS));
  4008d2:	4602      	mov	r2, r0
  4008d4:	6e93      	ldr	r3, [r2, #104]	; 0x68
  4008d6:	f013 0f01 	tst.w	r3, #1
  4008da:	d0fb      	beq.n	4008d4 <pmc_switch_mainck_to_xtal+0x18>

		PMC->CKGR_MOR |= CKGR_MOR_KEY_PASSWD | CKGR_MOR_MOSCSEL;
  4008dc:	4a06      	ldr	r2, [pc, #24]	; (4008f8 <pmc_switch_mainck_to_xtal+0x3c>)
  4008de:	6a11      	ldr	r1, [r2, #32]
  4008e0:	4b08      	ldr	r3, [pc, #32]	; (400904 <pmc_switch_mainck_to_xtal+0x48>)
  4008e2:	430b      	orrs	r3, r1
  4008e4:	6213      	str	r3, [r2, #32]
  4008e6:	4770      	bx	lr
		PMC->CKGR_MOR = (PMC->CKGR_MOR & ~CKGR_MOR_MOSCXTEN) |
  4008e8:	4903      	ldr	r1, [pc, #12]	; (4008f8 <pmc_switch_mainck_to_xtal+0x3c>)
  4008ea:	6a0b      	ldr	r3, [r1, #32]
				CKGR_MOR_KEY_PASSWD | CKGR_MOR_MOSCXTBY |
  4008ec:	4a06      	ldr	r2, [pc, #24]	; (400908 <pmc_switch_mainck_to_xtal+0x4c>)
  4008ee:	401a      	ands	r2, r3
  4008f0:	4b06      	ldr	r3, [pc, #24]	; (40090c <pmc_switch_mainck_to_xtal+0x50>)
  4008f2:	4313      	orrs	r3, r2
		PMC->CKGR_MOR = (PMC->CKGR_MOR & ~CKGR_MOR_MOSCXTEN) |
  4008f4:	620b      	str	r3, [r1, #32]
  4008f6:	4770      	bx	lr
  4008f8:	400e0600 	.word	0x400e0600
  4008fc:	ffc8fffc 	.word	0xffc8fffc
  400900:	00370001 	.word	0x00370001
  400904:	01370000 	.word	0x01370000
  400908:	fec8fffc 	.word	0xfec8fffc
  40090c:	01370002 	.word	0x01370002

00400910 <pmc_osc_is_ready_mainck>:
 * \retval 1 Xtal is ready.
 * \retval 0 Xtal is not ready.
 */
uint32_t pmc_osc_is_ready_mainck(void)
{
	return PMC->PMC_SR & PMC_SR_MOSCSELS;
  400910:	4b02      	ldr	r3, [pc, #8]	; (40091c <pmc_osc_is_ready_mainck+0xc>)
  400912:	6e98      	ldr	r0, [r3, #104]	; 0x68
}
  400914:	f400 3080 	and.w	r0, r0, #65536	; 0x10000
  400918:	4770      	bx	lr
  40091a:	bf00      	nop
  40091c:	400e0600 	.word	0x400e0600

00400920 <pmc_disable_pllack>:
void pmc_disable_pllack(void)
{
#if (SAM4C || SAM4CM || SAM4CP || SAMG)
	PMC->CKGR_PLLAR = CKGR_PLLAR_MULA(0);
#else
	PMC->CKGR_PLLAR = CKGR_PLLAR_ONE | CKGR_PLLAR_MULA(0);
  400920:	f04f 5200 	mov.w	r2, #536870912	; 0x20000000
  400924:	4b01      	ldr	r3, [pc, #4]	; (40092c <pmc_disable_pllack+0xc>)
  400926:	629a      	str	r2, [r3, #40]	; 0x28
  400928:	4770      	bx	lr
  40092a:	bf00      	nop
  40092c:	400e0600 	.word	0x400e0600

00400930 <pmc_is_locked_pllack>:
 * \retval 0 Not locked.
 * \retval 1 Locked.
 */
uint32_t pmc_is_locked_pllack(void)
{
	return (PMC->PMC_SR & PMC_SR_LOCKA);
  400930:	4b02      	ldr	r3, [pc, #8]	; (40093c <pmc_is_locked_pllack+0xc>)
  400932:	6e98      	ldr	r0, [r3, #104]	; 0x68
}
  400934:	f000 0002 	and.w	r0, r0, #2
  400938:	4770      	bx	lr
  40093a:	bf00      	nop
  40093c:	400e0600 	.word	0x400e0600

00400940 <pmc_enable_periph_clk>:
 */
uint32_t pmc_enable_periph_clk(uint32_t ul_id)
{
#if defined(REG_PMC_PCR) && !SAMG55
	uint32_t pcr;
	PMC->PMC_PCR = ul_id & 0x7F;
  400940:	f000 007f 	and.w	r0, r0, #127	; 0x7f
  400944:	4b05      	ldr	r3, [pc, #20]	; (40095c <pmc_enable_periph_clk+0x1c>)
  400946:	f8c3 010c 	str.w	r0, [r3, #268]	; 0x10c
	pcr = PMC->PMC_PCR | PMC_PCR_EN | PMC_PCR_CMD;
  40094a:	f8d3 210c 	ldr.w	r2, [r3, #268]	; 0x10c
  40094e:	f042 2210 	orr.w	r2, r2, #268439552	; 0x10001000
	PMC->PMC_PCR = pcr;
  400952:	f8c3 210c 	str.w	r2, [r3, #268]	; 0x10c
#endif
	}

	return 0;
#endif /* defined(REG_PMC_PCR) && !SAMG55 */
}
  400956:	2000      	movs	r0, #0
  400958:	4770      	bx	lr
  40095a:	bf00      	nop
  40095c:	400e0600 	.word	0x400e0600

00400960 <Dummy_Handler>:

/**
 * \brief Default interrupt handler for unused IRQs.
 */
void Dummy_Handler(void)
{
  400960:	e7fe      	b.n	400960 <Dummy_Handler>
	...

00400964 <Reset_Handler>:
{
  400964:	b500      	push	{lr}
  400966:	b083      	sub	sp, #12
        if (pSrc != pDest) {
  400968:	4b25      	ldr	r3, [pc, #148]	; (400a00 <Reset_Handler+0x9c>)
  40096a:	4a26      	ldr	r2, [pc, #152]	; (400a04 <Reset_Handler+0xa0>)
  40096c:	429a      	cmp	r2, r3
  40096e:	d010      	beq.n	400992 <Reset_Handler+0x2e>
                for (; pDest < &_erelocate;) {
  400970:	4b25      	ldr	r3, [pc, #148]	; (400a08 <Reset_Handler+0xa4>)
  400972:	4a23      	ldr	r2, [pc, #140]	; (400a00 <Reset_Handler+0x9c>)
  400974:	429a      	cmp	r2, r3
  400976:	d20c      	bcs.n	400992 <Reset_Handler+0x2e>
  400978:	3b01      	subs	r3, #1
  40097a:	1a9b      	subs	r3, r3, r2
  40097c:	f023 0303 	bic.w	r3, r3, #3
  400980:	3304      	adds	r3, #4
  400982:	4413      	add	r3, r2
  400984:	491f      	ldr	r1, [pc, #124]	; (400a04 <Reset_Handler+0xa0>)
                        *pDest++ = *pSrc++;
  400986:	f851 0b04 	ldr.w	r0, [r1], #4
  40098a:	f842 0b04 	str.w	r0, [r2], #4
                for (; pDest < &_erelocate;) {
  40098e:	429a      	cmp	r2, r3
  400990:	d1f9      	bne.n	400986 <Reset_Handler+0x22>
        for (pDest = &_szero; pDest < &_ezero;) {
  400992:	4b1e      	ldr	r3, [pc, #120]	; (400a0c <Reset_Handler+0xa8>)
  400994:	4a1e      	ldr	r2, [pc, #120]	; (400a10 <Reset_Handler+0xac>)
  400996:	429a      	cmp	r2, r3
  400998:	d20a      	bcs.n	4009b0 <Reset_Handler+0x4c>
  40099a:	3b01      	subs	r3, #1
  40099c:	1a9b      	subs	r3, r3, r2
  40099e:	f023 0303 	bic.w	r3, r3, #3
  4009a2:	3304      	adds	r3, #4
  4009a4:	4413      	add	r3, r2
                *pDest++ = 0;
  4009a6:	2100      	movs	r1, #0
  4009a8:	f842 1b04 	str.w	r1, [r2], #4
        for (pDest = &_szero; pDest < &_ezero;) {
  4009ac:	4293      	cmp	r3, r2
  4009ae:	d1fb      	bne.n	4009a8 <Reset_Handler+0x44>
        SCB->VTOR = ((uint32_t) pSrc & SCB_VTOR_TBLOFF_Msk);
  4009b0:	4a18      	ldr	r2, [pc, #96]	; (400a14 <Reset_Handler+0xb0>)
  4009b2:	4b19      	ldr	r3, [pc, #100]	; (400a18 <Reset_Handler+0xb4>)
  4009b4:	f023 037f 	bic.w	r3, r3, #127	; 0x7f
  4009b8:	6093      	str	r3, [r2, #8]
  __ASM volatile ("MRS %0, primask" : "=r" (result) :: "memory");
  4009ba:	f3ef 8310 	mrs	r3, PRIMASK
static volatile uint32_t cpu_irq_critical_section_counter;
static volatile bool     cpu_irq_prev_interrupt_state;

static inline irqflags_t cpu_irq_save(void)
{
	volatile irqflags_t flags = cpu_irq_is_enabled();
  4009be:	fab3 f383 	clz	r3, r3
  4009c2:	095b      	lsrs	r3, r3, #5
  4009c4:	9301      	str	r3, [sp, #4]
  __ASM volatile ("cpsid i" : : : "memory");
  4009c6:	b672      	cpsid	i
  \details Ensures the apparent order of the explicit memory operations before
           and after the instruction, without ensuring their completion.
 */
__STATIC_FORCEINLINE void __DMB(void)
{
  __ASM volatile ("dmb 0xF":::"memory");
  4009c8:	f3bf 8f5f 	dmb	sy
	cpu_irq_disable();
  4009cc:	2200      	movs	r2, #0
  4009ce:	4b13      	ldr	r3, [pc, #76]	; (400a1c <Reset_Handler+0xb8>)
  4009d0:	701a      	strb	r2, [r3, #0]
	return flags;
  4009d2:	9901      	ldr	r1, [sp, #4]
 */
__always_inline static void fpu_enable(void)
{
	irqflags_t flags;
	flags = cpu_irq_save();
	REG_CPACR |=  (0xFu << 20);
  4009d4:	4a12      	ldr	r2, [pc, #72]	; (400a20 <Reset_Handler+0xbc>)
  4009d6:	6813      	ldr	r3, [r2, #0]
  4009d8:	f443 0370 	orr.w	r3, r3, #15728640	; 0xf00000
  4009dc:	6013      	str	r3, [r2, #0]
  __ASM volatile ("dsb 0xF":::"memory");
  4009de:	f3bf 8f4f 	dsb	sy
  __ASM volatile ("isb 0xF":::"memory");
  4009e2:	f3bf 8f6f 	isb	sy
	return (flags);
}

static inline void cpu_irq_restore(irqflags_t flags)
{
	if (cpu_irq_is_enabled_flags(flags))
  4009e6:	b129      	cbz	r1, 4009f4 <Reset_Handler+0x90>
		cpu_irq_enable();
  4009e8:	2201      	movs	r2, #1
  4009ea:	4b0c      	ldr	r3, [pc, #48]	; (400a1c <Reset_Handler+0xb8>)
  4009ec:	701a      	strb	r2, [r3, #0]
  __ASM volatile ("dmb 0xF":::"memory");
  4009ee:	f3bf 8f5f 	dmb	sy
  __ASM volatile ("cpsie i" : : : "memory");
  4009f2:	b662      	cpsie	i
        __libc_init_array();
  4009f4:	4b0b      	ldr	r3, [pc, #44]	; (400a24 <Reset_Handler+0xc0>)
  4009f6:	4798      	blx	r3
        main();
  4009f8:	4b0b      	ldr	r3, [pc, #44]	; (400a28 <Reset_Handler+0xc4>)
  4009fa:	4798      	blx	r3
  4009fc:	e7fe      	b.n	4009fc <Reset_Handler+0x98>
  4009fe:	bf00      	nop
  400a00:	20400000 	.word	0x20400000
  400a04:	00404d8c 	.word	0x00404d8c
  400a08:	204009c0 	.word	0x204009c0
  400a0c:	20400ae0 	.word	0x20400ae0
  400a10:	204009c0 	.word	0x204009c0
  400a14:	e000ed00 	.word	0xe000ed00
  400a18:	00400000 	.word	0x00400000
  400a1c:	2040000a 	.word	0x2040000a
  400a20:	e000ed88 	.word	0xe000ed88
  400a24:	00401c2d 	.word	0x00401c2d
  400a28:	00401641 	.word	0x00401641

00400a2c <SystemCoreClockUpdate>:
}

void SystemCoreClockUpdate( void )
{
  /* Determine clock frequency according to clock register values */
  switch (PMC->PMC_MCKR & (uint32_t) PMC_MCKR_CSS_Msk)
  400a2c:	4b3b      	ldr	r3, [pc, #236]	; (400b1c <SystemCoreClockUpdate+0xf0>)
  400a2e:	6b1b      	ldr	r3, [r3, #48]	; 0x30
  400a30:	f003 0303 	and.w	r3, r3, #3
  400a34:	2b01      	cmp	r3, #1
  400a36:	d01d      	beq.n	400a74 <SystemCoreClockUpdate+0x48>
  400a38:	b183      	cbz	r3, 400a5c <SystemCoreClockUpdate+0x30>
  400a3a:	2b02      	cmp	r3, #2
  400a3c:	d036      	beq.n	400aac <SystemCoreClockUpdate+0x80>

    default:
    break;
  }

  if ( (PMC->PMC_MCKR & PMC_MCKR_PRES_Msk) == PMC_MCKR_PRES_CLK_3 )
  400a3e:	4b37      	ldr	r3, [pc, #220]	; (400b1c <SystemCoreClockUpdate+0xf0>)
  400a40:	6b1b      	ldr	r3, [r3, #48]	; 0x30
  400a42:	f003 0370 	and.w	r3, r3, #112	; 0x70
  400a46:	2b70      	cmp	r3, #112	; 0x70
  400a48:	d05f      	beq.n	400b0a <SystemCoreClockUpdate+0xde>
  {
    SystemCoreClock /= 3U;
  }
  else
  {
    SystemCoreClock >>= ((PMC->PMC_MCKR & PMC_MCKR_PRES_Msk) >> PMC_MCKR_PRES_Pos);
  400a4a:	4b34      	ldr	r3, [pc, #208]	; (400b1c <SystemCoreClockUpdate+0xf0>)
  400a4c:	6b1a      	ldr	r2, [r3, #48]	; 0x30
  400a4e:	4934      	ldr	r1, [pc, #208]	; (400b20 <SystemCoreClockUpdate+0xf4>)
  400a50:	f3c2 1202 	ubfx	r2, r2, #4, #3
  400a54:	680b      	ldr	r3, [r1, #0]
  400a56:	40d3      	lsrs	r3, r2
  400a58:	600b      	str	r3, [r1, #0]
  400a5a:	4770      	bx	lr
      if ( SUPC->SUPC_SR & SUPC_SR_OSCSEL )
  400a5c:	4b31      	ldr	r3, [pc, #196]	; (400b24 <SystemCoreClockUpdate+0xf8>)
  400a5e:	695b      	ldr	r3, [r3, #20]
  400a60:	f013 0f80 	tst.w	r3, #128	; 0x80
        SystemCoreClock = CHIP_FREQ_XTAL_32K;
  400a64:	bf14      	ite	ne
  400a66:	f44f 4200 	movne.w	r2, #32768	; 0x8000
        SystemCoreClock = CHIP_FREQ_SLCK_RC;
  400a6a:	f44f 42fa 	moveq.w	r2, #32000	; 0x7d00
  400a6e:	4b2c      	ldr	r3, [pc, #176]	; (400b20 <SystemCoreClockUpdate+0xf4>)
  400a70:	601a      	str	r2, [r3, #0]
  400a72:	e7e4      	b.n	400a3e <SystemCoreClockUpdate+0x12>
      if ( PMC->CKGR_MOR & CKGR_MOR_MOSCSEL )
  400a74:	4b29      	ldr	r3, [pc, #164]	; (400b1c <SystemCoreClockUpdate+0xf0>)
  400a76:	6a1b      	ldr	r3, [r3, #32]
  400a78:	f013 7f80 	tst.w	r3, #16777216	; 0x1000000
  400a7c:	d003      	beq.n	400a86 <SystemCoreClockUpdate+0x5a>
        SystemCoreClock = CHIP_FREQ_XTAL_12M;
  400a7e:	4a2a      	ldr	r2, [pc, #168]	; (400b28 <SystemCoreClockUpdate+0xfc>)
  400a80:	4b27      	ldr	r3, [pc, #156]	; (400b20 <SystemCoreClockUpdate+0xf4>)
  400a82:	601a      	str	r2, [r3, #0]
  400a84:	e7db      	b.n	400a3e <SystemCoreClockUpdate+0x12>
        SystemCoreClock = CHIP_FREQ_MAINCK_RC_4MHZ;
  400a86:	4a29      	ldr	r2, [pc, #164]	; (400b2c <SystemCoreClockUpdate+0x100>)
  400a88:	4b25      	ldr	r3, [pc, #148]	; (400b20 <SystemCoreClockUpdate+0xf4>)
  400a8a:	601a      	str	r2, [r3, #0]
        switch ( PMC->CKGR_MOR & CKGR_MOR_MOSCRCF_Msk )
  400a8c:	4b23      	ldr	r3, [pc, #140]	; (400b1c <SystemCoreClockUpdate+0xf0>)
  400a8e:	6a1b      	ldr	r3, [r3, #32]
  400a90:	f003 0370 	and.w	r3, r3, #112	; 0x70
  400a94:	2b10      	cmp	r3, #16
  400a96:	d005      	beq.n	400aa4 <SystemCoreClockUpdate+0x78>
  400a98:	2b20      	cmp	r3, #32
  400a9a:	d1d0      	bne.n	400a3e <SystemCoreClockUpdate+0x12>
            SystemCoreClock *= 3U;
  400a9c:	4a22      	ldr	r2, [pc, #136]	; (400b28 <SystemCoreClockUpdate+0xfc>)
  400a9e:	4b20      	ldr	r3, [pc, #128]	; (400b20 <SystemCoreClockUpdate+0xf4>)
  400aa0:	601a      	str	r2, [r3, #0]
          break;
  400aa2:	e7cc      	b.n	400a3e <SystemCoreClockUpdate+0x12>
            SystemCoreClock *= 2U;
  400aa4:	4a22      	ldr	r2, [pc, #136]	; (400b30 <SystemCoreClockUpdate+0x104>)
  400aa6:	4b1e      	ldr	r3, [pc, #120]	; (400b20 <SystemCoreClockUpdate+0xf4>)
  400aa8:	601a      	str	r2, [r3, #0]
          break;
  400aaa:	e7c8      	b.n	400a3e <SystemCoreClockUpdate+0x12>
      if ( PMC->CKGR_MOR & CKGR_MOR_MOSCSEL )
  400aac:	4b1b      	ldr	r3, [pc, #108]	; (400b1c <SystemCoreClockUpdate+0xf0>)
  400aae:	6a1b      	ldr	r3, [r3, #32]
  400ab0:	f013 7f80 	tst.w	r3, #16777216	; 0x1000000
  400ab4:	d016      	beq.n	400ae4 <SystemCoreClockUpdate+0xb8>
        SystemCoreClock = CHIP_FREQ_XTAL_12M ;
  400ab6:	4a1c      	ldr	r2, [pc, #112]	; (400b28 <SystemCoreClockUpdate+0xfc>)
  400ab8:	4b19      	ldr	r3, [pc, #100]	; (400b20 <SystemCoreClockUpdate+0xf4>)
  400aba:	601a      	str	r2, [r3, #0]
      if ( (uint32_t) (PMC->PMC_MCKR & (uint32_t) PMC_MCKR_CSS_Msk) == PMC_MCKR_CSS_PLLA_CLK )
  400abc:	4b17      	ldr	r3, [pc, #92]	; (400b1c <SystemCoreClockUpdate+0xf0>)
  400abe:	6b1b      	ldr	r3, [r3, #48]	; 0x30
  400ac0:	f003 0303 	and.w	r3, r3, #3
  400ac4:	2b02      	cmp	r3, #2
  400ac6:	d1ba      	bne.n	400a3e <SystemCoreClockUpdate+0x12>
        SystemCoreClock *= ((((PMC->CKGR_PLLAR) & CKGR_PLLAR_MULA_Msk) >> CKGR_PLLAR_MULA_Pos) + 1U);
  400ac8:	4a14      	ldr	r2, [pc, #80]	; (400b1c <SystemCoreClockUpdate+0xf0>)
  400aca:	6a91      	ldr	r1, [r2, #40]	; 0x28
        SystemCoreClock /= ((((PMC->CKGR_PLLAR) & CKGR_PLLAR_DIVA_Msk) >> CKGR_PLLAR_DIVA_Pos));
  400acc:	6a92      	ldr	r2, [r2, #40]	; 0x28
  400ace:	4814      	ldr	r0, [pc, #80]	; (400b20 <SystemCoreClockUpdate+0xf4>)
        SystemCoreClock *= ((((PMC->CKGR_PLLAR) & CKGR_PLLAR_MULA_Msk) >> CKGR_PLLAR_MULA_Pos) + 1U);
  400ad0:	f3c1 410a 	ubfx	r1, r1, #16, #11
  400ad4:	6803      	ldr	r3, [r0, #0]
  400ad6:	fb01 3303 	mla	r3, r1, r3, r3
        SystemCoreClock /= ((((PMC->CKGR_PLLAR) & CKGR_PLLAR_DIVA_Msk) >> CKGR_PLLAR_DIVA_Pos));
  400ada:	b2d2      	uxtb	r2, r2
  400adc:	fbb3 f3f2 	udiv	r3, r3, r2
  400ae0:	6003      	str	r3, [r0, #0]
  400ae2:	e7ac      	b.n	400a3e <SystemCoreClockUpdate+0x12>
        SystemCoreClock = CHIP_FREQ_MAINCK_RC_4MHZ;
  400ae4:	4a11      	ldr	r2, [pc, #68]	; (400b2c <SystemCoreClockUpdate+0x100>)
  400ae6:	4b0e      	ldr	r3, [pc, #56]	; (400b20 <SystemCoreClockUpdate+0xf4>)
  400ae8:	601a      	str	r2, [r3, #0]
        switch ( PMC->CKGR_MOR & CKGR_MOR_MOSCRCF_Msk )
  400aea:	4b0c      	ldr	r3, [pc, #48]	; (400b1c <SystemCoreClockUpdate+0xf0>)
  400aec:	6a1b      	ldr	r3, [r3, #32]
  400aee:	f003 0370 	and.w	r3, r3, #112	; 0x70
  400af2:	2b10      	cmp	r3, #16
  400af4:	d005      	beq.n	400b02 <SystemCoreClockUpdate+0xd6>
  400af6:	2b20      	cmp	r3, #32
  400af8:	d1e0      	bne.n	400abc <SystemCoreClockUpdate+0x90>
            SystemCoreClock *= 3U;
  400afa:	4a0b      	ldr	r2, [pc, #44]	; (400b28 <SystemCoreClockUpdate+0xfc>)
  400afc:	4b08      	ldr	r3, [pc, #32]	; (400b20 <SystemCoreClockUpdate+0xf4>)
  400afe:	601a      	str	r2, [r3, #0]
          break;
  400b00:	e7dc      	b.n	400abc <SystemCoreClockUpdate+0x90>
            SystemCoreClock *= 2U;
  400b02:	4a0b      	ldr	r2, [pc, #44]	; (400b30 <SystemCoreClockUpdate+0x104>)
  400b04:	4b06      	ldr	r3, [pc, #24]	; (400b20 <SystemCoreClockUpdate+0xf4>)
  400b06:	601a      	str	r2, [r3, #0]
          break;
  400b08:	e7d8      	b.n	400abc <SystemCoreClockUpdate+0x90>
    SystemCoreClock /= 3U;
  400b0a:	4a05      	ldr	r2, [pc, #20]	; (400b20 <SystemCoreClockUpdate+0xf4>)
  400b0c:	6813      	ldr	r3, [r2, #0]
  400b0e:	4909      	ldr	r1, [pc, #36]	; (400b34 <SystemCoreClockUpdate+0x108>)
  400b10:	fba1 1303 	umull	r1, r3, r1, r3
  400b14:	085b      	lsrs	r3, r3, #1
  400b16:	6013      	str	r3, [r2, #0]
  400b18:	4770      	bx	lr
  400b1a:	bf00      	nop
  400b1c:	400e0600 	.word	0x400e0600
  400b20:	2040000c 	.word	0x2040000c
  400b24:	400e1810 	.word	0x400e1810
  400b28:	00b71b00 	.word	0x00b71b00
  400b2c:	003d0900 	.word	0x003d0900
  400b30:	007a1200 	.word	0x007a1200
  400b34:	aaaaaaab 	.word	0xaaaaaaab

00400b38 <system_init_flash>:
 * Initialize flash.
 */
void system_init_flash( uint32_t ul_clk )
{
  /* Set FWS for embedded Flash access according to operating frequency */
  if ( ul_clk < CHIP_FREQ_FWS_0 )
  400b38:	4b16      	ldr	r3, [pc, #88]	; (400b94 <system_init_flash+0x5c>)
  400b3a:	4298      	cmp	r0, r3
  400b3c:	d913      	bls.n	400b66 <system_init_flash+0x2e>
  {
    EFC->EEFC_FMR = EEFC_FMR_FWS(0)|EEFC_FMR_CLOE;
  }
  else
  {
    if (ul_clk < CHIP_FREQ_FWS_1)
  400b3e:	4b16      	ldr	r3, [pc, #88]	; (400b98 <system_init_flash+0x60>)
  400b40:	4298      	cmp	r0, r3
  400b42:	d915      	bls.n	400b70 <system_init_flash+0x38>
    {
      EFC->EEFC_FMR = EEFC_FMR_FWS(1)|EEFC_FMR_CLOE;
    }
    else
    {
      if (ul_clk < CHIP_FREQ_FWS_2)
  400b44:	4b15      	ldr	r3, [pc, #84]	; (400b9c <system_init_flash+0x64>)
  400b46:	4298      	cmp	r0, r3
  400b48:	d916      	bls.n	400b78 <system_init_flash+0x40>
      {
        EFC->EEFC_FMR = EEFC_FMR_FWS(2)|EEFC_FMR_CLOE;
      }
      else
      {
        if ( ul_clk < CHIP_FREQ_FWS_3 )
  400b4a:	4b15      	ldr	r3, [pc, #84]	; (400ba0 <system_init_flash+0x68>)
  400b4c:	4298      	cmp	r0, r3
  400b4e:	d917      	bls.n	400b80 <system_init_flash+0x48>
        {
          EFC->EEFC_FMR = EEFC_FMR_FWS(3)|EEFC_FMR_CLOE;
        }
        else
        {
          if ( ul_clk < CHIP_FREQ_FWS_4 )
  400b50:	4b14      	ldr	r3, [pc, #80]	; (400ba4 <system_init_flash+0x6c>)
  400b52:	4298      	cmp	r0, r3
  400b54:	d918      	bls.n	400b88 <system_init_flash+0x50>
          {
            EFC->EEFC_FMR = EEFC_FMR_FWS(4)|EEFC_FMR_CLOE;
          }
          else
          {
            if ( ul_clk < CHIP_FREQ_FWS_5 )
  400b56:	4b14      	ldr	r3, [pc, #80]	; (400ba8 <system_init_flash+0x70>)
  400b58:	4298      	cmp	r0, r3
            {
              EFC->EEFC_FMR = EEFC_FMR_FWS(5)|EEFC_FMR_CLOE;
  400b5a:	bf94      	ite	ls
  400b5c:	4a13      	ldrls	r2, [pc, #76]	; (400bac <system_init_flash+0x74>)
            }
            else
            {
              EFC->EEFC_FMR = EEFC_FMR_FWS(6)|EEFC_FMR_CLOE;
  400b5e:	4a14      	ldrhi	r2, [pc, #80]	; (400bb0 <system_init_flash+0x78>)
  400b60:	4b14      	ldr	r3, [pc, #80]	; (400bb4 <system_init_flash+0x7c>)
  400b62:	601a      	str	r2, [r3, #0]
  400b64:	4770      	bx	lr
    EFC->EEFC_FMR = EEFC_FMR_FWS(0)|EEFC_FMR_CLOE;
  400b66:	f04f 6280 	mov.w	r2, #67108864	; 0x4000000
  400b6a:	4b12      	ldr	r3, [pc, #72]	; (400bb4 <system_init_flash+0x7c>)
  400b6c:	601a      	str	r2, [r3, #0]
  400b6e:	4770      	bx	lr
      EFC->EEFC_FMR = EEFC_FMR_FWS(1)|EEFC_FMR_CLOE;
  400b70:	4a11      	ldr	r2, [pc, #68]	; (400bb8 <system_init_flash+0x80>)
  400b72:	4b10      	ldr	r3, [pc, #64]	; (400bb4 <system_init_flash+0x7c>)
  400b74:	601a      	str	r2, [r3, #0]
  400b76:	4770      	bx	lr
        EFC->EEFC_FMR = EEFC_FMR_FWS(2)|EEFC_FMR_CLOE;
  400b78:	4a10      	ldr	r2, [pc, #64]	; (400bbc <system_init_flash+0x84>)
  400b7a:	4b0e      	ldr	r3, [pc, #56]	; (400bb4 <system_init_flash+0x7c>)
  400b7c:	601a      	str	r2, [r3, #0]
  400b7e:	4770      	bx	lr
          EFC->EEFC_FMR = EEFC_FMR_FWS(3)|EEFC_FMR_CLOE;
  400b80:	4a0f      	ldr	r2, [pc, #60]	; (400bc0 <system_init_flash+0x88>)
  400b82:	4b0c      	ldr	r3, [pc, #48]	; (400bb4 <system_init_flash+0x7c>)
  400b84:	601a      	str	r2, [r3, #0]
  400b86:	4770      	bx	lr
            EFC->EEFC_FMR = EEFC_FMR_FWS(4)|EEFC_FMR_CLOE;
  400b88:	f04f 2204 	mov.w	r2, #67109888	; 0x4000400
  400b8c:	4b09      	ldr	r3, [pc, #36]	; (400bb4 <system_init_flash+0x7c>)
  400b8e:	601a      	str	r2, [r3, #0]
  400b90:	4770      	bx	lr
  400b92:	bf00      	nop
  400b94:	015ef3bf 	.word	0x015ef3bf
  400b98:	02bde77f 	.word	0x02bde77f
  400b9c:	041cdb3f 	.word	0x041cdb3f
  400ba0:	057bceff 	.word	0x057bceff
  400ba4:	06dac2bf 	.word	0x06dac2bf
  400ba8:	0839b67f 	.word	0x0839b67f
  400bac:	04000500 	.word	0x04000500
  400bb0:	04000600 	.word	0x04000600
  400bb4:	400e0c00 	.word	0x400e0c00
  400bb8:	04000100 	.word	0x04000100
  400bbc:	04000200 	.word	0x04000200
  400bc0:	04000300 	.word	0x04000300

00400bc4 <_sbrk>:
{
	static unsigned char *heap = NULL;
	unsigned char *prev_heap;
	int ramend = (int)&__ram_end__;

	if (heap == NULL) {
  400bc4:	4b0a      	ldr	r3, [pc, #40]	; (400bf0 <_sbrk+0x2c>)
  400bc6:	681b      	ldr	r3, [r3, #0]
  400bc8:	b153      	cbz	r3, 400be0 <_sbrk+0x1c>
		heap = (unsigned char *)&_end;
	}
	prev_heap = heap;
  400bca:	4b09      	ldr	r3, [pc, #36]	; (400bf0 <_sbrk+0x2c>)
  400bcc:	681b      	ldr	r3, [r3, #0]

	if (((int)prev_heap + incr) > ramend) {
  400bce:	181a      	adds	r2, r3, r0
  400bd0:	4908      	ldr	r1, [pc, #32]	; (400bf4 <_sbrk+0x30>)
  400bd2:	4291      	cmp	r1, r2
  400bd4:	db08      	blt.n	400be8 <_sbrk+0x24>
		return (caddr_t) -1;	
	}

	heap += incr;
  400bd6:	4610      	mov	r0, r2
  400bd8:	4a05      	ldr	r2, [pc, #20]	; (400bf0 <_sbrk+0x2c>)
  400bda:	6010      	str	r0, [r2, #0]

	return (caddr_t) prev_heap;
  400bdc:	4618      	mov	r0, r3
  400bde:	4770      	bx	lr
		heap = (unsigned char *)&_end;
  400be0:	4a05      	ldr	r2, [pc, #20]	; (400bf8 <_sbrk+0x34>)
  400be2:	4b03      	ldr	r3, [pc, #12]	; (400bf0 <_sbrk+0x2c>)
  400be4:	601a      	str	r2, [r3, #0]
  400be6:	e7f0      	b.n	400bca <_sbrk+0x6>
		return (caddr_t) -1;	
  400be8:	f04f 30ff 	mov.w	r0, #4294967295
}
  400bec:	4770      	bx	lr
  400bee:	bf00      	nop
  400bf0:	20400a50 	.word	0x20400a50
  400bf4:	2045fffc 	.word	0x2045fffc
  400bf8:	20402ce0 	.word	0x20402ce0

00400bfc <_close>:
}

extern int _close(int file)
{
	return -1;
}
  400bfc:	f04f 30ff 	mov.w	r0, #4294967295
  400c00:	4770      	bx	lr

00400c02 <_fstat>:

extern int _fstat(int file, struct stat *st)
{
	st->st_mode = S_IFCHR;
  400c02:	f44f 5300 	mov.w	r3, #8192	; 0x2000
  400c06:	604b      	str	r3, [r1, #4]

	return 0;
}
  400c08:	2000      	movs	r0, #0
  400c0a:	4770      	bx	lr

00400c0c <_isatty>:

extern int _isatty(int file)
{
	return 1;
}
  400c0c:	2001      	movs	r0, #1
  400c0e:	4770      	bx	lr

00400c10 <_lseek>:

extern int _lseek(int file, int ptr, int dir)
{
	return 0;
}
  400c10:	2000      	movs	r0, #0
  400c12:	4770      	bx	lr

00400c14 <spi_master_transfer>:
 * \param size Size of the buffer.
 * 
 * \brief after function p_buf will contain the received SPI data  
 */
static void spi_master_transfer(void *p_buf, uint32_t size)
{
  400c14:	e92d 43f0 	stmdb	sp!, {r4, r5, r6, r7, r8, r9, lr}
  400c18:	b083      	sub	sp, #12

	uint8_t *p_buffer;

	p_buffer = p_buf;

	for (i = 0; i < size; i++) {
  400c1a:	b1d9      	cbz	r1, 400c54 <spi_master_transfer+0x40>
  400c1c:	4688      	mov	r8, r1
  400c1e:	4605      	mov	r5, r0
  400c20:	4480      	add	r8, r0
		spi_write(SPI_MASTER_BASE, p_buffer[i], 0, 0);
  400c22:	4c0f      	ldr	r4, [pc, #60]	; (400c60 <spi_master_transfer+0x4c>)
  400c24:	f8df 9048 	ldr.w	r9, [pc, #72]	; 400c70 <spi_master_transfer+0x5c>
		
		/* Wait transfer done. */
		while ((spi_read_status(SPI_MASTER_BASE) & SPI_SR_RDRF) == 0);
		spi_read(SPI_MASTER_BASE, &data, &uc_pcs);
  400c28:	4e0e      	ldr	r6, [pc, #56]	; (400c64 <spi_master_transfer+0x50>)
  400c2a:	462f      	mov	r7, r5
		spi_write(SPI_MASTER_BASE, p_buffer[i], 0, 0);
  400c2c:	2300      	movs	r3, #0
  400c2e:	461a      	mov	r2, r3
  400c30:	7829      	ldrb	r1, [r5, #0]
  400c32:	4620      	mov	r0, r4
  400c34:	47c8      	blx	r9
 *
 * \return SPI status register value.
 */
static inline uint32_t spi_read_status(Spi *p_spi)
{
	return p_spi->SPI_SR;
  400c36:	6923      	ldr	r3, [r4, #16]
		while ((spi_read_status(SPI_MASTER_BASE) & SPI_SR_RDRF) == 0);
  400c38:	f013 0f01 	tst.w	r3, #1
  400c3c:	d0fb      	beq.n	400c36 <spi_master_transfer+0x22>
		spi_read(SPI_MASTER_BASE, &data, &uc_pcs);
  400c3e:	f10d 0207 	add.w	r2, sp, #7
  400c42:	4631      	mov	r1, r6
  400c44:	4620      	mov	r0, r4
  400c46:	4b08      	ldr	r3, [pc, #32]	; (400c68 <spi_master_transfer+0x54>)
  400c48:	4798      	blx	r3
		p_buffer[i] = data;
  400c4a:	8833      	ldrh	r3, [r6, #0]
  400c4c:	703b      	strb	r3, [r7, #0]
  400c4e:	3501      	adds	r5, #1
	for (i = 0; i < size; i++) {
  400c50:	4545      	cmp	r5, r8
  400c52:	d1ea      	bne.n	400c2a <spi_master_transfer+0x16>
	}
	delay_us(5);
  400c54:	20fd      	movs	r0, #253	; 0xfd
  400c56:	4b05      	ldr	r3, [pc, #20]	; (400c6c <spi_master_transfer+0x58>)
  400c58:	4798      	blx	r3
}
  400c5a:	b003      	add	sp, #12
  400c5c:	e8bd 83f0 	ldmia.w	sp!, {r4, r5, r6, r7, r8, r9, pc}
  400c60:	40008000 	.word	0x40008000
  400c64:	20400a54 	.word	0x20400a54
  400c68:	004003b7 	.word	0x004003b7
  400c6c:	20400001 	.word	0x20400001
  400c70:	004003e7 	.word	0x004003e7

00400c74 <usart_serial_getchar>:
 * \param p_usart   Base address of the USART instance.
 * \param data   Data to read
 *
 */
static inline void usart_serial_getchar(usart_if p_usart, uint8_t *data)
{
  400c74:	b5f0      	push	{r4, r5, r6, r7, lr}
  400c76:	b083      	sub	sp, #12
  400c78:	4605      	mov	r5, r0
  400c7a:	460c      	mov	r4, r1
	uint32_t val = 0;
  400c7c:	2300      	movs	r3, #0
  400c7e:	9301      	str	r3, [sp, #4]
	if (UART == (Uart*)p_usart) {
		while (uart_read((Uart*)p_usart, data));
	}
#else
# ifdef UART0
	if (UART0 == (Uart*)p_usart) {
  400c80:	4b2a      	ldr	r3, [pc, #168]	; (400d2c <usart_serial_getchar+0xb8>)
  400c82:	4298      	cmp	r0, r3
  400c84:	d013      	beq.n	400cae <usart_serial_getchar+0x3a>
		while (uart_read((Uart*)p_usart, data));
	}
# endif
# ifdef UART1
	if (UART1 == (Uart*)p_usart) {
  400c86:	4b2a      	ldr	r3, [pc, #168]	; (400d30 <usart_serial_getchar+0xbc>)
  400c88:	4298      	cmp	r0, r3
  400c8a:	d018      	beq.n	400cbe <usart_serial_getchar+0x4a>
		while (uart_read((Uart*)p_usart, data));
	}
# endif
# ifdef UART2
	if (UART2 == (Uart*)p_usart) {
  400c8c:	4b29      	ldr	r3, [pc, #164]	; (400d34 <usart_serial_getchar+0xc0>)
  400c8e:	4298      	cmp	r0, r3
  400c90:	d01d      	beq.n	400cce <usart_serial_getchar+0x5a>
		while (uart_read((Uart*)p_usart, data));
	}
# endif
# ifdef UART3
	if (UART3 == (Uart*)p_usart) {
  400c92:	4b29      	ldr	r3, [pc, #164]	; (400d38 <usart_serial_getchar+0xc4>)
  400c94:	429d      	cmp	r5, r3
  400c96:	d022      	beq.n	400cde <usart_serial_getchar+0x6a>
		while (usart_read(p_usart, &val));
		*data = (uint8_t)(val & 0xFF);
	}
#else
# ifdef USART0
	if (USART0 == p_usart) {
  400c98:	4b28      	ldr	r3, [pc, #160]	; (400d3c <usart_serial_getchar+0xc8>)
  400c9a:	429d      	cmp	r5, r3
  400c9c:	d027      	beq.n	400cee <usart_serial_getchar+0x7a>
		while (usart_read(p_usart, &val));
		*data = (uint8_t)(val & 0xFF);
	}
# endif
# ifdef USART1
	if (USART1 == p_usart) {
  400c9e:	4b28      	ldr	r3, [pc, #160]	; (400d40 <usart_serial_getchar+0xcc>)
  400ca0:	429d      	cmp	r5, r3
  400ca2:	d02e      	beq.n	400d02 <usart_serial_getchar+0x8e>
		while (usart_read(p_usart, &val));
		*data = (uint8_t)(val & 0xFF);
	}
# endif
# ifdef USART2
	if (USART2 == p_usart) {
  400ca4:	4b27      	ldr	r3, [pc, #156]	; (400d44 <usart_serial_getchar+0xd0>)
  400ca6:	429d      	cmp	r5, r3
  400ca8:	d035      	beq.n	400d16 <usart_serial_getchar+0xa2>
		*data = (uint8_t)(val & 0xFF);
	}
# endif
#endif /* ifdef USART */

}
  400caa:	b003      	add	sp, #12
  400cac:	bdf0      	pop	{r4, r5, r6, r7, pc}
		while (uart_read((Uart*)p_usart, data));
  400cae:	461f      	mov	r7, r3
  400cb0:	4e25      	ldr	r6, [pc, #148]	; (400d48 <usart_serial_getchar+0xd4>)
  400cb2:	4621      	mov	r1, r4
  400cb4:	4638      	mov	r0, r7
  400cb6:	47b0      	blx	r6
  400cb8:	2800      	cmp	r0, #0
  400cba:	d1fa      	bne.n	400cb2 <usart_serial_getchar+0x3e>
  400cbc:	e7e9      	b.n	400c92 <usart_serial_getchar+0x1e>
		while (uart_read((Uart*)p_usart, data));
  400cbe:	461f      	mov	r7, r3
  400cc0:	4e21      	ldr	r6, [pc, #132]	; (400d48 <usart_serial_getchar+0xd4>)
  400cc2:	4621      	mov	r1, r4
  400cc4:	4638      	mov	r0, r7
  400cc6:	47b0      	blx	r6
  400cc8:	2800      	cmp	r0, #0
  400cca:	d1fa      	bne.n	400cc2 <usart_serial_getchar+0x4e>
  400ccc:	e7e4      	b.n	400c98 <usart_serial_getchar+0x24>
		while (uart_read((Uart*)p_usart, data));
  400cce:	461f      	mov	r7, r3
  400cd0:	4e1d      	ldr	r6, [pc, #116]	; (400d48 <usart_serial_getchar+0xd4>)
  400cd2:	4621      	mov	r1, r4
  400cd4:	4638      	mov	r0, r7
  400cd6:	47b0      	blx	r6
  400cd8:	2800      	cmp	r0, #0
  400cda:	d1fa      	bne.n	400cd2 <usart_serial_getchar+0x5e>
  400cdc:	e7df      	b.n	400c9e <usart_serial_getchar+0x2a>
		while (uart_read((Uart*)p_usart, data));
  400cde:	461f      	mov	r7, r3
  400ce0:	4e19      	ldr	r6, [pc, #100]	; (400d48 <usart_serial_getchar+0xd4>)
  400ce2:	4621      	mov	r1, r4
  400ce4:	4638      	mov	r0, r7
  400ce6:	47b0      	blx	r6
  400ce8:	2800      	cmp	r0, #0
  400cea:	d1fa      	bne.n	400ce2 <usart_serial_getchar+0x6e>
  400cec:	e7da      	b.n	400ca4 <usart_serial_getchar+0x30>
		while (usart_read(p_usart, &val));
  400cee:	461e      	mov	r6, r3
  400cf0:	4d16      	ldr	r5, [pc, #88]	; (400d4c <usart_serial_getchar+0xd8>)
  400cf2:	a901      	add	r1, sp, #4
  400cf4:	4630      	mov	r0, r6
  400cf6:	47a8      	blx	r5
  400cf8:	2800      	cmp	r0, #0
  400cfa:	d1fa      	bne.n	400cf2 <usart_serial_getchar+0x7e>
		*data = (uint8_t)(val & 0xFF);
  400cfc:	9b01      	ldr	r3, [sp, #4]
  400cfe:	7023      	strb	r3, [r4, #0]
  400d00:	e7d3      	b.n	400caa <usart_serial_getchar+0x36>
		while (usart_read(p_usart, &val));
  400d02:	461e      	mov	r6, r3
  400d04:	4d11      	ldr	r5, [pc, #68]	; (400d4c <usart_serial_getchar+0xd8>)
  400d06:	a901      	add	r1, sp, #4
  400d08:	4630      	mov	r0, r6
  400d0a:	47a8      	blx	r5
  400d0c:	2800      	cmp	r0, #0
  400d0e:	d1fa      	bne.n	400d06 <usart_serial_getchar+0x92>
		*data = (uint8_t)(val & 0xFF);
  400d10:	9b01      	ldr	r3, [sp, #4]
  400d12:	7023      	strb	r3, [r4, #0]
  400d14:	e7c9      	b.n	400caa <usart_serial_getchar+0x36>
		while (usart_read(p_usart, &val));
  400d16:	461e      	mov	r6, r3
  400d18:	4d0c      	ldr	r5, [pc, #48]	; (400d4c <usart_serial_getchar+0xd8>)
  400d1a:	a901      	add	r1, sp, #4
  400d1c:	4630      	mov	r0, r6
  400d1e:	47a8      	blx	r5
  400d20:	2800      	cmp	r0, #0
  400d22:	d1fa      	bne.n	400d1a <usart_serial_getchar+0xa6>
		*data = (uint8_t)(val & 0xFF);
  400d24:	9b01      	ldr	r3, [sp, #4]
  400d26:	7023      	strb	r3, [r4, #0]
}
  400d28:	e7bf      	b.n	400caa <usart_serial_getchar+0x36>
  400d2a:	bf00      	nop
  400d2c:	400e0800 	.word	0x400e0800
  400d30:	400e0a00 	.word	0x400e0a00
  400d34:	400e1a00 	.word	0x400e1a00
  400d38:	400e1c00 	.word	0x400e1c00
  400d3c:	40024000 	.word	0x40024000
  400d40:	40028000 	.word	0x40028000
  400d44:	4002c000 	.word	0x4002c000
  400d48:	004004c3 	.word	0x004004c3
  400d4c:	0040030b 	.word	0x0040030b

00400d50 <usart_serial_putchar>:
{
  400d50:	b570      	push	{r4, r5, r6, lr}
  400d52:	460c      	mov	r4, r1
	if (UART0 == (Uart*)p_usart) {
  400d54:	4b2a      	ldr	r3, [pc, #168]	; (400e00 <usart_serial_putchar+0xb0>)
  400d56:	4298      	cmp	r0, r3
  400d58:	d013      	beq.n	400d82 <usart_serial_putchar+0x32>
	if (UART1 == (Uart*)p_usart) {
  400d5a:	4b2a      	ldr	r3, [pc, #168]	; (400e04 <usart_serial_putchar+0xb4>)
  400d5c:	4298      	cmp	r0, r3
  400d5e:	d019      	beq.n	400d94 <usart_serial_putchar+0x44>
	if (UART2 == (Uart*)p_usart) {
  400d60:	4b29      	ldr	r3, [pc, #164]	; (400e08 <usart_serial_putchar+0xb8>)
  400d62:	4298      	cmp	r0, r3
  400d64:	d01f      	beq.n	400da6 <usart_serial_putchar+0x56>
	if (UART3 == (Uart*)p_usart) {
  400d66:	4b29      	ldr	r3, [pc, #164]	; (400e0c <usart_serial_putchar+0xbc>)
  400d68:	4298      	cmp	r0, r3
  400d6a:	d025      	beq.n	400db8 <usart_serial_putchar+0x68>
	if (USART0 == p_usart) {
  400d6c:	4b28      	ldr	r3, [pc, #160]	; (400e10 <usart_serial_putchar+0xc0>)
  400d6e:	4298      	cmp	r0, r3
  400d70:	d02b      	beq.n	400dca <usart_serial_putchar+0x7a>
	if (USART1 == p_usart) {
  400d72:	4b28      	ldr	r3, [pc, #160]	; (400e14 <usart_serial_putchar+0xc4>)
  400d74:	4298      	cmp	r0, r3
  400d76:	d031      	beq.n	400ddc <usart_serial_putchar+0x8c>
	if (USART2 == p_usart) {
  400d78:	4b27      	ldr	r3, [pc, #156]	; (400e18 <usart_serial_putchar+0xc8>)
  400d7a:	4298      	cmp	r0, r3
  400d7c:	d037      	beq.n	400dee <usart_serial_putchar+0x9e>
	return 0;
  400d7e:	2000      	movs	r0, #0
}
  400d80:	bd70      	pop	{r4, r5, r6, pc}
		while (uart_write((Uart*)p_usart, c)!=0);
  400d82:	461e      	mov	r6, r3
  400d84:	4d25      	ldr	r5, [pc, #148]	; (400e1c <usart_serial_putchar+0xcc>)
  400d86:	4621      	mov	r1, r4
  400d88:	4630      	mov	r0, r6
  400d8a:	47a8      	blx	r5
  400d8c:	2800      	cmp	r0, #0
  400d8e:	d1fa      	bne.n	400d86 <usart_serial_putchar+0x36>
		return 1;
  400d90:	2001      	movs	r0, #1
  400d92:	bd70      	pop	{r4, r5, r6, pc}
		while (uart_write((Uart*)p_usart, c)!=0);
  400d94:	461e      	mov	r6, r3
  400d96:	4d21      	ldr	r5, [pc, #132]	; (400e1c <usart_serial_putchar+0xcc>)
  400d98:	4621      	mov	r1, r4
  400d9a:	4630      	mov	r0, r6
  400d9c:	47a8      	blx	r5
  400d9e:	2800      	cmp	r0, #0
  400da0:	d1fa      	bne.n	400d98 <usart_serial_putchar+0x48>
		return 1;
  400da2:	2001      	movs	r0, #1
  400da4:	bd70      	pop	{r4, r5, r6, pc}
		while (uart_write((Uart*)p_usart, c)!=0);
  400da6:	461e      	mov	r6, r3
  400da8:	4d1c      	ldr	r5, [pc, #112]	; (400e1c <usart_serial_putchar+0xcc>)
  400daa:	4621      	mov	r1, r4
  400dac:	4630      	mov	r0, r6
  400dae:	47a8      	blx	r5
  400db0:	2800      	cmp	r0, #0
  400db2:	d1fa      	bne.n	400daa <usart_serial_putchar+0x5a>
		return 1;
  400db4:	2001      	movs	r0, #1
  400db6:	bd70      	pop	{r4, r5, r6, pc}
		while (uart_write((Uart*)p_usart, c)!=0);
  400db8:	461e      	mov	r6, r3
  400dba:	4d18      	ldr	r5, [pc, #96]	; (400e1c <usart_serial_putchar+0xcc>)
  400dbc:	4621      	mov	r1, r4
  400dbe:	4630      	mov	r0, r6
  400dc0:	47a8      	blx	r5
  400dc2:	2800      	cmp	r0, #0
  400dc4:	d1fa      	bne.n	400dbc <usart_serial_putchar+0x6c>
		return 1;
  400dc6:	2001      	movs	r0, #1
  400dc8:	bd70      	pop	{r4, r5, r6, pc}
		while (usart_write(p_usart, c)!=0);
  400dca:	461e      	mov	r6, r3
  400dcc:	4d14      	ldr	r5, [pc, #80]	; (400e20 <usart_serial_putchar+0xd0>)
  400dce:	4621      	mov	r1, r4
  400dd0:	4630      	mov	r0, r6
  400dd2:	47a8      	blx	r5
  400dd4:	2800      	cmp	r0, #0
  400dd6:	d1fa      	bne.n	400dce <usart_serial_putchar+0x7e>
		return 1;
  400dd8:	2001      	movs	r0, #1
  400dda:	bd70      	pop	{r4, r5, r6, pc}
		while (usart_write(p_usart, c)!=0);
  400ddc:	461e      	mov	r6, r3
  400dde:	4d10      	ldr	r5, [pc, #64]	; (400e20 <usart_serial_putchar+0xd0>)
  400de0:	4621      	mov	r1, r4
  400de2:	4630      	mov	r0, r6
  400de4:	47a8      	blx	r5
  400de6:	2800      	cmp	r0, #0
  400de8:	d1fa      	bne.n	400de0 <usart_serial_putchar+0x90>
		return 1;
  400dea:	2001      	movs	r0, #1
  400dec:	bd70      	pop	{r4, r5, r6, pc}
		while (usart_write(p_usart, c)!=0);
  400dee:	461e      	mov	r6, r3
  400df0:	4d0b      	ldr	r5, [pc, #44]	; (400e20 <usart_serial_putchar+0xd0>)
  400df2:	4621      	mov	r1, r4
  400df4:	4630      	mov	r0, r6
  400df6:	47a8      	blx	r5
  400df8:	2800      	cmp	r0, #0
  400dfa:	d1fa      	bne.n	400df2 <usart_serial_putchar+0xa2>
		return 1;
  400dfc:	2001      	movs	r0, #1
  400dfe:	bd70      	pop	{r4, r5, r6, pc}
  400e00:	400e0800 	.word	0x400e0800
  400e04:	400e0a00 	.word	0x400e0a00
  400e08:	400e1a00 	.word	0x400e1a00
  400e0c:	400e1c00 	.word	0x400e1c00
  400e10:	40024000 	.word	0x40024000
  400e14:	40028000 	.word	0x40028000
  400e18:	4002c000 	.word	0x4002c000
  400e1c:	004004b1 	.word	0x004004b1
  400e20:	004002f5 	.word	0x004002f5

00400e24 <nRF24_readRegister>:
 * 
 * \param reg register to read
 * \return data register
 */
uint8_t nRF24_readRegister(uint8_t reg)
{
  400e24:	b500      	push	{lr}
  400e26:	b083      	sub	sp, #12
	uint8_t cmd[2] = {R_REGISTER | (REGISTER_MASK & reg), 0xFF};
  400e28:	f000 001f 	and.w	r0, r0, #31
  400e2c:	f88d 0004 	strb.w	r0, [sp, #4]
  400e30:	23ff      	movs	r3, #255	; 0xff
  400e32:	f88d 3005 	strb.w	r3, [sp, #5]
	
	spi_master_transfer(&cmd, sizeof(cmd));
  400e36:	2102      	movs	r1, #2
  400e38:	a801      	add	r0, sp, #4
  400e3a:	4b03      	ldr	r3, [pc, #12]	; (400e48 <nRF24_readRegister+0x24>)
  400e3c:	4798      	blx	r3
	/** contents of cmd after transfer:
	 * [0] contains STATUS register
	 * [1] contains requested register
	*/
	return cmd[1]; 
}
  400e3e:	f89d 0005 	ldrb.w	r0, [sp, #5]
  400e42:	b003      	add	sp, #12
  400e44:	f85d fb04 	ldr.w	pc, [sp], #4
  400e48:	00400c15 	.word	0x00400c15

00400e4c <read_register>:

uint8_t read_register(uint8_t reg, uint8_t* buf, uint8_t len)
{
  400e4c:	b5f8      	push	{r3, r4, r5, r6, r7, lr}
  400e4e:	af00      	add	r7, sp, #0
  400e50:	460e      	mov	r6, r1
  400e52:	4614      	mov	r4, r2
	//1x spi zenden niet 2 commando's
	uint8_t status[len+1];
  400e54:	f102 0308 	add.w	r3, r2, #8
  400e58:	f023 0307 	bic.w	r3, r3, #7
  400e5c:	ebad 0d03 	sub.w	sp, sp, r3
  400e60:	466d      	mov	r5, sp
	status[0] = R_REGISTER | (REGISTER_MASK & reg);
  400e62:	f000 001f 	and.w	r0, r0, #31
  400e66:	f88d 0000 	strb.w	r0, [sp]
	spi_master_transfer(&status, sizeof(status));
  400e6a:	1c51      	adds	r1, r2, #1
  400e6c:	4668      	mov	r0, sp
  400e6e:	4b08      	ldr	r3, [pc, #32]	; (400e90 <read_register+0x44>)
  400e70:	4798      	blx	r3
	
	for (uint8_t i = 0; i< len; i++)
  400e72:	b154      	cbz	r4, 400e8a <read_register+0x3e>
  400e74:	1c68      	adds	r0, r5, #1
  400e76:	1e73      	subs	r3, r6, #1
  400e78:	1e61      	subs	r1, r4, #1
  400e7a:	fa56 f181 	uxtab	r1, r6, r1
	{
		buf[i] = status[i+1];
  400e7e:	f810 2b01 	ldrb.w	r2, [r0], #1
  400e82:	f803 2f01 	strb.w	r2, [r3, #1]!
	for (uint8_t i = 0; i< len; i++)
  400e86:	428b      	cmp	r3, r1
  400e88:	d1f9      	bne.n	400e7e <read_register+0x32>
	}
	
	return status[0];
	
}
  400e8a:	7828      	ldrb	r0, [r5, #0]
  400e8c:	46bd      	mov	sp, r7
  400e8e:	bdf8      	pop	{r3, r4, r5, r6, r7, pc}
  400e90:	00400c15 	.word	0x00400c15

00400e94 <nRF24_writeRegister>:
 * \param reg register to write
 * \param value to write
 * \return STATUS register 
 */
uint8_t nRF24_writeRegister(uint8_t reg, uint8_t val)
{
  400e94:	b500      	push	{lr}
  400e96:	b083      	sub	sp, #12
	uint8_t p_buf[2];
	
	p_buf[0] = (W_REGISTER | (REGISTER_MASK & reg));
  400e98:	f000 001f 	and.w	r0, r0, #31
  400e9c:	f040 0020 	orr.w	r0, r0, #32
  400ea0:	f88d 0004 	strb.w	r0, [sp, #4]
	p_buf[1] = val;
  400ea4:	f88d 1005 	strb.w	r1, [sp, #5]
	/** contents of p_buf before transfer
	* [0] write commando to reg
	* [1] data to write
	*/
	
	spi_master_transfer(p_buf, sizeof(p_buf));
  400ea8:	2102      	movs	r1, #2
  400eaa:	a801      	add	r0, sp, #4
  400eac:	4b03      	ldr	r3, [pc, #12]	; (400ebc <nRF24_writeRegister+0x28>)
  400eae:	4798      	blx	r3
	/** contents of p_buf after transfer
	* [0] Status register
	* [1] unknown data
	*/
	return p_buf[0]; //return STATUS
}
  400eb0:	f89d 0004 	ldrb.w	r0, [sp, #4]
  400eb4:	b003      	add	sp, #12
  400eb6:	f85d fb04 	ldr.w	pc, [sp], #4
  400eba:	bf00      	nop
  400ebc:	00400c15 	.word	0x00400c15

00400ec0 <nRF_writeRegister>:

uint8_t nRF_writeRegister(uint8_t reg, const uint8_t* buf, uint8_t length)
{
  400ec0:	b5f8      	push	{r3, r4, r5, r6, r7, lr}
  400ec2:	af00      	add	r7, sp, #0
	uint8_t p_buf[length+1];
  400ec4:	1c56      	adds	r6, r2, #1
  400ec6:	f102 0308 	add.w	r3, r2, #8
  400eca:	f023 0307 	bic.w	r3, r3, #7
  400ece:	ebad 0d03 	sub.w	sp, sp, r3
  400ed2:	466d      	mov	r5, sp
	
	p_buf[0] = (W_REGISTER | (REGISTER_MASK & reg));
  400ed4:	f000 001f 	and.w	r0, r0, #31
  400ed8:	f040 0020 	orr.w	r0, r0, #32
  400edc:	f88d 0000 	strb.w	r0, [sp]
	
	for (uint8_t i = 0; i < length; i++)
  400ee0:	b152      	cbz	r2, 400ef8 <nRF_writeRegister+0x38>
  400ee2:	1e4b      	subs	r3, r1, #1
  400ee4:	1c68      	adds	r0, r5, #1
  400ee6:	3a01      	subs	r2, #1
  400ee8:	fa51 f482 	uxtab	r4, r1, r2
	{
		p_buf[i+1] = (*buf++);
  400eec:	f813 2f01 	ldrb.w	r2, [r3, #1]!
  400ef0:	f800 2b01 	strb.w	r2, [r0], #1
	for (uint8_t i = 0; i < length; i++)
  400ef4:	42a3      	cmp	r3, r4
  400ef6:	d1f9      	bne.n	400eec <nRF_writeRegister+0x2c>
		//printf("%d || %02x || %02x\n\r", i, p_buf[i], *buf);
	}
	spi_master_transfer(p_buf, sizeof(p_buf));
  400ef8:	4631      	mov	r1, r6
  400efa:	4628      	mov	r0, r5
  400efc:	4b02      	ldr	r3, [pc, #8]	; (400f08 <nRF_writeRegister+0x48>)
  400efe:	4798      	blx	r3
	
	return p_buf[0];
}
  400f00:	7828      	ldrb	r0, [r5, #0]
  400f02:	46bd      	mov	sp, r7
  400f04:	bdf8      	pop	{r3, r4, r5, r6, r7, pc}
  400f06:	bf00      	nop
  400f08:	00400c15 	.word	0x00400c15

00400f0c <nRF24_FlushRx>:
/**
 * \brief flush the RX buffer of the nRF24L01 transceiver
 * \return STATUS
 */
uint8_t nRF24_FlushRx(void)
{
  400f0c:	b500      	push	{lr}
  400f0e:	b083      	sub	sp, #12
	uint8_t cmd;
	cmd = FLUSH_RX;
  400f10:	a802      	add	r0, sp, #8
  400f12:	23e2      	movs	r3, #226	; 0xe2
  400f14:	f800 3d01 	strb.w	r3, [r0, #-1]!
	
	spi_master_transfer(&cmd, sizeof(cmd));
  400f18:	2101      	movs	r1, #1
  400f1a:	4b03      	ldr	r3, [pc, #12]	; (400f28 <nRF24_FlushRx+0x1c>)
  400f1c:	4798      	blx	r3
	
	return cmd;
}
  400f1e:	f89d 0007 	ldrb.w	r0, [sp, #7]
  400f22:	b003      	add	sp, #12
  400f24:	f85d fb04 	ldr.w	pc, [sp], #4
  400f28:	00400c15 	.word	0x00400c15

00400f2c <nRF24_FlushTx>:
/**
 * \brief flush the TX buffer of the nRF24L01 transceiver
 * \return STATUS
 */
uint8_t nRF24_FlushTx(void)
{
  400f2c:	b500      	push	{lr}
  400f2e:	b083      	sub	sp, #12
	uint8_t cmd;
	cmd = FLUSH_TX;
  400f30:	a802      	add	r0, sp, #8
  400f32:	23e1      	movs	r3, #225	; 0xe1
  400f34:	f800 3d01 	strb.w	r3, [r0, #-1]!
	
	spi_master_transfer(&cmd, sizeof(cmd));
  400f38:	2101      	movs	r1, #1
  400f3a:	4b03      	ldr	r3, [pc, #12]	; (400f48 <nRF24_FlushTx+0x1c>)
  400f3c:	4798      	blx	r3
	return cmd;
}
  400f3e:	f89d 0007 	ldrb.w	r0, [sp, #7]
  400f42:	b003      	add	sp, #12
  400f44:	f85d fb04 	ldr.w	pc, [sp], #4
  400f48:	00400c15 	.word	0x00400c15

00400f4c <nRF24_getStatus>:
/**
 * \brief Read the Status register of the nRF24L01 transceiver
 * \return STATUS
 */
uint8_t nRF24_getStatus(void)
{
  400f4c:	b500      	push	{lr}
  400f4e:	b083      	sub	sp, #12
	uint8_t cmd;
	cmd = RF24_NOP;
  400f50:	a802      	add	r0, sp, #8
  400f52:	23ff      	movs	r3, #255	; 0xff
  400f54:	f800 3d01 	strb.w	r3, [r0, #-1]!
	
	spi_master_transfer(&cmd, sizeof(cmd));
  400f58:	2101      	movs	r1, #1
  400f5a:	4b03      	ldr	r3, [pc, #12]	; (400f68 <nRF24_getStatus+0x1c>)
  400f5c:	4798      	blx	r3
	return cmd;
}
  400f5e:	f89d 0007 	ldrb.w	r0, [sp, #7]
  400f62:	b003      	add	sp, #12
  400f64:	f85d fb04 	ldr.w	pc, [sp], #4
  400f68:	00400c15 	.word	0x00400c15

00400f6c <nRF24_setDataRate>:

bool nRF24_setDataRate(rf24_datarate_e speed)
{
  400f6c:	b538      	push	{r3, r4, r5, lr}
  400f6e:	4605      	mov	r5, r0
	bool result = false;
	uint8_t setup = nRF24_readRegister(RF_SETUP);
  400f70:	2006      	movs	r0, #6
  400f72:	4b0c      	ldr	r3, [pc, #48]	; (400fa4 <nRF24_setDataRate+0x38>)
  400f74:	4798      	blx	r3
	setup &= ~((1<<RF_DR));
  400f76:	f000 04f7 	and.w	r4, r0, #247	; 0xf7
	
	if (speed == RF24_2MBPS) {
  400f7a:	2d01      	cmp	r5, #1
  400f7c:	d00b      	beq.n	400f96 <nRF24_setDataRate+0x2a>
		txDelay = 190;
		#else // 16Mhz Arduino
		txDelay = 65;
		#endif
	}
	nRF24_writeRegister(RF_SETUP, setup);
  400f7e:	4621      	mov	r1, r4
  400f80:	2006      	movs	r0, #6
  400f82:	4b09      	ldr	r3, [pc, #36]	; (400fa8 <nRF24_setDataRate+0x3c>)
  400f84:	4798      	blx	r3
	
	if(nRF24_readRegister(RF_SETUP) == setup)
  400f86:	2006      	movs	r0, #6
  400f88:	4b06      	ldr	r3, [pc, #24]	; (400fa4 <nRF24_setDataRate+0x38>)
  400f8a:	4798      	blx	r3
	result = true;
	
	return result;
}
  400f8c:	4284      	cmp	r4, r0
  400f8e:	bf14      	ite	ne
  400f90:	2000      	movne	r0, #0
  400f92:	2001      	moveq	r0, #1
  400f94:	bd38      	pop	{r3, r4, r5, pc}
		setup |= (1<<RF_DR);
  400f96:	f044 0408 	orr.w	r4, r4, #8
		txDelay = 65;
  400f9a:	2241      	movs	r2, #65	; 0x41
  400f9c:	4b03      	ldr	r3, [pc, #12]	; (400fac <nRF24_setDataRate+0x40>)
  400f9e:	601a      	str	r2, [r3, #0]
  400fa0:	e7ed      	b.n	400f7e <nRF24_setDataRate+0x12>
  400fa2:	bf00      	nop
  400fa4:	00400e25 	.word	0x00400e25
  400fa8:	00400e95 	.word	0x00400e95
  400fac:	20400ab4 	.word	0x20400ab4

00400fb0 <getDataRate>:

rf24_datarate_e getDataRate(void)
{
  400fb0:	b508      	push	{r3, lr}
	rf24_datarate_e result;
	uint8_t dr = nRF24_readRegister(RF_SETUP) & ((1<<RF_DR_LOW) | (1<<RF_DR_HIGH));
  400fb2:	2006      	movs	r0, #6
  400fb4:	4b04      	ldr	r3, [pc, #16]	; (400fc8 <getDataRate+0x18>)
  400fb6:	4798      	blx	r3
	
	if (dr == (1<<RF_DR_HIGH)) {
  400fb8:	f000 0028 	and.w	r0, r0, #40	; 0x28
	} else {
		// '00' = 1MBPS
		result = RF24_1MBPS;
	}
	return result;
}
  400fbc:	2808      	cmp	r0, #8
  400fbe:	bf14      	ite	ne
  400fc0:	2000      	movne	r0, #0
  400fc2:	2001      	moveq	r0, #1
  400fc4:	bd08      	pop	{r3, pc}
  400fc6:	bf00      	nop
  400fc8:	00400e25 	.word	0x00400e25

00400fcc <getCRCLength>:

rf24_crclength_e getCRCLength(void)
{
  400fcc:	b538      	push	{r3, r4, r5, lr}
	rf24_crclength_e result = RF24_CRC_DISABLED;
	
	
	uint8_t config = nRF24_readRegister(NRF_CONFIG) & ((1<<CRCO) | (1<<EN_CRC));
  400fce:	2000      	movs	r0, #0
  400fd0:	4d08      	ldr	r5, [pc, #32]	; (400ff4 <getCRCLength+0x28>)
  400fd2:	47a8      	blx	r5
  400fd4:	4604      	mov	r4, r0
	uint8_t AA = nRF24_readRegister(EN_AA);
  400fd6:	2001      	movs	r0, #1
  400fd8:	47a8      	blx	r5
	
    if (config & (1<<EN_CRC) || AA) {
  400fda:	f014 0f08 	tst.w	r4, #8
  400fde:	d102      	bne.n	400fe6 <getCRCLength+0x1a>
  400fe0:	b908      	cbnz	r0, 400fe6 <getCRCLength+0x1a>
	rf24_crclength_e result = RF24_CRC_DISABLED;
  400fe2:	2000      	movs	r0, #0
		    result = RF24_CRC_8;
	    }
    }

    return result;	
}
  400fe4:	bd38      	pop	{r3, r4, r5, pc}
	    if (config & (1<<CRCO)) {
  400fe6:	f004 0404 	and.w	r4, r4, #4
		    result = RF24_CRC_8;
  400fea:	2c00      	cmp	r4, #0
  400fec:	bf14      	ite	ne
  400fee:	2002      	movne	r0, #2
  400ff0:	2001      	moveq	r0, #1
  400ff2:	bd38      	pop	{r3, r4, r5, pc}
  400ff4:	00400e25 	.word	0x00400e25

00400ff8 <nRF24_getPALevel>:

uint8_t nRF24_getPALevel(void)
{
  400ff8:	b508      	push	{r3, lr}
	return (nRF24_readRegister(RF_SETUP) & (1<<(RF_PWR_LOW) | (1<<RF_PWR_HIGH))) >> 1;
  400ffa:	2006      	movs	r0, #6
  400ffc:	4b02      	ldr	r3, [pc, #8]	; (401008 <nRF24_getPALevel+0x10>)
  400ffe:	4798      	blx	r3
}
  401000:	f3c0 0041 	ubfx	r0, r0, #1, #2
  401004:	bd08      	pop	{r3, pc}
  401006:	bf00      	nop
  401008:	00400e25 	.word	0x00400e25

0040100c <print_status>:
	return true;
}

#ifdef _DEBUG
void print_status (uint8_t status)
{
  40100c:	b510      	push	{r4, lr}
  40100e:	b084      	sub	sp, #16
  401010:	4601      	mov	r1, r0
	printf("STATUS\t\t = 0x%02x RX_DR=%x TX_DS=%x MAX_RT=%x RX_P_NO=%x TX_FULL=%x\r\n", status, (status & (1<<RX_DR)) ? 1 : 0, (status & (1<<TX_DS)) ? 1 : 0, (status & (1<<MAX_RT)) ? 1 : 0, (status & (1<<RX_P_NO)) ? 1 : 0, (status & (1<<TX_FULL)) ? 1 : 0);
  401012:	f000 0301 	and.w	r3, r0, #1
  401016:	9302      	str	r3, [sp, #8]
  401018:	f3c0 0340 	ubfx	r3, r0, #1, #1
  40101c:	9301      	str	r3, [sp, #4]
  40101e:	f3c0 1300 	ubfx	r3, r0, #4, #1
  401022:	9300      	str	r3, [sp, #0]
  401024:	f3c0 1340 	ubfx	r3, r0, #5, #1
  401028:	f3c0 1280 	ubfx	r2, r0, #6, #1
  40102c:	4802      	ldr	r0, [pc, #8]	; (401038 <print_status+0x2c>)
  40102e:	4c03      	ldr	r4, [pc, #12]	; (40103c <print_status+0x30>)
  401030:	47a0      	blx	r4
}
  401032:	b004      	add	sp, #16
  401034:	bd10      	pop	{r4, pc}
  401036:	bf00      	nop
  401038:	00404b28 	.word	0x00404b28
  40103c:	00401c7d 	.word	0x00401c7d

00401040 <print_address_register>:
//functie print verkeerde registers
void print_address_register(const char* name, uint8_t reg, uint8_t qty)
{
  401040:	e92d 4ff0 	stmdb	sp!, {r4, r5, r6, r7, r8, r9, sl, fp, lr}
  401044:	b083      	sub	sp, #12
  401046:	af00      	add	r7, sp, #0
  401048:	460e      	mov	r6, r1
  40104a:	4614      	mov	r4, r2
	printf("%s\t", name);
  40104c:	4601      	mov	r1, r0
  40104e:	481b      	ldr	r0, [pc, #108]	; (4010bc <print_address_register+0x7c>)
  401050:	4b1b      	ldr	r3, [pc, #108]	; (4010c0 <print_address_register+0x80>)
  401052:	4798      	blx	r3
	while(qty--){
  401054:	b35c      	cbz	r4, 4010ae <print_address_register+0x6e>
  401056:	4434      	add	r4, r6
  401058:	fa5f fa84 	uxtb.w	sl, r4
		uint8_t buffer[addr_width];
  40105c:	f8df b070 	ldr.w	fp, [pc, #112]	; 4010d0 <print_address_register+0x90>
	while(qty--){
  401060:	f8c7 d004 	str.w	sp, [r7, #4]
		uint8_t buffer[addr_width];
  401064:	f89b 4000 	ldrb.w	r4, [fp]
  401068:	1de3      	adds	r3, r4, #7
  40106a:	f023 0307 	bic.w	r3, r3, #7
  40106e:	ebad 0d03 	sub.w	sp, sp, r3
  401072:	466d      	mov	r5, sp
		read_register(reg++, buffer, sizeof(buffer));
  401074:	f106 0901 	add.w	r9, r6, #1
  401078:	fa5f f989 	uxtb.w	r9, r9
  40107c:	4622      	mov	r2, r4
  40107e:	4669      	mov	r1, sp
  401080:	4630      	mov	r0, r6
  401082:	4b10      	ldr	r3, [pc, #64]	; (4010c4 <print_address_register+0x84>)
  401084:	4798      	blx	r3
		
		printf(" 0x");
  401086:	4810      	ldr	r0, [pc, #64]	; (4010c8 <print_address_register+0x88>)
  401088:	4b0d      	ldr	r3, [pc, #52]	; (4010c0 <print_address_register+0x80>)
  40108a:	4798      	blx	r3
		uint8_t* bufptr = buffer + sizeof(buffer);
		while(--bufptr >= buffer){
  40108c:	3c01      	subs	r4, #1
  40108e:	192c      	adds	r4, r5, r4
  401090:	d208      	bcs.n	4010a4 <print_address_register+0x64>
			printf("%02x", *bufptr);
  401092:	f8df 8040 	ldr.w	r8, [pc, #64]	; 4010d4 <print_address_register+0x94>
  401096:	4e0a      	ldr	r6, [pc, #40]	; (4010c0 <print_address_register+0x80>)
  401098:	f814 1901 	ldrb.w	r1, [r4], #-1
  40109c:	4640      	mov	r0, r8
  40109e:	47b0      	blx	r6
		while(--bufptr >= buffer){
  4010a0:	42a5      	cmp	r5, r4
  4010a2:	d9f9      	bls.n	401098 <print_address_register+0x58>
  4010a4:	f8d7 d004 	ldr.w	sp, [r7, #4]
		read_register(reg++, buffer, sizeof(buffer));
  4010a8:	464e      	mov	r6, r9
	while(qty--){
  4010aa:	45ca      	cmp	sl, r9
  4010ac:	d1d8      	bne.n	401060 <print_address_register+0x20>
		}
	}
	printf("\r\n");
  4010ae:	4807      	ldr	r0, [pc, #28]	; (4010cc <print_address_register+0x8c>)
  4010b0:	4b03      	ldr	r3, [pc, #12]	; (4010c0 <print_address_register+0x80>)
  4010b2:	4798      	blx	r3
}
  4010b4:	370c      	adds	r7, #12
  4010b6:	46bd      	mov	sp, r7
  4010b8:	e8bd 8ff0 	ldmia.w	sp!, {r4, r5, r6, r7, r8, r9, sl, fp, pc}
  4010bc:	00404b10 	.word	0x00404b10
  4010c0:	00401c7d 	.word	0x00401c7d
  4010c4:	00400e4d 	.word	0x00400e4d
  4010c8:	00404b14 	.word	0x00404b14
  4010cc:	00404ae4 	.word	0x00404ae4
  4010d0:	20400a98 	.word	0x20400a98
  4010d4:	00404b18 	.word	0x00404b18

004010d8 <print_byte_register>:

void print_byte_register(const char* name, uint8_t reg, uint8_t qty)
{
  4010d8:	e92d 43f8 	stmdb	sp!, {r3, r4, r5, r6, r7, r8, r9, lr}
  4010dc:	460d      	mov	r5, r1
  4010de:	4616      	mov	r6, r2
	printf("%s\t", name);
  4010e0:	4601      	mov	r1, r0
  4010e2:	480d      	ldr	r0, [pc, #52]	; (401118 <print_byte_register+0x40>)
  4010e4:	4b0d      	ldr	r3, [pc, #52]	; (40111c <print_byte_register+0x44>)
  4010e6:	4798      	blx	r3
	while (qty--)
  4010e8:	b186      	cbz	r6, 40110c <print_byte_register+0x34>
  4010ea:	442e      	add	r6, r5
  4010ec:	b2f6      	uxtb	r6, r6
	{
		printf(" 0x%02x", nRF24_readRegister(reg++));
  4010ee:	f8df 9034 	ldr.w	r9, [pc, #52]	; 401124 <print_byte_register+0x4c>
  4010f2:	f8df 8034 	ldr.w	r8, [pc, #52]	; 401128 <print_byte_register+0x50>
  4010f6:	4f09      	ldr	r7, [pc, #36]	; (40111c <print_byte_register+0x44>)
  4010f8:	1c6c      	adds	r4, r5, #1
  4010fa:	b2e4      	uxtb	r4, r4
  4010fc:	4628      	mov	r0, r5
  4010fe:	47c8      	blx	r9
  401100:	4601      	mov	r1, r0
  401102:	4640      	mov	r0, r8
  401104:	47b8      	blx	r7
  401106:	4625      	mov	r5, r4
	while (qty--)
  401108:	42a6      	cmp	r6, r4
  40110a:	d1f5      	bne.n	4010f8 <print_byte_register+0x20>
	}
	printf("\r\n");
  40110c:	4804      	ldr	r0, [pc, #16]	; (401120 <print_byte_register+0x48>)
  40110e:	4b03      	ldr	r3, [pc, #12]	; (40111c <print_byte_register+0x44>)
  401110:	4798      	blx	r3
  401112:	e8bd 83f8 	ldmia.w	sp!, {r3, r4, r5, r6, r7, r8, r9, pc}
  401116:	bf00      	nop
  401118:	00404b10 	.word	0x00404b10
  40111c:	00401c7d 	.word	0x00401c7d
  401120:	00404ae4 	.word	0x00404ae4
  401124:	00400e25 	.word	0x00400e25
  401128:	00404b20 	.word	0x00404b20

0040112c <printDetails>:
}

void printDetails(void)
{
  40112c:	b570      	push	{r4, r5, r6, lr}
	printf("SPI Speed\t = %ld MHz\r\n",gs_ul_spi_clock/1000000);
  40112e:	2105      	movs	r1, #5
  401130:	4826      	ldr	r0, [pc, #152]	; (4011cc <printDetails+0xa0>)
  401132:	4d27      	ldr	r5, [pc, #156]	; (4011d0 <printDetails+0xa4>)
  401134:	47a8      	blx	r5
	print_status(nRF24_getStatus());
  401136:	4b27      	ldr	r3, [pc, #156]	; (4011d4 <printDetails+0xa8>)
  401138:	4798      	blx	r3
  40113a:	4b27      	ldr	r3, [pc, #156]	; (4011d8 <printDetails+0xac>)
  40113c:	4798      	blx	r3
	print_address_register("RX_ADDR_P0-1", RX_ADDR_P0, 2);
  40113e:	2202      	movs	r2, #2
  401140:	210a      	movs	r1, #10
  401142:	4826      	ldr	r0, [pc, #152]	; (4011dc <printDetails+0xb0>)
  401144:	4e26      	ldr	r6, [pc, #152]	; (4011e0 <printDetails+0xb4>)
  401146:	47b0      	blx	r6
	print_byte_register("RX_ADDR_P2-5", RX_ADDR_P2, 4);
  401148:	2204      	movs	r2, #4
  40114a:	210c      	movs	r1, #12
  40114c:	4825      	ldr	r0, [pc, #148]	; (4011e4 <printDetails+0xb8>)
  40114e:	4c26      	ldr	r4, [pc, #152]	; (4011e8 <printDetails+0xbc>)
  401150:	47a0      	blx	r4
	print_address_register("TX_ADDR\t", TX_ADDR, 1);
  401152:	2201      	movs	r2, #1
  401154:	2110      	movs	r1, #16
  401156:	4825      	ldr	r0, [pc, #148]	; (4011ec <printDetails+0xc0>)
  401158:	47b0      	blx	r6

	print_byte_register("RX_PW_P0-5", RX_PW_P0, 6);
  40115a:	2206      	movs	r2, #6
  40115c:	2111      	movs	r1, #17
  40115e:	4824      	ldr	r0, [pc, #144]	; (4011f0 <printDetails+0xc4>)
  401160:	47a0      	blx	r4
	print_byte_register("SETUP_AW", SETUP_AW, 1);
  401162:	2201      	movs	r2, #1
  401164:	2103      	movs	r1, #3
  401166:	4823      	ldr	r0, [pc, #140]	; (4011f4 <printDetails+0xc8>)
  401168:	47a0      	blx	r4
	print_byte_register("EN_AA\t", EN_AA, 1);
  40116a:	2201      	movs	r2, #1
  40116c:	4611      	mov	r1, r2
  40116e:	4822      	ldr	r0, [pc, #136]	; (4011f8 <printDetails+0xcc>)
  401170:	47a0      	blx	r4
	print_byte_register("EN_RXADDR", EN_RXADDR, 1);
  401172:	2201      	movs	r2, #1
  401174:	2102      	movs	r1, #2
  401176:	4821      	ldr	r0, [pc, #132]	; (4011fc <printDetails+0xd0>)
  401178:	47a0      	blx	r4
	print_byte_register("RF_CH\t", RF_CH, 1);
  40117a:	2201      	movs	r2, #1
  40117c:	2105      	movs	r1, #5
  40117e:	4820      	ldr	r0, [pc, #128]	; (401200 <printDetails+0xd4>)
  401180:	47a0      	blx	r4
	print_byte_register("RF_SETUP", RF_SETUP, 1);
  401182:	2201      	movs	r2, #1
  401184:	2106      	movs	r1, #6
  401186:	481f      	ldr	r0, [pc, #124]	; (401204 <printDetails+0xd8>)
  401188:	47a0      	blx	r4
	print_byte_register("CONFIG\t", NRF_CONFIG, 1);
  40118a:	2201      	movs	r2, #1
  40118c:	2100      	movs	r1, #0
  40118e:	481e      	ldr	r0, [pc, #120]	; (401208 <printDetails+0xdc>)
  401190:	47a0      	blx	r4
	print_byte_register("DYNPD/FEATURE", DYNPD, 2);
  401192:	2202      	movs	r2, #2
  401194:	211c      	movs	r1, #28
  401196:	481d      	ldr	r0, [pc, #116]	; (40120c <printDetails+0xe0>)
  401198:	47a0      	blx	r4
	 
	printf("Data Rate\t = %s\r\n", rf24_datarate_e_str_P[getDataRate()]);
  40119a:	4b1d      	ldr	r3, [pc, #116]	; (401210 <printDetails+0xe4>)
  40119c:	4798      	blx	r3
  40119e:	4b1d      	ldr	r3, [pc, #116]	; (401214 <printDetails+0xe8>)
  4011a0:	f853 1020 	ldr.w	r1, [r3, r0, lsl #2]
  4011a4:	481c      	ldr	r0, [pc, #112]	; (401218 <printDetails+0xec>)
  4011a6:	47a8      	blx	r5
	printf("Model\t\t = %s\r\n", rf24_model_e_str_P[isPVariant()]);
  4011a8:	491c      	ldr	r1, [pc, #112]	; (40121c <printDetails+0xf0>)
  4011aa:	481d      	ldr	r0, [pc, #116]	; (401220 <printDetails+0xf4>)
  4011ac:	47a8      	blx	r5
	printf("CRC Length\t = %s\r\n", rf24_crclength_e_str_P[getCRCLength()]);
  4011ae:	4b1d      	ldr	r3, [pc, #116]	; (401224 <printDetails+0xf8>)
  4011b0:	4798      	blx	r3
  4011b2:	4b1d      	ldr	r3, [pc, #116]	; (401228 <printDetails+0xfc>)
  4011b4:	f853 1020 	ldr.w	r1, [r3, r0, lsl #2]
  4011b8:	481c      	ldr	r0, [pc, #112]	; (40122c <printDetails+0x100>)
  4011ba:	47a8      	blx	r5
	printf("PA Power\t = %s\r\n", rf24_pa_dbm_e_str_P[nRF24_getPALevel()]);
  4011bc:	4b1c      	ldr	r3, [pc, #112]	; (401230 <printDetails+0x104>)
  4011be:	4798      	blx	r3
  4011c0:	4b1c      	ldr	r3, [pc, #112]	; (401234 <printDetails+0x108>)
  4011c2:	f853 1020 	ldr.w	r1, [r3, r0, lsl #2]
  4011c6:	481c      	ldr	r0, [pc, #112]	; (401238 <printDetails+0x10c>)
  4011c8:	47a8      	blx	r5
  4011ca:	bd70      	pop	{r4, r5, r6, pc}
  4011cc:	00404a28 	.word	0x00404a28
  4011d0:	00401c7d 	.word	0x00401c7d
  4011d4:	00400f4d 	.word	0x00400f4d
  4011d8:	0040100d 	.word	0x0040100d
  4011dc:	00404a40 	.word	0x00404a40
  4011e0:	00401041 	.word	0x00401041
  4011e4:	00404a50 	.word	0x00404a50
  4011e8:	004010d9 	.word	0x004010d9
  4011ec:	00404a60 	.word	0x00404a60
  4011f0:	00404a6c 	.word	0x00404a6c
  4011f4:	00404a78 	.word	0x00404a78
  4011f8:	00404a84 	.word	0x00404a84
  4011fc:	00404a8c 	.word	0x00404a8c
  401200:	00404a98 	.word	0x00404a98
  401204:	00404aa0 	.word	0x00404aa0
  401208:	00404aac 	.word	0x00404aac
  40120c:	00404ab4 	.word	0x00404ab4
  401210:	00400fb1 	.word	0x00400fb1
  401214:	00404bb0 	.word	0x00404bb0
  401218:	00404ac4 	.word	0x00404ac4
  40121c:	00404bbc 	.word	0x00404bbc
  401220:	00404ad8 	.word	0x00404ad8
  401224:	00400fcd 	.word	0x00400fcd
  401228:	00404b8c 	.word	0x00404b8c
  40122c:	00404ae8 	.word	0x00404ae8
  401230:	00400ff9 	.word	0x00400ff9
  401234:	00404be8 	.word	0x00404be8
  401238:	00404afc 	.word	0x00404afc

0040123c <nRF24_writePayload>:
}
#endif

uint8_t nRF24_writePayload(const void* buf, uint8_t data_len, const uint8_t writeType)
{
  40123c:	b5b0      	push	{r4, r5, r7, lr}
  40123e:	af00      	add	r7, sp, #0
	uint8_t blanklen = dynamic_payloads_enabled ? 0 : payload_size - data_len;
  401240:	4b13      	ldr	r3, [pc, #76]	; (401290 <nRF24_writePayload+0x54>)
  401242:	781b      	ldrb	r3, [r3, #0]
  401244:	bb0b      	cbnz	r3, 40128a <nRF24_writePayload+0x4e>
  401246:	4b13      	ldr	r3, [pc, #76]	; (401294 <nRF24_writePayload+0x58>)
  401248:	781b      	ldrb	r3, [r3, #0]
  40124a:	1a5b      	subs	r3, r3, r1
  40124c:	b2db      	uxtb	r3, r3
	uint8_t size = data_len + blanklen + 1;
  40124e:	3101      	adds	r1, #1
  401250:	4419      	add	r1, r3
  401252:	b2c9      	uxtb	r1, r1
	uint8_t s_buff[size];
  401254:	1dcb      	adds	r3, r1, #7
  401256:	f023 0307 	bic.w	r3, r3, #7
  40125a:	ebad 0d03 	sub.w	sp, sp, r3
  40125e:	466d      	mov	r5, sp
/*	
	#ifdef _DEBUG
	printf("[Writing %u bytes] ", data_len);
	#endif
*/	
	s_buff[0] = writeType;
  401260:	f88d 2000 	strb.w	r2, [sp]
	for (uint8_t i = 1; i< size; i++)
  401264:	2901      	cmp	r1, #1
  401266:	d90a      	bls.n	40127e <nRF24_writePayload+0x42>
  401268:	1e43      	subs	r3, r0, #1
  40126a:	1c6a      	adds	r2, r5, #1
  40126c:	1e8c      	subs	r4, r1, #2
  40126e:	fa50 f084 	uxtab	r0, r0, r4
	{
		s_buff[i] = current[i-1];
  401272:	f813 4f01 	ldrb.w	r4, [r3, #1]!
  401276:	f802 4b01 	strb.w	r4, [r2], #1
	for (uint8_t i = 1; i< size; i++)
  40127a:	4283      	cmp	r3, r0
  40127c:	d1f9      	bne.n	401272 <nRF24_writePayload+0x36>
	}
	
	spi_master_transfer(s_buff, size);
  40127e:	4628      	mov	r0, r5
  401280:	4b05      	ldr	r3, [pc, #20]	; (401298 <nRF24_writePayload+0x5c>)
  401282:	4798      	blx	r3

	return s_buff[0];
}
  401284:	7828      	ldrb	r0, [r5, #0]
  401286:	46bd      	mov	sp, r7
  401288:	bdb0      	pop	{r4, r5, r7, pc}
	uint8_t blanklen = dynamic_payloads_enabled ? 0 : payload_size - data_len;
  40128a:	2300      	movs	r3, #0
  40128c:	e7df      	b.n	40124e <nRF24_writePayload+0x12>
  40128e:	bf00      	nop
  401290:	20400a56 	.word	0x20400a56
  401294:	20400010 	.word	0x20400010
  401298:	00400c15 	.word	0x00400c15

0040129c <startFastWrite>:

void startFastWrite(const void* buf, uint8_t len, const bool multicast)
{
  40129c:	b508      	push	{r3, lr}
	nRF24_writePayload(buf, len, multicast ? W_TX_PAYLOAD_NO_ACK : W_TX_PAYLOAD); // ?: operator a ? b : c // if a, b else c
  40129e:	2a00      	cmp	r2, #0
  4012a0:	bf14      	ite	ne
  4012a2:	22b0      	movne	r2, #176	; 0xb0
  4012a4:	22a0      	moveq	r2, #160	; 0xa0
  4012a6:	4b03      	ldr	r3, [pc, #12]	; (4012b4 <startFastWrite+0x18>)
  4012a8:	4798      	blx	r3
		base->PIO_SODR = arch_ioport_pin_to_mask(pin);
  4012aa:	f44f 7200 	mov.w	r2, #512	; 0x200
  4012ae:	4b02      	ldr	r3, [pc, #8]	; (4012b8 <startFastWrite+0x1c>)
  4012b0:	631a      	str	r2, [r3, #48]	; 0x30
  4012b2:	bd08      	pop	{r3, pc}
  4012b4:	0040123d 	.word	0x0040123d
  4012b8:	400e1200 	.word	0x400e1200

004012bc <nRFwrite>:
	ioport_set_pin_level(CE, 1);

}

bool nRFwrite(const void* buf, uint8_t len, const bool multicast)
{
  4012bc:	b570      	push	{r4, r5, r6, lr}
	startFastWrite(buf, len, multicast);
  4012be:	4b0f      	ldr	r3, [pc, #60]	; (4012fc <nRFwrite+0x40>)
  4012c0:	4798      	blx	r3
	
	while(!(nRF24_getStatus() & ((1<<TX_DS) | (1<<MAX_RT))))
  4012c2:	4c0f      	ldr	r4, [pc, #60]	; (401300 <nRFwrite+0x44>)
	{
		delay_us(100);
  4012c4:	f241 36c2 	movw	r6, #5058	; 0x13c2
  4012c8:	4d0e      	ldr	r5, [pc, #56]	; (401304 <nRFwrite+0x48>)
	while(!(nRF24_getStatus() & ((1<<TX_DS) | (1<<MAX_RT))))
  4012ca:	e001      	b.n	4012d0 <nRFwrite+0x14>
		delay_us(100);
  4012cc:	4630      	mov	r0, r6
  4012ce:	47a8      	blx	r5
	while(!(nRF24_getStatus() & ((1<<TX_DS) | (1<<MAX_RT))))
  4012d0:	47a0      	blx	r4
  4012d2:	f010 0f30 	tst.w	r0, #48	; 0x30
  4012d6:	d0f9      	beq.n	4012cc <nRFwrite+0x10>
		base->PIO_CODR = arch_ioport_pin_to_mask(pin);
  4012d8:	f44f 7200 	mov.w	r2, #512	; 0x200
  4012dc:	4b0a      	ldr	r3, [pc, #40]	; (401308 <nRFwrite+0x4c>)
  4012de:	635a      	str	r2, [r3, #52]	; 0x34
	}
	ioport_set_pin_level(CE, 0);
	uint8_t status = nRF24_writeRegister(NRF_STATUS, (1<<RX_DR) | (1<<TX_DS) | (1<<MAX_RT));
  4012e0:	2170      	movs	r1, #112	; 0x70
  4012e2:	2007      	movs	r0, #7
  4012e4:	4b09      	ldr	r3, [pc, #36]	; (40130c <nRFwrite+0x50>)
  4012e6:	4798      	blx	r3
	
	if(status & (1<<MAX_RT)){
  4012e8:	f010 0f10 	tst.w	r0, #16
  4012ec:	d101      	bne.n	4012f2 <nRFwrite+0x36>
		nRF24_FlushTx();
		return 0;
	}
	return 1;
  4012ee:	2001      	movs	r0, #1
}
  4012f0:	bd70      	pop	{r4, r5, r6, pc}
		nRF24_FlushTx();
  4012f2:	4b07      	ldr	r3, [pc, #28]	; (401310 <nRFwrite+0x54>)
  4012f4:	4798      	blx	r3
		return 0;
  4012f6:	2000      	movs	r0, #0
  4012f8:	bd70      	pop	{r4, r5, r6, pc}
  4012fa:	bf00      	nop
  4012fc:	0040129d 	.word	0x0040129d
  401300:	00400f4d 	.word	0x00400f4d
  401304:	20400001 	.word	0x20400001
  401308:	400e1200 	.word	0x400e1200
  40130c:	00400e95 	.word	0x00400e95
  401310:	00400f2d 	.word	0x00400f2d

00401314 <nRF24_setAddressWidth>:
	
	return s_buff[0];
}

void nRF24_setAddressWidth(uint8_t width)
{
  401314:	b510      	push	{r4, lr}
	if (width -= 2){
  401316:	3802      	subs	r0, #2
  401318:	f010 00ff 	ands.w	r0, r0, #255	; 0xff
  40131c:	d107      	bne.n	40132e <nRF24_setAddressWidth+0x1a>
		nRF24_writeRegister(SETUP_AW, width % 4);
		addr_width = (width % 4) + 2;
		} else {
		nRF24_writeRegister(SETUP_AW, 0);
  40131e:	2100      	movs	r1, #0
  401320:	2003      	movs	r0, #3
  401322:	4b08      	ldr	r3, [pc, #32]	; (401344 <nRF24_setAddressWidth+0x30>)
  401324:	4798      	blx	r3
		addr_width = 2;
  401326:	2202      	movs	r2, #2
  401328:	4b07      	ldr	r3, [pc, #28]	; (401348 <nRF24_setAddressWidth+0x34>)
  40132a:	701a      	strb	r2, [r3, #0]
  40132c:	bd10      	pop	{r4, pc}
		nRF24_writeRegister(SETUP_AW, width % 4);
  40132e:	f000 0403 	and.w	r4, r0, #3
  401332:	4621      	mov	r1, r4
  401334:	2003      	movs	r0, #3
  401336:	4b03      	ldr	r3, [pc, #12]	; (401344 <nRF24_setAddressWidth+0x30>)
  401338:	4798      	blx	r3
		addr_width = (width % 4) + 2;
  40133a:	1ca0      	adds	r0, r4, #2
  40133c:	4b02      	ldr	r3, [pc, #8]	; (401348 <nRF24_setAddressWidth+0x34>)
  40133e:	7018      	strb	r0, [r3, #0]
  401340:	bd10      	pop	{r4, pc}
  401342:	bf00      	nop
  401344:	00400e95 	.word	0x00400e95
  401348:	20400a98 	.word	0x20400a98

0040134c <nRF24_setCRCLength>:
{
	nRF24_writeRegister(SETUP_RETR, (delay & 0xF) << ARD | (count & 0xF) <<ARC );
}

void nRF24_setCRCLength(rf24_crclength_e length)
{
  40134c:	b510      	push	{r4, lr}
  40134e:	4604      	mov	r4, r0
	uint8_t config = nRF24_readRegister(NRF_CONFIG) & ~((1<<CRCO) | (1<<EN_CRC));
  401350:	2000      	movs	r0, #0
  401352:	4b07      	ldr	r3, [pc, #28]	; (401370 <nRF24_setCRCLength+0x24>)
  401354:	4798      	blx	r3
  401356:	f000 01f3 	and.w	r1, r0, #243	; 0xf3
	
	if (length == RF24_CRC_DISABLED){
  40135a:	b12c      	cbz	r4, 401368 <nRF24_setCRCLength+0x1c>
		// do nothing we turned it off above
	} 
	else if (length == RF24_CRC_8){
  40135c:	2c01      	cmp	r4, #1
		config |= (1<<EN_CRC);
  40135e:	bf0c      	ite	eq
  401360:	f041 0108 	orreq.w	r1, r1, #8
	} 
	else //CRC 16 bit
	{
		config |= (1<<EN_CRC);
		config |= (1<<CRCO);
  401364:	f041 010c 	orrne.w	r1, r1, #12
	}
	nRF24_writeRegister(NRF_CONFIG, config);
  401368:	2000      	movs	r0, #0
  40136a:	4b02      	ldr	r3, [pc, #8]	; (401374 <nRF24_setCRCLength+0x28>)
  40136c:	4798      	blx	r3
  40136e:	bd10      	pop	{r4, pc}
  401370:	00400e25 	.word	0x00400e25
  401374:	00400e95 	.word	0x00400e95

00401378 <toggle_features>:
}

void toggle_features(void)
{
  401378:	b500      	push	{lr}
  40137a:	b083      	sub	sp, #12
	uint8_t config[2] = {ACTIVATE, 0x73};
  40137c:	4b05      	ldr	r3, [pc, #20]	; (401394 <toggle_features+0x1c>)
  40137e:	881b      	ldrh	r3, [r3, #0]
  401380:	a802      	add	r0, sp, #8
  401382:	f820 3d04 	strh.w	r3, [r0, #-4]!
	
	spi_master_transfer(config, sizeof(config));
  401386:	2102      	movs	r1, #2
  401388:	4b03      	ldr	r3, [pc, #12]	; (401398 <toggle_features+0x20>)
  40138a:	4798      	blx	r3
}
  40138c:	b003      	add	sp, #12
  40138e:	f85d fb04 	ldr.w	pc, [sp], #4
  401392:	bf00      	nop
  401394:	00404934 	.word	0x00404934
  401398:	00400c15 	.word	0x00400c15

0040139c <nRF24_setChannel>:

void nRF24_setChannel(uint8_t channel)
{
  40139c:	b508      	push	{r3, lr}
	const uint8_t max_channel = 125;
	if (channel > max_channel)
  40139e:	287d      	cmp	r0, #125	; 0x7d
		nRF24_writeRegister(RF_CH, max_channel);
  4013a0:	bf8c      	ite	hi
  4013a2:	217d      	movhi	r1, #125	; 0x7d
	else
		nRF24_writeRegister(RF_CH, channel);
  4013a4:	4601      	movls	r1, r0
  4013a6:	2005      	movs	r0, #5
  4013a8:	4b01      	ldr	r3, [pc, #4]	; (4013b0 <nRF24_setChannel+0x14>)
  4013aa:	4798      	blx	r3
  4013ac:	bd08      	pop	{r3, pc}
  4013ae:	bf00      	nop
  4013b0:	00400e95 	.word	0x00400e95

004013b4 <nRF24_powerUp>:
}

void nRF24_powerUp(void)
{
  4013b4:	b508      	push	{r3, lr}
	uint8_t config = nRF24_readRegister(NRF_CONFIG);
  4013b6:	2000      	movs	r0, #0
  4013b8:	4b07      	ldr	r3, [pc, #28]	; (4013d8 <nRF24_powerUp+0x24>)
  4013ba:	4798      	blx	r3
	
	if (!(config & (1<<PWR_UP))){
  4013bc:	f010 0f02 	tst.w	r0, #2
  4013c0:	d000      	beq.n	4013c4 <nRF24_powerUp+0x10>
  4013c2:	bd08      	pop	{r3, pc}
		nRF24_writeRegister(NRF_CONFIG, config | (1<<PWR_UP));
  4013c4:	f040 0102 	orr.w	r1, r0, #2
  4013c8:	b2c9      	uxtb	r1, r1
  4013ca:	2000      	movs	r0, #0
  4013cc:	4b03      	ldr	r3, [pc, #12]	; (4013dc <nRF24_powerUp+0x28>)
  4013ce:	4798      	blx	r3
		delay_ms(5);
  4013d0:	4803      	ldr	r0, [pc, #12]	; (4013e0 <nRF24_powerUp+0x2c>)
  4013d2:	4b04      	ldr	r3, [pc, #16]	; (4013e4 <nRF24_powerUp+0x30>)
  4013d4:	4798      	blx	r3
	}
}
  4013d6:	e7f4      	b.n	4013c2 <nRF24_powerUp+0xe>
  4013d8:	00400e25 	.word	0x00400e25
  4013dc:	00400e95 	.word	0x00400e95
  4013e0:	0003dbc2 	.word	0x0003dbc2
  4013e4:	20400001 	.word	0x20400001

004013e8 <nRF24_stopListening>:
		nRF24_FlushTx();
	}
}

void nRF24_stopListening(void)
{
  4013e8:	b538      	push	{r3, r4, r5, lr}
  4013ea:	f44f 7200 	mov.w	r2, #512	; 0x200
  4013ee:	4b21      	ldr	r3, [pc, #132]	; (401474 <nRF24_stopListening+0x8c>)
  4013f0:	635a      	str	r2, [r3, #52]	; 0x34
	ioport_set_pin_level(CE, 0);
	
	delay_us(txDelay);
  4013f2:	4b21      	ldr	r3, [pc, #132]	; (401478 <nRF24_stopListening+0x90>)
  4013f4:	6819      	ldr	r1, [r3, #0]
  4013f6:	2900      	cmp	r1, #0
  4013f8:	d034      	beq.n	401464 <nRF24_stopListening+0x7c>
  4013fa:	4a20      	ldr	r2, [pc, #128]	; (40147c <nRF24_stopListening+0x94>)
  4013fc:	2300      	movs	r3, #0
  4013fe:	4c20      	ldr	r4, [pc, #128]	; (401480 <nRF24_stopListening+0x98>)
  401400:	2500      	movs	r5, #0
  401402:	4820      	ldr	r0, [pc, #128]	; (401484 <nRF24_stopListening+0x9c>)
  401404:	fbe0 4501 	umlal	r4, r5, r0, r1
  401408:	4620      	mov	r0, r4
  40140a:	4629      	mov	r1, r5
  40140c:	4c1e      	ldr	r4, [pc, #120]	; (401488 <nRF24_stopListening+0xa0>)
  40140e:	47a0      	blx	r4
  401410:	4b1e      	ldr	r3, [pc, #120]	; (40148c <nRF24_stopListening+0xa4>)
  401412:	4798      	blx	r3
	if (nRF24_readRegister(FEATURE) & 1<<(EN_ACK_PAY))
  401414:	201d      	movs	r0, #29
  401416:	4b1e      	ldr	r3, [pc, #120]	; (401490 <nRF24_stopListening+0xa8>)
  401418:	4798      	blx	r3
  40141a:	f010 0f02 	tst.w	r0, #2
  40141e:	d011      	beq.n	401444 <nRF24_stopListening+0x5c>
	{
		delay_us(txDelay);
  401420:	4b15      	ldr	r3, [pc, #84]	; (401478 <nRF24_stopListening+0x90>)
  401422:	6819      	ldr	r1, [r3, #0]
  401424:	b311      	cbz	r1, 40146c <nRF24_stopListening+0x84>
  401426:	4a15      	ldr	r2, [pc, #84]	; (40147c <nRF24_stopListening+0x94>)
  401428:	2300      	movs	r3, #0
  40142a:	4c15      	ldr	r4, [pc, #84]	; (401480 <nRF24_stopListening+0x98>)
  40142c:	2500      	movs	r5, #0
  40142e:	4815      	ldr	r0, [pc, #84]	; (401484 <nRF24_stopListening+0x9c>)
  401430:	fbe0 4501 	umlal	r4, r5, r0, r1
  401434:	4620      	mov	r0, r4
  401436:	4629      	mov	r1, r5
  401438:	4c13      	ldr	r4, [pc, #76]	; (401488 <nRF24_stopListening+0xa0>)
  40143a:	47a0      	blx	r4
  40143c:	4b13      	ldr	r3, [pc, #76]	; (40148c <nRF24_stopListening+0xa4>)
  40143e:	4798      	blx	r3
		nRF24_FlushTx();
  401440:	4b14      	ldr	r3, [pc, #80]	; (401494 <nRF24_stopListening+0xac>)
  401442:	4798      	blx	r3
	}
	nRF24_writeRegister(NRF_CONFIG, (nRF24_readRegister(NRF_CONFIG)) & ~(1<<PRIM_RX));
  401444:	2000      	movs	r0, #0
  401446:	4d12      	ldr	r5, [pc, #72]	; (401490 <nRF24_stopListening+0xa8>)
  401448:	47a8      	blx	r5
  40144a:	f000 01fe 	and.w	r1, r0, #254	; 0xfe
  40144e:	2000      	movs	r0, #0
  401450:	4c11      	ldr	r4, [pc, #68]	; (401498 <nRF24_stopListening+0xb0>)
  401452:	47a0      	blx	r4
	nRF24_writeRegister(EN_RXADDR, nRF24_readRegister(EN_RXADDR) | (1<< pipe_enable_s[0])); 
  401454:	2002      	movs	r0, #2
  401456:	47a8      	blx	r5
  401458:	f040 0101 	orr.w	r1, r0, #1
  40145c:	b2c9      	uxtb	r1, r1
  40145e:	2002      	movs	r0, #2
  401460:	47a0      	blx	r4
  401462:	bd38      	pop	{r3, r4, r5, pc}
	delay_us(txDelay);
  401464:	2033      	movs	r0, #51	; 0x33
  401466:	4b09      	ldr	r3, [pc, #36]	; (40148c <nRF24_stopListening+0xa4>)
  401468:	4798      	blx	r3
  40146a:	e7d3      	b.n	401414 <nRF24_stopListening+0x2c>
		delay_us(txDelay);
  40146c:	2033      	movs	r0, #51	; 0x33
  40146e:	4b07      	ldr	r3, [pc, #28]	; (40148c <nRF24_stopListening+0xa4>)
  401470:	4798      	blx	r3
  401472:	e7e5      	b.n	401440 <nRF24_stopListening+0x58>
  401474:	400e1200 	.word	0x400e1200
  401478:	20400ab4 	.word	0x20400ab4
  40147c:	005a83e0 	.word	0x005a83e0
  401480:	005a83df 	.word	0x005a83df
  401484:	11e1a300 	.word	0x11e1a300
  401488:	0040191d 	.word	0x0040191d
  40148c:	20400001 	.word	0x20400001
  401490:	00400e25 	.word	0x00400e25
  401494:	00400f2d 	.word	0x00400f2d
  401498:	00400e95 	.word	0x00400e95

0040149c <nRF24_begin>:
}

bool nRF24_begin(void)
{
  40149c:	b538      	push	{r3, r4, r5, lr}
		base->PIO_OER = arch_ioport_pin_to_mask(pin);
  40149e:	4b1a      	ldr	r3, [pc, #104]	; (401508 <nRF24_begin+0x6c>)
  4014a0:	f44f 7200 	mov.w	r2, #512	; 0x200
  4014a4:	611a      	str	r2, [r3, #16]
	base->PIO_OWER = arch_ioport_pin_to_mask(pin);
  4014a6:	f8c3 20a0 	str.w	r2, [r3, #160]	; 0xa0
		base->PIO_CODR = arch_ioport_pin_to_mask(pin);
  4014aa:	635a      	str	r2, [r3, #52]	; 0x34
	uint8_t setup = 0;
	ioport_set_pin_dir(CE, IOPORT_DIR_OUTPUT);//ce_pin PC9
	ioport_set_pin_level(CE, 0);
	
	nRF24_writeRegister(NRF_CONFIG, 0x0C);
  4014ac:	210c      	movs	r1, #12
  4014ae:	2000      	movs	r0, #0
  4014b0:	4c16      	ldr	r4, [pc, #88]	; (40150c <nRF24_begin+0x70>)
  4014b2:	47a0      	blx	r4
	nRF24_writeRegister(SETUP_RETR, (delay & 0xF) << ARD | (count & 0xF) <<ARC );
  4014b4:	215f      	movs	r1, #95	; 0x5f
  4014b6:	2004      	movs	r0, #4
  4014b8:	47a0      	blx	r4
	nRF24_setRetries(5, 15);
	
	nRF24_setDataRate(RF24_1MBPS);
  4014ba:	2000      	movs	r0, #0
  4014bc:	4b14      	ldr	r3, [pc, #80]	; (401510 <nRF24_begin+0x74>)
  4014be:	4798      	blx	r3
	nRF24_setCRCLength(RF24_CRC_16);
  4014c0:	2002      	movs	r0, #2
  4014c2:	4b14      	ldr	r3, [pc, #80]	; (401514 <nRF24_begin+0x78>)
  4014c4:	4798      	blx	r3
	toggle_features();
  4014c6:	4b14      	ldr	r3, [pc, #80]	; (401518 <nRF24_begin+0x7c>)
  4014c8:	4798      	blx	r3
	
	//reset current status
	nRF24_writeRegister(NRF_STATUS, (1<<RX_DR) | (1<<TX_DS) | (1<<MAX_RT));
  4014ca:	2170      	movs	r1, #112	; 0x70
  4014cc:	2007      	movs	r0, #7
  4014ce:	47a0      	blx	r4
	
	nRF24_setChannel(76);
  4014d0:	204c      	movs	r0, #76	; 0x4c
  4014d2:	4b12      	ldr	r3, [pc, #72]	; (40151c <nRF24_begin+0x80>)
  4014d4:	4798      	blx	r3
	nRF24_setAddressWidth(ADDR_4bytes);
  4014d6:	2004      	movs	r0, #4
  4014d8:	4b11      	ldr	r3, [pc, #68]	; (401520 <nRF24_begin+0x84>)
  4014da:	4798      	blx	r3
	
	nRF24_FlushRx();
  4014dc:	4b11      	ldr	r3, [pc, #68]	; (401524 <nRF24_begin+0x88>)
  4014de:	4798      	blx	r3
	nRF24_FlushTx();
  4014e0:	4b11      	ldr	r3, [pc, #68]	; (401528 <nRF24_begin+0x8c>)
  4014e2:	4798      	blx	r3
	
	nRF24_powerUp();
  4014e4:	4b11      	ldr	r3, [pc, #68]	; (40152c <nRF24_begin+0x90>)
  4014e6:	4798      	blx	r3
	
	nRF24_writeRegister(NRF_CONFIG, (nRF24_readRegister(NRF_CONFIG)) & ~(1<<PRIM_RX));
  4014e8:	2000      	movs	r0, #0
  4014ea:	4d11      	ldr	r5, [pc, #68]	; (401530 <nRF24_begin+0x94>)
  4014ec:	47a8      	blx	r5
  4014ee:	f000 01fe 	and.w	r1, r0, #254	; 0xfe
  4014f2:	2000      	movs	r0, #0
  4014f4:	47a0      	blx	r4
	setup = nRF24_readRegister(RF_SETUP);
  4014f6:	2006      	movs	r0, #6
  4014f8:	47a8      	blx	r5
	
	return (setup != 0 && setup != 0xFF);
  4014fa:	3801      	subs	r0, #1
  4014fc:	b2c0      	uxtb	r0, r0
}
  4014fe:	28fd      	cmp	r0, #253	; 0xfd
  401500:	bf8c      	ite	hi
  401502:	2000      	movhi	r0, #0
  401504:	2001      	movls	r0, #1
  401506:	bd38      	pop	{r3, r4, r5, pc}
  401508:	400e1200 	.word	0x400e1200
  40150c:	00400e95 	.word	0x00400e95
  401510:	00400f6d 	.word	0x00400f6d
  401514:	0040134d 	.word	0x0040134d
  401518:	00401379 	.word	0x00401379
  40151c:	0040139d 	.word	0x0040139d
  401520:	00401315 	.word	0x00401315
  401524:	00400f0d 	.word	0x00400f0d
  401528:	00400f2d 	.word	0x00400f2d
  40152c:	004013b5 	.word	0x004013b5
  401530:	00400e25 	.word	0x00400e25

00401534 <nRF24_openWritingPipe>:

void nRF24_openWritingPipe(uint64_t address)
{
  401534:	b570      	push	{r4, r5, r6, lr}
  401536:	b082      	sub	sp, #8
  401538:	ac02      	add	r4, sp, #8
  40153a:	e964 0102 	strd	r0, r1, [r4, #-8]!
	nRF_writeRegister(RX_ADDR_P0, (uint8_t *)(&address), addr_width);
  40153e:	4e08      	ldr	r6, [pc, #32]	; (401560 <nRF24_openWritingPipe+0x2c>)
  401540:	7832      	ldrb	r2, [r6, #0]
  401542:	4621      	mov	r1, r4
  401544:	200a      	movs	r0, #10
  401546:	4d07      	ldr	r5, [pc, #28]	; (401564 <nRF24_openWritingPipe+0x30>)
  401548:	47a8      	blx	r5
	nRF_writeRegister(TX_ADDR, (uint8_t *)(&address), addr_width);
  40154a:	7832      	ldrb	r2, [r6, #0]
  40154c:	4621      	mov	r1, r4
  40154e:	2010      	movs	r0, #16
  401550:	47a8      	blx	r5
	
	nRF24_writeRegister(RX_PW_P0, payload_size);
  401552:	4b05      	ldr	r3, [pc, #20]	; (401568 <nRF24_openWritingPipe+0x34>)
  401554:	7819      	ldrb	r1, [r3, #0]
  401556:	2011      	movs	r0, #17
  401558:	4b04      	ldr	r3, [pc, #16]	; (40156c <nRF24_openWritingPipe+0x38>)
  40155a:	4798      	blx	r3
}
  40155c:	b002      	add	sp, #8
  40155e:	bd70      	pop	{r4, r5, r6, pc}
  401560:	20400a98 	.word	0x20400a98
  401564:	00400ec1 	.word	0x00400ec1
  401568:	20400010 	.word	0x20400010
  40156c:	00400e95 	.word	0x00400e95

00401570 <nRF24_openReadingPipe>:
{
	return payload_size;
}

void nRF24_openReadingPipe(uint8_t pipe, uint64_t address)
{	
  401570:	b510      	push	{r4, lr}
  401572:	b082      	sub	sp, #8
  401574:	e9cd 2300 	strd	r2, r3, [sp]
	if (pipe == 0){
  401578:	4604      	mov	r4, r0
  40157a:	b1e8      	cbz	r0, 4015b8 <nRF24_openReadingPipe+0x48>
		memcpy(pipe0_reading_address, &address, addr_width);
	}
	if (pipe <= 5){
  40157c:	2805      	cmp	r0, #5
  40157e:	d80d      	bhi.n	40159c <nRF24_openReadingPipe+0x2c>
		if (pipe < 2){
  401580:	2801      	cmp	r0, #1
  401582:	d91f      	bls.n	4015c4 <nRF24_openReadingPipe+0x54>
			nRF_writeRegister(pipe_s[pipe], (const uint8_t *) (&address), addr_width);
		} else {
			nRF_writeRegister(pipe_s[pipe], (const uint8_t *) (&address), 1);
  401584:	2201      	movs	r2, #1
  401586:	4669      	mov	r1, sp
  401588:	4b12      	ldr	r3, [pc, #72]	; (4015d4 <nRF24_openReadingPipe+0x64>)
  40158a:	5c18      	ldrb	r0, [r3, r0]
  40158c:	4b12      	ldr	r3, [pc, #72]	; (4015d8 <nRF24_openReadingPipe+0x68>)
  40158e:	4798      	blx	r3
		}
		nRF24_writeRegister(pipe_size_s[pipe], payload_size);
  401590:	4b12      	ldr	r3, [pc, #72]	; (4015dc <nRF24_openReadingPipe+0x6c>)
  401592:	7819      	ldrb	r1, [r3, #0]
  401594:	4b12      	ldr	r3, [pc, #72]	; (4015e0 <nRF24_openReadingPipe+0x70>)
  401596:	5d18      	ldrb	r0, [r3, r4]
  401598:	4b12      	ldr	r3, [pc, #72]	; (4015e4 <nRF24_openReadingPipe+0x74>)
  40159a:	4798      	blx	r3
	}
	nRF24_writeRegister(EN_RXADDR, nRF24_readRegister(EN_RXADDR) | (1 << pipe_enable_s[pipe]));
  40159c:	2002      	movs	r0, #2
  40159e:	4b12      	ldr	r3, [pc, #72]	; (4015e8 <nRF24_openReadingPipe+0x78>)
  4015a0:	4798      	blx	r3
  4015a2:	4b12      	ldr	r3, [pc, #72]	; (4015ec <nRF24_openReadingPipe+0x7c>)
  4015a4:	5d1b      	ldrb	r3, [r3, r4]
  4015a6:	2101      	movs	r1, #1
  4015a8:	4099      	lsls	r1, r3
  4015aa:	4301      	orrs	r1, r0
  4015ac:	b2c9      	uxtb	r1, r1
  4015ae:	2002      	movs	r0, #2
  4015b0:	4b0c      	ldr	r3, [pc, #48]	; (4015e4 <nRF24_openReadingPipe+0x74>)
  4015b2:	4798      	blx	r3
}
  4015b4:	b002      	add	sp, #8
  4015b6:	bd10      	pop	{r4, pc}
		memcpy(pipe0_reading_address, &address, addr_width);
  4015b8:	4b0d      	ldr	r3, [pc, #52]	; (4015f0 <nRF24_openReadingPipe+0x80>)
  4015ba:	781a      	ldrb	r2, [r3, #0]
  4015bc:	4669      	mov	r1, sp
  4015be:	480d      	ldr	r0, [pc, #52]	; (4015f4 <nRF24_openReadingPipe+0x84>)
  4015c0:	4b0d      	ldr	r3, [pc, #52]	; (4015f8 <nRF24_openReadingPipe+0x88>)
  4015c2:	4798      	blx	r3
			nRF_writeRegister(pipe_s[pipe], (const uint8_t *) (&address), addr_width);
  4015c4:	4b0a      	ldr	r3, [pc, #40]	; (4015f0 <nRF24_openReadingPipe+0x80>)
  4015c6:	781a      	ldrb	r2, [r3, #0]
  4015c8:	4669      	mov	r1, sp
  4015ca:	4b02      	ldr	r3, [pc, #8]	; (4015d4 <nRF24_openReadingPipe+0x64>)
  4015cc:	5d18      	ldrb	r0, [r3, r4]
  4015ce:	4b02      	ldr	r3, [pc, #8]	; (4015d8 <nRF24_openReadingPipe+0x68>)
  4015d0:	4798      	blx	r3
  4015d2:	e7dd      	b.n	401590 <nRF24_openReadingPipe+0x20>
  4015d4:	00404a18 	.word	0x00404a18
  4015d8:	00400ec1 	.word	0x00400ec1
  4015dc:	20400010 	.word	0x20400010
  4015e0:	00404a20 	.word	0x00404a20
  4015e4:	00400e95 	.word	0x00400e95
  4015e8:	00400e25 	.word	0x00400e25
  4015ec:	00404a10 	.word	0x00404a10
  4015f0:	20400a98 	.word	0x20400a98
  4015f4:	20400aa4 	.word	0x20400aa4
  4015f8:	00401ca5 	.word	0x00401ca5

004015fc <nRF24_setPALevel>:
	}
	return 0;
}

void nRF24_setPALevel(uint8_t level)
{
  4015fc:	b510      	push	{r4, lr}
  4015fe:	4604      	mov	r4, r0
	uint8_t setup = nRF24_readRegister(RF_SETUP) & 0xF8;
  401600:	2006      	movs	r0, #6
  401602:	4b08      	ldr	r3, [pc, #32]	; (401624 <nRF24_setPALevel+0x28>)
  401604:	4798      	blx	r3
  401606:	f000 01f8 	and.w	r1, r0, #248	; 0xf8
	
	
	if (level > 3) {
  40160a:	2c03      	cmp	r4, #3
  40160c:	d808      	bhi.n	401620 <nRF24_setPALevel+0x24>
		level = (RF_PA_MAX << 1) + 1;
	} else {
		level = (level << 1) + 1;
  40160e:	0064      	lsls	r4, r4, #1
  401610:	3401      	adds	r4, #1
  401612:	f004 04ff 	and.w	r4, r4, #255	; 0xff
	}
	nRF24_writeRegister(RF_SETUP, setup |= level);
  401616:	4321      	orrs	r1, r4
  401618:	2006      	movs	r0, #6
  40161a:	4b03      	ldr	r3, [pc, #12]	; (401628 <nRF24_setPALevel+0x2c>)
  40161c:	4798      	blx	r3
  40161e:	bd10      	pop	{r4, pc}
		level = (RF_PA_MAX << 1) + 1;
  401620:	2407      	movs	r4, #7
  401622:	e7f8      	b.n	401616 <nRF24_setPALevel+0x1a>
  401624:	00400e25 	.word	0x00400e25
  401628:	00400e95 	.word	0x00400e95

0040162c <nRF24_write>:
	
	nRF24_writeRegister(NRF_STATUS, (1<<RX_DR) | (1<<MAX_RT) | (1<<TX_DS));	
}

bool nRF24_write(const void* buf, uint8_t len)
{
  40162c:	b508      	push	{r3, lr}
	return nRFwrite(buf, len, 0);
  40162e:	2200      	movs	r2, #0
  401630:	4b01      	ldr	r3, [pc, #4]	; (401638 <nRF24_write+0xc>)
  401632:	4798      	blx	r3
}
  401634:	bd08      	pop	{r3, pc}
  401636:	bf00      	nop
  401638:	004012bd 	.word	0x004012bd
  40163c:	00000000 	.word	0x00000000

00401640 <main>:

int main (void)
{
  401640:	e92d 47f0 	stmdb	sp!, {r4, r5, r6, r7, r8, r9, sl, lr}
  401644:	b086      	sub	sp, #24
	
	/* Initialize the SAM system. */
	sysclk_init();
  401646:	4b86      	ldr	r3, [pc, #536]	; (401860 <main+0x220>)
  401648:	4798      	blx	r3
	board_init();
  40164a:	4b86      	ldr	r3, [pc, #536]	; (401864 <main+0x224>)
  40164c:	4798      	blx	r3
 * \param opt         Options needed to set up RS232 communication (see \ref usart_options_t).
 *
 */
static inline void stdio_serial_init(volatile void *usart, const usart_serial_options_t *opt)
{
	stdio_base = (void *)usart;
  40164e:	4c86      	ldr	r4, [pc, #536]	; (401868 <main+0x228>)
  401650:	4b86      	ldr	r3, [pc, #536]	; (40186c <main+0x22c>)
  401652:	601c      	str	r4, [r3, #0]
	ptr_put = (int (*)(void volatile*,char))&usart_serial_putchar;
  401654:	4a86      	ldr	r2, [pc, #536]	; (401870 <main+0x230>)
  401656:	4b87      	ldr	r3, [pc, #540]	; (401874 <main+0x234>)
  401658:	601a      	str	r2, [r3, #0]
	ptr_get = (void (*)(void volatile*,char*))&usart_serial_getchar;
  40165a:	4a87      	ldr	r2, [pc, #540]	; (401878 <main+0x238>)
  40165c:	4b87      	ldr	r3, [pc, #540]	; (40187c <main+0x23c>)
  40165e:	601a      	str	r2, [r3, #0]
	usart_settings.baudrate = opt->baudrate;
  401660:	f44f 33e1 	mov.w	r3, #115200	; 0x1c200
  401664:	9300      	str	r3, [sp, #0]
	usart_settings.char_length = opt->charlength;
  401666:	23c0      	movs	r3, #192	; 0xc0
  401668:	9301      	str	r3, [sp, #4]
	usart_settings.parity_type = opt->paritytype;
  40166a:	f44f 6300 	mov.w	r3, #2048	; 0x800
  40166e:	9302      	str	r3, [sp, #8]
	usart_settings.stop_bits= opt->stopbits;
  401670:	2500      	movs	r5, #0
  401672:	9503      	str	r5, [sp, #12]
	usart_settings.channel_mode= US_MR_CHMODE_NORMAL;
  401674:	9504      	str	r5, [sp, #16]
  401676:	200e      	movs	r0, #14
  401678:	4b81      	ldr	r3, [pc, #516]	; (401880 <main+0x240>)
  40167a:	4798      	blx	r3
		usart_init_rs232(p_usart, &usart_settings,
  40167c:	4a81      	ldr	r2, [pc, #516]	; (401884 <main+0x244>)
  40167e:	4669      	mov	r1, sp
  401680:	4620      	mov	r0, r4
  401682:	4b81      	ldr	r3, [pc, #516]	; (401888 <main+0x248>)
  401684:	4798      	blx	r3
		usart_enable_tx(p_usart);
  401686:	4620      	mov	r0, r4
  401688:	4b80      	ldr	r3, [pc, #512]	; (40188c <main+0x24c>)
  40168a:	4798      	blx	r3
		usart_enable_rx(p_usart);
  40168c:	4620      	mov	r0, r4
  40168e:	4b80      	ldr	r3, [pc, #512]	; (401890 <main+0x250>)
  401690:	4798      	blx	r3
	fdevopen((int (*)(char, FILE*))(_write),(int (*)(FILE*))(_read));
#  endif
#  if UC3 || SAM
	// For AVR32 and SAM GCC
	// Specify that stdout and stdin should not be buffered.
	setbuf(stdout, NULL);
  401692:	4e80      	ldr	r6, [pc, #512]	; (401894 <main+0x254>)
  401694:	6833      	ldr	r3, [r6, #0]
  401696:	4629      	mov	r1, r5
  401698:	6898      	ldr	r0, [r3, #8]
  40169a:	4c7f      	ldr	r4, [pc, #508]	; (401898 <main+0x258>)
  40169c:	47a0      	blx	r4
	setbuf(stdin, NULL);
  40169e:	6833      	ldr	r3, [r6, #0]
  4016a0:	4629      	mov	r1, r5
  4016a2:	6858      	ldr	r0, [r3, #4]
  4016a4:	47a0      	blx	r4

	/* Initialize the console UART. */
	configure_console();

	/* Output example information. */
	puts(STRING_HEADER);
  4016a6:	487d      	ldr	r0, [pc, #500]	; (40189c <main+0x25c>)
  4016a8:	4c7d      	ldr	r4, [pc, #500]	; (4018a0 <main+0x260>)
  4016aa:	47a0      	blx	r4
    NVIC->ICPR[(((uint32_t)IRQn) >> 5UL)] = (uint32_t)(1UL << (((uint32_t)IRQn) & 0x1FUL));
  4016ac:	4b7d      	ldr	r3, [pc, #500]	; (4018a4 <main+0x264>)
  4016ae:	f44f 1200 	mov.w	r2, #2097152	; 0x200000
  4016b2:	f8c3 2180 	str.w	r2, [r3, #384]	; 0x180
    NVIC->ICER[(((uint32_t)IRQn) >> 5UL)] = (uint32_t)(1UL << (((uint32_t)IRQn) & 0x1FUL));
  4016b6:	f8c3 2080 	str.w	r2, [r3, #128]	; 0x80
  __ASM volatile ("dsb 0xF":::"memory");
  4016ba:	f3bf 8f4f 	dsb	sy
  __ASM volatile ("isb 0xF":::"memory");
  4016be:	f3bf 8f6f 	isb	sy
    NVIC->IP[((uint32_t)IRQn)]                = (uint8_t)((priority << (8U - __NVIC_PRIO_BITS)) & (uint32_t)0xFFUL);
  4016c2:	f883 5315 	strb.w	r5, [r3, #789]	; 0x315
    NVIC->ISER[(((uint32_t)IRQn) >> 5UL)] = (uint32_t)(1UL << (((uint32_t)IRQn) & 0x1FUL));
  4016c6:	601a      	str	r2, [r3, #0]
	printf("Setting SPI clock #%lu ... \n\r", (unsigned long)gs_ul_spi_clock);
  4016c8:	4977      	ldr	r1, [pc, #476]	; (4018a8 <main+0x268>)
  4016ca:	4878      	ldr	r0, [pc, #480]	; (4018ac <main+0x26c>)
  4016cc:	4f78      	ldr	r7, [pc, #480]	; (4018b0 <main+0x270>)
  4016ce:	47b8      	blx	r7
	puts("-I- Initialize SPI as master\r");
  4016d0:	4878      	ldr	r0, [pc, #480]	; (4018b4 <main+0x274>)
  4016d2:	47a0      	blx	r4
	spi_enable_clock(SPI_MASTER_BASE);
  4016d4:	4c78      	ldr	r4, [pc, #480]	; (4018b8 <main+0x278>)
  4016d6:	4620      	mov	r0, r4
  4016d8:	4b78      	ldr	r3, [pc, #480]	; (4018bc <main+0x27c>)
  4016da:	4798      	blx	r3
	p_spi->SPI_CR = SPI_CR_SPIDIS;
  4016dc:	f04f 0a02 	mov.w	sl, #2
  4016e0:	f8c4 a000 	str.w	sl, [r4]
	p_spi->SPI_CR = SPI_CR_SWRST;
  4016e4:	2380      	movs	r3, #128	; 0x80
  4016e6:	6023      	str	r3, [r4, #0]
	p_spi->SPI_CR = SPI_CR_LASTXFER;
  4016e8:	f04f 7380 	mov.w	r3, #16777216	; 0x1000000
  4016ec:	6023      	str	r3, [r4, #0]
	p_spi->SPI_MR |= SPI_MR_MSTR;
  4016ee:	6863      	ldr	r3, [r4, #4]
  4016f0:	f043 0301 	orr.w	r3, r3, #1
  4016f4:	6063      	str	r3, [r4, #4]
	p_spi->SPI_MR |= SPI_MR_MODFDIS;
  4016f6:	6863      	ldr	r3, [r4, #4]
  4016f8:	f043 0310 	orr.w	r3, r3, #16
  4016fc:	6063      	str	r3, [r4, #4]
	spi_set_peripheral_chip_select_value(SPI_MASTER_BASE, SPI_CHIP_PCS);
  4016fe:	210d      	movs	r1, #13
  401700:	4620      	mov	r0, r4
  401702:	4b6f      	ldr	r3, [pc, #444]	; (4018c0 <main+0x280>)
  401704:	4798      	blx	r3
	spi_set_clock_polarity(SPI_MASTER_BASE, SPI_CHIP_SEL, SPI_CLK_POLARITY);
  401706:	462a      	mov	r2, r5
  401708:	2101      	movs	r1, #1
  40170a:	4620      	mov	r0, r4
  40170c:	4b6d      	ldr	r3, [pc, #436]	; (4018c4 <main+0x284>)
  40170e:	4798      	blx	r3
	spi_set_clock_phase(SPI_MASTER_BASE, SPI_CHIP_SEL, SPI_CLK_PHASE);
  401710:	2201      	movs	r2, #1
  401712:	4611      	mov	r1, r2
  401714:	4620      	mov	r0, r4
  401716:	4b6c      	ldr	r3, [pc, #432]	; (4018c8 <main+0x288>)
  401718:	4798      	blx	r3
	spi_set_bits_per_transfer(SPI_MASTER_BASE, SPI_CHIP_SEL,
  40171a:	462a      	mov	r2, r5
  40171c:	2101      	movs	r1, #1
  40171e:	4620      	mov	r0, r4
  401720:	4b6a      	ldr	r3, [pc, #424]	; (4018cc <main+0x28c>)
  401722:	4798      	blx	r3
	spi_set_baudrate_div(SPI_MASTER_BASE, SPI_CHIP_SEL,
  401724:	221e      	movs	r2, #30
  401726:	2101      	movs	r1, #1
  401728:	4620      	mov	r0, r4
  40172a:	4b69      	ldr	r3, [pc, #420]	; (4018d0 <main+0x290>)
  40172c:	4798      	blx	r3
	spi_set_transfer_delay(SPI_MASTER_BASE, SPI_CHIP_SEL, SPI_DLYBS,
  40172e:	2304      	movs	r3, #4
  401730:	2210      	movs	r2, #16
  401732:	2101      	movs	r1, #1
  401734:	4620      	mov	r0, r4
  401736:	4e67      	ldr	r6, [pc, #412]	; (4018d4 <main+0x294>)
  401738:	47b0      	blx	r6
	p_spi->SPI_CR = SPI_CR_SPIEN;
  40173a:	2601      	movs	r6, #1
  40173c:	6026      	str	r6, [r4, #0]
	/* Insert application code here, after the board has been initialized. */
	
	spi_set_clock_configuration(gs_ul_spi_clock);
		
	nRF24_begin();
  40173e:	4b66      	ldr	r3, [pc, #408]	; (4018d8 <main+0x298>)
  401740:	4798      	blx	r3
	nRF24_openReadingPipe(1, listeningPipes[1]);
  401742:	f20f 190c 	addw	r9, pc, #268	; 0x10c
  401746:	e9d9 8900 	ldrd	r8, r9, [r9]
  40174a:	4642      	mov	r2, r8
  40174c:	464b      	mov	r3, r9
  40174e:	4630      	mov	r0, r6
  401750:	4c62      	ldr	r4, [pc, #392]	; (4018dc <main+0x29c>)
  401752:	47a0      	blx	r4
	nRF24_openReadingPipe(2, listeningPipes[2]);
  401754:	a340      	add	r3, pc, #256	; (adr r3, 401858 <main+0x218>)
  401756:	e9d3 2300 	ldrd	r2, r3, [r3]
  40175a:	4650      	mov	r0, sl
  40175c:	47a0      	blx	r4
	//nRF24_openWritingPipe(listeningPipes[localAddr]); overbodeige actie, zend adres moet gelijk zijn aan slave readingPipe[0]
	nRF24_setPALevel(RF_PA_MIN);
  40175e:	4628      	mov	r0, r5
  401760:	4b5f      	ldr	r3, [pc, #380]	; (4018e0 <main+0x2a0>)
  401762:	4798      	blx	r3
	nRF24_stopListening();
  401764:	4b5f      	ldr	r3, [pc, #380]	; (4018e4 <main+0x2a4>)
  401766:	4798      	blx	r3

#ifdef _DEBUG	
	printDetails();
  401768:	4b5f      	ldr	r3, [pc, #380]	; (4018e8 <main+0x2a8>)
  40176a:	4798      	blx	r3
#endif
	
//	while(1)
//	{

		nRF24_openWritingPipe(listeningPipes[1]);
  40176c:	4640      	mov	r0, r8
  40176e:	4649      	mov	r1, r9
  401770:	4b5e      	ldr	r3, [pc, #376]	; (4018ec <main+0x2ac>)
  401772:	4798      	blx	r3

		dataOut.command = 1;
  401774:	4b5e      	ldr	r3, [pc, #376]	; (4018f0 <main+0x2b0>)
  401776:	719e      	strb	r6, [r3, #6]
		
#ifdef _DEBUG
		printf("commando %d send to %ld\r\n", dataOut.command, listeningPipes[1]);
  401778:	4a5e      	ldr	r2, [pc, #376]	; (4018f4 <main+0x2b4>)
  40177a:	4631      	mov	r1, r6
  40177c:	485e      	ldr	r0, [pc, #376]	; (4018f8 <main+0x2b8>)
  40177e:	47b8      	blx	r7
  401780:	240a      	movs	r4, #10
#endif
		
		for (int i = 0; i < 10; i++)
		{
			if(!nRF24_write(&dataOut, sizeof(dataOut)))
  401782:	4d5b      	ldr	r5, [pc, #364]	; (4018f0 <main+0x2b0>)
  401784:	4f5d      	ldr	r7, [pc, #372]	; (4018fc <main+0x2bc>)
			{
				printf("transmission failed \n\r");
  401786:	4e4a      	ldr	r6, [pc, #296]	; (4018b0 <main+0x270>)
  401788:	e007      	b.n	40179a <main+0x15a>
			}
#ifdef _DEBUG
			printf("commando %d\r\n", dataOut.command);
  40178a:	79a9      	ldrb	r1, [r5, #6]
  40178c:	485c      	ldr	r0, [pc, #368]	; (401900 <main+0x2c0>)
  40178e:	47b0      	blx	r6
#endif
			delay_ms(10);
  401790:	485c      	ldr	r0, [pc, #368]	; (401904 <main+0x2c4>)
  401792:	4b5d      	ldr	r3, [pc, #372]	; (401908 <main+0x2c8>)
  401794:	4798      	blx	r3
		for (int i = 0; i < 10; i++)
  401796:	3c01      	subs	r4, #1
  401798:	d007      	beq.n	4017aa <main+0x16a>
			if(!nRF24_write(&dataOut, sizeof(dataOut)))
  40179a:	2108      	movs	r1, #8
  40179c:	4628      	mov	r0, r5
  40179e:	47b8      	blx	r7
  4017a0:	2800      	cmp	r0, #0
  4017a2:	d1f2      	bne.n	40178a <main+0x14a>
				printf("transmission failed \n\r");
  4017a4:	4859      	ldr	r0, [pc, #356]	; (40190c <main+0x2cc>)
  4017a6:	47b0      	blx	r6
  4017a8:	e7ef      	b.n	40178a <main+0x14a>
		}

		delay_ms(500);
  4017aa:	4859      	ldr	r0, [pc, #356]	; (401910 <main+0x2d0>)
  4017ac:	4b56      	ldr	r3, [pc, #344]	; (401908 <main+0x2c8>)
  4017ae:	4798      	blx	r3

		nRF24_openWritingPipe(listeningPipes[2]);
  4017b0:	a129      	add	r1, pc, #164	; (adr r1, 401858 <main+0x218>)
  4017b2:	e9d1 0100 	ldrd	r0, r1, [r1]
  4017b6:	4b4d      	ldr	r3, [pc, #308]	; (4018ec <main+0x2ac>)
  4017b8:	4798      	blx	r3
		
		dataOut.command = 1;
  4017ba:	2101      	movs	r1, #1
  4017bc:	4b4c      	ldr	r3, [pc, #304]	; (4018f0 <main+0x2b0>)
  4017be:	7199      	strb	r1, [r3, #6]
		
#ifdef _DEBUG
		printf("commando %d send to %ld\r\n", dataOut.command, listeningPipes[2]);
  4017c0:	4a54      	ldr	r2, [pc, #336]	; (401914 <main+0x2d4>)
  4017c2:	484d      	ldr	r0, [pc, #308]	; (4018f8 <main+0x2b8>)
  4017c4:	4b3a      	ldr	r3, [pc, #232]	; (4018b0 <main+0x270>)
  4017c6:	4798      	blx	r3
  4017c8:	240a      	movs	r4, #10
#endif

		for (int i = 0; i < 10; i++)
		{
			if(!nRF24_write(&dataOut, sizeof(dataOut)))
  4017ca:	4d49      	ldr	r5, [pc, #292]	; (4018f0 <main+0x2b0>)
  4017cc:	4f4b      	ldr	r7, [pc, #300]	; (4018fc <main+0x2bc>)
			{
				printf("transmission failed \n\r");
  4017ce:	4e38      	ldr	r6, [pc, #224]	; (4018b0 <main+0x270>)
  4017d0:	e007      	b.n	4017e2 <main+0x1a2>
			}
#ifdef _DEBUG
			printf("commando %d\r\n", dataOut.command);
  4017d2:	79a9      	ldrb	r1, [r5, #6]
  4017d4:	484a      	ldr	r0, [pc, #296]	; (401900 <main+0x2c0>)
  4017d6:	47b0      	blx	r6
#endif
			delay_ms(10);
  4017d8:	484a      	ldr	r0, [pc, #296]	; (401904 <main+0x2c4>)
  4017da:	4b4b      	ldr	r3, [pc, #300]	; (401908 <main+0x2c8>)
  4017dc:	4798      	blx	r3
		for (int i = 0; i < 10; i++)
  4017de:	3c01      	subs	r4, #1
  4017e0:	d007      	beq.n	4017f2 <main+0x1b2>
			if(!nRF24_write(&dataOut, sizeof(dataOut)))
  4017e2:	2108      	movs	r1, #8
  4017e4:	4628      	mov	r0, r5
  4017e6:	47b8      	blx	r7
  4017e8:	2800      	cmp	r0, #0
  4017ea:	d1f2      	bne.n	4017d2 <main+0x192>
				printf("transmission failed \n\r");
  4017ec:	4847      	ldr	r0, [pc, #284]	; (40190c <main+0x2cc>)
  4017ee:	47b0      	blx	r6
  4017f0:	e7ef      	b.n	4017d2 <main+0x192>
		}
		
		delay_s(1);
  4017f2:	4849      	ldr	r0, [pc, #292]	; (401918 <main+0x2d8>)
  4017f4:	4b44      	ldr	r3, [pc, #272]	; (401908 <main+0x2c8>)
  4017f6:	4798      	blx	r3
		
		nRF24_openWritingPipe(listeningPipes[1]);
  4017f8:	a115      	add	r1, pc, #84	; (adr r1, 401850 <main+0x210>)
  4017fa:	e9d1 0100 	ldrd	r0, r1, [r1]
  4017fe:	4b3b      	ldr	r3, [pc, #236]	; (4018ec <main+0x2ac>)
  401800:	4798      	blx	r3
		//data packet zender
		dataOut.command = 2;
  401802:	4b3b      	ldr	r3, [pc, #236]	; (4018f0 <main+0x2b0>)
  401804:	2102      	movs	r1, #2
  401806:	7199      	strb	r1, [r3, #6]
		dataOut.destAddr = listeningPipes[2];
  401808:	4a42      	ldr	r2, [pc, #264]	; (401914 <main+0x2d4>)
  40180a:	601a      	str	r2, [r3, #0]
		dataOut.datavalue = 0;
  40180c:	2200      	movs	r2, #0
  40180e:	809a      	strh	r2, [r3, #4]
		
#ifdef _DEBUG
		printf("commando %d send to %ld\r\n", dataOut.command, listeningPipes[1]);
  401810:	4a38      	ldr	r2, [pc, #224]	; (4018f4 <main+0x2b4>)
  401812:	4839      	ldr	r0, [pc, #228]	; (4018f8 <main+0x2b8>)
  401814:	4b26      	ldr	r3, [pc, #152]	; (4018b0 <main+0x270>)
  401816:	4798      	blx	r3
  401818:	240a      	movs	r4, #10
#endif		

		for (int i = 0; i< 10; i++)
		{
			if(!nRF24_write(&dataOut, sizeof(dataOut)))
  40181a:	4d35      	ldr	r5, [pc, #212]	; (4018f0 <main+0x2b0>)
  40181c:	4f37      	ldr	r7, [pc, #220]	; (4018fc <main+0x2bc>)
			{
				printf("transmission failed \n\r");
  40181e:	4e24      	ldr	r6, [pc, #144]	; (4018b0 <main+0x270>)
  401820:	e007      	b.n	401832 <main+0x1f2>
			}
			#ifdef _DEBUG
			printf("commando %d\r\n", dataOut.command);
  401822:	79a9      	ldrb	r1, [r5, #6]
  401824:	4836      	ldr	r0, [pc, #216]	; (401900 <main+0x2c0>)
  401826:	47b0      	blx	r6
			#endif
			delay_ms(10);
  401828:	4836      	ldr	r0, [pc, #216]	; (401904 <main+0x2c4>)
  40182a:	4b37      	ldr	r3, [pc, #220]	; (401908 <main+0x2c8>)
  40182c:	4798      	blx	r3
		for (int i = 0; i< 10; i++)
  40182e:	3c01      	subs	r4, #1
  401830:	d007      	beq.n	401842 <main+0x202>
			if(!nRF24_write(&dataOut, sizeof(dataOut)))
  401832:	2108      	movs	r1, #8
  401834:	4628      	mov	r0, r5
  401836:	47b8      	blx	r7
  401838:	2800      	cmp	r0, #0
  40183a:	d1f2      	bne.n	401822 <main+0x1e2>
				printf("transmission failed \n\r");
  40183c:	4833      	ldr	r0, [pc, #204]	; (40190c <main+0x2cc>)
  40183e:	47b0      	blx	r6
  401840:	e7ef      	b.n	401822 <main+0x1e2>
		}
		
//		delay_s(5);
//	}

}
  401842:	2000      	movs	r0, #0
  401844:	b006      	add	sp, #24
  401846:	e8bd 87f0 	ldmia.w	sp!, {r4, r5, r6, r7, r8, r9, sl, pc}
  40184a:	bf00      	nop
  40184c:	f3af 8000 	nop.w
  401850:	3a3a3ac3 	.word	0x3a3a3ac3
  401854:	00000000 	.word	0x00000000
  401858:	3a3a3ab4 	.word	0x3a3a3ab4
  40185c:	00000000 	.word	0x00000000
  401860:	004004d9 	.word	0x004004d9
  401864:	00400549 	.word	0x00400549
  401868:	40028000 	.word	0x40028000
  40186c:	20400a94 	.word	0x20400a94
  401870:	00400d51 	.word	0x00400d51
  401874:	20400a90 	.word	0x20400a90
  401878:	00400c75 	.word	0x00400c75
  40187c:	20400a8c 	.word	0x20400a8c
  401880:	00400941 	.word	0x00400941
  401884:	08f0d180 	.word	0x08f0d180
  401888:	00400295 	.word	0x00400295
  40188c:	004002e9 	.word	0x004002e9
  401890:	004002ef 	.word	0x004002ef
  401894:	20400014 	.word	0x20400014
  401898:	00401f21 	.word	0x00401f21
  40189c:	00404938 	.word	0x00404938
  4018a0:	00401f11 	.word	0x00401f11
  4018a4:	e000e100 	.word	0xe000e100
  4018a8:	004c4b40 	.word	0x004c4b40
  4018ac:	0040498c 	.word	0x0040498c
  4018b0:	00401c7d 	.word	0x00401c7d
  4018b4:	004049ac 	.word	0x004049ac
  4018b8:	40008000 	.word	0x40008000
  4018bc:	00400375 	.word	0x00400375
  4018c0:	004003a1 	.word	0x004003a1
  4018c4:	0040041b 	.word	0x0040041b
  4018c8:	00400439 	.word	0x00400439
  4018cc:	00400457 	.word	0x00400457
  4018d0:	0040046b 	.word	0x0040046b
  4018d4:	00400493 	.word	0x00400493
  4018d8:	0040149d 	.word	0x0040149d
  4018dc:	00401571 	.word	0x00401571
  4018e0:	004015fd 	.word	0x004015fd
  4018e4:	004013e9 	.word	0x004013e9
  4018e8:	0040112d 	.word	0x0040112d
  4018ec:	00401535 	.word	0x00401535
  4018f0:	20400aac 	.word	0x20400aac
  4018f4:	3a3a3ac3 	.word	0x3a3a3ac3
  4018f8:	004049cc 	.word	0x004049cc
  4018fc:	0040162d 	.word	0x0040162d
  401900:	00404a00 	.word	0x00404a00
  401904:	0007b784 	.word	0x0007b784
  401908:	20400001 	.word	0x20400001
  40190c:	004049e8 	.word	0x004049e8
  401910:	0181d7b6 	.word	0x0181d7b6
  401914:	3a3a3ab4 	.word	0x3a3a3ab4
  401918:	0303af6b 	.word	0x0303af6b

0040191c <__aeabi_uldivmod>:
  40191c:	b953      	cbnz	r3, 401934 <__aeabi_uldivmod+0x18>
  40191e:	b94a      	cbnz	r2, 401934 <__aeabi_uldivmod+0x18>
  401920:	2900      	cmp	r1, #0
  401922:	bf08      	it	eq
  401924:	2800      	cmpeq	r0, #0
  401926:	bf1c      	itt	ne
  401928:	f04f 31ff 	movne.w	r1, #4294967295
  40192c:	f04f 30ff 	movne.w	r0, #4294967295
  401930:	f000 b97a 	b.w	401c28 <__aeabi_idiv0>
  401934:	f1ad 0c08 	sub.w	ip, sp, #8
  401938:	e96d ce04 	strd	ip, lr, [sp, #-16]!
  40193c:	f000 f806 	bl	40194c <__udivmoddi4>
  401940:	f8dd e004 	ldr.w	lr, [sp, #4]
  401944:	e9dd 2302 	ldrd	r2, r3, [sp, #8]
  401948:	b004      	add	sp, #16
  40194a:	4770      	bx	lr

0040194c <__udivmoddi4>:
  40194c:	e92d 47f0 	stmdb	sp!, {r4, r5, r6, r7, r8, r9, sl, lr}
  401950:	468c      	mov	ip, r1
  401952:	460d      	mov	r5, r1
  401954:	4604      	mov	r4, r0
  401956:	9e08      	ldr	r6, [sp, #32]
  401958:	2b00      	cmp	r3, #0
  40195a:	d151      	bne.n	401a00 <__udivmoddi4+0xb4>
  40195c:	428a      	cmp	r2, r1
  40195e:	4617      	mov	r7, r2
  401960:	d96d      	bls.n	401a3e <__udivmoddi4+0xf2>
  401962:	fab2 fe82 	clz	lr, r2
  401966:	f1be 0f00 	cmp.w	lr, #0
  40196a:	d00b      	beq.n	401984 <__udivmoddi4+0x38>
  40196c:	f1ce 0c20 	rsb	ip, lr, #32
  401970:	fa01 f50e 	lsl.w	r5, r1, lr
  401974:	fa20 fc0c 	lsr.w	ip, r0, ip
  401978:	fa02 f70e 	lsl.w	r7, r2, lr
  40197c:	ea4c 0c05 	orr.w	ip, ip, r5
  401980:	fa00 f40e 	lsl.w	r4, r0, lr
  401984:	ea4f 4a17 	mov.w	sl, r7, lsr #16
  401988:	0c25      	lsrs	r5, r4, #16
  40198a:	fbbc f8fa 	udiv	r8, ip, sl
  40198e:	fa1f f987 	uxth.w	r9, r7
  401992:	fb0a cc18 	mls	ip, sl, r8, ip
  401996:	ea45 450c 	orr.w	r5, r5, ip, lsl #16
  40199a:	fb08 f309 	mul.w	r3, r8, r9
  40199e:	42ab      	cmp	r3, r5
  4019a0:	d90a      	bls.n	4019b8 <__udivmoddi4+0x6c>
  4019a2:	19ed      	adds	r5, r5, r7
  4019a4:	f108 32ff 	add.w	r2, r8, #4294967295
  4019a8:	f080 8123 	bcs.w	401bf2 <__udivmoddi4+0x2a6>
  4019ac:	42ab      	cmp	r3, r5
  4019ae:	f240 8120 	bls.w	401bf2 <__udivmoddi4+0x2a6>
  4019b2:	f1a8 0802 	sub.w	r8, r8, #2
  4019b6:	443d      	add	r5, r7
  4019b8:	1aed      	subs	r5, r5, r3
  4019ba:	b2a4      	uxth	r4, r4
  4019bc:	fbb5 f0fa 	udiv	r0, r5, sl
  4019c0:	fb0a 5510 	mls	r5, sl, r0, r5
  4019c4:	ea44 4405 	orr.w	r4, r4, r5, lsl #16
  4019c8:	fb00 f909 	mul.w	r9, r0, r9
  4019cc:	45a1      	cmp	r9, r4
  4019ce:	d909      	bls.n	4019e4 <__udivmoddi4+0x98>
  4019d0:	19e4      	adds	r4, r4, r7
  4019d2:	f100 33ff 	add.w	r3, r0, #4294967295
  4019d6:	f080 810a 	bcs.w	401bee <__udivmoddi4+0x2a2>
  4019da:	45a1      	cmp	r9, r4
  4019dc:	f240 8107 	bls.w	401bee <__udivmoddi4+0x2a2>
  4019e0:	3802      	subs	r0, #2
  4019e2:	443c      	add	r4, r7
  4019e4:	eba4 0409 	sub.w	r4, r4, r9
  4019e8:	ea40 4008 	orr.w	r0, r0, r8, lsl #16
  4019ec:	2100      	movs	r1, #0
  4019ee:	2e00      	cmp	r6, #0
  4019f0:	d061      	beq.n	401ab6 <__udivmoddi4+0x16a>
  4019f2:	fa24 f40e 	lsr.w	r4, r4, lr
  4019f6:	2300      	movs	r3, #0
  4019f8:	6034      	str	r4, [r6, #0]
  4019fa:	6073      	str	r3, [r6, #4]
  4019fc:	e8bd 87f0 	ldmia.w	sp!, {r4, r5, r6, r7, r8, r9, sl, pc}
  401a00:	428b      	cmp	r3, r1
  401a02:	d907      	bls.n	401a14 <__udivmoddi4+0xc8>
  401a04:	2e00      	cmp	r6, #0
  401a06:	d054      	beq.n	401ab2 <__udivmoddi4+0x166>
  401a08:	2100      	movs	r1, #0
  401a0a:	e886 0021 	stmia.w	r6, {r0, r5}
  401a0e:	4608      	mov	r0, r1
  401a10:	e8bd 87f0 	ldmia.w	sp!, {r4, r5, r6, r7, r8, r9, sl, pc}
  401a14:	fab3 f183 	clz	r1, r3
  401a18:	2900      	cmp	r1, #0
  401a1a:	f040 808e 	bne.w	401b3a <__udivmoddi4+0x1ee>
  401a1e:	42ab      	cmp	r3, r5
  401a20:	d302      	bcc.n	401a28 <__udivmoddi4+0xdc>
  401a22:	4282      	cmp	r2, r0
  401a24:	f200 80fa 	bhi.w	401c1c <__udivmoddi4+0x2d0>
  401a28:	1a84      	subs	r4, r0, r2
  401a2a:	eb65 0503 	sbc.w	r5, r5, r3
  401a2e:	2001      	movs	r0, #1
  401a30:	46ac      	mov	ip, r5
  401a32:	2e00      	cmp	r6, #0
  401a34:	d03f      	beq.n	401ab6 <__udivmoddi4+0x16a>
  401a36:	e886 1010 	stmia.w	r6, {r4, ip}
  401a3a:	e8bd 87f0 	ldmia.w	sp!, {r4, r5, r6, r7, r8, r9, sl, pc}
  401a3e:	b912      	cbnz	r2, 401a46 <__udivmoddi4+0xfa>
  401a40:	2701      	movs	r7, #1
  401a42:	fbb7 f7f2 	udiv	r7, r7, r2
  401a46:	fab7 fe87 	clz	lr, r7
  401a4a:	f1be 0f00 	cmp.w	lr, #0
  401a4e:	d134      	bne.n	401aba <__udivmoddi4+0x16e>
  401a50:	1beb      	subs	r3, r5, r7
  401a52:	0c3a      	lsrs	r2, r7, #16
  401a54:	fa1f fc87 	uxth.w	ip, r7
  401a58:	2101      	movs	r1, #1
  401a5a:	fbb3 f8f2 	udiv	r8, r3, r2
  401a5e:	0c25      	lsrs	r5, r4, #16
  401a60:	fb02 3318 	mls	r3, r2, r8, r3
  401a64:	ea45 4503 	orr.w	r5, r5, r3, lsl #16
  401a68:	fb0c f308 	mul.w	r3, ip, r8
  401a6c:	42ab      	cmp	r3, r5
  401a6e:	d907      	bls.n	401a80 <__udivmoddi4+0x134>
  401a70:	19ed      	adds	r5, r5, r7
  401a72:	f108 30ff 	add.w	r0, r8, #4294967295
  401a76:	d202      	bcs.n	401a7e <__udivmoddi4+0x132>
  401a78:	42ab      	cmp	r3, r5
  401a7a:	f200 80d1 	bhi.w	401c20 <__udivmoddi4+0x2d4>
  401a7e:	4680      	mov	r8, r0
  401a80:	1aed      	subs	r5, r5, r3
  401a82:	b2a3      	uxth	r3, r4
  401a84:	fbb5 f0f2 	udiv	r0, r5, r2
  401a88:	fb02 5510 	mls	r5, r2, r0, r5
  401a8c:	ea43 4405 	orr.w	r4, r3, r5, lsl #16
  401a90:	fb0c fc00 	mul.w	ip, ip, r0
  401a94:	45a4      	cmp	ip, r4
  401a96:	d907      	bls.n	401aa8 <__udivmoddi4+0x15c>
  401a98:	19e4      	adds	r4, r4, r7
  401a9a:	f100 33ff 	add.w	r3, r0, #4294967295
  401a9e:	d202      	bcs.n	401aa6 <__udivmoddi4+0x15a>
  401aa0:	45a4      	cmp	ip, r4
  401aa2:	f200 80b8 	bhi.w	401c16 <__udivmoddi4+0x2ca>
  401aa6:	4618      	mov	r0, r3
  401aa8:	eba4 040c 	sub.w	r4, r4, ip
  401aac:	ea40 4008 	orr.w	r0, r0, r8, lsl #16
  401ab0:	e79d      	b.n	4019ee <__udivmoddi4+0xa2>
  401ab2:	4631      	mov	r1, r6
  401ab4:	4630      	mov	r0, r6
  401ab6:	e8bd 87f0 	ldmia.w	sp!, {r4, r5, r6, r7, r8, r9, sl, pc}
  401aba:	f1ce 0420 	rsb	r4, lr, #32
  401abe:	fa05 f30e 	lsl.w	r3, r5, lr
  401ac2:	fa07 f70e 	lsl.w	r7, r7, lr
  401ac6:	fa20 f804 	lsr.w	r8, r0, r4
  401aca:	0c3a      	lsrs	r2, r7, #16
  401acc:	fa25 f404 	lsr.w	r4, r5, r4
  401ad0:	ea48 0803 	orr.w	r8, r8, r3
  401ad4:	fbb4 f1f2 	udiv	r1, r4, r2
  401ad8:	ea4f 4518 	mov.w	r5, r8, lsr #16
  401adc:	fb02 4411 	mls	r4, r2, r1, r4
  401ae0:	fa1f fc87 	uxth.w	ip, r7
  401ae4:	ea45 4504 	orr.w	r5, r5, r4, lsl #16
  401ae8:	fb01 f30c 	mul.w	r3, r1, ip
  401aec:	42ab      	cmp	r3, r5
  401aee:	fa00 f40e 	lsl.w	r4, r0, lr
  401af2:	d909      	bls.n	401b08 <__udivmoddi4+0x1bc>
  401af4:	19ed      	adds	r5, r5, r7
  401af6:	f101 30ff 	add.w	r0, r1, #4294967295
  401afa:	f080 808a 	bcs.w	401c12 <__udivmoddi4+0x2c6>
  401afe:	42ab      	cmp	r3, r5
  401b00:	f240 8087 	bls.w	401c12 <__udivmoddi4+0x2c6>
  401b04:	3902      	subs	r1, #2
  401b06:	443d      	add	r5, r7
  401b08:	1aeb      	subs	r3, r5, r3
  401b0a:	fa1f f588 	uxth.w	r5, r8
  401b0e:	fbb3 f0f2 	udiv	r0, r3, r2
  401b12:	fb02 3310 	mls	r3, r2, r0, r3
  401b16:	ea45 4503 	orr.w	r5, r5, r3, lsl #16
  401b1a:	fb00 f30c 	mul.w	r3, r0, ip
  401b1e:	42ab      	cmp	r3, r5
  401b20:	d907      	bls.n	401b32 <__udivmoddi4+0x1e6>
  401b22:	19ed      	adds	r5, r5, r7
  401b24:	f100 38ff 	add.w	r8, r0, #4294967295
  401b28:	d26f      	bcs.n	401c0a <__udivmoddi4+0x2be>
  401b2a:	42ab      	cmp	r3, r5
  401b2c:	d96d      	bls.n	401c0a <__udivmoddi4+0x2be>
  401b2e:	3802      	subs	r0, #2
  401b30:	443d      	add	r5, r7
  401b32:	1aeb      	subs	r3, r5, r3
  401b34:	ea40 4101 	orr.w	r1, r0, r1, lsl #16
  401b38:	e78f      	b.n	401a5a <__udivmoddi4+0x10e>
  401b3a:	f1c1 0720 	rsb	r7, r1, #32
  401b3e:	fa22 f807 	lsr.w	r8, r2, r7
  401b42:	408b      	lsls	r3, r1
  401b44:	fa05 f401 	lsl.w	r4, r5, r1
  401b48:	ea48 0303 	orr.w	r3, r8, r3
  401b4c:	fa20 fe07 	lsr.w	lr, r0, r7
  401b50:	ea4f 4c13 	mov.w	ip, r3, lsr #16
  401b54:	40fd      	lsrs	r5, r7
  401b56:	ea4e 0e04 	orr.w	lr, lr, r4
  401b5a:	fbb5 f9fc 	udiv	r9, r5, ip
  401b5e:	ea4f 441e 	mov.w	r4, lr, lsr #16
  401b62:	fb0c 5519 	mls	r5, ip, r9, r5
  401b66:	fa1f f883 	uxth.w	r8, r3
  401b6a:	ea44 4505 	orr.w	r5, r4, r5, lsl #16
  401b6e:	fb09 f408 	mul.w	r4, r9, r8
  401b72:	42ac      	cmp	r4, r5
  401b74:	fa02 f201 	lsl.w	r2, r2, r1
  401b78:	fa00 fa01 	lsl.w	sl, r0, r1
  401b7c:	d908      	bls.n	401b90 <__udivmoddi4+0x244>
  401b7e:	18ed      	adds	r5, r5, r3
  401b80:	f109 30ff 	add.w	r0, r9, #4294967295
  401b84:	d243      	bcs.n	401c0e <__udivmoddi4+0x2c2>
  401b86:	42ac      	cmp	r4, r5
  401b88:	d941      	bls.n	401c0e <__udivmoddi4+0x2c2>
  401b8a:	f1a9 0902 	sub.w	r9, r9, #2
  401b8e:	441d      	add	r5, r3
  401b90:	1b2d      	subs	r5, r5, r4
  401b92:	fa1f fe8e 	uxth.w	lr, lr
  401b96:	fbb5 f0fc 	udiv	r0, r5, ip
  401b9a:	fb0c 5510 	mls	r5, ip, r0, r5
  401b9e:	ea4e 4405 	orr.w	r4, lr, r5, lsl #16
  401ba2:	fb00 f808 	mul.w	r8, r0, r8
  401ba6:	45a0      	cmp	r8, r4
  401ba8:	d907      	bls.n	401bba <__udivmoddi4+0x26e>
  401baa:	18e4      	adds	r4, r4, r3
  401bac:	f100 35ff 	add.w	r5, r0, #4294967295
  401bb0:	d229      	bcs.n	401c06 <__udivmoddi4+0x2ba>
  401bb2:	45a0      	cmp	r8, r4
  401bb4:	d927      	bls.n	401c06 <__udivmoddi4+0x2ba>
  401bb6:	3802      	subs	r0, #2
  401bb8:	441c      	add	r4, r3
  401bba:	ea40 4009 	orr.w	r0, r0, r9, lsl #16
  401bbe:	eba4 0408 	sub.w	r4, r4, r8
  401bc2:	fba0 8902 	umull	r8, r9, r0, r2
  401bc6:	454c      	cmp	r4, r9
  401bc8:	46c6      	mov	lr, r8
  401bca:	464d      	mov	r5, r9
  401bcc:	d315      	bcc.n	401bfa <__udivmoddi4+0x2ae>
  401bce:	d012      	beq.n	401bf6 <__udivmoddi4+0x2aa>
  401bd0:	b156      	cbz	r6, 401be8 <__udivmoddi4+0x29c>
  401bd2:	ebba 030e 	subs.w	r3, sl, lr
  401bd6:	eb64 0405 	sbc.w	r4, r4, r5
  401bda:	fa04 f707 	lsl.w	r7, r4, r7
  401bde:	40cb      	lsrs	r3, r1
  401be0:	431f      	orrs	r7, r3
  401be2:	40cc      	lsrs	r4, r1
  401be4:	6037      	str	r7, [r6, #0]
  401be6:	6074      	str	r4, [r6, #4]
  401be8:	2100      	movs	r1, #0
  401bea:	e8bd 87f0 	ldmia.w	sp!, {r4, r5, r6, r7, r8, r9, sl, pc}
  401bee:	4618      	mov	r0, r3
  401bf0:	e6f8      	b.n	4019e4 <__udivmoddi4+0x98>
  401bf2:	4690      	mov	r8, r2
  401bf4:	e6e0      	b.n	4019b8 <__udivmoddi4+0x6c>
  401bf6:	45c2      	cmp	sl, r8
  401bf8:	d2ea      	bcs.n	401bd0 <__udivmoddi4+0x284>
  401bfa:	ebb8 0e02 	subs.w	lr, r8, r2
  401bfe:	eb69 0503 	sbc.w	r5, r9, r3
  401c02:	3801      	subs	r0, #1
  401c04:	e7e4      	b.n	401bd0 <__udivmoddi4+0x284>
  401c06:	4628      	mov	r0, r5
  401c08:	e7d7      	b.n	401bba <__udivmoddi4+0x26e>
  401c0a:	4640      	mov	r0, r8
  401c0c:	e791      	b.n	401b32 <__udivmoddi4+0x1e6>
  401c0e:	4681      	mov	r9, r0
  401c10:	e7be      	b.n	401b90 <__udivmoddi4+0x244>
  401c12:	4601      	mov	r1, r0
  401c14:	e778      	b.n	401b08 <__udivmoddi4+0x1bc>
  401c16:	3802      	subs	r0, #2
  401c18:	443c      	add	r4, r7
  401c1a:	e745      	b.n	401aa8 <__udivmoddi4+0x15c>
  401c1c:	4608      	mov	r0, r1
  401c1e:	e708      	b.n	401a32 <__udivmoddi4+0xe6>
  401c20:	f1a8 0802 	sub.w	r8, r8, #2
  401c24:	443d      	add	r5, r7
  401c26:	e72b      	b.n	401a80 <__udivmoddi4+0x134>

00401c28 <__aeabi_idiv0>:
  401c28:	4770      	bx	lr
  401c2a:	bf00      	nop

00401c2c <__libc_init_array>:
  401c2c:	b570      	push	{r4, r5, r6, lr}
  401c2e:	4e0f      	ldr	r6, [pc, #60]	; (401c6c <__libc_init_array+0x40>)
  401c30:	4d0f      	ldr	r5, [pc, #60]	; (401c70 <__libc_init_array+0x44>)
  401c32:	1b76      	subs	r6, r6, r5
  401c34:	10b6      	asrs	r6, r6, #2
  401c36:	bf18      	it	ne
  401c38:	2400      	movne	r4, #0
  401c3a:	d005      	beq.n	401c48 <__libc_init_array+0x1c>
  401c3c:	3401      	adds	r4, #1
  401c3e:	f855 3b04 	ldr.w	r3, [r5], #4
  401c42:	4798      	blx	r3
  401c44:	42a6      	cmp	r6, r4
  401c46:	d1f9      	bne.n	401c3c <__libc_init_array+0x10>
  401c48:	4e0a      	ldr	r6, [pc, #40]	; (401c74 <__libc_init_array+0x48>)
  401c4a:	4d0b      	ldr	r5, [pc, #44]	; (401c78 <__libc_init_array+0x4c>)
  401c4c:	1b76      	subs	r6, r6, r5
  401c4e:	f003 f887 	bl	404d60 <_init>
  401c52:	10b6      	asrs	r6, r6, #2
  401c54:	bf18      	it	ne
  401c56:	2400      	movne	r4, #0
  401c58:	d006      	beq.n	401c68 <__libc_init_array+0x3c>
  401c5a:	3401      	adds	r4, #1
  401c5c:	f855 3b04 	ldr.w	r3, [r5], #4
  401c60:	4798      	blx	r3
  401c62:	42a6      	cmp	r6, r4
  401c64:	d1f9      	bne.n	401c5a <__libc_init_array+0x2e>
  401c66:	bd70      	pop	{r4, r5, r6, pc}
  401c68:	bd70      	pop	{r4, r5, r6, pc}
  401c6a:	bf00      	nop
  401c6c:	00404d6c 	.word	0x00404d6c
  401c70:	00404d6c 	.word	0x00404d6c
  401c74:	00404d74 	.word	0x00404d74
  401c78:	00404d6c 	.word	0x00404d6c

00401c7c <iprintf>:
  401c7c:	b40f      	push	{r0, r1, r2, r3}
  401c7e:	b500      	push	{lr}
  401c80:	4907      	ldr	r1, [pc, #28]	; (401ca0 <iprintf+0x24>)
  401c82:	b083      	sub	sp, #12
  401c84:	ab04      	add	r3, sp, #16
  401c86:	6808      	ldr	r0, [r1, #0]
  401c88:	f853 2b04 	ldr.w	r2, [r3], #4
  401c8c:	6881      	ldr	r1, [r0, #8]
  401c8e:	9301      	str	r3, [sp, #4]
  401c90:	f000 fac4 	bl	40221c <_vfiprintf_r>
  401c94:	b003      	add	sp, #12
  401c96:	f85d eb04 	ldr.w	lr, [sp], #4
  401c9a:	b004      	add	sp, #16
  401c9c:	4770      	bx	lr
  401c9e:	bf00      	nop
  401ca0:	20400014 	.word	0x20400014

00401ca4 <memcpy>:
  401ca4:	4684      	mov	ip, r0
  401ca6:	ea41 0300 	orr.w	r3, r1, r0
  401caa:	f013 0303 	ands.w	r3, r3, #3
  401cae:	d16d      	bne.n	401d8c <memcpy+0xe8>
  401cb0:	3a40      	subs	r2, #64	; 0x40
  401cb2:	d341      	bcc.n	401d38 <memcpy+0x94>
  401cb4:	f851 3b04 	ldr.w	r3, [r1], #4
  401cb8:	f840 3b04 	str.w	r3, [r0], #4
  401cbc:	f851 3b04 	ldr.w	r3, [r1], #4
  401cc0:	f840 3b04 	str.w	r3, [r0], #4
  401cc4:	f851 3b04 	ldr.w	r3, [r1], #4
  401cc8:	f840 3b04 	str.w	r3, [r0], #4
  401ccc:	f851 3b04 	ldr.w	r3, [r1], #4
  401cd0:	f840 3b04 	str.w	r3, [r0], #4
  401cd4:	f851 3b04 	ldr.w	r3, [r1], #4
  401cd8:	f840 3b04 	str.w	r3, [r0], #4
  401cdc:	f851 3b04 	ldr.w	r3, [r1], #4
  401ce0:	f840 3b04 	str.w	r3, [r0], #4
  401ce4:	f851 3b04 	ldr.w	r3, [r1], #4
  401ce8:	f840 3b04 	str.w	r3, [r0], #4
  401cec:	f851 3b04 	ldr.w	r3, [r1], #4
  401cf0:	f840 3b04 	str.w	r3, [r0], #4
  401cf4:	f851 3b04 	ldr.w	r3, [r1], #4
  401cf8:	f840 3b04 	str.w	r3, [r0], #4
  401cfc:	f851 3b04 	ldr.w	r3, [r1], #4
  401d00:	f840 3b04 	str.w	r3, [r0], #4
  401d04:	f851 3b04 	ldr.w	r3, [r1], #4
  401d08:	f840 3b04 	str.w	r3, [r0], #4
  401d0c:	f851 3b04 	ldr.w	r3, [r1], #4
  401d10:	f840 3b04 	str.w	r3, [r0], #4
  401d14:	f851 3b04 	ldr.w	r3, [r1], #4
  401d18:	f840 3b04 	str.w	r3, [r0], #4
  401d1c:	f851 3b04 	ldr.w	r3, [r1], #4
  401d20:	f840 3b04 	str.w	r3, [r0], #4
  401d24:	f851 3b04 	ldr.w	r3, [r1], #4
  401d28:	f840 3b04 	str.w	r3, [r0], #4
  401d2c:	f851 3b04 	ldr.w	r3, [r1], #4
  401d30:	f840 3b04 	str.w	r3, [r0], #4
  401d34:	3a40      	subs	r2, #64	; 0x40
  401d36:	d2bd      	bcs.n	401cb4 <memcpy+0x10>
  401d38:	3230      	adds	r2, #48	; 0x30
  401d3a:	d311      	bcc.n	401d60 <memcpy+0xbc>
  401d3c:	f851 3b04 	ldr.w	r3, [r1], #4
  401d40:	f840 3b04 	str.w	r3, [r0], #4
  401d44:	f851 3b04 	ldr.w	r3, [r1], #4
  401d48:	f840 3b04 	str.w	r3, [r0], #4
  401d4c:	f851 3b04 	ldr.w	r3, [r1], #4
  401d50:	f840 3b04 	str.w	r3, [r0], #4
  401d54:	f851 3b04 	ldr.w	r3, [r1], #4
  401d58:	f840 3b04 	str.w	r3, [r0], #4
  401d5c:	3a10      	subs	r2, #16
  401d5e:	d2ed      	bcs.n	401d3c <memcpy+0x98>
  401d60:	320c      	adds	r2, #12
  401d62:	d305      	bcc.n	401d70 <memcpy+0xcc>
  401d64:	f851 3b04 	ldr.w	r3, [r1], #4
  401d68:	f840 3b04 	str.w	r3, [r0], #4
  401d6c:	3a04      	subs	r2, #4
  401d6e:	d2f9      	bcs.n	401d64 <memcpy+0xc0>
  401d70:	3204      	adds	r2, #4
  401d72:	d008      	beq.n	401d86 <memcpy+0xe2>
  401d74:	07d2      	lsls	r2, r2, #31
  401d76:	bf1c      	itt	ne
  401d78:	f811 3b01 	ldrbne.w	r3, [r1], #1
  401d7c:	f800 3b01 	strbne.w	r3, [r0], #1
  401d80:	d301      	bcc.n	401d86 <memcpy+0xe2>
  401d82:	880b      	ldrh	r3, [r1, #0]
  401d84:	8003      	strh	r3, [r0, #0]
  401d86:	4660      	mov	r0, ip
  401d88:	4770      	bx	lr
  401d8a:	bf00      	nop
  401d8c:	2a08      	cmp	r2, #8
  401d8e:	d313      	bcc.n	401db8 <memcpy+0x114>
  401d90:	078b      	lsls	r3, r1, #30
  401d92:	d08d      	beq.n	401cb0 <memcpy+0xc>
  401d94:	f010 0303 	ands.w	r3, r0, #3
  401d98:	d08a      	beq.n	401cb0 <memcpy+0xc>
  401d9a:	f1c3 0304 	rsb	r3, r3, #4
  401d9e:	1ad2      	subs	r2, r2, r3
  401da0:	07db      	lsls	r3, r3, #31
  401da2:	bf1c      	itt	ne
  401da4:	f811 3b01 	ldrbne.w	r3, [r1], #1
  401da8:	f800 3b01 	strbne.w	r3, [r0], #1
  401dac:	d380      	bcc.n	401cb0 <memcpy+0xc>
  401dae:	f831 3b02 	ldrh.w	r3, [r1], #2
  401db2:	f820 3b02 	strh.w	r3, [r0], #2
  401db6:	e77b      	b.n	401cb0 <memcpy+0xc>
  401db8:	3a04      	subs	r2, #4
  401dba:	d3d9      	bcc.n	401d70 <memcpy+0xcc>
  401dbc:	3a01      	subs	r2, #1
  401dbe:	f811 3b01 	ldrb.w	r3, [r1], #1
  401dc2:	f800 3b01 	strb.w	r3, [r0], #1
  401dc6:	d2f9      	bcs.n	401dbc <memcpy+0x118>
  401dc8:	780b      	ldrb	r3, [r1, #0]
  401dca:	7003      	strb	r3, [r0, #0]
  401dcc:	784b      	ldrb	r3, [r1, #1]
  401dce:	7043      	strb	r3, [r0, #1]
  401dd0:	788b      	ldrb	r3, [r1, #2]
  401dd2:	7083      	strb	r3, [r0, #2]
  401dd4:	4660      	mov	r0, ip
  401dd6:	4770      	bx	lr

00401dd8 <memset>:
  401dd8:	b470      	push	{r4, r5, r6}
  401dda:	0786      	lsls	r6, r0, #30
  401ddc:	d046      	beq.n	401e6c <memset+0x94>
  401dde:	1e54      	subs	r4, r2, #1
  401de0:	2a00      	cmp	r2, #0
  401de2:	d041      	beq.n	401e68 <memset+0x90>
  401de4:	b2ca      	uxtb	r2, r1
  401de6:	4603      	mov	r3, r0
  401de8:	e002      	b.n	401df0 <memset+0x18>
  401dea:	f114 34ff 	adds.w	r4, r4, #4294967295
  401dee:	d33b      	bcc.n	401e68 <memset+0x90>
  401df0:	f803 2b01 	strb.w	r2, [r3], #1
  401df4:	079d      	lsls	r5, r3, #30
  401df6:	d1f8      	bne.n	401dea <memset+0x12>
  401df8:	2c03      	cmp	r4, #3
  401dfa:	d92e      	bls.n	401e5a <memset+0x82>
  401dfc:	b2cd      	uxtb	r5, r1
  401dfe:	ea45 2505 	orr.w	r5, r5, r5, lsl #8
  401e02:	2c0f      	cmp	r4, #15
  401e04:	ea45 4505 	orr.w	r5, r5, r5, lsl #16
  401e08:	d919      	bls.n	401e3e <memset+0x66>
  401e0a:	f103 0210 	add.w	r2, r3, #16
  401e0e:	4626      	mov	r6, r4
  401e10:	3e10      	subs	r6, #16
  401e12:	2e0f      	cmp	r6, #15
  401e14:	f842 5c10 	str.w	r5, [r2, #-16]
  401e18:	f842 5c0c 	str.w	r5, [r2, #-12]
  401e1c:	f842 5c08 	str.w	r5, [r2, #-8]
  401e20:	f842 5c04 	str.w	r5, [r2, #-4]
  401e24:	f102 0210 	add.w	r2, r2, #16
  401e28:	d8f2      	bhi.n	401e10 <memset+0x38>
  401e2a:	f1a4 0210 	sub.w	r2, r4, #16
  401e2e:	f022 020f 	bic.w	r2, r2, #15
  401e32:	f004 040f 	and.w	r4, r4, #15
  401e36:	3210      	adds	r2, #16
  401e38:	2c03      	cmp	r4, #3
  401e3a:	4413      	add	r3, r2
  401e3c:	d90d      	bls.n	401e5a <memset+0x82>
  401e3e:	461e      	mov	r6, r3
  401e40:	4622      	mov	r2, r4
  401e42:	3a04      	subs	r2, #4
  401e44:	2a03      	cmp	r2, #3
  401e46:	f846 5b04 	str.w	r5, [r6], #4
  401e4a:	d8fa      	bhi.n	401e42 <memset+0x6a>
  401e4c:	1f22      	subs	r2, r4, #4
  401e4e:	f022 0203 	bic.w	r2, r2, #3
  401e52:	3204      	adds	r2, #4
  401e54:	4413      	add	r3, r2
  401e56:	f004 0403 	and.w	r4, r4, #3
  401e5a:	b12c      	cbz	r4, 401e68 <memset+0x90>
  401e5c:	b2c9      	uxtb	r1, r1
  401e5e:	441c      	add	r4, r3
  401e60:	f803 1b01 	strb.w	r1, [r3], #1
  401e64:	429c      	cmp	r4, r3
  401e66:	d1fb      	bne.n	401e60 <memset+0x88>
  401e68:	bc70      	pop	{r4, r5, r6}
  401e6a:	4770      	bx	lr
  401e6c:	4614      	mov	r4, r2
  401e6e:	4603      	mov	r3, r0
  401e70:	e7c2      	b.n	401df8 <memset+0x20>
  401e72:	bf00      	nop

00401e74 <_puts_r>:
  401e74:	b5f0      	push	{r4, r5, r6, r7, lr}
  401e76:	4605      	mov	r5, r0
  401e78:	b089      	sub	sp, #36	; 0x24
  401e7a:	4608      	mov	r0, r1
  401e7c:	460c      	mov	r4, r1
  401e7e:	f000 f91f 	bl	4020c0 <strlen>
  401e82:	6bab      	ldr	r3, [r5, #56]	; 0x38
  401e84:	4f21      	ldr	r7, [pc, #132]	; (401f0c <_puts_r+0x98>)
  401e86:	9404      	str	r4, [sp, #16]
  401e88:	2601      	movs	r6, #1
  401e8a:	1c44      	adds	r4, r0, #1
  401e8c:	a904      	add	r1, sp, #16
  401e8e:	2202      	movs	r2, #2
  401e90:	9403      	str	r4, [sp, #12]
  401e92:	9005      	str	r0, [sp, #20]
  401e94:	68ac      	ldr	r4, [r5, #8]
  401e96:	9706      	str	r7, [sp, #24]
  401e98:	9607      	str	r6, [sp, #28]
  401e9a:	9101      	str	r1, [sp, #4]
  401e9c:	9202      	str	r2, [sp, #8]
  401e9e:	b353      	cbz	r3, 401ef6 <_puts_r+0x82>
  401ea0:	6e63      	ldr	r3, [r4, #100]	; 0x64
  401ea2:	f013 0f01 	tst.w	r3, #1
  401ea6:	f9b4 300c 	ldrsh.w	r3, [r4, #12]
  401eaa:	b29a      	uxth	r2, r3
  401eac:	d101      	bne.n	401eb2 <_puts_r+0x3e>
  401eae:	0590      	lsls	r0, r2, #22
  401eb0:	d525      	bpl.n	401efe <_puts_r+0x8a>
  401eb2:	0491      	lsls	r1, r2, #18
  401eb4:	d406      	bmi.n	401ec4 <_puts_r+0x50>
  401eb6:	6e62      	ldr	r2, [r4, #100]	; 0x64
  401eb8:	f443 5300 	orr.w	r3, r3, #8192	; 0x2000
  401ebc:	f422 5200 	bic.w	r2, r2, #8192	; 0x2000
  401ec0:	81a3      	strh	r3, [r4, #12]
  401ec2:	6662      	str	r2, [r4, #100]	; 0x64
  401ec4:	4628      	mov	r0, r5
  401ec6:	aa01      	add	r2, sp, #4
  401ec8:	4621      	mov	r1, r4
  401eca:	f001 fba9 	bl	403620 <__sfvwrite_r>
  401ece:	6e63      	ldr	r3, [r4, #100]	; 0x64
  401ed0:	2800      	cmp	r0, #0
  401ed2:	bf0c      	ite	eq
  401ed4:	250a      	moveq	r5, #10
  401ed6:	f04f 35ff 	movne.w	r5, #4294967295
  401eda:	07da      	lsls	r2, r3, #31
  401edc:	d402      	bmi.n	401ee4 <_puts_r+0x70>
  401ede:	89a3      	ldrh	r3, [r4, #12]
  401ee0:	059b      	lsls	r3, r3, #22
  401ee2:	d502      	bpl.n	401eea <_puts_r+0x76>
  401ee4:	4628      	mov	r0, r5
  401ee6:	b009      	add	sp, #36	; 0x24
  401ee8:	bdf0      	pop	{r4, r5, r6, r7, pc}
  401eea:	6da0      	ldr	r0, [r4, #88]	; 0x58
  401eec:	f001 fd4e 	bl	40398c <__retarget_lock_release_recursive>
  401ef0:	4628      	mov	r0, r5
  401ef2:	b009      	add	sp, #36	; 0x24
  401ef4:	bdf0      	pop	{r4, r5, r6, r7, pc}
  401ef6:	4628      	mov	r0, r5
  401ef8:	f001 f986 	bl	403208 <__sinit>
  401efc:	e7d0      	b.n	401ea0 <_puts_r+0x2c>
  401efe:	6da0      	ldr	r0, [r4, #88]	; 0x58
  401f00:	f001 fd42 	bl	403988 <__retarget_lock_acquire_recursive>
  401f04:	f9b4 300c 	ldrsh.w	r3, [r4, #12]
  401f08:	b29a      	uxth	r2, r3
  401f0a:	e7d2      	b.n	401eb2 <_puts_r+0x3e>
  401f0c:	00404a0c 	.word	0x00404a0c

00401f10 <puts>:
  401f10:	4b02      	ldr	r3, [pc, #8]	; (401f1c <puts+0xc>)
  401f12:	4601      	mov	r1, r0
  401f14:	6818      	ldr	r0, [r3, #0]
  401f16:	f7ff bfad 	b.w	401e74 <_puts_r>
  401f1a:	bf00      	nop
  401f1c:	20400014 	.word	0x20400014

00401f20 <setbuf>:
  401f20:	2900      	cmp	r1, #0
  401f22:	bf0c      	ite	eq
  401f24:	2202      	moveq	r2, #2
  401f26:	2200      	movne	r2, #0
  401f28:	f44f 6380 	mov.w	r3, #1024	; 0x400
  401f2c:	f000 b800 	b.w	401f30 <setvbuf>

00401f30 <setvbuf>:
  401f30:	e92d 43f0 	stmdb	sp!, {r4, r5, r6, r7, r8, r9, lr}
  401f34:	4c61      	ldr	r4, [pc, #388]	; (4020bc <setvbuf+0x18c>)
  401f36:	6825      	ldr	r5, [r4, #0]
  401f38:	b083      	sub	sp, #12
  401f3a:	4604      	mov	r4, r0
  401f3c:	460f      	mov	r7, r1
  401f3e:	4690      	mov	r8, r2
  401f40:	461e      	mov	r6, r3
  401f42:	b115      	cbz	r5, 401f4a <setvbuf+0x1a>
  401f44:	6bab      	ldr	r3, [r5, #56]	; 0x38
  401f46:	2b00      	cmp	r3, #0
  401f48:	d064      	beq.n	402014 <setvbuf+0xe4>
  401f4a:	f1b8 0f02 	cmp.w	r8, #2
  401f4e:	d006      	beq.n	401f5e <setvbuf+0x2e>
  401f50:	f1b8 0f01 	cmp.w	r8, #1
  401f54:	f200 809f 	bhi.w	402096 <setvbuf+0x166>
  401f58:	2e00      	cmp	r6, #0
  401f5a:	f2c0 809c 	blt.w	402096 <setvbuf+0x166>
  401f5e:	6e63      	ldr	r3, [r4, #100]	; 0x64
  401f60:	07d8      	lsls	r0, r3, #31
  401f62:	d534      	bpl.n	401fce <setvbuf+0x9e>
  401f64:	4621      	mov	r1, r4
  401f66:	4628      	mov	r0, r5
  401f68:	f001 f8f6 	bl	403158 <_fflush_r>
  401f6c:	6b21      	ldr	r1, [r4, #48]	; 0x30
  401f6e:	b141      	cbz	r1, 401f82 <setvbuf+0x52>
  401f70:	f104 0340 	add.w	r3, r4, #64	; 0x40
  401f74:	4299      	cmp	r1, r3
  401f76:	d002      	beq.n	401f7e <setvbuf+0x4e>
  401f78:	4628      	mov	r0, r5
  401f7a:	f001 fa6b 	bl	403454 <_free_r>
  401f7e:	2300      	movs	r3, #0
  401f80:	6323      	str	r3, [r4, #48]	; 0x30
  401f82:	f9b4 300c 	ldrsh.w	r3, [r4, #12]
  401f86:	2200      	movs	r2, #0
  401f88:	61a2      	str	r2, [r4, #24]
  401f8a:	6062      	str	r2, [r4, #4]
  401f8c:	061a      	lsls	r2, r3, #24
  401f8e:	d43a      	bmi.n	402006 <setvbuf+0xd6>
  401f90:	f423 634a 	bic.w	r3, r3, #3232	; 0xca0
  401f94:	f023 0303 	bic.w	r3, r3, #3
  401f98:	f1b8 0f02 	cmp.w	r8, #2
  401f9c:	81a3      	strh	r3, [r4, #12]
  401f9e:	d01d      	beq.n	401fdc <setvbuf+0xac>
  401fa0:	ab01      	add	r3, sp, #4
  401fa2:	466a      	mov	r2, sp
  401fa4:	4621      	mov	r1, r4
  401fa6:	4628      	mov	r0, r5
  401fa8:	f001 fcf2 	bl	403990 <__swhatbuf_r>
  401fac:	89a3      	ldrh	r3, [r4, #12]
  401fae:	4318      	orrs	r0, r3
  401fb0:	81a0      	strh	r0, [r4, #12]
  401fb2:	2e00      	cmp	r6, #0
  401fb4:	d132      	bne.n	40201c <setvbuf+0xec>
  401fb6:	9e00      	ldr	r6, [sp, #0]
  401fb8:	4630      	mov	r0, r6
  401fba:	f001 fd61 	bl	403a80 <malloc>
  401fbe:	4607      	mov	r7, r0
  401fc0:	2800      	cmp	r0, #0
  401fc2:	d06b      	beq.n	40209c <setvbuf+0x16c>
  401fc4:	89a3      	ldrh	r3, [r4, #12]
  401fc6:	f043 0380 	orr.w	r3, r3, #128	; 0x80
  401fca:	81a3      	strh	r3, [r4, #12]
  401fcc:	e028      	b.n	402020 <setvbuf+0xf0>
  401fce:	89a3      	ldrh	r3, [r4, #12]
  401fd0:	0599      	lsls	r1, r3, #22
  401fd2:	d4c7      	bmi.n	401f64 <setvbuf+0x34>
  401fd4:	6da0      	ldr	r0, [r4, #88]	; 0x58
  401fd6:	f001 fcd7 	bl	403988 <__retarget_lock_acquire_recursive>
  401fda:	e7c3      	b.n	401f64 <setvbuf+0x34>
  401fdc:	2500      	movs	r5, #0
  401fde:	6e61      	ldr	r1, [r4, #100]	; 0x64
  401fe0:	2600      	movs	r6, #0
  401fe2:	f104 0243 	add.w	r2, r4, #67	; 0x43
  401fe6:	f043 0302 	orr.w	r3, r3, #2
  401fea:	2001      	movs	r0, #1
  401fec:	60a6      	str	r6, [r4, #8]
  401fee:	07ce      	lsls	r6, r1, #31
  401ff0:	81a3      	strh	r3, [r4, #12]
  401ff2:	6022      	str	r2, [r4, #0]
  401ff4:	6122      	str	r2, [r4, #16]
  401ff6:	6160      	str	r0, [r4, #20]
  401ff8:	d401      	bmi.n	401ffe <setvbuf+0xce>
  401ffa:	0598      	lsls	r0, r3, #22
  401ffc:	d53e      	bpl.n	40207c <setvbuf+0x14c>
  401ffe:	4628      	mov	r0, r5
  402000:	b003      	add	sp, #12
  402002:	e8bd 83f0 	ldmia.w	sp!, {r4, r5, r6, r7, r8, r9, pc}
  402006:	6921      	ldr	r1, [r4, #16]
  402008:	4628      	mov	r0, r5
  40200a:	f001 fa23 	bl	403454 <_free_r>
  40200e:	f9b4 300c 	ldrsh.w	r3, [r4, #12]
  402012:	e7bd      	b.n	401f90 <setvbuf+0x60>
  402014:	4628      	mov	r0, r5
  402016:	f001 f8f7 	bl	403208 <__sinit>
  40201a:	e796      	b.n	401f4a <setvbuf+0x1a>
  40201c:	2f00      	cmp	r7, #0
  40201e:	d0cb      	beq.n	401fb8 <setvbuf+0x88>
  402020:	6bab      	ldr	r3, [r5, #56]	; 0x38
  402022:	2b00      	cmp	r3, #0
  402024:	d033      	beq.n	40208e <setvbuf+0x15e>
  402026:	9b00      	ldr	r3, [sp, #0]
  402028:	f9b4 200c 	ldrsh.w	r2, [r4, #12]
  40202c:	6027      	str	r7, [r4, #0]
  40202e:	429e      	cmp	r6, r3
  402030:	bf1c      	itt	ne
  402032:	f442 6200 	orrne.w	r2, r2, #2048	; 0x800
  402036:	81a2      	strhne	r2, [r4, #12]
  402038:	f1b8 0f01 	cmp.w	r8, #1
  40203c:	bf04      	itt	eq
  40203e:	f042 0201 	orreq.w	r2, r2, #1
  402042:	81a2      	strheq	r2, [r4, #12]
  402044:	b292      	uxth	r2, r2
  402046:	f012 0308 	ands.w	r3, r2, #8
  40204a:	6127      	str	r7, [r4, #16]
  40204c:	6166      	str	r6, [r4, #20]
  40204e:	d00e      	beq.n	40206e <setvbuf+0x13e>
  402050:	07d1      	lsls	r1, r2, #31
  402052:	d51a      	bpl.n	40208a <setvbuf+0x15a>
  402054:	6e65      	ldr	r5, [r4, #100]	; 0x64
  402056:	4276      	negs	r6, r6
  402058:	2300      	movs	r3, #0
  40205a:	f015 0501 	ands.w	r5, r5, #1
  40205e:	61a6      	str	r6, [r4, #24]
  402060:	60a3      	str	r3, [r4, #8]
  402062:	d009      	beq.n	402078 <setvbuf+0x148>
  402064:	2500      	movs	r5, #0
  402066:	4628      	mov	r0, r5
  402068:	b003      	add	sp, #12
  40206a:	e8bd 83f0 	ldmia.w	sp!, {r4, r5, r6, r7, r8, r9, pc}
  40206e:	60a3      	str	r3, [r4, #8]
  402070:	6e65      	ldr	r5, [r4, #100]	; 0x64
  402072:	f015 0501 	ands.w	r5, r5, #1
  402076:	d1f5      	bne.n	402064 <setvbuf+0x134>
  402078:	0593      	lsls	r3, r2, #22
  40207a:	d4c0      	bmi.n	401ffe <setvbuf+0xce>
  40207c:	6da0      	ldr	r0, [r4, #88]	; 0x58
  40207e:	f001 fc85 	bl	40398c <__retarget_lock_release_recursive>
  402082:	4628      	mov	r0, r5
  402084:	b003      	add	sp, #12
  402086:	e8bd 83f0 	ldmia.w	sp!, {r4, r5, r6, r7, r8, r9, pc}
  40208a:	60a6      	str	r6, [r4, #8]
  40208c:	e7f0      	b.n	402070 <setvbuf+0x140>
  40208e:	4628      	mov	r0, r5
  402090:	f001 f8ba 	bl	403208 <__sinit>
  402094:	e7c7      	b.n	402026 <setvbuf+0xf6>
  402096:	f04f 35ff 	mov.w	r5, #4294967295
  40209a:	e7b0      	b.n	401ffe <setvbuf+0xce>
  40209c:	f8dd 9000 	ldr.w	r9, [sp]
  4020a0:	45b1      	cmp	r9, r6
  4020a2:	d004      	beq.n	4020ae <setvbuf+0x17e>
  4020a4:	4648      	mov	r0, r9
  4020a6:	f001 fceb 	bl	403a80 <malloc>
  4020aa:	4607      	mov	r7, r0
  4020ac:	b920      	cbnz	r0, 4020b8 <setvbuf+0x188>
  4020ae:	f9b4 300c 	ldrsh.w	r3, [r4, #12]
  4020b2:	f04f 35ff 	mov.w	r5, #4294967295
  4020b6:	e792      	b.n	401fde <setvbuf+0xae>
  4020b8:	464e      	mov	r6, r9
  4020ba:	e783      	b.n	401fc4 <setvbuf+0x94>
  4020bc:	20400014 	.word	0x20400014

004020c0 <strlen>:
  4020c0:	f890 f000 	pld	[r0]
  4020c4:	e96d 4502 	strd	r4, r5, [sp, #-8]!
  4020c8:	f020 0107 	bic.w	r1, r0, #7
  4020cc:	f06f 0c00 	mvn.w	ip, #0
  4020d0:	f010 0407 	ands.w	r4, r0, #7
  4020d4:	f891 f020 	pld	[r1, #32]
  4020d8:	f040 8049 	bne.w	40216e <strlen+0xae>
  4020dc:	f04f 0400 	mov.w	r4, #0
  4020e0:	f06f 0007 	mvn.w	r0, #7
  4020e4:	e9d1 2300 	ldrd	r2, r3, [r1]
  4020e8:	f891 f040 	pld	[r1, #64]	; 0x40
  4020ec:	f100 0008 	add.w	r0, r0, #8
  4020f0:	fa82 f24c 	uadd8	r2, r2, ip
  4020f4:	faa4 f28c 	sel	r2, r4, ip
  4020f8:	fa83 f34c 	uadd8	r3, r3, ip
  4020fc:	faa2 f38c 	sel	r3, r2, ip
  402100:	bb4b      	cbnz	r3, 402156 <strlen+0x96>
  402102:	e9d1 2302 	ldrd	r2, r3, [r1, #8]
  402106:	fa82 f24c 	uadd8	r2, r2, ip
  40210a:	f100 0008 	add.w	r0, r0, #8
  40210e:	faa4 f28c 	sel	r2, r4, ip
  402112:	fa83 f34c 	uadd8	r3, r3, ip
  402116:	faa2 f38c 	sel	r3, r2, ip
  40211a:	b9e3      	cbnz	r3, 402156 <strlen+0x96>
  40211c:	e9d1 2304 	ldrd	r2, r3, [r1, #16]
  402120:	fa82 f24c 	uadd8	r2, r2, ip
  402124:	f100 0008 	add.w	r0, r0, #8
  402128:	faa4 f28c 	sel	r2, r4, ip
  40212c:	fa83 f34c 	uadd8	r3, r3, ip
  402130:	faa2 f38c 	sel	r3, r2, ip
  402134:	b97b      	cbnz	r3, 402156 <strlen+0x96>
  402136:	e9d1 2306 	ldrd	r2, r3, [r1, #24]
  40213a:	f101 0120 	add.w	r1, r1, #32
  40213e:	fa82 f24c 	uadd8	r2, r2, ip
  402142:	f100 0008 	add.w	r0, r0, #8
  402146:	faa4 f28c 	sel	r2, r4, ip
  40214a:	fa83 f34c 	uadd8	r3, r3, ip
  40214e:	faa2 f38c 	sel	r3, r2, ip
  402152:	2b00      	cmp	r3, #0
  402154:	d0c6      	beq.n	4020e4 <strlen+0x24>
  402156:	2a00      	cmp	r2, #0
  402158:	bf04      	itt	eq
  40215a:	3004      	addeq	r0, #4
  40215c:	461a      	moveq	r2, r3
  40215e:	ba12      	rev	r2, r2
  402160:	fab2 f282 	clz	r2, r2
  402164:	e8fd 4502 	ldrd	r4, r5, [sp], #8
  402168:	eb00 00d2 	add.w	r0, r0, r2, lsr #3
  40216c:	4770      	bx	lr
  40216e:	e9d1 2300 	ldrd	r2, r3, [r1]
  402172:	f004 0503 	and.w	r5, r4, #3
  402176:	f1c4 0000 	rsb	r0, r4, #0
  40217a:	ea4f 05c5 	mov.w	r5, r5, lsl #3
  40217e:	f014 0f04 	tst.w	r4, #4
  402182:	f891 f040 	pld	[r1, #64]	; 0x40
  402186:	fa0c f505 	lsl.w	r5, ip, r5
  40218a:	ea62 0205 	orn	r2, r2, r5
  40218e:	bf1c      	itt	ne
  402190:	ea63 0305 	ornne	r3, r3, r5
  402194:	4662      	movne	r2, ip
  402196:	f04f 0400 	mov.w	r4, #0
  40219a:	e7a9      	b.n	4020f0 <strlen+0x30>

0040219c <__sprint_r.part.0>:
  40219c:	e92d 4ff8 	stmdb	sp!, {r3, r4, r5, r6, r7, r8, r9, sl, fp, lr}
  4021a0:	6e4b      	ldr	r3, [r1, #100]	; 0x64
  4021a2:	049c      	lsls	r4, r3, #18
  4021a4:	4693      	mov	fp, r2
  4021a6:	d52f      	bpl.n	402208 <__sprint_r.part.0+0x6c>
  4021a8:	6893      	ldr	r3, [r2, #8]
  4021aa:	6812      	ldr	r2, [r2, #0]
  4021ac:	b353      	cbz	r3, 402204 <__sprint_r.part.0+0x68>
  4021ae:	460e      	mov	r6, r1
  4021b0:	4607      	mov	r7, r0
  4021b2:	f102 0908 	add.w	r9, r2, #8
  4021b6:	e919 0420 	ldmdb	r9, {r5, sl}
  4021ba:	ea5f 089a 	movs.w	r8, sl, lsr #2
  4021be:	d017      	beq.n	4021f0 <__sprint_r.part.0+0x54>
  4021c0:	3d04      	subs	r5, #4
  4021c2:	2400      	movs	r4, #0
  4021c4:	e001      	b.n	4021ca <__sprint_r.part.0+0x2e>
  4021c6:	45a0      	cmp	r8, r4
  4021c8:	d010      	beq.n	4021ec <__sprint_r.part.0+0x50>
  4021ca:	4632      	mov	r2, r6
  4021cc:	f855 1f04 	ldr.w	r1, [r5, #4]!
  4021d0:	4638      	mov	r0, r7
  4021d2:	f001 f8bb 	bl	40334c <_fputwc_r>
  4021d6:	1c43      	adds	r3, r0, #1
  4021d8:	f104 0401 	add.w	r4, r4, #1
  4021dc:	d1f3      	bne.n	4021c6 <__sprint_r.part.0+0x2a>
  4021de:	2300      	movs	r3, #0
  4021e0:	f8cb 3008 	str.w	r3, [fp, #8]
  4021e4:	f8cb 3004 	str.w	r3, [fp, #4]
  4021e8:	e8bd 8ff8 	ldmia.w	sp!, {r3, r4, r5, r6, r7, r8, r9, sl, fp, pc}
  4021ec:	f8db 3008 	ldr.w	r3, [fp, #8]
  4021f0:	f02a 0a03 	bic.w	sl, sl, #3
  4021f4:	eba3 030a 	sub.w	r3, r3, sl
  4021f8:	f8cb 3008 	str.w	r3, [fp, #8]
  4021fc:	f109 0908 	add.w	r9, r9, #8
  402200:	2b00      	cmp	r3, #0
  402202:	d1d8      	bne.n	4021b6 <__sprint_r.part.0+0x1a>
  402204:	2000      	movs	r0, #0
  402206:	e7ea      	b.n	4021de <__sprint_r.part.0+0x42>
  402208:	f001 fa0a 	bl	403620 <__sfvwrite_r>
  40220c:	2300      	movs	r3, #0
  40220e:	f8cb 3008 	str.w	r3, [fp, #8]
  402212:	f8cb 3004 	str.w	r3, [fp, #4]
  402216:	e8bd 8ff8 	ldmia.w	sp!, {r3, r4, r5, r6, r7, r8, r9, sl, fp, pc}
  40221a:	bf00      	nop

0040221c <_vfiprintf_r>:
  40221c:	e92d 4ff0 	stmdb	sp!, {r4, r5, r6, r7, r8, r9, sl, fp, lr}
  402220:	b0ad      	sub	sp, #180	; 0xb4
  402222:	461d      	mov	r5, r3
  402224:	468b      	mov	fp, r1
  402226:	4690      	mov	r8, r2
  402228:	9307      	str	r3, [sp, #28]
  40222a:	9006      	str	r0, [sp, #24]
  40222c:	b118      	cbz	r0, 402236 <_vfiprintf_r+0x1a>
  40222e:	6b83      	ldr	r3, [r0, #56]	; 0x38
  402230:	2b00      	cmp	r3, #0
  402232:	f000 80f3 	beq.w	40241c <_vfiprintf_r+0x200>
  402236:	f8db 3064 	ldr.w	r3, [fp, #100]	; 0x64
  40223a:	f9bb 000c 	ldrsh.w	r0, [fp, #12]
  40223e:	07df      	lsls	r7, r3, #31
  402240:	b281      	uxth	r1, r0
  402242:	d402      	bmi.n	40224a <_vfiprintf_r+0x2e>
  402244:	058e      	lsls	r6, r1, #22
  402246:	f140 80fc 	bpl.w	402442 <_vfiprintf_r+0x226>
  40224a:	048c      	lsls	r4, r1, #18
  40224c:	d40a      	bmi.n	402264 <_vfiprintf_r+0x48>
  40224e:	f8db 3064 	ldr.w	r3, [fp, #100]	; 0x64
  402252:	f440 5100 	orr.w	r1, r0, #8192	; 0x2000
  402256:	f423 5300 	bic.w	r3, r3, #8192	; 0x2000
  40225a:	f8ab 100c 	strh.w	r1, [fp, #12]
  40225e:	f8cb 3064 	str.w	r3, [fp, #100]	; 0x64
  402262:	b289      	uxth	r1, r1
  402264:	0708      	lsls	r0, r1, #28
  402266:	f140 80b3 	bpl.w	4023d0 <_vfiprintf_r+0x1b4>
  40226a:	f8db 3010 	ldr.w	r3, [fp, #16]
  40226e:	2b00      	cmp	r3, #0
  402270:	f000 80ae 	beq.w	4023d0 <_vfiprintf_r+0x1b4>
  402274:	f001 031a 	and.w	r3, r1, #26
  402278:	2b0a      	cmp	r3, #10
  40227a:	f000 80b5 	beq.w	4023e8 <_vfiprintf_r+0x1cc>
  40227e:	2300      	movs	r3, #0
  402280:	f10d 0970 	add.w	r9, sp, #112	; 0x70
  402284:	930b      	str	r3, [sp, #44]	; 0x2c
  402286:	9311      	str	r3, [sp, #68]	; 0x44
  402288:	9310      	str	r3, [sp, #64]	; 0x40
  40228a:	9303      	str	r3, [sp, #12]
  40228c:	f8cd 903c 	str.w	r9, [sp, #60]	; 0x3c
  402290:	46ca      	mov	sl, r9
  402292:	f8cd b010 	str.w	fp, [sp, #16]
  402296:	f898 3000 	ldrb.w	r3, [r8]
  40229a:	4644      	mov	r4, r8
  40229c:	b1fb      	cbz	r3, 4022de <_vfiprintf_r+0xc2>
  40229e:	2b25      	cmp	r3, #37	; 0x25
  4022a0:	d102      	bne.n	4022a8 <_vfiprintf_r+0x8c>
  4022a2:	e01c      	b.n	4022de <_vfiprintf_r+0xc2>
  4022a4:	2b25      	cmp	r3, #37	; 0x25
  4022a6:	d003      	beq.n	4022b0 <_vfiprintf_r+0x94>
  4022a8:	f814 3f01 	ldrb.w	r3, [r4, #1]!
  4022ac:	2b00      	cmp	r3, #0
  4022ae:	d1f9      	bne.n	4022a4 <_vfiprintf_r+0x88>
  4022b0:	eba4 0508 	sub.w	r5, r4, r8
  4022b4:	b19d      	cbz	r5, 4022de <_vfiprintf_r+0xc2>
  4022b6:	9b10      	ldr	r3, [sp, #64]	; 0x40
  4022b8:	9a11      	ldr	r2, [sp, #68]	; 0x44
  4022ba:	f8ca 8000 	str.w	r8, [sl]
  4022be:	3301      	adds	r3, #1
  4022c0:	442a      	add	r2, r5
  4022c2:	2b07      	cmp	r3, #7
  4022c4:	f8ca 5004 	str.w	r5, [sl, #4]
  4022c8:	9211      	str	r2, [sp, #68]	; 0x44
  4022ca:	9310      	str	r3, [sp, #64]	; 0x40
  4022cc:	dd7a      	ble.n	4023c4 <_vfiprintf_r+0x1a8>
  4022ce:	2a00      	cmp	r2, #0
  4022d0:	f040 84b0 	bne.w	402c34 <_vfiprintf_r+0xa18>
  4022d4:	9b03      	ldr	r3, [sp, #12]
  4022d6:	9210      	str	r2, [sp, #64]	; 0x40
  4022d8:	442b      	add	r3, r5
  4022da:	46ca      	mov	sl, r9
  4022dc:	9303      	str	r3, [sp, #12]
  4022de:	7823      	ldrb	r3, [r4, #0]
  4022e0:	2b00      	cmp	r3, #0
  4022e2:	f000 83e0 	beq.w	402aa6 <_vfiprintf_r+0x88a>
  4022e6:	2000      	movs	r0, #0
  4022e8:	f04f 0300 	mov.w	r3, #0
  4022ec:	f88d 3037 	strb.w	r3, [sp, #55]	; 0x37
  4022f0:	f104 0801 	add.w	r8, r4, #1
  4022f4:	7862      	ldrb	r2, [r4, #1]
  4022f6:	4605      	mov	r5, r0
  4022f8:	4606      	mov	r6, r0
  4022fa:	4603      	mov	r3, r0
  4022fc:	f04f 34ff 	mov.w	r4, #4294967295
  402300:	f108 0801 	add.w	r8, r8, #1
  402304:	f1a2 0120 	sub.w	r1, r2, #32
  402308:	2958      	cmp	r1, #88	; 0x58
  40230a:	f200 82de 	bhi.w	4028ca <_vfiprintf_r+0x6ae>
  40230e:	e8df f011 	tbh	[pc, r1, lsl #1]
  402312:	0221      	.short	0x0221
  402314:	02dc02dc 	.word	0x02dc02dc
  402318:	02dc0229 	.word	0x02dc0229
  40231c:	02dc02dc 	.word	0x02dc02dc
  402320:	02dc02dc 	.word	0x02dc02dc
  402324:	028902dc 	.word	0x028902dc
  402328:	02dc0295 	.word	0x02dc0295
  40232c:	02bd00a2 	.word	0x02bd00a2
  402330:	019f02dc 	.word	0x019f02dc
  402334:	01a401a4 	.word	0x01a401a4
  402338:	01a401a4 	.word	0x01a401a4
  40233c:	01a401a4 	.word	0x01a401a4
  402340:	01a401a4 	.word	0x01a401a4
  402344:	02dc01a4 	.word	0x02dc01a4
  402348:	02dc02dc 	.word	0x02dc02dc
  40234c:	02dc02dc 	.word	0x02dc02dc
  402350:	02dc02dc 	.word	0x02dc02dc
  402354:	02dc02dc 	.word	0x02dc02dc
  402358:	01b202dc 	.word	0x01b202dc
  40235c:	02dc02dc 	.word	0x02dc02dc
  402360:	02dc02dc 	.word	0x02dc02dc
  402364:	02dc02dc 	.word	0x02dc02dc
  402368:	02dc02dc 	.word	0x02dc02dc
  40236c:	02dc02dc 	.word	0x02dc02dc
  402370:	02dc0197 	.word	0x02dc0197
  402374:	02dc02dc 	.word	0x02dc02dc
  402378:	02dc02dc 	.word	0x02dc02dc
  40237c:	02dc019b 	.word	0x02dc019b
  402380:	025302dc 	.word	0x025302dc
  402384:	02dc02dc 	.word	0x02dc02dc
  402388:	02dc02dc 	.word	0x02dc02dc
  40238c:	02dc02dc 	.word	0x02dc02dc
  402390:	02dc02dc 	.word	0x02dc02dc
  402394:	02dc02dc 	.word	0x02dc02dc
  402398:	021b025a 	.word	0x021b025a
  40239c:	02dc02dc 	.word	0x02dc02dc
  4023a0:	026e02dc 	.word	0x026e02dc
  4023a4:	02dc021b 	.word	0x02dc021b
  4023a8:	027302dc 	.word	0x027302dc
  4023ac:	01f502dc 	.word	0x01f502dc
  4023b0:	02090182 	.word	0x02090182
  4023b4:	02dc02d7 	.word	0x02dc02d7
  4023b8:	02dc029a 	.word	0x02dc029a
  4023bc:	02dc00a7 	.word	0x02dc00a7
  4023c0:	022e02dc 	.word	0x022e02dc
  4023c4:	f10a 0a08 	add.w	sl, sl, #8
  4023c8:	9b03      	ldr	r3, [sp, #12]
  4023ca:	442b      	add	r3, r5
  4023cc:	9303      	str	r3, [sp, #12]
  4023ce:	e786      	b.n	4022de <_vfiprintf_r+0xc2>
  4023d0:	4659      	mov	r1, fp
  4023d2:	9806      	ldr	r0, [sp, #24]
  4023d4:	f000 fdac 	bl	402f30 <__swsetup_r>
  4023d8:	bb18      	cbnz	r0, 402422 <_vfiprintf_r+0x206>
  4023da:	f8bb 100c 	ldrh.w	r1, [fp, #12]
  4023de:	f001 031a 	and.w	r3, r1, #26
  4023e2:	2b0a      	cmp	r3, #10
  4023e4:	f47f af4b 	bne.w	40227e <_vfiprintf_r+0x62>
  4023e8:	f9bb 300e 	ldrsh.w	r3, [fp, #14]
  4023ec:	2b00      	cmp	r3, #0
  4023ee:	f6ff af46 	blt.w	40227e <_vfiprintf_r+0x62>
  4023f2:	f8db 3064 	ldr.w	r3, [fp, #100]	; 0x64
  4023f6:	07db      	lsls	r3, r3, #31
  4023f8:	d405      	bmi.n	402406 <_vfiprintf_r+0x1ea>
  4023fa:	058f      	lsls	r7, r1, #22
  4023fc:	d403      	bmi.n	402406 <_vfiprintf_r+0x1ea>
  4023fe:	f8db 0058 	ldr.w	r0, [fp, #88]	; 0x58
  402402:	f001 fac3 	bl	40398c <__retarget_lock_release_recursive>
  402406:	462b      	mov	r3, r5
  402408:	4642      	mov	r2, r8
  40240a:	4659      	mov	r1, fp
  40240c:	9806      	ldr	r0, [sp, #24]
  40240e:	f000 fd4d 	bl	402eac <__sbprintf>
  402412:	9003      	str	r0, [sp, #12]
  402414:	9803      	ldr	r0, [sp, #12]
  402416:	b02d      	add	sp, #180	; 0xb4
  402418:	e8bd 8ff0 	ldmia.w	sp!, {r4, r5, r6, r7, r8, r9, sl, fp, pc}
  40241c:	f000 fef4 	bl	403208 <__sinit>
  402420:	e709      	b.n	402236 <_vfiprintf_r+0x1a>
  402422:	f8db 3064 	ldr.w	r3, [fp, #100]	; 0x64
  402426:	07d9      	lsls	r1, r3, #31
  402428:	d404      	bmi.n	402434 <_vfiprintf_r+0x218>
  40242a:	f8bb 300c 	ldrh.w	r3, [fp, #12]
  40242e:	059a      	lsls	r2, r3, #22
  402430:	f140 84aa 	bpl.w	402d88 <_vfiprintf_r+0xb6c>
  402434:	f04f 33ff 	mov.w	r3, #4294967295
  402438:	9303      	str	r3, [sp, #12]
  40243a:	9803      	ldr	r0, [sp, #12]
  40243c:	b02d      	add	sp, #180	; 0xb4
  40243e:	e8bd 8ff0 	ldmia.w	sp!, {r4, r5, r6, r7, r8, r9, sl, fp, pc}
  402442:	f8db 0058 	ldr.w	r0, [fp, #88]	; 0x58
  402446:	f001 fa9f 	bl	403988 <__retarget_lock_acquire_recursive>
  40244a:	f9bb 000c 	ldrsh.w	r0, [fp, #12]
  40244e:	b281      	uxth	r1, r0
  402450:	e6fb      	b.n	40224a <_vfiprintf_r+0x2e>
  402452:	4276      	negs	r6, r6
  402454:	9207      	str	r2, [sp, #28]
  402456:	f043 0304 	orr.w	r3, r3, #4
  40245a:	f898 2000 	ldrb.w	r2, [r8]
  40245e:	e74f      	b.n	402300 <_vfiprintf_r+0xe4>
  402460:	9608      	str	r6, [sp, #32]
  402462:	069e      	lsls	r6, r3, #26
  402464:	f100 8450 	bmi.w	402d08 <_vfiprintf_r+0xaec>
  402468:	9907      	ldr	r1, [sp, #28]
  40246a:	06dd      	lsls	r5, r3, #27
  40246c:	460a      	mov	r2, r1
  40246e:	f100 83ef 	bmi.w	402c50 <_vfiprintf_r+0xa34>
  402472:	0658      	lsls	r0, r3, #25
  402474:	f140 83ec 	bpl.w	402c50 <_vfiprintf_r+0xa34>
  402478:	880e      	ldrh	r6, [r1, #0]
  40247a:	3104      	adds	r1, #4
  40247c:	2700      	movs	r7, #0
  40247e:	2201      	movs	r2, #1
  402480:	9107      	str	r1, [sp, #28]
  402482:	f04f 0100 	mov.w	r1, #0
  402486:	f88d 1037 	strb.w	r1, [sp, #55]	; 0x37
  40248a:	2500      	movs	r5, #0
  40248c:	1c61      	adds	r1, r4, #1
  40248e:	f000 8116 	beq.w	4026be <_vfiprintf_r+0x4a2>
  402492:	f023 0180 	bic.w	r1, r3, #128	; 0x80
  402496:	9102      	str	r1, [sp, #8]
  402498:	ea56 0107 	orrs.w	r1, r6, r7
  40249c:	f040 8114 	bne.w	4026c8 <_vfiprintf_r+0x4ac>
  4024a0:	2c00      	cmp	r4, #0
  4024a2:	f040 835c 	bne.w	402b5e <_vfiprintf_r+0x942>
  4024a6:	2a00      	cmp	r2, #0
  4024a8:	f040 83b7 	bne.w	402c1a <_vfiprintf_r+0x9fe>
  4024ac:	f013 0301 	ands.w	r3, r3, #1
  4024b0:	9305      	str	r3, [sp, #20]
  4024b2:	f000 8457 	beq.w	402d64 <_vfiprintf_r+0xb48>
  4024b6:	f10d 0bb0 	add.w	fp, sp, #176	; 0xb0
  4024ba:	2330      	movs	r3, #48	; 0x30
  4024bc:	f80b 3d41 	strb.w	r3, [fp, #-65]!
  4024c0:	9b05      	ldr	r3, [sp, #20]
  4024c2:	42a3      	cmp	r3, r4
  4024c4:	bfb8      	it	lt
  4024c6:	4623      	movlt	r3, r4
  4024c8:	9301      	str	r3, [sp, #4]
  4024ca:	b10d      	cbz	r5, 4024d0 <_vfiprintf_r+0x2b4>
  4024cc:	3301      	adds	r3, #1
  4024ce:	9301      	str	r3, [sp, #4]
  4024d0:	9b02      	ldr	r3, [sp, #8]
  4024d2:	f013 0302 	ands.w	r3, r3, #2
  4024d6:	9309      	str	r3, [sp, #36]	; 0x24
  4024d8:	d002      	beq.n	4024e0 <_vfiprintf_r+0x2c4>
  4024da:	9b01      	ldr	r3, [sp, #4]
  4024dc:	3302      	adds	r3, #2
  4024de:	9301      	str	r3, [sp, #4]
  4024e0:	9b02      	ldr	r3, [sp, #8]
  4024e2:	f013 0384 	ands.w	r3, r3, #132	; 0x84
  4024e6:	930a      	str	r3, [sp, #40]	; 0x28
  4024e8:	f040 8217 	bne.w	40291a <_vfiprintf_r+0x6fe>
  4024ec:	9b08      	ldr	r3, [sp, #32]
  4024ee:	9a01      	ldr	r2, [sp, #4]
  4024f0:	1a9d      	subs	r5, r3, r2
  4024f2:	2d00      	cmp	r5, #0
  4024f4:	f340 8211 	ble.w	40291a <_vfiprintf_r+0x6fe>
  4024f8:	2d10      	cmp	r5, #16
  4024fa:	f340 8490 	ble.w	402e1e <_vfiprintf_r+0xc02>
  4024fe:	9b10      	ldr	r3, [sp, #64]	; 0x40
  402500:	9a11      	ldr	r2, [sp, #68]	; 0x44
  402502:	4ec4      	ldr	r6, [pc, #784]	; (402814 <_vfiprintf_r+0x5f8>)
  402504:	46d6      	mov	lr, sl
  402506:	2710      	movs	r7, #16
  402508:	46a2      	mov	sl, r4
  40250a:	4619      	mov	r1, r3
  40250c:	9c06      	ldr	r4, [sp, #24]
  40250e:	e007      	b.n	402520 <_vfiprintf_r+0x304>
  402510:	f101 0c02 	add.w	ip, r1, #2
  402514:	f10e 0e08 	add.w	lr, lr, #8
  402518:	4601      	mov	r1, r0
  40251a:	3d10      	subs	r5, #16
  40251c:	2d10      	cmp	r5, #16
  40251e:	dd11      	ble.n	402544 <_vfiprintf_r+0x328>
  402520:	1c48      	adds	r0, r1, #1
  402522:	3210      	adds	r2, #16
  402524:	2807      	cmp	r0, #7
  402526:	9211      	str	r2, [sp, #68]	; 0x44
  402528:	e88e 00c0 	stmia.w	lr, {r6, r7}
  40252c:	9010      	str	r0, [sp, #64]	; 0x40
  40252e:	ddef      	ble.n	402510 <_vfiprintf_r+0x2f4>
  402530:	2a00      	cmp	r2, #0
  402532:	f040 81e4 	bne.w	4028fe <_vfiprintf_r+0x6e2>
  402536:	3d10      	subs	r5, #16
  402538:	2d10      	cmp	r5, #16
  40253a:	4611      	mov	r1, r2
  40253c:	f04f 0c01 	mov.w	ip, #1
  402540:	46ce      	mov	lr, r9
  402542:	dced      	bgt.n	402520 <_vfiprintf_r+0x304>
  402544:	4654      	mov	r4, sl
  402546:	4661      	mov	r1, ip
  402548:	46f2      	mov	sl, lr
  40254a:	442a      	add	r2, r5
  40254c:	2907      	cmp	r1, #7
  40254e:	9211      	str	r2, [sp, #68]	; 0x44
  402550:	f8ca 6000 	str.w	r6, [sl]
  402554:	f8ca 5004 	str.w	r5, [sl, #4]
  402558:	9110      	str	r1, [sp, #64]	; 0x40
  40255a:	f300 82ec 	bgt.w	402b36 <_vfiprintf_r+0x91a>
  40255e:	f89d 5037 	ldrb.w	r5, [sp, #55]	; 0x37
  402562:	f10a 0a08 	add.w	sl, sl, #8
  402566:	1c48      	adds	r0, r1, #1
  402568:	2d00      	cmp	r5, #0
  40256a:	f040 81de 	bne.w	40292a <_vfiprintf_r+0x70e>
  40256e:	9b09      	ldr	r3, [sp, #36]	; 0x24
  402570:	2b00      	cmp	r3, #0
  402572:	f000 81f8 	beq.w	402966 <_vfiprintf_r+0x74a>
  402576:	3202      	adds	r2, #2
  402578:	a90e      	add	r1, sp, #56	; 0x38
  40257a:	2302      	movs	r3, #2
  40257c:	2807      	cmp	r0, #7
  40257e:	9211      	str	r2, [sp, #68]	; 0x44
  402580:	9010      	str	r0, [sp, #64]	; 0x40
  402582:	e88a 000a 	stmia.w	sl, {r1, r3}
  402586:	f340 81ea 	ble.w	40295e <_vfiprintf_r+0x742>
  40258a:	2a00      	cmp	r2, #0
  40258c:	f040 838c 	bne.w	402ca8 <_vfiprintf_r+0xa8c>
  402590:	9b0a      	ldr	r3, [sp, #40]	; 0x28
  402592:	2b80      	cmp	r3, #128	; 0x80
  402594:	f04f 0001 	mov.w	r0, #1
  402598:	4611      	mov	r1, r2
  40259a:	46ca      	mov	sl, r9
  40259c:	f040 81e7 	bne.w	40296e <_vfiprintf_r+0x752>
  4025a0:	9b08      	ldr	r3, [sp, #32]
  4025a2:	9d01      	ldr	r5, [sp, #4]
  4025a4:	1b5e      	subs	r6, r3, r5
  4025a6:	2e00      	cmp	r6, #0
  4025a8:	f340 81e1 	ble.w	40296e <_vfiprintf_r+0x752>
  4025ac:	2e10      	cmp	r6, #16
  4025ae:	4d9a      	ldr	r5, [pc, #616]	; (402818 <_vfiprintf_r+0x5fc>)
  4025b0:	f340 8450 	ble.w	402e54 <_vfiprintf_r+0xc38>
  4025b4:	46d4      	mov	ip, sl
  4025b6:	2710      	movs	r7, #16
  4025b8:	46a2      	mov	sl, r4
  4025ba:	9c06      	ldr	r4, [sp, #24]
  4025bc:	e007      	b.n	4025ce <_vfiprintf_r+0x3b2>
  4025be:	f101 0e02 	add.w	lr, r1, #2
  4025c2:	f10c 0c08 	add.w	ip, ip, #8
  4025c6:	4601      	mov	r1, r0
  4025c8:	3e10      	subs	r6, #16
  4025ca:	2e10      	cmp	r6, #16
  4025cc:	dd11      	ble.n	4025f2 <_vfiprintf_r+0x3d6>
  4025ce:	1c48      	adds	r0, r1, #1
  4025d0:	3210      	adds	r2, #16
  4025d2:	2807      	cmp	r0, #7
  4025d4:	9211      	str	r2, [sp, #68]	; 0x44
  4025d6:	e88c 00a0 	stmia.w	ip, {r5, r7}
  4025da:	9010      	str	r0, [sp, #64]	; 0x40
  4025dc:	ddef      	ble.n	4025be <_vfiprintf_r+0x3a2>
  4025de:	2a00      	cmp	r2, #0
  4025e0:	f040 829d 	bne.w	402b1e <_vfiprintf_r+0x902>
  4025e4:	3e10      	subs	r6, #16
  4025e6:	2e10      	cmp	r6, #16
  4025e8:	f04f 0e01 	mov.w	lr, #1
  4025ec:	4611      	mov	r1, r2
  4025ee:	46cc      	mov	ip, r9
  4025f0:	dced      	bgt.n	4025ce <_vfiprintf_r+0x3b2>
  4025f2:	4654      	mov	r4, sl
  4025f4:	46e2      	mov	sl, ip
  4025f6:	4432      	add	r2, r6
  4025f8:	f1be 0f07 	cmp.w	lr, #7
  4025fc:	9211      	str	r2, [sp, #68]	; 0x44
  4025fe:	e88a 0060 	stmia.w	sl, {r5, r6}
  402602:	f8cd e040 	str.w	lr, [sp, #64]	; 0x40
  402606:	f300 8369 	bgt.w	402cdc <_vfiprintf_r+0xac0>
  40260a:	f10a 0a08 	add.w	sl, sl, #8
  40260e:	f10e 0001 	add.w	r0, lr, #1
  402612:	4671      	mov	r1, lr
  402614:	e1ab      	b.n	40296e <_vfiprintf_r+0x752>
  402616:	9608      	str	r6, [sp, #32]
  402618:	f013 0220 	ands.w	r2, r3, #32
  40261c:	f040 838c 	bne.w	402d38 <_vfiprintf_r+0xb1c>
  402620:	f013 0110 	ands.w	r1, r3, #16
  402624:	f040 831a 	bne.w	402c5c <_vfiprintf_r+0xa40>
  402628:	f013 0240 	ands.w	r2, r3, #64	; 0x40
  40262c:	f000 8316 	beq.w	402c5c <_vfiprintf_r+0xa40>
  402630:	9807      	ldr	r0, [sp, #28]
  402632:	460a      	mov	r2, r1
  402634:	4601      	mov	r1, r0
  402636:	3104      	adds	r1, #4
  402638:	8806      	ldrh	r6, [r0, #0]
  40263a:	9107      	str	r1, [sp, #28]
  40263c:	2700      	movs	r7, #0
  40263e:	e720      	b.n	402482 <_vfiprintf_r+0x266>
  402640:	9608      	str	r6, [sp, #32]
  402642:	f043 0310 	orr.w	r3, r3, #16
  402646:	e7e7      	b.n	402618 <_vfiprintf_r+0x3fc>
  402648:	9608      	str	r6, [sp, #32]
  40264a:	f043 0310 	orr.w	r3, r3, #16
  40264e:	e708      	b.n	402462 <_vfiprintf_r+0x246>
  402650:	f043 0380 	orr.w	r3, r3, #128	; 0x80
  402654:	f898 2000 	ldrb.w	r2, [r8]
  402658:	e652      	b.n	402300 <_vfiprintf_r+0xe4>
  40265a:	f1a2 0130 	sub.w	r1, r2, #48	; 0x30
  40265e:	2600      	movs	r6, #0
  402660:	f818 2b01 	ldrb.w	r2, [r8], #1
  402664:	eb06 0686 	add.w	r6, r6, r6, lsl #2
  402668:	eb01 0646 	add.w	r6, r1, r6, lsl #1
  40266c:	f1a2 0130 	sub.w	r1, r2, #48	; 0x30
  402670:	2909      	cmp	r1, #9
  402672:	d9f5      	bls.n	402660 <_vfiprintf_r+0x444>
  402674:	e646      	b.n	402304 <_vfiprintf_r+0xe8>
  402676:	9608      	str	r6, [sp, #32]
  402678:	2800      	cmp	r0, #0
  40267a:	f040 8408 	bne.w	402e8e <_vfiprintf_r+0xc72>
  40267e:	f043 0310 	orr.w	r3, r3, #16
  402682:	069e      	lsls	r6, r3, #26
  402684:	f100 834c 	bmi.w	402d20 <_vfiprintf_r+0xb04>
  402688:	06dd      	lsls	r5, r3, #27
  40268a:	f100 82f3 	bmi.w	402c74 <_vfiprintf_r+0xa58>
  40268e:	0658      	lsls	r0, r3, #25
  402690:	f140 82f0 	bpl.w	402c74 <_vfiprintf_r+0xa58>
  402694:	9d07      	ldr	r5, [sp, #28]
  402696:	f9b5 6000 	ldrsh.w	r6, [r5]
  40269a:	462a      	mov	r2, r5
  40269c:	17f7      	asrs	r7, r6, #31
  40269e:	3204      	adds	r2, #4
  4026a0:	4630      	mov	r0, r6
  4026a2:	4639      	mov	r1, r7
  4026a4:	9207      	str	r2, [sp, #28]
  4026a6:	2800      	cmp	r0, #0
  4026a8:	f171 0200 	sbcs.w	r2, r1, #0
  4026ac:	f2c0 835d 	blt.w	402d6a <_vfiprintf_r+0xb4e>
  4026b0:	1c61      	adds	r1, r4, #1
  4026b2:	f89d 5037 	ldrb.w	r5, [sp, #55]	; 0x37
  4026b6:	f04f 0201 	mov.w	r2, #1
  4026ba:	f47f aeea 	bne.w	402492 <_vfiprintf_r+0x276>
  4026be:	ea56 0107 	orrs.w	r1, r6, r7
  4026c2:	f000 824d 	beq.w	402b60 <_vfiprintf_r+0x944>
  4026c6:	9302      	str	r3, [sp, #8]
  4026c8:	2a01      	cmp	r2, #1
  4026ca:	f000 828c 	beq.w	402be6 <_vfiprintf_r+0x9ca>
  4026ce:	2a02      	cmp	r2, #2
  4026d0:	f040 825c 	bne.w	402b8c <_vfiprintf_r+0x970>
  4026d4:	980b      	ldr	r0, [sp, #44]	; 0x2c
  4026d6:	46cb      	mov	fp, r9
  4026d8:	0933      	lsrs	r3, r6, #4
  4026da:	f006 010f 	and.w	r1, r6, #15
  4026de:	ea43 7307 	orr.w	r3, r3, r7, lsl #28
  4026e2:	093a      	lsrs	r2, r7, #4
  4026e4:	461e      	mov	r6, r3
  4026e6:	4617      	mov	r7, r2
  4026e8:	5c43      	ldrb	r3, [r0, r1]
  4026ea:	f80b 3d01 	strb.w	r3, [fp, #-1]!
  4026ee:	ea56 0307 	orrs.w	r3, r6, r7
  4026f2:	d1f1      	bne.n	4026d8 <_vfiprintf_r+0x4bc>
  4026f4:	eba9 030b 	sub.w	r3, r9, fp
  4026f8:	9305      	str	r3, [sp, #20]
  4026fa:	e6e1      	b.n	4024c0 <_vfiprintf_r+0x2a4>
  4026fc:	2800      	cmp	r0, #0
  4026fe:	f040 83c0 	bne.w	402e82 <_vfiprintf_r+0xc66>
  402702:	0699      	lsls	r1, r3, #26
  402704:	f100 8367 	bmi.w	402dd6 <_vfiprintf_r+0xbba>
  402708:	06da      	lsls	r2, r3, #27
  40270a:	f100 80f1 	bmi.w	4028f0 <_vfiprintf_r+0x6d4>
  40270e:	065b      	lsls	r3, r3, #25
  402710:	f140 80ee 	bpl.w	4028f0 <_vfiprintf_r+0x6d4>
  402714:	9a07      	ldr	r2, [sp, #28]
  402716:	6813      	ldr	r3, [r2, #0]
  402718:	3204      	adds	r2, #4
  40271a:	9207      	str	r2, [sp, #28]
  40271c:	f8bd 200c 	ldrh.w	r2, [sp, #12]
  402720:	801a      	strh	r2, [r3, #0]
  402722:	e5b8      	b.n	402296 <_vfiprintf_r+0x7a>
  402724:	9807      	ldr	r0, [sp, #28]
  402726:	4a3d      	ldr	r2, [pc, #244]	; (40281c <_vfiprintf_r+0x600>)
  402728:	9608      	str	r6, [sp, #32]
  40272a:	920b      	str	r2, [sp, #44]	; 0x2c
  40272c:	6806      	ldr	r6, [r0, #0]
  40272e:	2278      	movs	r2, #120	; 0x78
  402730:	2130      	movs	r1, #48	; 0x30
  402732:	3004      	adds	r0, #4
  402734:	f88d 2039 	strb.w	r2, [sp, #57]	; 0x39
  402738:	f043 0302 	orr.w	r3, r3, #2
  40273c:	9007      	str	r0, [sp, #28]
  40273e:	2700      	movs	r7, #0
  402740:	f88d 1038 	strb.w	r1, [sp, #56]	; 0x38
  402744:	2202      	movs	r2, #2
  402746:	e69c      	b.n	402482 <_vfiprintf_r+0x266>
  402748:	9608      	str	r6, [sp, #32]
  40274a:	2800      	cmp	r0, #0
  40274c:	d099      	beq.n	402682 <_vfiprintf_r+0x466>
  40274e:	f88d 5037 	strb.w	r5, [sp, #55]	; 0x37
  402752:	e796      	b.n	402682 <_vfiprintf_r+0x466>
  402754:	f898 2000 	ldrb.w	r2, [r8]
  402758:	2d00      	cmp	r5, #0
  40275a:	f47f add1 	bne.w	402300 <_vfiprintf_r+0xe4>
  40275e:	2001      	movs	r0, #1
  402760:	2520      	movs	r5, #32
  402762:	e5cd      	b.n	402300 <_vfiprintf_r+0xe4>
  402764:	f043 0301 	orr.w	r3, r3, #1
  402768:	f898 2000 	ldrb.w	r2, [r8]
  40276c:	e5c8      	b.n	402300 <_vfiprintf_r+0xe4>
  40276e:	9608      	str	r6, [sp, #32]
  402770:	2800      	cmp	r0, #0
  402772:	f040 8393 	bne.w	402e9c <_vfiprintf_r+0xc80>
  402776:	4929      	ldr	r1, [pc, #164]	; (40281c <_vfiprintf_r+0x600>)
  402778:	910b      	str	r1, [sp, #44]	; 0x2c
  40277a:	069f      	lsls	r7, r3, #26
  40277c:	f100 82e8 	bmi.w	402d50 <_vfiprintf_r+0xb34>
  402780:	9807      	ldr	r0, [sp, #28]
  402782:	06de      	lsls	r6, r3, #27
  402784:	4601      	mov	r1, r0
  402786:	f100 8270 	bmi.w	402c6a <_vfiprintf_r+0xa4e>
  40278a:	065d      	lsls	r5, r3, #25
  40278c:	f140 826d 	bpl.w	402c6a <_vfiprintf_r+0xa4e>
  402790:	3104      	adds	r1, #4
  402792:	8806      	ldrh	r6, [r0, #0]
  402794:	9107      	str	r1, [sp, #28]
  402796:	2700      	movs	r7, #0
  402798:	07d8      	lsls	r0, r3, #31
  40279a:	f140 8222 	bpl.w	402be2 <_vfiprintf_r+0x9c6>
  40279e:	ea56 0107 	orrs.w	r1, r6, r7
  4027a2:	f000 821e 	beq.w	402be2 <_vfiprintf_r+0x9c6>
  4027a6:	2130      	movs	r1, #48	; 0x30
  4027a8:	f88d 2039 	strb.w	r2, [sp, #57]	; 0x39
  4027ac:	f043 0302 	orr.w	r3, r3, #2
  4027b0:	f88d 1038 	strb.w	r1, [sp, #56]	; 0x38
  4027b4:	2202      	movs	r2, #2
  4027b6:	e664      	b.n	402482 <_vfiprintf_r+0x266>
  4027b8:	9608      	str	r6, [sp, #32]
  4027ba:	2800      	cmp	r0, #0
  4027bc:	f040 836b 	bne.w	402e96 <_vfiprintf_r+0xc7a>
  4027c0:	4917      	ldr	r1, [pc, #92]	; (402820 <_vfiprintf_r+0x604>)
  4027c2:	910b      	str	r1, [sp, #44]	; 0x2c
  4027c4:	e7d9      	b.n	40277a <_vfiprintf_r+0x55e>
  4027c6:	9907      	ldr	r1, [sp, #28]
  4027c8:	9608      	str	r6, [sp, #32]
  4027ca:	680a      	ldr	r2, [r1, #0]
  4027cc:	f88d 2048 	strb.w	r2, [sp, #72]	; 0x48
  4027d0:	f04f 0000 	mov.w	r0, #0
  4027d4:	460a      	mov	r2, r1
  4027d6:	f88d 0037 	strb.w	r0, [sp, #55]	; 0x37
  4027da:	3204      	adds	r2, #4
  4027dc:	2001      	movs	r0, #1
  4027de:	9001      	str	r0, [sp, #4]
  4027e0:	9207      	str	r2, [sp, #28]
  4027e2:	9005      	str	r0, [sp, #20]
  4027e4:	f10d 0b48 	add.w	fp, sp, #72	; 0x48
  4027e8:	9302      	str	r3, [sp, #8]
  4027ea:	2400      	movs	r4, #0
  4027ec:	e670      	b.n	4024d0 <_vfiprintf_r+0x2b4>
  4027ee:	f043 0340 	orr.w	r3, r3, #64	; 0x40
  4027f2:	f898 2000 	ldrb.w	r2, [r8]
  4027f6:	e583      	b.n	402300 <_vfiprintf_r+0xe4>
  4027f8:	f898 2000 	ldrb.w	r2, [r8]
  4027fc:	2a6c      	cmp	r2, #108	; 0x6c
  4027fe:	bf03      	ittte	eq
  402800:	f898 2001 	ldrbeq.w	r2, [r8, #1]
  402804:	f043 0320 	orreq.w	r3, r3, #32
  402808:	f108 0801 	addeq.w	r8, r8, #1
  40280c:	f043 0310 	orrne.w	r3, r3, #16
  402810:	e576      	b.n	402300 <_vfiprintf_r+0xe4>
  402812:	bf00      	nop
  402814:	00404c2c 	.word	0x00404c2c
  402818:	00404c3c 	.word	0x00404c3c
  40281c:	00404c10 	.word	0x00404c10
  402820:	00404bfc 	.word	0x00404bfc
  402824:	9907      	ldr	r1, [sp, #28]
  402826:	680e      	ldr	r6, [r1, #0]
  402828:	460a      	mov	r2, r1
  40282a:	2e00      	cmp	r6, #0
  40282c:	f102 0204 	add.w	r2, r2, #4
  402830:	f6ff ae0f 	blt.w	402452 <_vfiprintf_r+0x236>
  402834:	9207      	str	r2, [sp, #28]
  402836:	f898 2000 	ldrb.w	r2, [r8]
  40283a:	e561      	b.n	402300 <_vfiprintf_r+0xe4>
  40283c:	f898 2000 	ldrb.w	r2, [r8]
  402840:	2001      	movs	r0, #1
  402842:	252b      	movs	r5, #43	; 0x2b
  402844:	e55c      	b.n	402300 <_vfiprintf_r+0xe4>
  402846:	9907      	ldr	r1, [sp, #28]
  402848:	9608      	str	r6, [sp, #32]
  40284a:	f8d1 b000 	ldr.w	fp, [r1]
  40284e:	f04f 0200 	mov.w	r2, #0
  402852:	f88d 2037 	strb.w	r2, [sp, #55]	; 0x37
  402856:	1d0e      	adds	r6, r1, #4
  402858:	f1bb 0f00 	cmp.w	fp, #0
  40285c:	f000 82e5 	beq.w	402e2a <_vfiprintf_r+0xc0e>
  402860:	1c67      	adds	r7, r4, #1
  402862:	f000 82c4 	beq.w	402dee <_vfiprintf_r+0xbd2>
  402866:	4622      	mov	r2, r4
  402868:	2100      	movs	r1, #0
  40286a:	4658      	mov	r0, fp
  40286c:	9301      	str	r3, [sp, #4]
  40286e:	f001 fbd7 	bl	404020 <memchr>
  402872:	9b01      	ldr	r3, [sp, #4]
  402874:	2800      	cmp	r0, #0
  402876:	f000 82e5 	beq.w	402e44 <_vfiprintf_r+0xc28>
  40287a:	eba0 020b 	sub.w	r2, r0, fp
  40287e:	9205      	str	r2, [sp, #20]
  402880:	9607      	str	r6, [sp, #28]
  402882:	9302      	str	r3, [sp, #8]
  402884:	f89d 5037 	ldrb.w	r5, [sp, #55]	; 0x37
  402888:	2400      	movs	r4, #0
  40288a:	e619      	b.n	4024c0 <_vfiprintf_r+0x2a4>
  40288c:	f898 2000 	ldrb.w	r2, [r8]
  402890:	2a2a      	cmp	r2, #42	; 0x2a
  402892:	f108 0701 	add.w	r7, r8, #1
  402896:	f000 82e9 	beq.w	402e6c <_vfiprintf_r+0xc50>
  40289a:	f1a2 0130 	sub.w	r1, r2, #48	; 0x30
  40289e:	2909      	cmp	r1, #9
  4028a0:	46b8      	mov	r8, r7
  4028a2:	f04f 0400 	mov.w	r4, #0
  4028a6:	f63f ad2d 	bhi.w	402304 <_vfiprintf_r+0xe8>
  4028aa:	f818 2b01 	ldrb.w	r2, [r8], #1
  4028ae:	eb04 0484 	add.w	r4, r4, r4, lsl #2
  4028b2:	eb01 0444 	add.w	r4, r1, r4, lsl #1
  4028b6:	f1a2 0130 	sub.w	r1, r2, #48	; 0x30
  4028ba:	2909      	cmp	r1, #9
  4028bc:	d9f5      	bls.n	4028aa <_vfiprintf_r+0x68e>
  4028be:	e521      	b.n	402304 <_vfiprintf_r+0xe8>
  4028c0:	f043 0320 	orr.w	r3, r3, #32
  4028c4:	f898 2000 	ldrb.w	r2, [r8]
  4028c8:	e51a      	b.n	402300 <_vfiprintf_r+0xe4>
  4028ca:	9608      	str	r6, [sp, #32]
  4028cc:	2800      	cmp	r0, #0
  4028ce:	f040 82db 	bne.w	402e88 <_vfiprintf_r+0xc6c>
  4028d2:	2a00      	cmp	r2, #0
  4028d4:	f000 80e7 	beq.w	402aa6 <_vfiprintf_r+0x88a>
  4028d8:	2101      	movs	r1, #1
  4028da:	f88d 2048 	strb.w	r2, [sp, #72]	; 0x48
  4028de:	f04f 0200 	mov.w	r2, #0
  4028e2:	9101      	str	r1, [sp, #4]
  4028e4:	f88d 2037 	strb.w	r2, [sp, #55]	; 0x37
  4028e8:	9105      	str	r1, [sp, #20]
  4028ea:	f10d 0b48 	add.w	fp, sp, #72	; 0x48
  4028ee:	e77b      	b.n	4027e8 <_vfiprintf_r+0x5cc>
  4028f0:	9a07      	ldr	r2, [sp, #28]
  4028f2:	6813      	ldr	r3, [r2, #0]
  4028f4:	3204      	adds	r2, #4
  4028f6:	9207      	str	r2, [sp, #28]
  4028f8:	9a03      	ldr	r2, [sp, #12]
  4028fa:	601a      	str	r2, [r3, #0]
  4028fc:	e4cb      	b.n	402296 <_vfiprintf_r+0x7a>
  4028fe:	aa0f      	add	r2, sp, #60	; 0x3c
  402900:	9904      	ldr	r1, [sp, #16]
  402902:	4620      	mov	r0, r4
  402904:	f7ff fc4a 	bl	40219c <__sprint_r.part.0>
  402908:	2800      	cmp	r0, #0
  40290a:	f040 8139 	bne.w	402b80 <_vfiprintf_r+0x964>
  40290e:	9910      	ldr	r1, [sp, #64]	; 0x40
  402910:	9a11      	ldr	r2, [sp, #68]	; 0x44
  402912:	f101 0c01 	add.w	ip, r1, #1
  402916:	46ce      	mov	lr, r9
  402918:	e5ff      	b.n	40251a <_vfiprintf_r+0x2fe>
  40291a:	9910      	ldr	r1, [sp, #64]	; 0x40
  40291c:	9a11      	ldr	r2, [sp, #68]	; 0x44
  40291e:	1c48      	adds	r0, r1, #1
  402920:	f89d 5037 	ldrb.w	r5, [sp, #55]	; 0x37
  402924:	2d00      	cmp	r5, #0
  402926:	f43f ae22 	beq.w	40256e <_vfiprintf_r+0x352>
  40292a:	3201      	adds	r2, #1
  40292c:	f10d 0537 	add.w	r5, sp, #55	; 0x37
  402930:	2101      	movs	r1, #1
  402932:	2807      	cmp	r0, #7
  402934:	9211      	str	r2, [sp, #68]	; 0x44
  402936:	9010      	str	r0, [sp, #64]	; 0x40
  402938:	f8ca 5000 	str.w	r5, [sl]
  40293c:	f8ca 1004 	str.w	r1, [sl, #4]
  402940:	f340 8108 	ble.w	402b54 <_vfiprintf_r+0x938>
  402944:	2a00      	cmp	r2, #0
  402946:	f040 81bc 	bne.w	402cc2 <_vfiprintf_r+0xaa6>
  40294a:	9b09      	ldr	r3, [sp, #36]	; 0x24
  40294c:	2b00      	cmp	r3, #0
  40294e:	f43f ae1f 	beq.w	402590 <_vfiprintf_r+0x374>
  402952:	ab0e      	add	r3, sp, #56	; 0x38
  402954:	2202      	movs	r2, #2
  402956:	4608      	mov	r0, r1
  402958:	931c      	str	r3, [sp, #112]	; 0x70
  40295a:	921d      	str	r2, [sp, #116]	; 0x74
  40295c:	46ca      	mov	sl, r9
  40295e:	4601      	mov	r1, r0
  402960:	f10a 0a08 	add.w	sl, sl, #8
  402964:	3001      	adds	r0, #1
  402966:	9b0a      	ldr	r3, [sp, #40]	; 0x28
  402968:	2b80      	cmp	r3, #128	; 0x80
  40296a:	f43f ae19 	beq.w	4025a0 <_vfiprintf_r+0x384>
  40296e:	9b05      	ldr	r3, [sp, #20]
  402970:	1ae4      	subs	r4, r4, r3
  402972:	2c00      	cmp	r4, #0
  402974:	dd2e      	ble.n	4029d4 <_vfiprintf_r+0x7b8>
  402976:	2c10      	cmp	r4, #16
  402978:	4db3      	ldr	r5, [pc, #716]	; (402c48 <_vfiprintf_r+0xa2c>)
  40297a:	dd1e      	ble.n	4029ba <_vfiprintf_r+0x79e>
  40297c:	46d6      	mov	lr, sl
  40297e:	2610      	movs	r6, #16
  402980:	9f06      	ldr	r7, [sp, #24]
  402982:	f8dd a010 	ldr.w	sl, [sp, #16]
  402986:	e006      	b.n	402996 <_vfiprintf_r+0x77a>
  402988:	1c88      	adds	r0, r1, #2
  40298a:	f10e 0e08 	add.w	lr, lr, #8
  40298e:	4619      	mov	r1, r3
  402990:	3c10      	subs	r4, #16
  402992:	2c10      	cmp	r4, #16
  402994:	dd10      	ble.n	4029b8 <_vfiprintf_r+0x79c>
  402996:	1c4b      	adds	r3, r1, #1
  402998:	3210      	adds	r2, #16
  40299a:	2b07      	cmp	r3, #7
  40299c:	9211      	str	r2, [sp, #68]	; 0x44
  40299e:	e88e 0060 	stmia.w	lr, {r5, r6}
  4029a2:	9310      	str	r3, [sp, #64]	; 0x40
  4029a4:	ddf0      	ble.n	402988 <_vfiprintf_r+0x76c>
  4029a6:	2a00      	cmp	r2, #0
  4029a8:	d165      	bne.n	402a76 <_vfiprintf_r+0x85a>
  4029aa:	3c10      	subs	r4, #16
  4029ac:	2c10      	cmp	r4, #16
  4029ae:	f04f 0001 	mov.w	r0, #1
  4029b2:	4611      	mov	r1, r2
  4029b4:	46ce      	mov	lr, r9
  4029b6:	dcee      	bgt.n	402996 <_vfiprintf_r+0x77a>
  4029b8:	46f2      	mov	sl, lr
  4029ba:	4422      	add	r2, r4
  4029bc:	2807      	cmp	r0, #7
  4029be:	9211      	str	r2, [sp, #68]	; 0x44
  4029c0:	f8ca 5000 	str.w	r5, [sl]
  4029c4:	f8ca 4004 	str.w	r4, [sl, #4]
  4029c8:	9010      	str	r0, [sp, #64]	; 0x40
  4029ca:	f300 8085 	bgt.w	402ad8 <_vfiprintf_r+0x8bc>
  4029ce:	f10a 0a08 	add.w	sl, sl, #8
  4029d2:	3001      	adds	r0, #1
  4029d4:	9905      	ldr	r1, [sp, #20]
  4029d6:	f8ca b000 	str.w	fp, [sl]
  4029da:	440a      	add	r2, r1
  4029dc:	2807      	cmp	r0, #7
  4029de:	9211      	str	r2, [sp, #68]	; 0x44
  4029e0:	f8ca 1004 	str.w	r1, [sl, #4]
  4029e4:	9010      	str	r0, [sp, #64]	; 0x40
  4029e6:	f340 8082 	ble.w	402aee <_vfiprintf_r+0x8d2>
  4029ea:	2a00      	cmp	r2, #0
  4029ec:	f040 8118 	bne.w	402c20 <_vfiprintf_r+0xa04>
  4029f0:	9b02      	ldr	r3, [sp, #8]
  4029f2:	9210      	str	r2, [sp, #64]	; 0x40
  4029f4:	0758      	lsls	r0, r3, #29
  4029f6:	d535      	bpl.n	402a64 <_vfiprintf_r+0x848>
  4029f8:	9b08      	ldr	r3, [sp, #32]
  4029fa:	9901      	ldr	r1, [sp, #4]
  4029fc:	1a5c      	subs	r4, r3, r1
  4029fe:	2c00      	cmp	r4, #0
  402a00:	f340 80e7 	ble.w	402bd2 <_vfiprintf_r+0x9b6>
  402a04:	46ca      	mov	sl, r9
  402a06:	2c10      	cmp	r4, #16
  402a08:	f340 8218 	ble.w	402e3c <_vfiprintf_r+0xc20>
  402a0c:	9910      	ldr	r1, [sp, #64]	; 0x40
  402a0e:	4e8f      	ldr	r6, [pc, #572]	; (402c4c <_vfiprintf_r+0xa30>)
  402a10:	9f06      	ldr	r7, [sp, #24]
  402a12:	f8dd b010 	ldr.w	fp, [sp, #16]
  402a16:	2510      	movs	r5, #16
  402a18:	e006      	b.n	402a28 <_vfiprintf_r+0x80c>
  402a1a:	1c88      	adds	r0, r1, #2
  402a1c:	f10a 0a08 	add.w	sl, sl, #8
  402a20:	4619      	mov	r1, r3
  402a22:	3c10      	subs	r4, #16
  402a24:	2c10      	cmp	r4, #16
  402a26:	dd11      	ble.n	402a4c <_vfiprintf_r+0x830>
  402a28:	1c4b      	adds	r3, r1, #1
  402a2a:	3210      	adds	r2, #16
  402a2c:	2b07      	cmp	r3, #7
  402a2e:	9211      	str	r2, [sp, #68]	; 0x44
  402a30:	f8ca 6000 	str.w	r6, [sl]
  402a34:	f8ca 5004 	str.w	r5, [sl, #4]
  402a38:	9310      	str	r3, [sp, #64]	; 0x40
  402a3a:	ddee      	ble.n	402a1a <_vfiprintf_r+0x7fe>
  402a3c:	bb42      	cbnz	r2, 402a90 <_vfiprintf_r+0x874>
  402a3e:	3c10      	subs	r4, #16
  402a40:	2c10      	cmp	r4, #16
  402a42:	f04f 0001 	mov.w	r0, #1
  402a46:	4611      	mov	r1, r2
  402a48:	46ca      	mov	sl, r9
  402a4a:	dced      	bgt.n	402a28 <_vfiprintf_r+0x80c>
  402a4c:	4422      	add	r2, r4
  402a4e:	2807      	cmp	r0, #7
  402a50:	9211      	str	r2, [sp, #68]	; 0x44
  402a52:	f8ca 6000 	str.w	r6, [sl]
  402a56:	f8ca 4004 	str.w	r4, [sl, #4]
  402a5a:	9010      	str	r0, [sp, #64]	; 0x40
  402a5c:	dd51      	ble.n	402b02 <_vfiprintf_r+0x8e6>
  402a5e:	2a00      	cmp	r2, #0
  402a60:	f040 819b 	bne.w	402d9a <_vfiprintf_r+0xb7e>
  402a64:	9b03      	ldr	r3, [sp, #12]
  402a66:	9a08      	ldr	r2, [sp, #32]
  402a68:	9901      	ldr	r1, [sp, #4]
  402a6a:	428a      	cmp	r2, r1
  402a6c:	bfac      	ite	ge
  402a6e:	189b      	addge	r3, r3, r2
  402a70:	185b      	addlt	r3, r3, r1
  402a72:	9303      	str	r3, [sp, #12]
  402a74:	e04e      	b.n	402b14 <_vfiprintf_r+0x8f8>
  402a76:	aa0f      	add	r2, sp, #60	; 0x3c
  402a78:	4651      	mov	r1, sl
  402a7a:	4638      	mov	r0, r7
  402a7c:	f7ff fb8e 	bl	40219c <__sprint_r.part.0>
  402a80:	2800      	cmp	r0, #0
  402a82:	f040 813f 	bne.w	402d04 <_vfiprintf_r+0xae8>
  402a86:	9910      	ldr	r1, [sp, #64]	; 0x40
  402a88:	9a11      	ldr	r2, [sp, #68]	; 0x44
  402a8a:	1c48      	adds	r0, r1, #1
  402a8c:	46ce      	mov	lr, r9
  402a8e:	e77f      	b.n	402990 <_vfiprintf_r+0x774>
  402a90:	aa0f      	add	r2, sp, #60	; 0x3c
  402a92:	4659      	mov	r1, fp
  402a94:	4638      	mov	r0, r7
  402a96:	f7ff fb81 	bl	40219c <__sprint_r.part.0>
  402a9a:	b960      	cbnz	r0, 402ab6 <_vfiprintf_r+0x89a>
  402a9c:	9910      	ldr	r1, [sp, #64]	; 0x40
  402a9e:	9a11      	ldr	r2, [sp, #68]	; 0x44
  402aa0:	1c48      	adds	r0, r1, #1
  402aa2:	46ca      	mov	sl, r9
  402aa4:	e7bd      	b.n	402a22 <_vfiprintf_r+0x806>
  402aa6:	9b11      	ldr	r3, [sp, #68]	; 0x44
  402aa8:	f8dd b010 	ldr.w	fp, [sp, #16]
  402aac:	2b00      	cmp	r3, #0
  402aae:	f040 81d4 	bne.w	402e5a <_vfiprintf_r+0xc3e>
  402ab2:	2300      	movs	r3, #0
  402ab4:	9310      	str	r3, [sp, #64]	; 0x40
  402ab6:	f8db 3064 	ldr.w	r3, [fp, #100]	; 0x64
  402aba:	f013 0f01 	tst.w	r3, #1
  402abe:	f8bb 300c 	ldrh.w	r3, [fp, #12]
  402ac2:	d102      	bne.n	402aca <_vfiprintf_r+0x8ae>
  402ac4:	059a      	lsls	r2, r3, #22
  402ac6:	f140 80de 	bpl.w	402c86 <_vfiprintf_r+0xa6a>
  402aca:	065b      	lsls	r3, r3, #25
  402acc:	f53f acb2 	bmi.w	402434 <_vfiprintf_r+0x218>
  402ad0:	9803      	ldr	r0, [sp, #12]
  402ad2:	b02d      	add	sp, #180	; 0xb4
  402ad4:	e8bd 8ff0 	ldmia.w	sp!, {r4, r5, r6, r7, r8, r9, sl, fp, pc}
  402ad8:	2a00      	cmp	r2, #0
  402ada:	f040 8106 	bne.w	402cea <_vfiprintf_r+0xace>
  402ade:	9a05      	ldr	r2, [sp, #20]
  402ae0:	921d      	str	r2, [sp, #116]	; 0x74
  402ae2:	2301      	movs	r3, #1
  402ae4:	9211      	str	r2, [sp, #68]	; 0x44
  402ae6:	f8cd b070 	str.w	fp, [sp, #112]	; 0x70
  402aea:	9310      	str	r3, [sp, #64]	; 0x40
  402aec:	46ca      	mov	sl, r9
  402aee:	f10a 0a08 	add.w	sl, sl, #8
  402af2:	9b02      	ldr	r3, [sp, #8]
  402af4:	0759      	lsls	r1, r3, #29
  402af6:	d504      	bpl.n	402b02 <_vfiprintf_r+0x8e6>
  402af8:	9b08      	ldr	r3, [sp, #32]
  402afa:	9901      	ldr	r1, [sp, #4]
  402afc:	1a5c      	subs	r4, r3, r1
  402afe:	2c00      	cmp	r4, #0
  402b00:	dc81      	bgt.n	402a06 <_vfiprintf_r+0x7ea>
  402b02:	9b03      	ldr	r3, [sp, #12]
  402b04:	9908      	ldr	r1, [sp, #32]
  402b06:	9801      	ldr	r0, [sp, #4]
  402b08:	4281      	cmp	r1, r0
  402b0a:	bfac      	ite	ge
  402b0c:	185b      	addge	r3, r3, r1
  402b0e:	181b      	addlt	r3, r3, r0
  402b10:	9303      	str	r3, [sp, #12]
  402b12:	bb72      	cbnz	r2, 402b72 <_vfiprintf_r+0x956>
  402b14:	2300      	movs	r3, #0
  402b16:	9310      	str	r3, [sp, #64]	; 0x40
  402b18:	46ca      	mov	sl, r9
  402b1a:	f7ff bbbc 	b.w	402296 <_vfiprintf_r+0x7a>
  402b1e:	aa0f      	add	r2, sp, #60	; 0x3c
  402b20:	9904      	ldr	r1, [sp, #16]
  402b22:	4620      	mov	r0, r4
  402b24:	f7ff fb3a 	bl	40219c <__sprint_r.part.0>
  402b28:	bb50      	cbnz	r0, 402b80 <_vfiprintf_r+0x964>
  402b2a:	9910      	ldr	r1, [sp, #64]	; 0x40
  402b2c:	9a11      	ldr	r2, [sp, #68]	; 0x44
  402b2e:	f101 0e01 	add.w	lr, r1, #1
  402b32:	46cc      	mov	ip, r9
  402b34:	e548      	b.n	4025c8 <_vfiprintf_r+0x3ac>
  402b36:	2a00      	cmp	r2, #0
  402b38:	f040 8140 	bne.w	402dbc <_vfiprintf_r+0xba0>
  402b3c:	f89d 1037 	ldrb.w	r1, [sp, #55]	; 0x37
  402b40:	2900      	cmp	r1, #0
  402b42:	f000 811b 	beq.w	402d7c <_vfiprintf_r+0xb60>
  402b46:	2201      	movs	r2, #1
  402b48:	f10d 0137 	add.w	r1, sp, #55	; 0x37
  402b4c:	4610      	mov	r0, r2
  402b4e:	921d      	str	r2, [sp, #116]	; 0x74
  402b50:	911c      	str	r1, [sp, #112]	; 0x70
  402b52:	46ca      	mov	sl, r9
  402b54:	4601      	mov	r1, r0
  402b56:	f10a 0a08 	add.w	sl, sl, #8
  402b5a:	3001      	adds	r0, #1
  402b5c:	e507      	b.n	40256e <_vfiprintf_r+0x352>
  402b5e:	9b02      	ldr	r3, [sp, #8]
  402b60:	2a01      	cmp	r2, #1
  402b62:	f000 8098 	beq.w	402c96 <_vfiprintf_r+0xa7a>
  402b66:	2a02      	cmp	r2, #2
  402b68:	d10d      	bne.n	402b86 <_vfiprintf_r+0x96a>
  402b6a:	9302      	str	r3, [sp, #8]
  402b6c:	2600      	movs	r6, #0
  402b6e:	2700      	movs	r7, #0
  402b70:	e5b0      	b.n	4026d4 <_vfiprintf_r+0x4b8>
  402b72:	aa0f      	add	r2, sp, #60	; 0x3c
  402b74:	9904      	ldr	r1, [sp, #16]
  402b76:	9806      	ldr	r0, [sp, #24]
  402b78:	f7ff fb10 	bl	40219c <__sprint_r.part.0>
  402b7c:	2800      	cmp	r0, #0
  402b7e:	d0c9      	beq.n	402b14 <_vfiprintf_r+0x8f8>
  402b80:	f8dd b010 	ldr.w	fp, [sp, #16]
  402b84:	e797      	b.n	402ab6 <_vfiprintf_r+0x89a>
  402b86:	9302      	str	r3, [sp, #8]
  402b88:	2600      	movs	r6, #0
  402b8a:	2700      	movs	r7, #0
  402b8c:	4649      	mov	r1, r9
  402b8e:	e000      	b.n	402b92 <_vfiprintf_r+0x976>
  402b90:	4659      	mov	r1, fp
  402b92:	08f2      	lsrs	r2, r6, #3
  402b94:	ea42 7247 	orr.w	r2, r2, r7, lsl #29
  402b98:	08f8      	lsrs	r0, r7, #3
  402b9a:	f006 0307 	and.w	r3, r6, #7
  402b9e:	4607      	mov	r7, r0
  402ba0:	4616      	mov	r6, r2
  402ba2:	3330      	adds	r3, #48	; 0x30
  402ba4:	ea56 0207 	orrs.w	r2, r6, r7
  402ba8:	f801 3c01 	strb.w	r3, [r1, #-1]
  402bac:	f101 3bff 	add.w	fp, r1, #4294967295
  402bb0:	d1ee      	bne.n	402b90 <_vfiprintf_r+0x974>
  402bb2:	9a02      	ldr	r2, [sp, #8]
  402bb4:	07d6      	lsls	r6, r2, #31
  402bb6:	f57f ad9d 	bpl.w	4026f4 <_vfiprintf_r+0x4d8>
  402bba:	2b30      	cmp	r3, #48	; 0x30
  402bbc:	f43f ad9a 	beq.w	4026f4 <_vfiprintf_r+0x4d8>
  402bc0:	3902      	subs	r1, #2
  402bc2:	2330      	movs	r3, #48	; 0x30
  402bc4:	f80b 3c01 	strb.w	r3, [fp, #-1]
  402bc8:	eba9 0301 	sub.w	r3, r9, r1
  402bcc:	9305      	str	r3, [sp, #20]
  402bce:	468b      	mov	fp, r1
  402bd0:	e476      	b.n	4024c0 <_vfiprintf_r+0x2a4>
  402bd2:	9b03      	ldr	r3, [sp, #12]
  402bd4:	9a08      	ldr	r2, [sp, #32]
  402bd6:	428a      	cmp	r2, r1
  402bd8:	bfac      	ite	ge
  402bda:	189b      	addge	r3, r3, r2
  402bdc:	185b      	addlt	r3, r3, r1
  402bde:	9303      	str	r3, [sp, #12]
  402be0:	e798      	b.n	402b14 <_vfiprintf_r+0x8f8>
  402be2:	2202      	movs	r2, #2
  402be4:	e44d      	b.n	402482 <_vfiprintf_r+0x266>
  402be6:	2f00      	cmp	r7, #0
  402be8:	bf08      	it	eq
  402bea:	2e0a      	cmpeq	r6, #10
  402bec:	d352      	bcc.n	402c94 <_vfiprintf_r+0xa78>
  402bee:	46cb      	mov	fp, r9
  402bf0:	4630      	mov	r0, r6
  402bf2:	4639      	mov	r1, r7
  402bf4:	220a      	movs	r2, #10
  402bf6:	2300      	movs	r3, #0
  402bf8:	f7fe fe90 	bl	40191c <__aeabi_uldivmod>
  402bfc:	3230      	adds	r2, #48	; 0x30
  402bfe:	f80b 2d01 	strb.w	r2, [fp, #-1]!
  402c02:	4630      	mov	r0, r6
  402c04:	4639      	mov	r1, r7
  402c06:	2300      	movs	r3, #0
  402c08:	220a      	movs	r2, #10
  402c0a:	f7fe fe87 	bl	40191c <__aeabi_uldivmod>
  402c0e:	4606      	mov	r6, r0
  402c10:	460f      	mov	r7, r1
  402c12:	ea56 0307 	orrs.w	r3, r6, r7
  402c16:	d1eb      	bne.n	402bf0 <_vfiprintf_r+0x9d4>
  402c18:	e56c      	b.n	4026f4 <_vfiprintf_r+0x4d8>
  402c1a:	9405      	str	r4, [sp, #20]
  402c1c:	46cb      	mov	fp, r9
  402c1e:	e44f      	b.n	4024c0 <_vfiprintf_r+0x2a4>
  402c20:	aa0f      	add	r2, sp, #60	; 0x3c
  402c22:	9904      	ldr	r1, [sp, #16]
  402c24:	9806      	ldr	r0, [sp, #24]
  402c26:	f7ff fab9 	bl	40219c <__sprint_r.part.0>
  402c2a:	2800      	cmp	r0, #0
  402c2c:	d1a8      	bne.n	402b80 <_vfiprintf_r+0x964>
  402c2e:	9a11      	ldr	r2, [sp, #68]	; 0x44
  402c30:	46ca      	mov	sl, r9
  402c32:	e75e      	b.n	402af2 <_vfiprintf_r+0x8d6>
  402c34:	aa0f      	add	r2, sp, #60	; 0x3c
  402c36:	9904      	ldr	r1, [sp, #16]
  402c38:	9806      	ldr	r0, [sp, #24]
  402c3a:	f7ff faaf 	bl	40219c <__sprint_r.part.0>
  402c3e:	2800      	cmp	r0, #0
  402c40:	d19e      	bne.n	402b80 <_vfiprintf_r+0x964>
  402c42:	46ca      	mov	sl, r9
  402c44:	f7ff bbc0 	b.w	4023c8 <_vfiprintf_r+0x1ac>
  402c48:	00404c3c 	.word	0x00404c3c
  402c4c:	00404c2c 	.word	0x00404c2c
  402c50:	3104      	adds	r1, #4
  402c52:	6816      	ldr	r6, [r2, #0]
  402c54:	9107      	str	r1, [sp, #28]
  402c56:	2201      	movs	r2, #1
  402c58:	2700      	movs	r7, #0
  402c5a:	e412      	b.n	402482 <_vfiprintf_r+0x266>
  402c5c:	9807      	ldr	r0, [sp, #28]
  402c5e:	4601      	mov	r1, r0
  402c60:	3104      	adds	r1, #4
  402c62:	6806      	ldr	r6, [r0, #0]
  402c64:	9107      	str	r1, [sp, #28]
  402c66:	2700      	movs	r7, #0
  402c68:	e40b      	b.n	402482 <_vfiprintf_r+0x266>
  402c6a:	680e      	ldr	r6, [r1, #0]
  402c6c:	3104      	adds	r1, #4
  402c6e:	9107      	str	r1, [sp, #28]
  402c70:	2700      	movs	r7, #0
  402c72:	e591      	b.n	402798 <_vfiprintf_r+0x57c>
  402c74:	9907      	ldr	r1, [sp, #28]
  402c76:	680e      	ldr	r6, [r1, #0]
  402c78:	460a      	mov	r2, r1
  402c7a:	17f7      	asrs	r7, r6, #31
  402c7c:	3204      	adds	r2, #4
  402c7e:	9207      	str	r2, [sp, #28]
  402c80:	4630      	mov	r0, r6
  402c82:	4639      	mov	r1, r7
  402c84:	e50f      	b.n	4026a6 <_vfiprintf_r+0x48a>
  402c86:	f8db 0058 	ldr.w	r0, [fp, #88]	; 0x58
  402c8a:	f000 fe7f 	bl	40398c <__retarget_lock_release_recursive>
  402c8e:	f8bb 300c 	ldrh.w	r3, [fp, #12]
  402c92:	e71a      	b.n	402aca <_vfiprintf_r+0x8ae>
  402c94:	9b02      	ldr	r3, [sp, #8]
  402c96:	9302      	str	r3, [sp, #8]
  402c98:	f10d 0bb0 	add.w	fp, sp, #176	; 0xb0
  402c9c:	3630      	adds	r6, #48	; 0x30
  402c9e:	2301      	movs	r3, #1
  402ca0:	f80b 6d41 	strb.w	r6, [fp, #-65]!
  402ca4:	9305      	str	r3, [sp, #20]
  402ca6:	e40b      	b.n	4024c0 <_vfiprintf_r+0x2a4>
  402ca8:	aa0f      	add	r2, sp, #60	; 0x3c
  402caa:	9904      	ldr	r1, [sp, #16]
  402cac:	9806      	ldr	r0, [sp, #24]
  402cae:	f7ff fa75 	bl	40219c <__sprint_r.part.0>
  402cb2:	2800      	cmp	r0, #0
  402cb4:	f47f af64 	bne.w	402b80 <_vfiprintf_r+0x964>
  402cb8:	9910      	ldr	r1, [sp, #64]	; 0x40
  402cba:	9a11      	ldr	r2, [sp, #68]	; 0x44
  402cbc:	1c48      	adds	r0, r1, #1
  402cbe:	46ca      	mov	sl, r9
  402cc0:	e651      	b.n	402966 <_vfiprintf_r+0x74a>
  402cc2:	aa0f      	add	r2, sp, #60	; 0x3c
  402cc4:	9904      	ldr	r1, [sp, #16]
  402cc6:	9806      	ldr	r0, [sp, #24]
  402cc8:	f7ff fa68 	bl	40219c <__sprint_r.part.0>
  402ccc:	2800      	cmp	r0, #0
  402cce:	f47f af57 	bne.w	402b80 <_vfiprintf_r+0x964>
  402cd2:	9910      	ldr	r1, [sp, #64]	; 0x40
  402cd4:	9a11      	ldr	r2, [sp, #68]	; 0x44
  402cd6:	1c48      	adds	r0, r1, #1
  402cd8:	46ca      	mov	sl, r9
  402cda:	e448      	b.n	40256e <_vfiprintf_r+0x352>
  402cdc:	2a00      	cmp	r2, #0
  402cde:	f040 8091 	bne.w	402e04 <_vfiprintf_r+0xbe8>
  402ce2:	2001      	movs	r0, #1
  402ce4:	4611      	mov	r1, r2
  402ce6:	46ca      	mov	sl, r9
  402ce8:	e641      	b.n	40296e <_vfiprintf_r+0x752>
  402cea:	aa0f      	add	r2, sp, #60	; 0x3c
  402cec:	9904      	ldr	r1, [sp, #16]
  402cee:	9806      	ldr	r0, [sp, #24]
  402cf0:	f7ff fa54 	bl	40219c <__sprint_r.part.0>
  402cf4:	2800      	cmp	r0, #0
  402cf6:	f47f af43 	bne.w	402b80 <_vfiprintf_r+0x964>
  402cfa:	9810      	ldr	r0, [sp, #64]	; 0x40
  402cfc:	9a11      	ldr	r2, [sp, #68]	; 0x44
  402cfe:	3001      	adds	r0, #1
  402d00:	46ca      	mov	sl, r9
  402d02:	e667      	b.n	4029d4 <_vfiprintf_r+0x7b8>
  402d04:	46d3      	mov	fp, sl
  402d06:	e6d6      	b.n	402ab6 <_vfiprintf_r+0x89a>
  402d08:	9e07      	ldr	r6, [sp, #28]
  402d0a:	3607      	adds	r6, #7
  402d0c:	f026 0207 	bic.w	r2, r6, #7
  402d10:	f102 0108 	add.w	r1, r2, #8
  402d14:	e9d2 6700 	ldrd	r6, r7, [r2]
  402d18:	9107      	str	r1, [sp, #28]
  402d1a:	2201      	movs	r2, #1
  402d1c:	f7ff bbb1 	b.w	402482 <_vfiprintf_r+0x266>
  402d20:	9e07      	ldr	r6, [sp, #28]
  402d22:	3607      	adds	r6, #7
  402d24:	f026 0607 	bic.w	r6, r6, #7
  402d28:	e9d6 0100 	ldrd	r0, r1, [r6]
  402d2c:	f106 0208 	add.w	r2, r6, #8
  402d30:	9207      	str	r2, [sp, #28]
  402d32:	4606      	mov	r6, r0
  402d34:	460f      	mov	r7, r1
  402d36:	e4b6      	b.n	4026a6 <_vfiprintf_r+0x48a>
  402d38:	9e07      	ldr	r6, [sp, #28]
  402d3a:	3607      	adds	r6, #7
  402d3c:	f026 0207 	bic.w	r2, r6, #7
  402d40:	f102 0108 	add.w	r1, r2, #8
  402d44:	e9d2 6700 	ldrd	r6, r7, [r2]
  402d48:	9107      	str	r1, [sp, #28]
  402d4a:	2200      	movs	r2, #0
  402d4c:	f7ff bb99 	b.w	402482 <_vfiprintf_r+0x266>
  402d50:	9e07      	ldr	r6, [sp, #28]
  402d52:	3607      	adds	r6, #7
  402d54:	f026 0107 	bic.w	r1, r6, #7
  402d58:	f101 0008 	add.w	r0, r1, #8
  402d5c:	9007      	str	r0, [sp, #28]
  402d5e:	e9d1 6700 	ldrd	r6, r7, [r1]
  402d62:	e519      	b.n	402798 <_vfiprintf_r+0x57c>
  402d64:	46cb      	mov	fp, r9
  402d66:	f7ff bbab 	b.w	4024c0 <_vfiprintf_r+0x2a4>
  402d6a:	252d      	movs	r5, #45	; 0x2d
  402d6c:	4276      	negs	r6, r6
  402d6e:	eb67 0747 	sbc.w	r7, r7, r7, lsl #1
  402d72:	f88d 5037 	strb.w	r5, [sp, #55]	; 0x37
  402d76:	2201      	movs	r2, #1
  402d78:	f7ff bb88 	b.w	40248c <_vfiprintf_r+0x270>
  402d7c:	9b09      	ldr	r3, [sp, #36]	; 0x24
  402d7e:	b9b3      	cbnz	r3, 402dae <_vfiprintf_r+0xb92>
  402d80:	4611      	mov	r1, r2
  402d82:	2001      	movs	r0, #1
  402d84:	46ca      	mov	sl, r9
  402d86:	e5f2      	b.n	40296e <_vfiprintf_r+0x752>
  402d88:	f8db 0058 	ldr.w	r0, [fp, #88]	; 0x58
  402d8c:	f000 fdfe 	bl	40398c <__retarget_lock_release_recursive>
  402d90:	f04f 33ff 	mov.w	r3, #4294967295
  402d94:	9303      	str	r3, [sp, #12]
  402d96:	f7ff bb50 	b.w	40243a <_vfiprintf_r+0x21e>
  402d9a:	aa0f      	add	r2, sp, #60	; 0x3c
  402d9c:	9904      	ldr	r1, [sp, #16]
  402d9e:	9806      	ldr	r0, [sp, #24]
  402da0:	f7ff f9fc 	bl	40219c <__sprint_r.part.0>
  402da4:	2800      	cmp	r0, #0
  402da6:	f47f aeeb 	bne.w	402b80 <_vfiprintf_r+0x964>
  402daa:	9a11      	ldr	r2, [sp, #68]	; 0x44
  402dac:	e6a9      	b.n	402b02 <_vfiprintf_r+0x8e6>
  402dae:	ab0e      	add	r3, sp, #56	; 0x38
  402db0:	2202      	movs	r2, #2
  402db2:	931c      	str	r3, [sp, #112]	; 0x70
  402db4:	921d      	str	r2, [sp, #116]	; 0x74
  402db6:	2001      	movs	r0, #1
  402db8:	46ca      	mov	sl, r9
  402dba:	e5d0      	b.n	40295e <_vfiprintf_r+0x742>
  402dbc:	aa0f      	add	r2, sp, #60	; 0x3c
  402dbe:	9904      	ldr	r1, [sp, #16]
  402dc0:	9806      	ldr	r0, [sp, #24]
  402dc2:	f7ff f9eb 	bl	40219c <__sprint_r.part.0>
  402dc6:	2800      	cmp	r0, #0
  402dc8:	f47f aeda 	bne.w	402b80 <_vfiprintf_r+0x964>
  402dcc:	9910      	ldr	r1, [sp, #64]	; 0x40
  402dce:	9a11      	ldr	r2, [sp, #68]	; 0x44
  402dd0:	1c48      	adds	r0, r1, #1
  402dd2:	46ca      	mov	sl, r9
  402dd4:	e5a4      	b.n	402920 <_vfiprintf_r+0x704>
  402dd6:	9a07      	ldr	r2, [sp, #28]
  402dd8:	9903      	ldr	r1, [sp, #12]
  402dda:	6813      	ldr	r3, [r2, #0]
  402ddc:	17cd      	asrs	r5, r1, #31
  402dde:	4608      	mov	r0, r1
  402de0:	3204      	adds	r2, #4
  402de2:	4629      	mov	r1, r5
  402de4:	9207      	str	r2, [sp, #28]
  402de6:	e9c3 0100 	strd	r0, r1, [r3]
  402dea:	f7ff ba54 	b.w	402296 <_vfiprintf_r+0x7a>
  402dee:	4658      	mov	r0, fp
  402df0:	9607      	str	r6, [sp, #28]
  402df2:	9302      	str	r3, [sp, #8]
  402df4:	f7ff f964 	bl	4020c0 <strlen>
  402df8:	2400      	movs	r4, #0
  402dfa:	9005      	str	r0, [sp, #20]
  402dfc:	f89d 5037 	ldrb.w	r5, [sp, #55]	; 0x37
  402e00:	f7ff bb5e 	b.w	4024c0 <_vfiprintf_r+0x2a4>
  402e04:	aa0f      	add	r2, sp, #60	; 0x3c
  402e06:	9904      	ldr	r1, [sp, #16]
  402e08:	9806      	ldr	r0, [sp, #24]
  402e0a:	f7ff f9c7 	bl	40219c <__sprint_r.part.0>
  402e0e:	2800      	cmp	r0, #0
  402e10:	f47f aeb6 	bne.w	402b80 <_vfiprintf_r+0x964>
  402e14:	9910      	ldr	r1, [sp, #64]	; 0x40
  402e16:	9a11      	ldr	r2, [sp, #68]	; 0x44
  402e18:	1c48      	adds	r0, r1, #1
  402e1a:	46ca      	mov	sl, r9
  402e1c:	e5a7      	b.n	40296e <_vfiprintf_r+0x752>
  402e1e:	9910      	ldr	r1, [sp, #64]	; 0x40
  402e20:	9a11      	ldr	r2, [sp, #68]	; 0x44
  402e22:	4e20      	ldr	r6, [pc, #128]	; (402ea4 <_vfiprintf_r+0xc88>)
  402e24:	3101      	adds	r1, #1
  402e26:	f7ff bb90 	b.w	40254a <_vfiprintf_r+0x32e>
  402e2a:	2c06      	cmp	r4, #6
  402e2c:	bf28      	it	cs
  402e2e:	2406      	movcs	r4, #6
  402e30:	9405      	str	r4, [sp, #20]
  402e32:	9607      	str	r6, [sp, #28]
  402e34:	9401      	str	r4, [sp, #4]
  402e36:	f8df b070 	ldr.w	fp, [pc, #112]	; 402ea8 <_vfiprintf_r+0xc8c>
  402e3a:	e4d5      	b.n	4027e8 <_vfiprintf_r+0x5cc>
  402e3c:	9810      	ldr	r0, [sp, #64]	; 0x40
  402e3e:	4e19      	ldr	r6, [pc, #100]	; (402ea4 <_vfiprintf_r+0xc88>)
  402e40:	3001      	adds	r0, #1
  402e42:	e603      	b.n	402a4c <_vfiprintf_r+0x830>
  402e44:	9405      	str	r4, [sp, #20]
  402e46:	f89d 5037 	ldrb.w	r5, [sp, #55]	; 0x37
  402e4a:	9607      	str	r6, [sp, #28]
  402e4c:	9302      	str	r3, [sp, #8]
  402e4e:	4604      	mov	r4, r0
  402e50:	f7ff bb36 	b.w	4024c0 <_vfiprintf_r+0x2a4>
  402e54:	4686      	mov	lr, r0
  402e56:	f7ff bbce 	b.w	4025f6 <_vfiprintf_r+0x3da>
  402e5a:	9806      	ldr	r0, [sp, #24]
  402e5c:	aa0f      	add	r2, sp, #60	; 0x3c
  402e5e:	4659      	mov	r1, fp
  402e60:	f7ff f99c 	bl	40219c <__sprint_r.part.0>
  402e64:	2800      	cmp	r0, #0
  402e66:	f43f ae24 	beq.w	402ab2 <_vfiprintf_r+0x896>
  402e6a:	e624      	b.n	402ab6 <_vfiprintf_r+0x89a>
  402e6c:	9907      	ldr	r1, [sp, #28]
  402e6e:	f898 2001 	ldrb.w	r2, [r8, #1]
  402e72:	680c      	ldr	r4, [r1, #0]
  402e74:	3104      	adds	r1, #4
  402e76:	ea44 74e4 	orr.w	r4, r4, r4, asr #31
  402e7a:	46b8      	mov	r8, r7
  402e7c:	9107      	str	r1, [sp, #28]
  402e7e:	f7ff ba3f 	b.w	402300 <_vfiprintf_r+0xe4>
  402e82:	f88d 5037 	strb.w	r5, [sp, #55]	; 0x37
  402e86:	e43c      	b.n	402702 <_vfiprintf_r+0x4e6>
  402e88:	f88d 5037 	strb.w	r5, [sp, #55]	; 0x37
  402e8c:	e521      	b.n	4028d2 <_vfiprintf_r+0x6b6>
  402e8e:	f88d 5037 	strb.w	r5, [sp, #55]	; 0x37
  402e92:	f7ff bbf4 	b.w	40267e <_vfiprintf_r+0x462>
  402e96:	f88d 5037 	strb.w	r5, [sp, #55]	; 0x37
  402e9a:	e491      	b.n	4027c0 <_vfiprintf_r+0x5a4>
  402e9c:	f88d 5037 	strb.w	r5, [sp, #55]	; 0x37
  402ea0:	e469      	b.n	402776 <_vfiprintf_r+0x55a>
  402ea2:	bf00      	nop
  402ea4:	00404c2c 	.word	0x00404c2c
  402ea8:	00404c24 	.word	0x00404c24

00402eac <__sbprintf>:
  402eac:	e92d 41f0 	stmdb	sp!, {r4, r5, r6, r7, r8, lr}
  402eb0:	460c      	mov	r4, r1
  402eb2:	f5ad 6d8d 	sub.w	sp, sp, #1128	; 0x468
  402eb6:	8989      	ldrh	r1, [r1, #12]
  402eb8:	6e66      	ldr	r6, [r4, #100]	; 0x64
  402eba:	89e5      	ldrh	r5, [r4, #14]
  402ebc:	9619      	str	r6, [sp, #100]	; 0x64
  402ebe:	f021 0102 	bic.w	r1, r1, #2
  402ec2:	4606      	mov	r6, r0
  402ec4:	69e0      	ldr	r0, [r4, #28]
  402ec6:	f8ad 100c 	strh.w	r1, [sp, #12]
  402eca:	4617      	mov	r7, r2
  402ecc:	f44f 6180 	mov.w	r1, #1024	; 0x400
  402ed0:	6a62      	ldr	r2, [r4, #36]	; 0x24
  402ed2:	f8ad 500e 	strh.w	r5, [sp, #14]
  402ed6:	4698      	mov	r8, r3
  402ed8:	ad1a      	add	r5, sp, #104	; 0x68
  402eda:	2300      	movs	r3, #0
  402edc:	9007      	str	r0, [sp, #28]
  402ede:	a816      	add	r0, sp, #88	; 0x58
  402ee0:	9209      	str	r2, [sp, #36]	; 0x24
  402ee2:	9306      	str	r3, [sp, #24]
  402ee4:	9500      	str	r5, [sp, #0]
  402ee6:	9504      	str	r5, [sp, #16]
  402ee8:	9102      	str	r1, [sp, #8]
  402eea:	9105      	str	r1, [sp, #20]
  402eec:	f000 fd48 	bl	403980 <__retarget_lock_init_recursive>
  402ef0:	4643      	mov	r3, r8
  402ef2:	463a      	mov	r2, r7
  402ef4:	4669      	mov	r1, sp
  402ef6:	4630      	mov	r0, r6
  402ef8:	f7ff f990 	bl	40221c <_vfiprintf_r>
  402efc:	1e05      	subs	r5, r0, #0
  402efe:	db07      	blt.n	402f10 <__sbprintf+0x64>
  402f00:	4630      	mov	r0, r6
  402f02:	4669      	mov	r1, sp
  402f04:	f000 f928 	bl	403158 <_fflush_r>
  402f08:	2800      	cmp	r0, #0
  402f0a:	bf18      	it	ne
  402f0c:	f04f 35ff 	movne.w	r5, #4294967295
  402f10:	f8bd 300c 	ldrh.w	r3, [sp, #12]
  402f14:	065b      	lsls	r3, r3, #25
  402f16:	d503      	bpl.n	402f20 <__sbprintf+0x74>
  402f18:	89a3      	ldrh	r3, [r4, #12]
  402f1a:	f043 0340 	orr.w	r3, r3, #64	; 0x40
  402f1e:	81a3      	strh	r3, [r4, #12]
  402f20:	9816      	ldr	r0, [sp, #88]	; 0x58
  402f22:	f000 fd2f 	bl	403984 <__retarget_lock_close_recursive>
  402f26:	4628      	mov	r0, r5
  402f28:	f50d 6d8d 	add.w	sp, sp, #1128	; 0x468
  402f2c:	e8bd 81f0 	ldmia.w	sp!, {r4, r5, r6, r7, r8, pc}

00402f30 <__swsetup_r>:
  402f30:	b538      	push	{r3, r4, r5, lr}
  402f32:	4b30      	ldr	r3, [pc, #192]	; (402ff4 <__swsetup_r+0xc4>)
  402f34:	681b      	ldr	r3, [r3, #0]
  402f36:	4605      	mov	r5, r0
  402f38:	460c      	mov	r4, r1
  402f3a:	b113      	cbz	r3, 402f42 <__swsetup_r+0x12>
  402f3c:	6b9a      	ldr	r2, [r3, #56]	; 0x38
  402f3e:	2a00      	cmp	r2, #0
  402f40:	d038      	beq.n	402fb4 <__swsetup_r+0x84>
  402f42:	f9b4 200c 	ldrsh.w	r2, [r4, #12]
  402f46:	b293      	uxth	r3, r2
  402f48:	0718      	lsls	r0, r3, #28
  402f4a:	d50c      	bpl.n	402f66 <__swsetup_r+0x36>
  402f4c:	6920      	ldr	r0, [r4, #16]
  402f4e:	b1a8      	cbz	r0, 402f7c <__swsetup_r+0x4c>
  402f50:	f013 0201 	ands.w	r2, r3, #1
  402f54:	d01e      	beq.n	402f94 <__swsetup_r+0x64>
  402f56:	6963      	ldr	r3, [r4, #20]
  402f58:	2200      	movs	r2, #0
  402f5a:	425b      	negs	r3, r3
  402f5c:	61a3      	str	r3, [r4, #24]
  402f5e:	60a2      	str	r2, [r4, #8]
  402f60:	b1f0      	cbz	r0, 402fa0 <__swsetup_r+0x70>
  402f62:	2000      	movs	r0, #0
  402f64:	bd38      	pop	{r3, r4, r5, pc}
  402f66:	06d9      	lsls	r1, r3, #27
  402f68:	d53c      	bpl.n	402fe4 <__swsetup_r+0xb4>
  402f6a:	0758      	lsls	r0, r3, #29
  402f6c:	d426      	bmi.n	402fbc <__swsetup_r+0x8c>
  402f6e:	6920      	ldr	r0, [r4, #16]
  402f70:	f042 0308 	orr.w	r3, r2, #8
  402f74:	81a3      	strh	r3, [r4, #12]
  402f76:	b29b      	uxth	r3, r3
  402f78:	2800      	cmp	r0, #0
  402f7a:	d1e9      	bne.n	402f50 <__swsetup_r+0x20>
  402f7c:	f403 7220 	and.w	r2, r3, #640	; 0x280
  402f80:	f5b2 7f00 	cmp.w	r2, #512	; 0x200
  402f84:	d0e4      	beq.n	402f50 <__swsetup_r+0x20>
  402f86:	4628      	mov	r0, r5
  402f88:	4621      	mov	r1, r4
  402f8a:	f000 fd2f 	bl	4039ec <__smakebuf_r>
  402f8e:	89a3      	ldrh	r3, [r4, #12]
  402f90:	6920      	ldr	r0, [r4, #16]
  402f92:	e7dd      	b.n	402f50 <__swsetup_r+0x20>
  402f94:	0799      	lsls	r1, r3, #30
  402f96:	bf58      	it	pl
  402f98:	6962      	ldrpl	r2, [r4, #20]
  402f9a:	60a2      	str	r2, [r4, #8]
  402f9c:	2800      	cmp	r0, #0
  402f9e:	d1e0      	bne.n	402f62 <__swsetup_r+0x32>
  402fa0:	f9b4 300c 	ldrsh.w	r3, [r4, #12]
  402fa4:	061a      	lsls	r2, r3, #24
  402fa6:	d5dd      	bpl.n	402f64 <__swsetup_r+0x34>
  402fa8:	f043 0340 	orr.w	r3, r3, #64	; 0x40
  402fac:	81a3      	strh	r3, [r4, #12]
  402fae:	f04f 30ff 	mov.w	r0, #4294967295
  402fb2:	bd38      	pop	{r3, r4, r5, pc}
  402fb4:	4618      	mov	r0, r3
  402fb6:	f000 f927 	bl	403208 <__sinit>
  402fba:	e7c2      	b.n	402f42 <__swsetup_r+0x12>
  402fbc:	6b21      	ldr	r1, [r4, #48]	; 0x30
  402fbe:	b151      	cbz	r1, 402fd6 <__swsetup_r+0xa6>
  402fc0:	f104 0340 	add.w	r3, r4, #64	; 0x40
  402fc4:	4299      	cmp	r1, r3
  402fc6:	d004      	beq.n	402fd2 <__swsetup_r+0xa2>
  402fc8:	4628      	mov	r0, r5
  402fca:	f000 fa43 	bl	403454 <_free_r>
  402fce:	f9b4 200c 	ldrsh.w	r2, [r4, #12]
  402fd2:	2300      	movs	r3, #0
  402fd4:	6323      	str	r3, [r4, #48]	; 0x30
  402fd6:	2300      	movs	r3, #0
  402fd8:	6920      	ldr	r0, [r4, #16]
  402fda:	6063      	str	r3, [r4, #4]
  402fdc:	f022 0224 	bic.w	r2, r2, #36	; 0x24
  402fe0:	6020      	str	r0, [r4, #0]
  402fe2:	e7c5      	b.n	402f70 <__swsetup_r+0x40>
  402fe4:	f042 0240 	orr.w	r2, r2, #64	; 0x40
  402fe8:	2309      	movs	r3, #9
  402fea:	602b      	str	r3, [r5, #0]
  402fec:	f04f 30ff 	mov.w	r0, #4294967295
  402ff0:	81a2      	strh	r2, [r4, #12]
  402ff2:	bd38      	pop	{r3, r4, r5, pc}
  402ff4:	20400014 	.word	0x20400014

00402ff8 <register_fini>:
  402ff8:	4b02      	ldr	r3, [pc, #8]	; (403004 <register_fini+0xc>)
  402ffa:	b113      	cbz	r3, 403002 <register_fini+0xa>
  402ffc:	4802      	ldr	r0, [pc, #8]	; (403008 <register_fini+0x10>)
  402ffe:	f000 b805 	b.w	40300c <atexit>
  403002:	4770      	bx	lr
  403004:	00000000 	.word	0x00000000
  403008:	00403279 	.word	0x00403279

0040300c <atexit>:
  40300c:	2300      	movs	r3, #0
  40300e:	4601      	mov	r1, r0
  403010:	461a      	mov	r2, r3
  403012:	4618      	mov	r0, r3
  403014:	f001 bb66 	b.w	4046e4 <__register_exitproc>

00403018 <__sflush_r>:
  403018:	f9b1 300c 	ldrsh.w	r3, [r1, #12]
  40301c:	b29a      	uxth	r2, r3
  40301e:	e92d 41f0 	stmdb	sp!, {r4, r5, r6, r7, r8, lr}
  403022:	460d      	mov	r5, r1
  403024:	0711      	lsls	r1, r2, #28
  403026:	4680      	mov	r8, r0
  403028:	d43a      	bmi.n	4030a0 <__sflush_r+0x88>
  40302a:	686a      	ldr	r2, [r5, #4]
  40302c:	f443 6300 	orr.w	r3, r3, #2048	; 0x800
  403030:	2a00      	cmp	r2, #0
  403032:	81ab      	strh	r3, [r5, #12]
  403034:	dd6f      	ble.n	403116 <__sflush_r+0xfe>
  403036:	6aac      	ldr	r4, [r5, #40]	; 0x28
  403038:	2c00      	cmp	r4, #0
  40303a:	d049      	beq.n	4030d0 <__sflush_r+0xb8>
  40303c:	2200      	movs	r2, #0
  40303e:	b29b      	uxth	r3, r3
  403040:	f8d8 6000 	ldr.w	r6, [r8]
  403044:	f8c8 2000 	str.w	r2, [r8]
  403048:	f413 5280 	ands.w	r2, r3, #4096	; 0x1000
  40304c:	d067      	beq.n	40311e <__sflush_r+0x106>
  40304e:	6d2a      	ldr	r2, [r5, #80]	; 0x50
  403050:	075f      	lsls	r7, r3, #29
  403052:	d505      	bpl.n	403060 <__sflush_r+0x48>
  403054:	6869      	ldr	r1, [r5, #4]
  403056:	6b2b      	ldr	r3, [r5, #48]	; 0x30
  403058:	1a52      	subs	r2, r2, r1
  40305a:	b10b      	cbz	r3, 403060 <__sflush_r+0x48>
  40305c:	6beb      	ldr	r3, [r5, #60]	; 0x3c
  40305e:	1ad2      	subs	r2, r2, r3
  403060:	2300      	movs	r3, #0
  403062:	69e9      	ldr	r1, [r5, #28]
  403064:	4640      	mov	r0, r8
  403066:	47a0      	blx	r4
  403068:	1c44      	adds	r4, r0, #1
  40306a:	d03c      	beq.n	4030e6 <__sflush_r+0xce>
  40306c:	f9b5 300c 	ldrsh.w	r3, [r5, #12]
  403070:	692a      	ldr	r2, [r5, #16]
  403072:	602a      	str	r2, [r5, #0]
  403074:	f423 6300 	bic.w	r3, r3, #2048	; 0x800
  403078:	2200      	movs	r2, #0
  40307a:	81ab      	strh	r3, [r5, #12]
  40307c:	04db      	lsls	r3, r3, #19
  40307e:	606a      	str	r2, [r5, #4]
  403080:	d447      	bmi.n	403112 <__sflush_r+0xfa>
  403082:	6b29      	ldr	r1, [r5, #48]	; 0x30
  403084:	f8c8 6000 	str.w	r6, [r8]
  403088:	b311      	cbz	r1, 4030d0 <__sflush_r+0xb8>
  40308a:	f105 0340 	add.w	r3, r5, #64	; 0x40
  40308e:	4299      	cmp	r1, r3
  403090:	d002      	beq.n	403098 <__sflush_r+0x80>
  403092:	4640      	mov	r0, r8
  403094:	f000 f9de 	bl	403454 <_free_r>
  403098:	2000      	movs	r0, #0
  40309a:	6328      	str	r0, [r5, #48]	; 0x30
  40309c:	e8bd 81f0 	ldmia.w	sp!, {r4, r5, r6, r7, r8, pc}
  4030a0:	692e      	ldr	r6, [r5, #16]
  4030a2:	b1ae      	cbz	r6, 4030d0 <__sflush_r+0xb8>
  4030a4:	682c      	ldr	r4, [r5, #0]
  4030a6:	602e      	str	r6, [r5, #0]
  4030a8:	0791      	lsls	r1, r2, #30
  4030aa:	bf0c      	ite	eq
  4030ac:	696b      	ldreq	r3, [r5, #20]
  4030ae:	2300      	movne	r3, #0
  4030b0:	1ba4      	subs	r4, r4, r6
  4030b2:	60ab      	str	r3, [r5, #8]
  4030b4:	e00a      	b.n	4030cc <__sflush_r+0xb4>
  4030b6:	4623      	mov	r3, r4
  4030b8:	4632      	mov	r2, r6
  4030ba:	6a6f      	ldr	r7, [r5, #36]	; 0x24
  4030bc:	69e9      	ldr	r1, [r5, #28]
  4030be:	4640      	mov	r0, r8
  4030c0:	47b8      	blx	r7
  4030c2:	2800      	cmp	r0, #0
  4030c4:	eba4 0400 	sub.w	r4, r4, r0
  4030c8:	4406      	add	r6, r0
  4030ca:	dd04      	ble.n	4030d6 <__sflush_r+0xbe>
  4030cc:	2c00      	cmp	r4, #0
  4030ce:	dcf2      	bgt.n	4030b6 <__sflush_r+0x9e>
  4030d0:	2000      	movs	r0, #0
  4030d2:	e8bd 81f0 	ldmia.w	sp!, {r4, r5, r6, r7, r8, pc}
  4030d6:	89ab      	ldrh	r3, [r5, #12]
  4030d8:	f043 0340 	orr.w	r3, r3, #64	; 0x40
  4030dc:	81ab      	strh	r3, [r5, #12]
  4030de:	f04f 30ff 	mov.w	r0, #4294967295
  4030e2:	e8bd 81f0 	ldmia.w	sp!, {r4, r5, r6, r7, r8, pc}
  4030e6:	f8d8 4000 	ldr.w	r4, [r8]
  4030ea:	2c1d      	cmp	r4, #29
  4030ec:	d8f3      	bhi.n	4030d6 <__sflush_r+0xbe>
  4030ee:	4b19      	ldr	r3, [pc, #100]	; (403154 <__sflush_r+0x13c>)
  4030f0:	40e3      	lsrs	r3, r4
  4030f2:	43db      	mvns	r3, r3
  4030f4:	f013 0301 	ands.w	r3, r3, #1
  4030f8:	d1ed      	bne.n	4030d6 <__sflush_r+0xbe>
  4030fa:	f9b5 200c 	ldrsh.w	r2, [r5, #12]
  4030fe:	606b      	str	r3, [r5, #4]
  403100:	f422 6300 	bic.w	r3, r2, #2048	; 0x800
  403104:	6929      	ldr	r1, [r5, #16]
  403106:	81ab      	strh	r3, [r5, #12]
  403108:	04da      	lsls	r2, r3, #19
  40310a:	6029      	str	r1, [r5, #0]
  40310c:	d5b9      	bpl.n	403082 <__sflush_r+0x6a>
  40310e:	2c00      	cmp	r4, #0
  403110:	d1b7      	bne.n	403082 <__sflush_r+0x6a>
  403112:	6528      	str	r0, [r5, #80]	; 0x50
  403114:	e7b5      	b.n	403082 <__sflush_r+0x6a>
  403116:	6bea      	ldr	r2, [r5, #60]	; 0x3c
  403118:	2a00      	cmp	r2, #0
  40311a:	dc8c      	bgt.n	403036 <__sflush_r+0x1e>
  40311c:	e7d8      	b.n	4030d0 <__sflush_r+0xb8>
  40311e:	2301      	movs	r3, #1
  403120:	69e9      	ldr	r1, [r5, #28]
  403122:	4640      	mov	r0, r8
  403124:	47a0      	blx	r4
  403126:	1c43      	adds	r3, r0, #1
  403128:	4602      	mov	r2, r0
  40312a:	d002      	beq.n	403132 <__sflush_r+0x11a>
  40312c:	89ab      	ldrh	r3, [r5, #12]
  40312e:	6aac      	ldr	r4, [r5, #40]	; 0x28
  403130:	e78e      	b.n	403050 <__sflush_r+0x38>
  403132:	f8d8 3000 	ldr.w	r3, [r8]
  403136:	2b00      	cmp	r3, #0
  403138:	d0f8      	beq.n	40312c <__sflush_r+0x114>
  40313a:	2b1d      	cmp	r3, #29
  40313c:	d001      	beq.n	403142 <__sflush_r+0x12a>
  40313e:	2b16      	cmp	r3, #22
  403140:	d102      	bne.n	403148 <__sflush_r+0x130>
  403142:	f8c8 6000 	str.w	r6, [r8]
  403146:	e7c3      	b.n	4030d0 <__sflush_r+0xb8>
  403148:	89ab      	ldrh	r3, [r5, #12]
  40314a:	f043 0340 	orr.w	r3, r3, #64	; 0x40
  40314e:	81ab      	strh	r3, [r5, #12]
  403150:	e8bd 81f0 	ldmia.w	sp!, {r4, r5, r6, r7, r8, pc}
  403154:	20400001 	.word	0x20400001

00403158 <_fflush_r>:
  403158:	b538      	push	{r3, r4, r5, lr}
  40315a:	460d      	mov	r5, r1
  40315c:	4604      	mov	r4, r0
  40315e:	b108      	cbz	r0, 403164 <_fflush_r+0xc>
  403160:	6b83      	ldr	r3, [r0, #56]	; 0x38
  403162:	b1bb      	cbz	r3, 403194 <_fflush_r+0x3c>
  403164:	f9b5 000c 	ldrsh.w	r0, [r5, #12]
  403168:	b188      	cbz	r0, 40318e <_fflush_r+0x36>
  40316a:	6e6b      	ldr	r3, [r5, #100]	; 0x64
  40316c:	07db      	lsls	r3, r3, #31
  40316e:	d401      	bmi.n	403174 <_fflush_r+0x1c>
  403170:	0581      	lsls	r1, r0, #22
  403172:	d517      	bpl.n	4031a4 <_fflush_r+0x4c>
  403174:	4620      	mov	r0, r4
  403176:	4629      	mov	r1, r5
  403178:	f7ff ff4e 	bl	403018 <__sflush_r>
  40317c:	6e6b      	ldr	r3, [r5, #100]	; 0x64
  40317e:	07da      	lsls	r2, r3, #31
  403180:	4604      	mov	r4, r0
  403182:	d402      	bmi.n	40318a <_fflush_r+0x32>
  403184:	89ab      	ldrh	r3, [r5, #12]
  403186:	059b      	lsls	r3, r3, #22
  403188:	d507      	bpl.n	40319a <_fflush_r+0x42>
  40318a:	4620      	mov	r0, r4
  40318c:	bd38      	pop	{r3, r4, r5, pc}
  40318e:	4604      	mov	r4, r0
  403190:	4620      	mov	r0, r4
  403192:	bd38      	pop	{r3, r4, r5, pc}
  403194:	f000 f838 	bl	403208 <__sinit>
  403198:	e7e4      	b.n	403164 <_fflush_r+0xc>
  40319a:	6da8      	ldr	r0, [r5, #88]	; 0x58
  40319c:	f000 fbf6 	bl	40398c <__retarget_lock_release_recursive>
  4031a0:	4620      	mov	r0, r4
  4031a2:	bd38      	pop	{r3, r4, r5, pc}
  4031a4:	6da8      	ldr	r0, [r5, #88]	; 0x58
  4031a6:	f000 fbef 	bl	403988 <__retarget_lock_acquire_recursive>
  4031aa:	e7e3      	b.n	403174 <_fflush_r+0x1c>

004031ac <_cleanup_r>:
  4031ac:	4901      	ldr	r1, [pc, #4]	; (4031b4 <_cleanup_r+0x8>)
  4031ae:	f000 bbaf 	b.w	403910 <_fwalk_reent>
  4031b2:	bf00      	nop
  4031b4:	004047cd 	.word	0x004047cd

004031b8 <std.isra.0>:
  4031b8:	b510      	push	{r4, lr}
  4031ba:	2300      	movs	r3, #0
  4031bc:	4604      	mov	r4, r0
  4031be:	8181      	strh	r1, [r0, #12]
  4031c0:	81c2      	strh	r2, [r0, #14]
  4031c2:	6003      	str	r3, [r0, #0]
  4031c4:	6043      	str	r3, [r0, #4]
  4031c6:	6083      	str	r3, [r0, #8]
  4031c8:	6643      	str	r3, [r0, #100]	; 0x64
  4031ca:	6103      	str	r3, [r0, #16]
  4031cc:	6143      	str	r3, [r0, #20]
  4031ce:	6183      	str	r3, [r0, #24]
  4031d0:	4619      	mov	r1, r3
  4031d2:	2208      	movs	r2, #8
  4031d4:	305c      	adds	r0, #92	; 0x5c
  4031d6:	f7fe fdff 	bl	401dd8 <memset>
  4031da:	4807      	ldr	r0, [pc, #28]	; (4031f8 <std.isra.0+0x40>)
  4031dc:	4907      	ldr	r1, [pc, #28]	; (4031fc <std.isra.0+0x44>)
  4031de:	4a08      	ldr	r2, [pc, #32]	; (403200 <std.isra.0+0x48>)
  4031e0:	4b08      	ldr	r3, [pc, #32]	; (403204 <std.isra.0+0x4c>)
  4031e2:	6220      	str	r0, [r4, #32]
  4031e4:	61e4      	str	r4, [r4, #28]
  4031e6:	6261      	str	r1, [r4, #36]	; 0x24
  4031e8:	62a2      	str	r2, [r4, #40]	; 0x28
  4031ea:	62e3      	str	r3, [r4, #44]	; 0x2c
  4031ec:	f104 0058 	add.w	r0, r4, #88	; 0x58
  4031f0:	e8bd 4010 	ldmia.w	sp!, {r4, lr}
  4031f4:	f000 bbc4 	b.w	403980 <__retarget_lock_init_recursive>
  4031f8:	00404511 	.word	0x00404511
  4031fc:	00404535 	.word	0x00404535
  403200:	00404571 	.word	0x00404571
  403204:	00404591 	.word	0x00404591

00403208 <__sinit>:
  403208:	b510      	push	{r4, lr}
  40320a:	4604      	mov	r4, r0
  40320c:	4812      	ldr	r0, [pc, #72]	; (403258 <__sinit+0x50>)
  40320e:	f000 fbbb 	bl	403988 <__retarget_lock_acquire_recursive>
  403212:	6ba2      	ldr	r2, [r4, #56]	; 0x38
  403214:	b9d2      	cbnz	r2, 40324c <__sinit+0x44>
  403216:	f504 733b 	add.w	r3, r4, #748	; 0x2ec
  40321a:	4810      	ldr	r0, [pc, #64]	; (40325c <__sinit+0x54>)
  40321c:	f8c4 32e8 	str.w	r3, [r4, #744]	; 0x2e8
  403220:	2103      	movs	r1, #3
  403222:	f8c4 22e0 	str.w	r2, [r4, #736]	; 0x2e0
  403226:	63e0      	str	r0, [r4, #60]	; 0x3c
  403228:	f8c4 12e4 	str.w	r1, [r4, #740]	; 0x2e4
  40322c:	6860      	ldr	r0, [r4, #4]
  40322e:	2104      	movs	r1, #4
  403230:	f7ff ffc2 	bl	4031b8 <std.isra.0>
  403234:	2201      	movs	r2, #1
  403236:	2109      	movs	r1, #9
  403238:	68a0      	ldr	r0, [r4, #8]
  40323a:	f7ff ffbd 	bl	4031b8 <std.isra.0>
  40323e:	2202      	movs	r2, #2
  403240:	2112      	movs	r1, #18
  403242:	68e0      	ldr	r0, [r4, #12]
  403244:	f7ff ffb8 	bl	4031b8 <std.isra.0>
  403248:	2301      	movs	r3, #1
  40324a:	63a3      	str	r3, [r4, #56]	; 0x38
  40324c:	4802      	ldr	r0, [pc, #8]	; (403258 <__sinit+0x50>)
  40324e:	e8bd 4010 	ldmia.w	sp!, {r4, lr}
  403252:	f000 bb9b 	b.w	40398c <__retarget_lock_release_recursive>
  403256:	bf00      	nop
  403258:	20400ac4 	.word	0x20400ac4
  40325c:	004031ad 	.word	0x004031ad

00403260 <__sfp_lock_acquire>:
  403260:	4801      	ldr	r0, [pc, #4]	; (403268 <__sfp_lock_acquire+0x8>)
  403262:	f000 bb91 	b.w	403988 <__retarget_lock_acquire_recursive>
  403266:	bf00      	nop
  403268:	20400ad8 	.word	0x20400ad8

0040326c <__sfp_lock_release>:
  40326c:	4801      	ldr	r0, [pc, #4]	; (403274 <__sfp_lock_release+0x8>)
  40326e:	f000 bb8d 	b.w	40398c <__retarget_lock_release_recursive>
  403272:	bf00      	nop
  403274:	20400ad8 	.word	0x20400ad8

00403278 <__libc_fini_array>:
  403278:	b538      	push	{r3, r4, r5, lr}
  40327a:	4c0a      	ldr	r4, [pc, #40]	; (4032a4 <__libc_fini_array+0x2c>)
  40327c:	4d0a      	ldr	r5, [pc, #40]	; (4032a8 <__libc_fini_array+0x30>)
  40327e:	1b64      	subs	r4, r4, r5
  403280:	10a4      	asrs	r4, r4, #2
  403282:	d00a      	beq.n	40329a <__libc_fini_array+0x22>
  403284:	f104 4380 	add.w	r3, r4, #1073741824	; 0x40000000
  403288:	3b01      	subs	r3, #1
  40328a:	eb05 0583 	add.w	r5, r5, r3, lsl #2
  40328e:	3c01      	subs	r4, #1
  403290:	f855 3904 	ldr.w	r3, [r5], #-4
  403294:	4798      	blx	r3
  403296:	2c00      	cmp	r4, #0
  403298:	d1f9      	bne.n	40328e <__libc_fini_array+0x16>
  40329a:	e8bd 4038 	ldmia.w	sp!, {r3, r4, r5, lr}
  40329e:	f001 bd69 	b.w	404d74 <_fini>
  4032a2:	bf00      	nop
  4032a4:	00404d84 	.word	0x00404d84
  4032a8:	00404d80 	.word	0x00404d80

004032ac <__fputwc>:
  4032ac:	e92d 47f0 	stmdb	sp!, {r4, r5, r6, r7, r8, r9, sl, lr}
  4032b0:	b082      	sub	sp, #8
  4032b2:	4680      	mov	r8, r0
  4032b4:	4689      	mov	r9, r1
  4032b6:	4614      	mov	r4, r2
  4032b8:	f000 fb54 	bl	403964 <__locale_mb_cur_max>
  4032bc:	2801      	cmp	r0, #1
  4032be:	d036      	beq.n	40332e <__fputwc+0x82>
  4032c0:	464a      	mov	r2, r9
  4032c2:	f104 035c 	add.w	r3, r4, #92	; 0x5c
  4032c6:	a901      	add	r1, sp, #4
  4032c8:	4640      	mov	r0, r8
  4032ca:	f001 f9bd 	bl	404648 <_wcrtomb_r>
  4032ce:	1c42      	adds	r2, r0, #1
  4032d0:	4606      	mov	r6, r0
  4032d2:	d025      	beq.n	403320 <__fputwc+0x74>
  4032d4:	b3a8      	cbz	r0, 403342 <__fputwc+0x96>
  4032d6:	f89d e004 	ldrb.w	lr, [sp, #4]
  4032da:	2500      	movs	r5, #0
  4032dc:	f10d 0a04 	add.w	sl, sp, #4
  4032e0:	e009      	b.n	4032f6 <__fputwc+0x4a>
  4032e2:	6823      	ldr	r3, [r4, #0]
  4032e4:	1c5a      	adds	r2, r3, #1
  4032e6:	6022      	str	r2, [r4, #0]
  4032e8:	f883 e000 	strb.w	lr, [r3]
  4032ec:	3501      	adds	r5, #1
  4032ee:	42b5      	cmp	r5, r6
  4032f0:	d227      	bcs.n	403342 <__fputwc+0x96>
  4032f2:	f815 e00a 	ldrb.w	lr, [r5, sl]
  4032f6:	68a3      	ldr	r3, [r4, #8]
  4032f8:	3b01      	subs	r3, #1
  4032fa:	2b00      	cmp	r3, #0
  4032fc:	60a3      	str	r3, [r4, #8]
  4032fe:	daf0      	bge.n	4032e2 <__fputwc+0x36>
  403300:	69a7      	ldr	r7, [r4, #24]
  403302:	42bb      	cmp	r3, r7
  403304:	4671      	mov	r1, lr
  403306:	4622      	mov	r2, r4
  403308:	4640      	mov	r0, r8
  40330a:	db02      	blt.n	403312 <__fputwc+0x66>
  40330c:	f1be 0f0a 	cmp.w	lr, #10
  403310:	d1e7      	bne.n	4032e2 <__fputwc+0x36>
  403312:	f001 f941 	bl	404598 <__swbuf_r>
  403316:	1c43      	adds	r3, r0, #1
  403318:	d1e8      	bne.n	4032ec <__fputwc+0x40>
  40331a:	b002      	add	sp, #8
  40331c:	e8bd 87f0 	ldmia.w	sp!, {r4, r5, r6, r7, r8, r9, sl, pc}
  403320:	89a3      	ldrh	r3, [r4, #12]
  403322:	f043 0340 	orr.w	r3, r3, #64	; 0x40
  403326:	81a3      	strh	r3, [r4, #12]
  403328:	b002      	add	sp, #8
  40332a:	e8bd 87f0 	ldmia.w	sp!, {r4, r5, r6, r7, r8, r9, sl, pc}
  40332e:	f109 33ff 	add.w	r3, r9, #4294967295
  403332:	2bfe      	cmp	r3, #254	; 0xfe
  403334:	d8c4      	bhi.n	4032c0 <__fputwc+0x14>
  403336:	fa5f fe89 	uxtb.w	lr, r9
  40333a:	4606      	mov	r6, r0
  40333c:	f88d e004 	strb.w	lr, [sp, #4]
  403340:	e7cb      	b.n	4032da <__fputwc+0x2e>
  403342:	4648      	mov	r0, r9
  403344:	b002      	add	sp, #8
  403346:	e8bd 87f0 	ldmia.w	sp!, {r4, r5, r6, r7, r8, r9, sl, pc}
  40334a:	bf00      	nop

0040334c <_fputwc_r>:
  40334c:	b530      	push	{r4, r5, lr}
  40334e:	6e53      	ldr	r3, [r2, #100]	; 0x64
  403350:	f013 0f01 	tst.w	r3, #1
  403354:	f9b2 300c 	ldrsh.w	r3, [r2, #12]
  403358:	4614      	mov	r4, r2
  40335a:	b083      	sub	sp, #12
  40335c:	4605      	mov	r5, r0
  40335e:	b29a      	uxth	r2, r3
  403360:	d101      	bne.n	403366 <_fputwc_r+0x1a>
  403362:	0590      	lsls	r0, r2, #22
  403364:	d51c      	bpl.n	4033a0 <_fputwc_r+0x54>
  403366:	0490      	lsls	r0, r2, #18
  403368:	d406      	bmi.n	403378 <_fputwc_r+0x2c>
  40336a:	6e62      	ldr	r2, [r4, #100]	; 0x64
  40336c:	f443 5300 	orr.w	r3, r3, #8192	; 0x2000
  403370:	f442 5200 	orr.w	r2, r2, #8192	; 0x2000
  403374:	81a3      	strh	r3, [r4, #12]
  403376:	6662      	str	r2, [r4, #100]	; 0x64
  403378:	4628      	mov	r0, r5
  40337a:	4622      	mov	r2, r4
  40337c:	f7ff ff96 	bl	4032ac <__fputwc>
  403380:	6e63      	ldr	r3, [r4, #100]	; 0x64
  403382:	07da      	lsls	r2, r3, #31
  403384:	4605      	mov	r5, r0
  403386:	d402      	bmi.n	40338e <_fputwc_r+0x42>
  403388:	89a3      	ldrh	r3, [r4, #12]
  40338a:	059b      	lsls	r3, r3, #22
  40338c:	d502      	bpl.n	403394 <_fputwc_r+0x48>
  40338e:	4628      	mov	r0, r5
  403390:	b003      	add	sp, #12
  403392:	bd30      	pop	{r4, r5, pc}
  403394:	6da0      	ldr	r0, [r4, #88]	; 0x58
  403396:	f000 faf9 	bl	40398c <__retarget_lock_release_recursive>
  40339a:	4628      	mov	r0, r5
  40339c:	b003      	add	sp, #12
  40339e:	bd30      	pop	{r4, r5, pc}
  4033a0:	6da0      	ldr	r0, [r4, #88]	; 0x58
  4033a2:	9101      	str	r1, [sp, #4]
  4033a4:	f000 faf0 	bl	403988 <__retarget_lock_acquire_recursive>
  4033a8:	f9b4 300c 	ldrsh.w	r3, [r4, #12]
  4033ac:	9901      	ldr	r1, [sp, #4]
  4033ae:	b29a      	uxth	r2, r3
  4033b0:	e7d9      	b.n	403366 <_fputwc_r+0x1a>
  4033b2:	bf00      	nop

004033b4 <_malloc_trim_r>:
  4033b4:	b5f8      	push	{r3, r4, r5, r6, r7, lr}
  4033b6:	4f24      	ldr	r7, [pc, #144]	; (403448 <_malloc_trim_r+0x94>)
  4033b8:	460c      	mov	r4, r1
  4033ba:	4606      	mov	r6, r0
  4033bc:	f000 fee4 	bl	404188 <__malloc_lock>
  4033c0:	68bb      	ldr	r3, [r7, #8]
  4033c2:	685d      	ldr	r5, [r3, #4]
  4033c4:	f5c4 617e 	rsb	r1, r4, #4064	; 0xfe0
  4033c8:	310f      	adds	r1, #15
  4033ca:	f025 0503 	bic.w	r5, r5, #3
  4033ce:	4429      	add	r1, r5
  4033d0:	f421 617f 	bic.w	r1, r1, #4080	; 0xff0
  4033d4:	f021 010f 	bic.w	r1, r1, #15
  4033d8:	f5a1 5480 	sub.w	r4, r1, #4096	; 0x1000
  4033dc:	f5b4 5f80 	cmp.w	r4, #4096	; 0x1000
  4033e0:	db07      	blt.n	4033f2 <_malloc_trim_r+0x3e>
  4033e2:	2100      	movs	r1, #0
  4033e4:	4630      	mov	r0, r6
  4033e6:	f001 f881 	bl	4044ec <_sbrk_r>
  4033ea:	68bb      	ldr	r3, [r7, #8]
  4033ec:	442b      	add	r3, r5
  4033ee:	4298      	cmp	r0, r3
  4033f0:	d004      	beq.n	4033fc <_malloc_trim_r+0x48>
  4033f2:	4630      	mov	r0, r6
  4033f4:	f000 fece 	bl	404194 <__malloc_unlock>
  4033f8:	2000      	movs	r0, #0
  4033fa:	bdf8      	pop	{r3, r4, r5, r6, r7, pc}
  4033fc:	4261      	negs	r1, r4
  4033fe:	4630      	mov	r0, r6
  403400:	f001 f874 	bl	4044ec <_sbrk_r>
  403404:	3001      	adds	r0, #1
  403406:	d00d      	beq.n	403424 <_malloc_trim_r+0x70>
  403408:	4b10      	ldr	r3, [pc, #64]	; (40344c <_malloc_trim_r+0x98>)
  40340a:	68ba      	ldr	r2, [r7, #8]
  40340c:	6819      	ldr	r1, [r3, #0]
  40340e:	1b2d      	subs	r5, r5, r4
  403410:	f045 0501 	orr.w	r5, r5, #1
  403414:	4630      	mov	r0, r6
  403416:	1b09      	subs	r1, r1, r4
  403418:	6055      	str	r5, [r2, #4]
  40341a:	6019      	str	r1, [r3, #0]
  40341c:	f000 feba 	bl	404194 <__malloc_unlock>
  403420:	2001      	movs	r0, #1
  403422:	bdf8      	pop	{r3, r4, r5, r6, r7, pc}
  403424:	2100      	movs	r1, #0
  403426:	4630      	mov	r0, r6
  403428:	f001 f860 	bl	4044ec <_sbrk_r>
  40342c:	68ba      	ldr	r2, [r7, #8]
  40342e:	1a83      	subs	r3, r0, r2
  403430:	2b0f      	cmp	r3, #15
  403432:	ddde      	ble.n	4033f2 <_malloc_trim_r+0x3e>
  403434:	4c06      	ldr	r4, [pc, #24]	; (403450 <_malloc_trim_r+0x9c>)
  403436:	4905      	ldr	r1, [pc, #20]	; (40344c <_malloc_trim_r+0x98>)
  403438:	6824      	ldr	r4, [r4, #0]
  40343a:	f043 0301 	orr.w	r3, r3, #1
  40343e:	1b00      	subs	r0, r0, r4
  403440:	6053      	str	r3, [r2, #4]
  403442:	6008      	str	r0, [r1, #0]
  403444:	e7d5      	b.n	4033f2 <_malloc_trim_r+0x3e>
  403446:	bf00      	nop
  403448:	204005b0 	.word	0x204005b0
  40344c:	20400a58 	.word	0x20400a58
  403450:	204009b8 	.word	0x204009b8

00403454 <_free_r>:
  403454:	2900      	cmp	r1, #0
  403456:	d044      	beq.n	4034e2 <_free_r+0x8e>
  403458:	e92d 41f0 	stmdb	sp!, {r4, r5, r6, r7, r8, lr}
  40345c:	460d      	mov	r5, r1
  40345e:	4680      	mov	r8, r0
  403460:	f000 fe92 	bl	404188 <__malloc_lock>
  403464:	f855 7c04 	ldr.w	r7, [r5, #-4]
  403468:	4969      	ldr	r1, [pc, #420]	; (403610 <_free_r+0x1bc>)
  40346a:	f027 0301 	bic.w	r3, r7, #1
  40346e:	f1a5 0408 	sub.w	r4, r5, #8
  403472:	18e2      	adds	r2, r4, r3
  403474:	688e      	ldr	r6, [r1, #8]
  403476:	6850      	ldr	r0, [r2, #4]
  403478:	42b2      	cmp	r2, r6
  40347a:	f020 0003 	bic.w	r0, r0, #3
  40347e:	d05e      	beq.n	40353e <_free_r+0xea>
  403480:	07fe      	lsls	r6, r7, #31
  403482:	6050      	str	r0, [r2, #4]
  403484:	d40b      	bmi.n	40349e <_free_r+0x4a>
  403486:	f855 7c08 	ldr.w	r7, [r5, #-8]
  40348a:	1be4      	subs	r4, r4, r7
  40348c:	f101 0e08 	add.w	lr, r1, #8
  403490:	68a5      	ldr	r5, [r4, #8]
  403492:	4575      	cmp	r5, lr
  403494:	443b      	add	r3, r7
  403496:	d06d      	beq.n	403574 <_free_r+0x120>
  403498:	68e7      	ldr	r7, [r4, #12]
  40349a:	60ef      	str	r7, [r5, #12]
  40349c:	60bd      	str	r5, [r7, #8]
  40349e:	1815      	adds	r5, r2, r0
  4034a0:	686d      	ldr	r5, [r5, #4]
  4034a2:	07ed      	lsls	r5, r5, #31
  4034a4:	d53e      	bpl.n	403524 <_free_r+0xd0>
  4034a6:	f043 0201 	orr.w	r2, r3, #1
  4034aa:	6062      	str	r2, [r4, #4]
  4034ac:	50e3      	str	r3, [r4, r3]
  4034ae:	f5b3 7f00 	cmp.w	r3, #512	; 0x200
  4034b2:	d217      	bcs.n	4034e4 <_free_r+0x90>
  4034b4:	08db      	lsrs	r3, r3, #3
  4034b6:	1c58      	adds	r0, r3, #1
  4034b8:	109a      	asrs	r2, r3, #2
  4034ba:	684d      	ldr	r5, [r1, #4]
  4034bc:	f851 7030 	ldr.w	r7, [r1, r0, lsl #3]
  4034c0:	60a7      	str	r7, [r4, #8]
  4034c2:	2301      	movs	r3, #1
  4034c4:	4093      	lsls	r3, r2
  4034c6:	eb01 02c0 	add.w	r2, r1, r0, lsl #3
  4034ca:	432b      	orrs	r3, r5
  4034cc:	3a08      	subs	r2, #8
  4034ce:	60e2      	str	r2, [r4, #12]
  4034d0:	604b      	str	r3, [r1, #4]
  4034d2:	f841 4030 	str.w	r4, [r1, r0, lsl #3]
  4034d6:	60fc      	str	r4, [r7, #12]
  4034d8:	4640      	mov	r0, r8
  4034da:	e8bd 41f0 	ldmia.w	sp!, {r4, r5, r6, r7, r8, lr}
  4034de:	f000 be59 	b.w	404194 <__malloc_unlock>
  4034e2:	4770      	bx	lr
  4034e4:	0a5a      	lsrs	r2, r3, #9
  4034e6:	2a04      	cmp	r2, #4
  4034e8:	d852      	bhi.n	403590 <_free_r+0x13c>
  4034ea:	099a      	lsrs	r2, r3, #6
  4034ec:	f102 0739 	add.w	r7, r2, #57	; 0x39
  4034f0:	00ff      	lsls	r7, r7, #3
  4034f2:	f102 0538 	add.w	r5, r2, #56	; 0x38
  4034f6:	19c8      	adds	r0, r1, r7
  4034f8:	59ca      	ldr	r2, [r1, r7]
  4034fa:	3808      	subs	r0, #8
  4034fc:	4290      	cmp	r0, r2
  4034fe:	d04f      	beq.n	4035a0 <_free_r+0x14c>
  403500:	6851      	ldr	r1, [r2, #4]
  403502:	f021 0103 	bic.w	r1, r1, #3
  403506:	428b      	cmp	r3, r1
  403508:	d232      	bcs.n	403570 <_free_r+0x11c>
  40350a:	6892      	ldr	r2, [r2, #8]
  40350c:	4290      	cmp	r0, r2
  40350e:	d1f7      	bne.n	403500 <_free_r+0xac>
  403510:	68c3      	ldr	r3, [r0, #12]
  403512:	60a0      	str	r0, [r4, #8]
  403514:	60e3      	str	r3, [r4, #12]
  403516:	609c      	str	r4, [r3, #8]
  403518:	60c4      	str	r4, [r0, #12]
  40351a:	4640      	mov	r0, r8
  40351c:	e8bd 41f0 	ldmia.w	sp!, {r4, r5, r6, r7, r8, lr}
  403520:	f000 be38 	b.w	404194 <__malloc_unlock>
  403524:	6895      	ldr	r5, [r2, #8]
  403526:	4f3b      	ldr	r7, [pc, #236]	; (403614 <_free_r+0x1c0>)
  403528:	42bd      	cmp	r5, r7
  40352a:	4403      	add	r3, r0
  40352c:	d040      	beq.n	4035b0 <_free_r+0x15c>
  40352e:	68d0      	ldr	r0, [r2, #12]
  403530:	60e8      	str	r0, [r5, #12]
  403532:	f043 0201 	orr.w	r2, r3, #1
  403536:	6085      	str	r5, [r0, #8]
  403538:	6062      	str	r2, [r4, #4]
  40353a:	50e3      	str	r3, [r4, r3]
  40353c:	e7b7      	b.n	4034ae <_free_r+0x5a>
  40353e:	07ff      	lsls	r7, r7, #31
  403540:	4403      	add	r3, r0
  403542:	d407      	bmi.n	403554 <_free_r+0x100>
  403544:	f855 2c08 	ldr.w	r2, [r5, #-8]
  403548:	1aa4      	subs	r4, r4, r2
  40354a:	4413      	add	r3, r2
  40354c:	68a0      	ldr	r0, [r4, #8]
  40354e:	68e2      	ldr	r2, [r4, #12]
  403550:	60c2      	str	r2, [r0, #12]
  403552:	6090      	str	r0, [r2, #8]
  403554:	4a30      	ldr	r2, [pc, #192]	; (403618 <_free_r+0x1c4>)
  403556:	6812      	ldr	r2, [r2, #0]
  403558:	f043 0001 	orr.w	r0, r3, #1
  40355c:	4293      	cmp	r3, r2
  40355e:	6060      	str	r0, [r4, #4]
  403560:	608c      	str	r4, [r1, #8]
  403562:	d3b9      	bcc.n	4034d8 <_free_r+0x84>
  403564:	4b2d      	ldr	r3, [pc, #180]	; (40361c <_free_r+0x1c8>)
  403566:	4640      	mov	r0, r8
  403568:	6819      	ldr	r1, [r3, #0]
  40356a:	f7ff ff23 	bl	4033b4 <_malloc_trim_r>
  40356e:	e7b3      	b.n	4034d8 <_free_r+0x84>
  403570:	4610      	mov	r0, r2
  403572:	e7cd      	b.n	403510 <_free_r+0xbc>
  403574:	1811      	adds	r1, r2, r0
  403576:	6849      	ldr	r1, [r1, #4]
  403578:	07c9      	lsls	r1, r1, #31
  40357a:	d444      	bmi.n	403606 <_free_r+0x1b2>
  40357c:	6891      	ldr	r1, [r2, #8]
  40357e:	68d2      	ldr	r2, [r2, #12]
  403580:	60ca      	str	r2, [r1, #12]
  403582:	4403      	add	r3, r0
  403584:	f043 0001 	orr.w	r0, r3, #1
  403588:	6091      	str	r1, [r2, #8]
  40358a:	6060      	str	r0, [r4, #4]
  40358c:	50e3      	str	r3, [r4, r3]
  40358e:	e7a3      	b.n	4034d8 <_free_r+0x84>
  403590:	2a14      	cmp	r2, #20
  403592:	d816      	bhi.n	4035c2 <_free_r+0x16e>
  403594:	f102 075c 	add.w	r7, r2, #92	; 0x5c
  403598:	00ff      	lsls	r7, r7, #3
  40359a:	f102 055b 	add.w	r5, r2, #91	; 0x5b
  40359e:	e7aa      	b.n	4034f6 <_free_r+0xa2>
  4035a0:	10aa      	asrs	r2, r5, #2
  4035a2:	2301      	movs	r3, #1
  4035a4:	684d      	ldr	r5, [r1, #4]
  4035a6:	4093      	lsls	r3, r2
  4035a8:	432b      	orrs	r3, r5
  4035aa:	604b      	str	r3, [r1, #4]
  4035ac:	4603      	mov	r3, r0
  4035ae:	e7b0      	b.n	403512 <_free_r+0xbe>
  4035b0:	f043 0201 	orr.w	r2, r3, #1
  4035b4:	614c      	str	r4, [r1, #20]
  4035b6:	610c      	str	r4, [r1, #16]
  4035b8:	60e5      	str	r5, [r4, #12]
  4035ba:	60a5      	str	r5, [r4, #8]
  4035bc:	6062      	str	r2, [r4, #4]
  4035be:	50e3      	str	r3, [r4, r3]
  4035c0:	e78a      	b.n	4034d8 <_free_r+0x84>
  4035c2:	2a54      	cmp	r2, #84	; 0x54
  4035c4:	d806      	bhi.n	4035d4 <_free_r+0x180>
  4035c6:	0b1a      	lsrs	r2, r3, #12
  4035c8:	f102 076f 	add.w	r7, r2, #111	; 0x6f
  4035cc:	00ff      	lsls	r7, r7, #3
  4035ce:	f102 056e 	add.w	r5, r2, #110	; 0x6e
  4035d2:	e790      	b.n	4034f6 <_free_r+0xa2>
  4035d4:	f5b2 7faa 	cmp.w	r2, #340	; 0x154
  4035d8:	d806      	bhi.n	4035e8 <_free_r+0x194>
  4035da:	0bda      	lsrs	r2, r3, #15
  4035dc:	f102 0778 	add.w	r7, r2, #120	; 0x78
  4035e0:	00ff      	lsls	r7, r7, #3
  4035e2:	f102 0577 	add.w	r5, r2, #119	; 0x77
  4035e6:	e786      	b.n	4034f6 <_free_r+0xa2>
  4035e8:	f240 5054 	movw	r0, #1364	; 0x554
  4035ec:	4282      	cmp	r2, r0
  4035ee:	d806      	bhi.n	4035fe <_free_r+0x1aa>
  4035f0:	0c9a      	lsrs	r2, r3, #18
  4035f2:	f102 077d 	add.w	r7, r2, #125	; 0x7d
  4035f6:	00ff      	lsls	r7, r7, #3
  4035f8:	f102 057c 	add.w	r5, r2, #124	; 0x7c
  4035fc:	e77b      	b.n	4034f6 <_free_r+0xa2>
  4035fe:	f44f 777e 	mov.w	r7, #1016	; 0x3f8
  403602:	257e      	movs	r5, #126	; 0x7e
  403604:	e777      	b.n	4034f6 <_free_r+0xa2>
  403606:	f043 0101 	orr.w	r1, r3, #1
  40360a:	6061      	str	r1, [r4, #4]
  40360c:	6013      	str	r3, [r2, #0]
  40360e:	e763      	b.n	4034d8 <_free_r+0x84>
  403610:	204005b0 	.word	0x204005b0
  403614:	204005b8 	.word	0x204005b8
  403618:	204009bc 	.word	0x204009bc
  40361c:	20400a88 	.word	0x20400a88

00403620 <__sfvwrite_r>:
  403620:	6893      	ldr	r3, [r2, #8]
  403622:	2b00      	cmp	r3, #0
  403624:	d073      	beq.n	40370e <__sfvwrite_r+0xee>
  403626:	e92d 4ff0 	stmdb	sp!, {r4, r5, r6, r7, r8, r9, sl, fp, lr}
  40362a:	898b      	ldrh	r3, [r1, #12]
  40362c:	b083      	sub	sp, #12
  40362e:	460c      	mov	r4, r1
  403630:	0719      	lsls	r1, r3, #28
  403632:	9000      	str	r0, [sp, #0]
  403634:	4616      	mov	r6, r2
  403636:	d526      	bpl.n	403686 <__sfvwrite_r+0x66>
  403638:	6922      	ldr	r2, [r4, #16]
  40363a:	b322      	cbz	r2, 403686 <__sfvwrite_r+0x66>
  40363c:	f013 0002 	ands.w	r0, r3, #2
  403640:	6835      	ldr	r5, [r6, #0]
  403642:	d02c      	beq.n	40369e <__sfvwrite_r+0x7e>
  403644:	f04f 0900 	mov.w	r9, #0
  403648:	4fb0      	ldr	r7, [pc, #704]	; (40390c <__sfvwrite_r+0x2ec>)
  40364a:	46c8      	mov	r8, r9
  40364c:	46b2      	mov	sl, r6
  40364e:	45b8      	cmp	r8, r7
  403650:	4643      	mov	r3, r8
  403652:	464a      	mov	r2, r9
  403654:	bf28      	it	cs
  403656:	463b      	movcs	r3, r7
  403658:	9800      	ldr	r0, [sp, #0]
  40365a:	f1b8 0f00 	cmp.w	r8, #0
  40365e:	d050      	beq.n	403702 <__sfvwrite_r+0xe2>
  403660:	69e1      	ldr	r1, [r4, #28]
  403662:	6a66      	ldr	r6, [r4, #36]	; 0x24
  403664:	47b0      	blx	r6
  403666:	2800      	cmp	r0, #0
  403668:	dd58      	ble.n	40371c <__sfvwrite_r+0xfc>
  40366a:	f8da 3008 	ldr.w	r3, [sl, #8]
  40366e:	1a1b      	subs	r3, r3, r0
  403670:	4481      	add	r9, r0
  403672:	eba8 0800 	sub.w	r8, r8, r0
  403676:	f8ca 3008 	str.w	r3, [sl, #8]
  40367a:	2b00      	cmp	r3, #0
  40367c:	d1e7      	bne.n	40364e <__sfvwrite_r+0x2e>
  40367e:	2000      	movs	r0, #0
  403680:	b003      	add	sp, #12
  403682:	e8bd 8ff0 	ldmia.w	sp!, {r4, r5, r6, r7, r8, r9, sl, fp, pc}
  403686:	4621      	mov	r1, r4
  403688:	9800      	ldr	r0, [sp, #0]
  40368a:	f7ff fc51 	bl	402f30 <__swsetup_r>
  40368e:	2800      	cmp	r0, #0
  403690:	f040 8133 	bne.w	4038fa <__sfvwrite_r+0x2da>
  403694:	89a3      	ldrh	r3, [r4, #12]
  403696:	6835      	ldr	r5, [r6, #0]
  403698:	f013 0002 	ands.w	r0, r3, #2
  40369c:	d1d2      	bne.n	403644 <__sfvwrite_r+0x24>
  40369e:	f013 0901 	ands.w	r9, r3, #1
  4036a2:	d145      	bne.n	403730 <__sfvwrite_r+0x110>
  4036a4:	464f      	mov	r7, r9
  4036a6:	9601      	str	r6, [sp, #4]
  4036a8:	b337      	cbz	r7, 4036f8 <__sfvwrite_r+0xd8>
  4036aa:	059a      	lsls	r2, r3, #22
  4036ac:	f8d4 8008 	ldr.w	r8, [r4, #8]
  4036b0:	f140 8083 	bpl.w	4037ba <__sfvwrite_r+0x19a>
  4036b4:	4547      	cmp	r7, r8
  4036b6:	46c3      	mov	fp, r8
  4036b8:	f0c0 80ab 	bcc.w	403812 <__sfvwrite_r+0x1f2>
  4036bc:	f413 6f90 	tst.w	r3, #1152	; 0x480
  4036c0:	f040 80ac 	bne.w	40381c <__sfvwrite_r+0x1fc>
  4036c4:	6820      	ldr	r0, [r4, #0]
  4036c6:	46ba      	mov	sl, r7
  4036c8:	465a      	mov	r2, fp
  4036ca:	4649      	mov	r1, r9
  4036cc:	f000 fcf8 	bl	4040c0 <memmove>
  4036d0:	68a2      	ldr	r2, [r4, #8]
  4036d2:	6823      	ldr	r3, [r4, #0]
  4036d4:	eba2 0208 	sub.w	r2, r2, r8
  4036d8:	445b      	add	r3, fp
  4036da:	60a2      	str	r2, [r4, #8]
  4036dc:	6023      	str	r3, [r4, #0]
  4036de:	9a01      	ldr	r2, [sp, #4]
  4036e0:	6893      	ldr	r3, [r2, #8]
  4036e2:	eba3 030a 	sub.w	r3, r3, sl
  4036e6:	44d1      	add	r9, sl
  4036e8:	eba7 070a 	sub.w	r7, r7, sl
  4036ec:	6093      	str	r3, [r2, #8]
  4036ee:	2b00      	cmp	r3, #0
  4036f0:	d0c5      	beq.n	40367e <__sfvwrite_r+0x5e>
  4036f2:	89a3      	ldrh	r3, [r4, #12]
  4036f4:	2f00      	cmp	r7, #0
  4036f6:	d1d8      	bne.n	4036aa <__sfvwrite_r+0x8a>
  4036f8:	f8d5 9000 	ldr.w	r9, [r5]
  4036fc:	686f      	ldr	r7, [r5, #4]
  4036fe:	3508      	adds	r5, #8
  403700:	e7d2      	b.n	4036a8 <__sfvwrite_r+0x88>
  403702:	f8d5 9000 	ldr.w	r9, [r5]
  403706:	f8d5 8004 	ldr.w	r8, [r5, #4]
  40370a:	3508      	adds	r5, #8
  40370c:	e79f      	b.n	40364e <__sfvwrite_r+0x2e>
  40370e:	2000      	movs	r0, #0
  403710:	4770      	bx	lr
  403712:	4621      	mov	r1, r4
  403714:	9800      	ldr	r0, [sp, #0]
  403716:	f7ff fd1f 	bl	403158 <_fflush_r>
  40371a:	b370      	cbz	r0, 40377a <__sfvwrite_r+0x15a>
  40371c:	f9b4 300c 	ldrsh.w	r3, [r4, #12]
  403720:	f043 0340 	orr.w	r3, r3, #64	; 0x40
  403724:	f04f 30ff 	mov.w	r0, #4294967295
  403728:	81a3      	strh	r3, [r4, #12]
  40372a:	b003      	add	sp, #12
  40372c:	e8bd 8ff0 	ldmia.w	sp!, {r4, r5, r6, r7, r8, r9, sl, fp, pc}
  403730:	4681      	mov	r9, r0
  403732:	4633      	mov	r3, r6
  403734:	464e      	mov	r6, r9
  403736:	46a8      	mov	r8, r5
  403738:	469a      	mov	sl, r3
  40373a:	464d      	mov	r5, r9
  40373c:	b34e      	cbz	r6, 403792 <__sfvwrite_r+0x172>
  40373e:	b380      	cbz	r0, 4037a2 <__sfvwrite_r+0x182>
  403740:	6820      	ldr	r0, [r4, #0]
  403742:	6923      	ldr	r3, [r4, #16]
  403744:	6962      	ldr	r2, [r4, #20]
  403746:	45b1      	cmp	r9, r6
  403748:	46cb      	mov	fp, r9
  40374a:	bf28      	it	cs
  40374c:	46b3      	movcs	fp, r6
  40374e:	4298      	cmp	r0, r3
  403750:	465f      	mov	r7, fp
  403752:	d904      	bls.n	40375e <__sfvwrite_r+0x13e>
  403754:	68a3      	ldr	r3, [r4, #8]
  403756:	4413      	add	r3, r2
  403758:	459b      	cmp	fp, r3
  40375a:	f300 80a6 	bgt.w	4038aa <__sfvwrite_r+0x28a>
  40375e:	4593      	cmp	fp, r2
  403760:	db4b      	blt.n	4037fa <__sfvwrite_r+0x1da>
  403762:	4613      	mov	r3, r2
  403764:	6a67      	ldr	r7, [r4, #36]	; 0x24
  403766:	69e1      	ldr	r1, [r4, #28]
  403768:	9800      	ldr	r0, [sp, #0]
  40376a:	462a      	mov	r2, r5
  40376c:	47b8      	blx	r7
  40376e:	1e07      	subs	r7, r0, #0
  403770:	ddd4      	ble.n	40371c <__sfvwrite_r+0xfc>
  403772:	ebb9 0907 	subs.w	r9, r9, r7
  403776:	d0cc      	beq.n	403712 <__sfvwrite_r+0xf2>
  403778:	2001      	movs	r0, #1
  40377a:	f8da 3008 	ldr.w	r3, [sl, #8]
  40377e:	1bdb      	subs	r3, r3, r7
  403780:	443d      	add	r5, r7
  403782:	1bf6      	subs	r6, r6, r7
  403784:	f8ca 3008 	str.w	r3, [sl, #8]
  403788:	2b00      	cmp	r3, #0
  40378a:	f43f af78 	beq.w	40367e <__sfvwrite_r+0x5e>
  40378e:	2e00      	cmp	r6, #0
  403790:	d1d5      	bne.n	40373e <__sfvwrite_r+0x11e>
  403792:	f108 0308 	add.w	r3, r8, #8
  403796:	e913 0060 	ldmdb	r3, {r5, r6}
  40379a:	4698      	mov	r8, r3
  40379c:	3308      	adds	r3, #8
  40379e:	2e00      	cmp	r6, #0
  4037a0:	d0f9      	beq.n	403796 <__sfvwrite_r+0x176>
  4037a2:	4632      	mov	r2, r6
  4037a4:	210a      	movs	r1, #10
  4037a6:	4628      	mov	r0, r5
  4037a8:	f000 fc3a 	bl	404020 <memchr>
  4037ac:	2800      	cmp	r0, #0
  4037ae:	f000 80a1 	beq.w	4038f4 <__sfvwrite_r+0x2d4>
  4037b2:	3001      	adds	r0, #1
  4037b4:	eba0 0905 	sub.w	r9, r0, r5
  4037b8:	e7c2      	b.n	403740 <__sfvwrite_r+0x120>
  4037ba:	6820      	ldr	r0, [r4, #0]
  4037bc:	6923      	ldr	r3, [r4, #16]
  4037be:	4298      	cmp	r0, r3
  4037c0:	d802      	bhi.n	4037c8 <__sfvwrite_r+0x1a8>
  4037c2:	6963      	ldr	r3, [r4, #20]
  4037c4:	429f      	cmp	r7, r3
  4037c6:	d25d      	bcs.n	403884 <__sfvwrite_r+0x264>
  4037c8:	45b8      	cmp	r8, r7
  4037ca:	bf28      	it	cs
  4037cc:	46b8      	movcs	r8, r7
  4037ce:	4642      	mov	r2, r8
  4037d0:	4649      	mov	r1, r9
  4037d2:	f000 fc75 	bl	4040c0 <memmove>
  4037d6:	68a3      	ldr	r3, [r4, #8]
  4037d8:	6822      	ldr	r2, [r4, #0]
  4037da:	eba3 0308 	sub.w	r3, r3, r8
  4037de:	4442      	add	r2, r8
  4037e0:	60a3      	str	r3, [r4, #8]
  4037e2:	6022      	str	r2, [r4, #0]
  4037e4:	b10b      	cbz	r3, 4037ea <__sfvwrite_r+0x1ca>
  4037e6:	46c2      	mov	sl, r8
  4037e8:	e779      	b.n	4036de <__sfvwrite_r+0xbe>
  4037ea:	4621      	mov	r1, r4
  4037ec:	9800      	ldr	r0, [sp, #0]
  4037ee:	f7ff fcb3 	bl	403158 <_fflush_r>
  4037f2:	2800      	cmp	r0, #0
  4037f4:	d192      	bne.n	40371c <__sfvwrite_r+0xfc>
  4037f6:	46c2      	mov	sl, r8
  4037f8:	e771      	b.n	4036de <__sfvwrite_r+0xbe>
  4037fa:	465a      	mov	r2, fp
  4037fc:	4629      	mov	r1, r5
  4037fe:	f000 fc5f 	bl	4040c0 <memmove>
  403802:	68a2      	ldr	r2, [r4, #8]
  403804:	6823      	ldr	r3, [r4, #0]
  403806:	eba2 020b 	sub.w	r2, r2, fp
  40380a:	445b      	add	r3, fp
  40380c:	60a2      	str	r2, [r4, #8]
  40380e:	6023      	str	r3, [r4, #0]
  403810:	e7af      	b.n	403772 <__sfvwrite_r+0x152>
  403812:	6820      	ldr	r0, [r4, #0]
  403814:	46b8      	mov	r8, r7
  403816:	46ba      	mov	sl, r7
  403818:	46bb      	mov	fp, r7
  40381a:	e755      	b.n	4036c8 <__sfvwrite_r+0xa8>
  40381c:	6962      	ldr	r2, [r4, #20]
  40381e:	6820      	ldr	r0, [r4, #0]
  403820:	6921      	ldr	r1, [r4, #16]
  403822:	eb02 0842 	add.w	r8, r2, r2, lsl #1
  403826:	eba0 0a01 	sub.w	sl, r0, r1
  40382a:	eb08 78d8 	add.w	r8, r8, r8, lsr #31
  40382e:	f10a 0001 	add.w	r0, sl, #1
  403832:	ea4f 0868 	mov.w	r8, r8, asr #1
  403836:	4438      	add	r0, r7
  403838:	4540      	cmp	r0, r8
  40383a:	4642      	mov	r2, r8
  40383c:	bf84      	itt	hi
  40383e:	4680      	movhi	r8, r0
  403840:	4642      	movhi	r2, r8
  403842:	055b      	lsls	r3, r3, #21
  403844:	d544      	bpl.n	4038d0 <__sfvwrite_r+0x2b0>
  403846:	4611      	mov	r1, r2
  403848:	9800      	ldr	r0, [sp, #0]
  40384a:	f000 f921 	bl	403a90 <_malloc_r>
  40384e:	4683      	mov	fp, r0
  403850:	2800      	cmp	r0, #0
  403852:	d055      	beq.n	403900 <__sfvwrite_r+0x2e0>
  403854:	4652      	mov	r2, sl
  403856:	6921      	ldr	r1, [r4, #16]
  403858:	f7fe fa24 	bl	401ca4 <memcpy>
  40385c:	89a3      	ldrh	r3, [r4, #12]
  40385e:	f423 6390 	bic.w	r3, r3, #1152	; 0x480
  403862:	f043 0380 	orr.w	r3, r3, #128	; 0x80
  403866:	81a3      	strh	r3, [r4, #12]
  403868:	eb0b 000a 	add.w	r0, fp, sl
  40386c:	eba8 030a 	sub.w	r3, r8, sl
  403870:	f8c4 b010 	str.w	fp, [r4, #16]
  403874:	f8c4 8014 	str.w	r8, [r4, #20]
  403878:	6020      	str	r0, [r4, #0]
  40387a:	60a3      	str	r3, [r4, #8]
  40387c:	46b8      	mov	r8, r7
  40387e:	46ba      	mov	sl, r7
  403880:	46bb      	mov	fp, r7
  403882:	e721      	b.n	4036c8 <__sfvwrite_r+0xa8>
  403884:	f06f 4100 	mvn.w	r1, #2147483648	; 0x80000000
  403888:	42b9      	cmp	r1, r7
  40388a:	bf28      	it	cs
  40388c:	4639      	movcs	r1, r7
  40388e:	464a      	mov	r2, r9
  403890:	fb91 f1f3 	sdiv	r1, r1, r3
  403894:	9800      	ldr	r0, [sp, #0]
  403896:	6a66      	ldr	r6, [r4, #36]	; 0x24
  403898:	fb03 f301 	mul.w	r3, r3, r1
  40389c:	69e1      	ldr	r1, [r4, #28]
  40389e:	47b0      	blx	r6
  4038a0:	f1b0 0a00 	subs.w	sl, r0, #0
  4038a4:	f73f af1b 	bgt.w	4036de <__sfvwrite_r+0xbe>
  4038a8:	e738      	b.n	40371c <__sfvwrite_r+0xfc>
  4038aa:	461a      	mov	r2, r3
  4038ac:	4629      	mov	r1, r5
  4038ae:	9301      	str	r3, [sp, #4]
  4038b0:	f000 fc06 	bl	4040c0 <memmove>
  4038b4:	6822      	ldr	r2, [r4, #0]
  4038b6:	9b01      	ldr	r3, [sp, #4]
  4038b8:	9800      	ldr	r0, [sp, #0]
  4038ba:	441a      	add	r2, r3
  4038bc:	6022      	str	r2, [r4, #0]
  4038be:	4621      	mov	r1, r4
  4038c0:	f7ff fc4a 	bl	403158 <_fflush_r>
  4038c4:	9b01      	ldr	r3, [sp, #4]
  4038c6:	2800      	cmp	r0, #0
  4038c8:	f47f af28 	bne.w	40371c <__sfvwrite_r+0xfc>
  4038cc:	461f      	mov	r7, r3
  4038ce:	e750      	b.n	403772 <__sfvwrite_r+0x152>
  4038d0:	9800      	ldr	r0, [sp, #0]
  4038d2:	f000 fc65 	bl	4041a0 <_realloc_r>
  4038d6:	4683      	mov	fp, r0
  4038d8:	2800      	cmp	r0, #0
  4038da:	d1c5      	bne.n	403868 <__sfvwrite_r+0x248>
  4038dc:	9d00      	ldr	r5, [sp, #0]
  4038de:	6921      	ldr	r1, [r4, #16]
  4038e0:	4628      	mov	r0, r5
  4038e2:	f7ff fdb7 	bl	403454 <_free_r>
  4038e6:	f9b4 300c 	ldrsh.w	r3, [r4, #12]
  4038ea:	220c      	movs	r2, #12
  4038ec:	f023 0380 	bic.w	r3, r3, #128	; 0x80
  4038f0:	602a      	str	r2, [r5, #0]
  4038f2:	e715      	b.n	403720 <__sfvwrite_r+0x100>
  4038f4:	f106 0901 	add.w	r9, r6, #1
  4038f8:	e722      	b.n	403740 <__sfvwrite_r+0x120>
  4038fa:	f04f 30ff 	mov.w	r0, #4294967295
  4038fe:	e6bf      	b.n	403680 <__sfvwrite_r+0x60>
  403900:	9a00      	ldr	r2, [sp, #0]
  403902:	230c      	movs	r3, #12
  403904:	6013      	str	r3, [r2, #0]
  403906:	f9b4 300c 	ldrsh.w	r3, [r4, #12]
  40390a:	e709      	b.n	403720 <__sfvwrite_r+0x100>
  40390c:	7ffffc00 	.word	0x7ffffc00

00403910 <_fwalk_reent>:
  403910:	e92d 43f8 	stmdb	sp!, {r3, r4, r5, r6, r7, r8, r9, lr}
  403914:	f510 7738 	adds.w	r7, r0, #736	; 0x2e0
  403918:	d01f      	beq.n	40395a <_fwalk_reent+0x4a>
  40391a:	4688      	mov	r8, r1
  40391c:	4606      	mov	r6, r0
  40391e:	f04f 0900 	mov.w	r9, #0
  403922:	687d      	ldr	r5, [r7, #4]
  403924:	68bc      	ldr	r4, [r7, #8]
  403926:	3d01      	subs	r5, #1
  403928:	d411      	bmi.n	40394e <_fwalk_reent+0x3e>
  40392a:	89a3      	ldrh	r3, [r4, #12]
  40392c:	2b01      	cmp	r3, #1
  40392e:	f105 35ff 	add.w	r5, r5, #4294967295
  403932:	d908      	bls.n	403946 <_fwalk_reent+0x36>
  403934:	f9b4 300e 	ldrsh.w	r3, [r4, #14]
  403938:	3301      	adds	r3, #1
  40393a:	4621      	mov	r1, r4
  40393c:	4630      	mov	r0, r6
  40393e:	d002      	beq.n	403946 <_fwalk_reent+0x36>
  403940:	47c0      	blx	r8
  403942:	ea49 0900 	orr.w	r9, r9, r0
  403946:	1c6b      	adds	r3, r5, #1
  403948:	f104 0468 	add.w	r4, r4, #104	; 0x68
  40394c:	d1ed      	bne.n	40392a <_fwalk_reent+0x1a>
  40394e:	683f      	ldr	r7, [r7, #0]
  403950:	2f00      	cmp	r7, #0
  403952:	d1e6      	bne.n	403922 <_fwalk_reent+0x12>
  403954:	4648      	mov	r0, r9
  403956:	e8bd 83f8 	ldmia.w	sp!, {r3, r4, r5, r6, r7, r8, r9, pc}
  40395a:	46b9      	mov	r9, r7
  40395c:	4648      	mov	r0, r9
  40395e:	e8bd 83f8 	ldmia.w	sp!, {r3, r4, r5, r6, r7, r8, r9, pc}
  403962:	bf00      	nop

00403964 <__locale_mb_cur_max>:
  403964:	4b04      	ldr	r3, [pc, #16]	; (403978 <__locale_mb_cur_max+0x14>)
  403966:	4a05      	ldr	r2, [pc, #20]	; (40397c <__locale_mb_cur_max+0x18>)
  403968:	681b      	ldr	r3, [r3, #0]
  40396a:	6b5b      	ldr	r3, [r3, #52]	; 0x34
  40396c:	2b00      	cmp	r3, #0
  40396e:	bf08      	it	eq
  403970:	4613      	moveq	r3, r2
  403972:	f893 0128 	ldrb.w	r0, [r3, #296]	; 0x128
  403976:	4770      	bx	lr
  403978:	20400014 	.word	0x20400014
  40397c:	20400444 	.word	0x20400444

00403980 <__retarget_lock_init_recursive>:
  403980:	4770      	bx	lr
  403982:	bf00      	nop

00403984 <__retarget_lock_close_recursive>:
  403984:	4770      	bx	lr
  403986:	bf00      	nop

00403988 <__retarget_lock_acquire_recursive>:
  403988:	4770      	bx	lr
  40398a:	bf00      	nop

0040398c <__retarget_lock_release_recursive>:
  40398c:	4770      	bx	lr
  40398e:	bf00      	nop

00403990 <__swhatbuf_r>:
  403990:	b570      	push	{r4, r5, r6, lr}
  403992:	460c      	mov	r4, r1
  403994:	f9b1 100e 	ldrsh.w	r1, [r1, #14]
  403998:	2900      	cmp	r1, #0
  40399a:	b090      	sub	sp, #64	; 0x40
  40399c:	4615      	mov	r5, r2
  40399e:	461e      	mov	r6, r3
  4039a0:	db14      	blt.n	4039cc <__swhatbuf_r+0x3c>
  4039a2:	aa01      	add	r2, sp, #4
  4039a4:	f000 ff74 	bl	404890 <_fstat_r>
  4039a8:	2800      	cmp	r0, #0
  4039aa:	db0f      	blt.n	4039cc <__swhatbuf_r+0x3c>
  4039ac:	9a02      	ldr	r2, [sp, #8]
  4039ae:	f402 4270 	and.w	r2, r2, #61440	; 0xf000
  4039b2:	f5a2 5200 	sub.w	r2, r2, #8192	; 0x2000
  4039b6:	fab2 f282 	clz	r2, r2
  4039ba:	0952      	lsrs	r2, r2, #5
  4039bc:	f44f 6380 	mov.w	r3, #1024	; 0x400
  4039c0:	f44f 6000 	mov.w	r0, #2048	; 0x800
  4039c4:	6032      	str	r2, [r6, #0]
  4039c6:	602b      	str	r3, [r5, #0]
  4039c8:	b010      	add	sp, #64	; 0x40
  4039ca:	bd70      	pop	{r4, r5, r6, pc}
  4039cc:	89a2      	ldrh	r2, [r4, #12]
  4039ce:	2300      	movs	r3, #0
  4039d0:	f012 0080 	ands.w	r0, r2, #128	; 0x80
  4039d4:	6033      	str	r3, [r6, #0]
  4039d6:	d004      	beq.n	4039e2 <__swhatbuf_r+0x52>
  4039d8:	2240      	movs	r2, #64	; 0x40
  4039da:	4618      	mov	r0, r3
  4039dc:	602a      	str	r2, [r5, #0]
  4039de:	b010      	add	sp, #64	; 0x40
  4039e0:	bd70      	pop	{r4, r5, r6, pc}
  4039e2:	f44f 6380 	mov.w	r3, #1024	; 0x400
  4039e6:	602b      	str	r3, [r5, #0]
  4039e8:	b010      	add	sp, #64	; 0x40
  4039ea:	bd70      	pop	{r4, r5, r6, pc}

004039ec <__smakebuf_r>:
  4039ec:	898a      	ldrh	r2, [r1, #12]
  4039ee:	0792      	lsls	r2, r2, #30
  4039f0:	460b      	mov	r3, r1
  4039f2:	d506      	bpl.n	403a02 <__smakebuf_r+0x16>
  4039f4:	f101 0243 	add.w	r2, r1, #67	; 0x43
  4039f8:	2101      	movs	r1, #1
  4039fa:	601a      	str	r2, [r3, #0]
  4039fc:	611a      	str	r2, [r3, #16]
  4039fe:	6159      	str	r1, [r3, #20]
  403a00:	4770      	bx	lr
  403a02:	b5f0      	push	{r4, r5, r6, r7, lr}
  403a04:	b083      	sub	sp, #12
  403a06:	ab01      	add	r3, sp, #4
  403a08:	466a      	mov	r2, sp
  403a0a:	460c      	mov	r4, r1
  403a0c:	4606      	mov	r6, r0
  403a0e:	f7ff ffbf 	bl	403990 <__swhatbuf_r>
  403a12:	9900      	ldr	r1, [sp, #0]
  403a14:	4605      	mov	r5, r0
  403a16:	4630      	mov	r0, r6
  403a18:	f000 f83a 	bl	403a90 <_malloc_r>
  403a1c:	f9b4 300c 	ldrsh.w	r3, [r4, #12]
  403a20:	b1d8      	cbz	r0, 403a5a <__smakebuf_r+0x6e>
  403a22:	9a01      	ldr	r2, [sp, #4]
  403a24:	4f15      	ldr	r7, [pc, #84]	; (403a7c <__smakebuf_r+0x90>)
  403a26:	9900      	ldr	r1, [sp, #0]
  403a28:	63f7      	str	r7, [r6, #60]	; 0x3c
  403a2a:	f043 0380 	orr.w	r3, r3, #128	; 0x80
  403a2e:	81a3      	strh	r3, [r4, #12]
  403a30:	6020      	str	r0, [r4, #0]
  403a32:	6120      	str	r0, [r4, #16]
  403a34:	6161      	str	r1, [r4, #20]
  403a36:	b91a      	cbnz	r2, 403a40 <__smakebuf_r+0x54>
  403a38:	432b      	orrs	r3, r5
  403a3a:	81a3      	strh	r3, [r4, #12]
  403a3c:	b003      	add	sp, #12
  403a3e:	bdf0      	pop	{r4, r5, r6, r7, pc}
  403a40:	4630      	mov	r0, r6
  403a42:	f9b4 100e 	ldrsh.w	r1, [r4, #14]
  403a46:	f000 ff37 	bl	4048b8 <_isatty_r>
  403a4a:	b1a0      	cbz	r0, 403a76 <__smakebuf_r+0x8a>
  403a4c:	89a3      	ldrh	r3, [r4, #12]
  403a4e:	f023 0303 	bic.w	r3, r3, #3
  403a52:	f043 0301 	orr.w	r3, r3, #1
  403a56:	b21b      	sxth	r3, r3
  403a58:	e7ee      	b.n	403a38 <__smakebuf_r+0x4c>
  403a5a:	059a      	lsls	r2, r3, #22
  403a5c:	d4ee      	bmi.n	403a3c <__smakebuf_r+0x50>
  403a5e:	f023 0303 	bic.w	r3, r3, #3
  403a62:	f104 0243 	add.w	r2, r4, #67	; 0x43
  403a66:	f043 0302 	orr.w	r3, r3, #2
  403a6a:	2101      	movs	r1, #1
  403a6c:	81a3      	strh	r3, [r4, #12]
  403a6e:	6022      	str	r2, [r4, #0]
  403a70:	6122      	str	r2, [r4, #16]
  403a72:	6161      	str	r1, [r4, #20]
  403a74:	e7e2      	b.n	403a3c <__smakebuf_r+0x50>
  403a76:	f9b4 300c 	ldrsh.w	r3, [r4, #12]
  403a7a:	e7dd      	b.n	403a38 <__smakebuf_r+0x4c>
  403a7c:	004031ad 	.word	0x004031ad

00403a80 <malloc>:
  403a80:	4b02      	ldr	r3, [pc, #8]	; (403a8c <malloc+0xc>)
  403a82:	4601      	mov	r1, r0
  403a84:	6818      	ldr	r0, [r3, #0]
  403a86:	f000 b803 	b.w	403a90 <_malloc_r>
  403a8a:	bf00      	nop
  403a8c:	20400014 	.word	0x20400014

00403a90 <_malloc_r>:
  403a90:	e92d 4ff0 	stmdb	sp!, {r4, r5, r6, r7, r8, r9, sl, fp, lr}
  403a94:	f101 060b 	add.w	r6, r1, #11
  403a98:	2e16      	cmp	r6, #22
  403a9a:	b083      	sub	sp, #12
  403a9c:	4605      	mov	r5, r0
  403a9e:	f240 809e 	bls.w	403bde <_malloc_r+0x14e>
  403aa2:	f036 0607 	bics.w	r6, r6, #7
  403aa6:	f100 80bd 	bmi.w	403c24 <_malloc_r+0x194>
  403aaa:	42b1      	cmp	r1, r6
  403aac:	f200 80ba 	bhi.w	403c24 <_malloc_r+0x194>
  403ab0:	f000 fb6a 	bl	404188 <__malloc_lock>
  403ab4:	f5b6 7ffc 	cmp.w	r6, #504	; 0x1f8
  403ab8:	f0c0 8293 	bcc.w	403fe2 <_malloc_r+0x552>
  403abc:	0a73      	lsrs	r3, r6, #9
  403abe:	f000 80b8 	beq.w	403c32 <_malloc_r+0x1a2>
  403ac2:	2b04      	cmp	r3, #4
  403ac4:	f200 8179 	bhi.w	403dba <_malloc_r+0x32a>
  403ac8:	09b3      	lsrs	r3, r6, #6
  403aca:	f103 0039 	add.w	r0, r3, #57	; 0x39
  403ace:	f103 0e38 	add.w	lr, r3, #56	; 0x38
  403ad2:	00c3      	lsls	r3, r0, #3
  403ad4:	4fbf      	ldr	r7, [pc, #764]	; (403dd4 <_malloc_r+0x344>)
  403ad6:	443b      	add	r3, r7
  403ad8:	f1a3 0108 	sub.w	r1, r3, #8
  403adc:	685c      	ldr	r4, [r3, #4]
  403ade:	42a1      	cmp	r1, r4
  403ae0:	d106      	bne.n	403af0 <_malloc_r+0x60>
  403ae2:	e00c      	b.n	403afe <_malloc_r+0x6e>
  403ae4:	2a00      	cmp	r2, #0
  403ae6:	f280 80aa 	bge.w	403c3e <_malloc_r+0x1ae>
  403aea:	68e4      	ldr	r4, [r4, #12]
  403aec:	42a1      	cmp	r1, r4
  403aee:	d006      	beq.n	403afe <_malloc_r+0x6e>
  403af0:	6863      	ldr	r3, [r4, #4]
  403af2:	f023 0303 	bic.w	r3, r3, #3
  403af6:	1b9a      	subs	r2, r3, r6
  403af8:	2a0f      	cmp	r2, #15
  403afa:	ddf3      	ble.n	403ae4 <_malloc_r+0x54>
  403afc:	4670      	mov	r0, lr
  403afe:	693c      	ldr	r4, [r7, #16]
  403b00:	f8df e2e4 	ldr.w	lr, [pc, #740]	; 403de8 <_malloc_r+0x358>
  403b04:	4574      	cmp	r4, lr
  403b06:	f000 81ab 	beq.w	403e60 <_malloc_r+0x3d0>
  403b0a:	6863      	ldr	r3, [r4, #4]
  403b0c:	f023 0303 	bic.w	r3, r3, #3
  403b10:	1b9a      	subs	r2, r3, r6
  403b12:	2a0f      	cmp	r2, #15
  403b14:	f300 8190 	bgt.w	403e38 <_malloc_r+0x3a8>
  403b18:	2a00      	cmp	r2, #0
  403b1a:	f8c7 e014 	str.w	lr, [r7, #20]
  403b1e:	f8c7 e010 	str.w	lr, [r7, #16]
  403b22:	f280 809d 	bge.w	403c60 <_malloc_r+0x1d0>
  403b26:	f5b3 7f00 	cmp.w	r3, #512	; 0x200
  403b2a:	f080 8161 	bcs.w	403df0 <_malloc_r+0x360>
  403b2e:	08db      	lsrs	r3, r3, #3
  403b30:	f103 0c01 	add.w	ip, r3, #1
  403b34:	1099      	asrs	r1, r3, #2
  403b36:	687a      	ldr	r2, [r7, #4]
  403b38:	f857 803c 	ldr.w	r8, [r7, ip, lsl #3]
  403b3c:	f8c4 8008 	str.w	r8, [r4, #8]
  403b40:	2301      	movs	r3, #1
  403b42:	408b      	lsls	r3, r1
  403b44:	eb07 01cc 	add.w	r1, r7, ip, lsl #3
  403b48:	4313      	orrs	r3, r2
  403b4a:	3908      	subs	r1, #8
  403b4c:	60e1      	str	r1, [r4, #12]
  403b4e:	607b      	str	r3, [r7, #4]
  403b50:	f847 403c 	str.w	r4, [r7, ip, lsl #3]
  403b54:	f8c8 400c 	str.w	r4, [r8, #12]
  403b58:	1082      	asrs	r2, r0, #2
  403b5a:	2401      	movs	r4, #1
  403b5c:	4094      	lsls	r4, r2
  403b5e:	429c      	cmp	r4, r3
  403b60:	f200 808b 	bhi.w	403c7a <_malloc_r+0x1ea>
  403b64:	421c      	tst	r4, r3
  403b66:	d106      	bne.n	403b76 <_malloc_r+0xe6>
  403b68:	f020 0003 	bic.w	r0, r0, #3
  403b6c:	0064      	lsls	r4, r4, #1
  403b6e:	421c      	tst	r4, r3
  403b70:	f100 0004 	add.w	r0, r0, #4
  403b74:	d0fa      	beq.n	403b6c <_malloc_r+0xdc>
  403b76:	eb07 09c0 	add.w	r9, r7, r0, lsl #3
  403b7a:	46cc      	mov	ip, r9
  403b7c:	4680      	mov	r8, r0
  403b7e:	f8dc 300c 	ldr.w	r3, [ip, #12]
  403b82:	459c      	cmp	ip, r3
  403b84:	d107      	bne.n	403b96 <_malloc_r+0x106>
  403b86:	e16d      	b.n	403e64 <_malloc_r+0x3d4>
  403b88:	2a00      	cmp	r2, #0
  403b8a:	f280 817b 	bge.w	403e84 <_malloc_r+0x3f4>
  403b8e:	68db      	ldr	r3, [r3, #12]
  403b90:	459c      	cmp	ip, r3
  403b92:	f000 8167 	beq.w	403e64 <_malloc_r+0x3d4>
  403b96:	6859      	ldr	r1, [r3, #4]
  403b98:	f021 0103 	bic.w	r1, r1, #3
  403b9c:	1b8a      	subs	r2, r1, r6
  403b9e:	2a0f      	cmp	r2, #15
  403ba0:	ddf2      	ble.n	403b88 <_malloc_r+0xf8>
  403ba2:	f8d3 c00c 	ldr.w	ip, [r3, #12]
  403ba6:	f8d3 8008 	ldr.w	r8, [r3, #8]
  403baa:	9300      	str	r3, [sp, #0]
  403bac:	199c      	adds	r4, r3, r6
  403bae:	4628      	mov	r0, r5
  403bb0:	f046 0601 	orr.w	r6, r6, #1
  403bb4:	f042 0501 	orr.w	r5, r2, #1
  403bb8:	605e      	str	r6, [r3, #4]
  403bba:	f8c8 c00c 	str.w	ip, [r8, #12]
  403bbe:	f8cc 8008 	str.w	r8, [ip, #8]
  403bc2:	617c      	str	r4, [r7, #20]
  403bc4:	613c      	str	r4, [r7, #16]
  403bc6:	f8c4 e00c 	str.w	lr, [r4, #12]
  403bca:	f8c4 e008 	str.w	lr, [r4, #8]
  403bce:	6065      	str	r5, [r4, #4]
  403bd0:	505a      	str	r2, [r3, r1]
  403bd2:	f000 fadf 	bl	404194 <__malloc_unlock>
  403bd6:	9b00      	ldr	r3, [sp, #0]
  403bd8:	f103 0408 	add.w	r4, r3, #8
  403bdc:	e01e      	b.n	403c1c <_malloc_r+0x18c>
  403bde:	2910      	cmp	r1, #16
  403be0:	d820      	bhi.n	403c24 <_malloc_r+0x194>
  403be2:	f000 fad1 	bl	404188 <__malloc_lock>
  403be6:	2610      	movs	r6, #16
  403be8:	2318      	movs	r3, #24
  403bea:	2002      	movs	r0, #2
  403bec:	4f79      	ldr	r7, [pc, #484]	; (403dd4 <_malloc_r+0x344>)
  403bee:	443b      	add	r3, r7
  403bf0:	f1a3 0208 	sub.w	r2, r3, #8
  403bf4:	685c      	ldr	r4, [r3, #4]
  403bf6:	4294      	cmp	r4, r2
  403bf8:	f000 813d 	beq.w	403e76 <_malloc_r+0x3e6>
  403bfc:	6863      	ldr	r3, [r4, #4]
  403bfe:	68e1      	ldr	r1, [r4, #12]
  403c00:	68a6      	ldr	r6, [r4, #8]
  403c02:	f023 0303 	bic.w	r3, r3, #3
  403c06:	4423      	add	r3, r4
  403c08:	4628      	mov	r0, r5
  403c0a:	685a      	ldr	r2, [r3, #4]
  403c0c:	60f1      	str	r1, [r6, #12]
  403c0e:	f042 0201 	orr.w	r2, r2, #1
  403c12:	608e      	str	r6, [r1, #8]
  403c14:	605a      	str	r2, [r3, #4]
  403c16:	f000 fabd 	bl	404194 <__malloc_unlock>
  403c1a:	3408      	adds	r4, #8
  403c1c:	4620      	mov	r0, r4
  403c1e:	b003      	add	sp, #12
  403c20:	e8bd 8ff0 	ldmia.w	sp!, {r4, r5, r6, r7, r8, r9, sl, fp, pc}
  403c24:	2400      	movs	r4, #0
  403c26:	230c      	movs	r3, #12
  403c28:	4620      	mov	r0, r4
  403c2a:	602b      	str	r3, [r5, #0]
  403c2c:	b003      	add	sp, #12
  403c2e:	e8bd 8ff0 	ldmia.w	sp!, {r4, r5, r6, r7, r8, r9, sl, fp, pc}
  403c32:	2040      	movs	r0, #64	; 0x40
  403c34:	f44f 7300 	mov.w	r3, #512	; 0x200
  403c38:	f04f 0e3f 	mov.w	lr, #63	; 0x3f
  403c3c:	e74a      	b.n	403ad4 <_malloc_r+0x44>
  403c3e:	4423      	add	r3, r4
  403c40:	68e1      	ldr	r1, [r4, #12]
  403c42:	685a      	ldr	r2, [r3, #4]
  403c44:	68a6      	ldr	r6, [r4, #8]
  403c46:	f042 0201 	orr.w	r2, r2, #1
  403c4a:	60f1      	str	r1, [r6, #12]
  403c4c:	4628      	mov	r0, r5
  403c4e:	608e      	str	r6, [r1, #8]
  403c50:	605a      	str	r2, [r3, #4]
  403c52:	f000 fa9f 	bl	404194 <__malloc_unlock>
  403c56:	3408      	adds	r4, #8
  403c58:	4620      	mov	r0, r4
  403c5a:	b003      	add	sp, #12
  403c5c:	e8bd 8ff0 	ldmia.w	sp!, {r4, r5, r6, r7, r8, r9, sl, fp, pc}
  403c60:	4423      	add	r3, r4
  403c62:	4628      	mov	r0, r5
  403c64:	685a      	ldr	r2, [r3, #4]
  403c66:	f042 0201 	orr.w	r2, r2, #1
  403c6a:	605a      	str	r2, [r3, #4]
  403c6c:	f000 fa92 	bl	404194 <__malloc_unlock>
  403c70:	3408      	adds	r4, #8
  403c72:	4620      	mov	r0, r4
  403c74:	b003      	add	sp, #12
  403c76:	e8bd 8ff0 	ldmia.w	sp!, {r4, r5, r6, r7, r8, r9, sl, fp, pc}
  403c7a:	68bc      	ldr	r4, [r7, #8]
  403c7c:	6863      	ldr	r3, [r4, #4]
  403c7e:	f023 0803 	bic.w	r8, r3, #3
  403c82:	45b0      	cmp	r8, r6
  403c84:	d304      	bcc.n	403c90 <_malloc_r+0x200>
  403c86:	eba8 0306 	sub.w	r3, r8, r6
  403c8a:	2b0f      	cmp	r3, #15
  403c8c:	f300 8085 	bgt.w	403d9a <_malloc_r+0x30a>
  403c90:	f8df 9158 	ldr.w	r9, [pc, #344]	; 403dec <_malloc_r+0x35c>
  403c94:	4b50      	ldr	r3, [pc, #320]	; (403dd8 <_malloc_r+0x348>)
  403c96:	f8d9 2000 	ldr.w	r2, [r9]
  403c9a:	681b      	ldr	r3, [r3, #0]
  403c9c:	3201      	adds	r2, #1
  403c9e:	4433      	add	r3, r6
  403ca0:	eb04 0a08 	add.w	sl, r4, r8
  403ca4:	f000 8155 	beq.w	403f52 <_malloc_r+0x4c2>
  403ca8:	f503 5380 	add.w	r3, r3, #4096	; 0x1000
  403cac:	330f      	adds	r3, #15
  403cae:	f423 6b7f 	bic.w	fp, r3, #4080	; 0xff0
  403cb2:	f02b 0b0f 	bic.w	fp, fp, #15
  403cb6:	4659      	mov	r1, fp
  403cb8:	4628      	mov	r0, r5
  403cba:	f000 fc17 	bl	4044ec <_sbrk_r>
  403cbe:	1c41      	adds	r1, r0, #1
  403cc0:	4602      	mov	r2, r0
  403cc2:	f000 80fc 	beq.w	403ebe <_malloc_r+0x42e>
  403cc6:	4582      	cmp	sl, r0
  403cc8:	f200 80f7 	bhi.w	403eba <_malloc_r+0x42a>
  403ccc:	4b43      	ldr	r3, [pc, #268]	; (403ddc <_malloc_r+0x34c>)
  403cce:	6819      	ldr	r1, [r3, #0]
  403cd0:	4459      	add	r1, fp
  403cd2:	6019      	str	r1, [r3, #0]
  403cd4:	f000 814d 	beq.w	403f72 <_malloc_r+0x4e2>
  403cd8:	f8d9 0000 	ldr.w	r0, [r9]
  403cdc:	3001      	adds	r0, #1
  403cde:	bf1b      	ittet	ne
  403ce0:	eba2 0a0a 	subne.w	sl, r2, sl
  403ce4:	4451      	addne	r1, sl
  403ce6:	f8c9 2000 	streq.w	r2, [r9]
  403cea:	6019      	strne	r1, [r3, #0]
  403cec:	f012 0107 	ands.w	r1, r2, #7
  403cf0:	f000 8115 	beq.w	403f1e <_malloc_r+0x48e>
  403cf4:	f1c1 0008 	rsb	r0, r1, #8
  403cf8:	f5c1 5180 	rsb	r1, r1, #4096	; 0x1000
  403cfc:	4402      	add	r2, r0
  403cfe:	3108      	adds	r1, #8
  403d00:	eb02 090b 	add.w	r9, r2, fp
  403d04:	f3c9 090b 	ubfx	r9, r9, #0, #12
  403d08:	eba1 0909 	sub.w	r9, r1, r9
  403d0c:	4649      	mov	r1, r9
  403d0e:	4628      	mov	r0, r5
  403d10:	9301      	str	r3, [sp, #4]
  403d12:	9200      	str	r2, [sp, #0]
  403d14:	f000 fbea 	bl	4044ec <_sbrk_r>
  403d18:	1c43      	adds	r3, r0, #1
  403d1a:	e89d 000c 	ldmia.w	sp, {r2, r3}
  403d1e:	f000 8143 	beq.w	403fa8 <_malloc_r+0x518>
  403d22:	1a80      	subs	r0, r0, r2
  403d24:	4448      	add	r0, r9
  403d26:	f040 0001 	orr.w	r0, r0, #1
  403d2a:	6819      	ldr	r1, [r3, #0]
  403d2c:	60ba      	str	r2, [r7, #8]
  403d2e:	4449      	add	r1, r9
  403d30:	42bc      	cmp	r4, r7
  403d32:	6050      	str	r0, [r2, #4]
  403d34:	6019      	str	r1, [r3, #0]
  403d36:	d017      	beq.n	403d68 <_malloc_r+0x2d8>
  403d38:	f1b8 0f0f 	cmp.w	r8, #15
  403d3c:	f240 80fb 	bls.w	403f36 <_malloc_r+0x4a6>
  403d40:	6860      	ldr	r0, [r4, #4]
  403d42:	f1a8 020c 	sub.w	r2, r8, #12
  403d46:	f022 0207 	bic.w	r2, r2, #7
  403d4a:	eb04 0e02 	add.w	lr, r4, r2
  403d4e:	f000 0001 	and.w	r0, r0, #1
  403d52:	f04f 0c05 	mov.w	ip, #5
  403d56:	4310      	orrs	r0, r2
  403d58:	2a0f      	cmp	r2, #15
  403d5a:	6060      	str	r0, [r4, #4]
  403d5c:	f8ce c004 	str.w	ip, [lr, #4]
  403d60:	f8ce c008 	str.w	ip, [lr, #8]
  403d64:	f200 8117 	bhi.w	403f96 <_malloc_r+0x506>
  403d68:	4b1d      	ldr	r3, [pc, #116]	; (403de0 <_malloc_r+0x350>)
  403d6a:	68bc      	ldr	r4, [r7, #8]
  403d6c:	681a      	ldr	r2, [r3, #0]
  403d6e:	4291      	cmp	r1, r2
  403d70:	bf88      	it	hi
  403d72:	6019      	strhi	r1, [r3, #0]
  403d74:	4b1b      	ldr	r3, [pc, #108]	; (403de4 <_malloc_r+0x354>)
  403d76:	681a      	ldr	r2, [r3, #0]
  403d78:	4291      	cmp	r1, r2
  403d7a:	6862      	ldr	r2, [r4, #4]
  403d7c:	bf88      	it	hi
  403d7e:	6019      	strhi	r1, [r3, #0]
  403d80:	f022 0203 	bic.w	r2, r2, #3
  403d84:	4296      	cmp	r6, r2
  403d86:	eba2 0306 	sub.w	r3, r2, r6
  403d8a:	d801      	bhi.n	403d90 <_malloc_r+0x300>
  403d8c:	2b0f      	cmp	r3, #15
  403d8e:	dc04      	bgt.n	403d9a <_malloc_r+0x30a>
  403d90:	4628      	mov	r0, r5
  403d92:	f000 f9ff 	bl	404194 <__malloc_unlock>
  403d96:	2400      	movs	r4, #0
  403d98:	e740      	b.n	403c1c <_malloc_r+0x18c>
  403d9a:	19a2      	adds	r2, r4, r6
  403d9c:	f043 0301 	orr.w	r3, r3, #1
  403da0:	f046 0601 	orr.w	r6, r6, #1
  403da4:	6066      	str	r6, [r4, #4]
  403da6:	4628      	mov	r0, r5
  403da8:	60ba      	str	r2, [r7, #8]
  403daa:	6053      	str	r3, [r2, #4]
  403dac:	f000 f9f2 	bl	404194 <__malloc_unlock>
  403db0:	3408      	adds	r4, #8
  403db2:	4620      	mov	r0, r4
  403db4:	b003      	add	sp, #12
  403db6:	e8bd 8ff0 	ldmia.w	sp!, {r4, r5, r6, r7, r8, r9, sl, fp, pc}
  403dba:	2b14      	cmp	r3, #20
  403dbc:	d971      	bls.n	403ea2 <_malloc_r+0x412>
  403dbe:	2b54      	cmp	r3, #84	; 0x54
  403dc0:	f200 80a3 	bhi.w	403f0a <_malloc_r+0x47a>
  403dc4:	0b33      	lsrs	r3, r6, #12
  403dc6:	f103 006f 	add.w	r0, r3, #111	; 0x6f
  403dca:	f103 0e6e 	add.w	lr, r3, #110	; 0x6e
  403dce:	00c3      	lsls	r3, r0, #3
  403dd0:	e680      	b.n	403ad4 <_malloc_r+0x44>
  403dd2:	bf00      	nop
  403dd4:	204005b0 	.word	0x204005b0
  403dd8:	20400a88 	.word	0x20400a88
  403ddc:	20400a58 	.word	0x20400a58
  403de0:	20400a80 	.word	0x20400a80
  403de4:	20400a84 	.word	0x20400a84
  403de8:	204005b8 	.word	0x204005b8
  403dec:	204009b8 	.word	0x204009b8
  403df0:	0a5a      	lsrs	r2, r3, #9
  403df2:	2a04      	cmp	r2, #4
  403df4:	d95b      	bls.n	403eae <_malloc_r+0x41e>
  403df6:	2a14      	cmp	r2, #20
  403df8:	f200 80ae 	bhi.w	403f58 <_malloc_r+0x4c8>
  403dfc:	f102 015c 	add.w	r1, r2, #92	; 0x5c
  403e00:	00c9      	lsls	r1, r1, #3
  403e02:	325b      	adds	r2, #91	; 0x5b
  403e04:	eb07 0c01 	add.w	ip, r7, r1
  403e08:	5879      	ldr	r1, [r7, r1]
  403e0a:	f1ac 0c08 	sub.w	ip, ip, #8
  403e0e:	458c      	cmp	ip, r1
  403e10:	f000 8088 	beq.w	403f24 <_malloc_r+0x494>
  403e14:	684a      	ldr	r2, [r1, #4]
  403e16:	f022 0203 	bic.w	r2, r2, #3
  403e1a:	4293      	cmp	r3, r2
  403e1c:	d273      	bcs.n	403f06 <_malloc_r+0x476>
  403e1e:	6889      	ldr	r1, [r1, #8]
  403e20:	458c      	cmp	ip, r1
  403e22:	d1f7      	bne.n	403e14 <_malloc_r+0x384>
  403e24:	f8dc 200c 	ldr.w	r2, [ip, #12]
  403e28:	687b      	ldr	r3, [r7, #4]
  403e2a:	60e2      	str	r2, [r4, #12]
  403e2c:	f8c4 c008 	str.w	ip, [r4, #8]
  403e30:	6094      	str	r4, [r2, #8]
  403e32:	f8cc 400c 	str.w	r4, [ip, #12]
  403e36:	e68f      	b.n	403b58 <_malloc_r+0xc8>
  403e38:	19a1      	adds	r1, r4, r6
  403e3a:	f046 0c01 	orr.w	ip, r6, #1
  403e3e:	f042 0601 	orr.w	r6, r2, #1
  403e42:	f8c4 c004 	str.w	ip, [r4, #4]
  403e46:	4628      	mov	r0, r5
  403e48:	6179      	str	r1, [r7, #20]
  403e4a:	6139      	str	r1, [r7, #16]
  403e4c:	f8c1 e00c 	str.w	lr, [r1, #12]
  403e50:	f8c1 e008 	str.w	lr, [r1, #8]
  403e54:	604e      	str	r6, [r1, #4]
  403e56:	50e2      	str	r2, [r4, r3]
  403e58:	f000 f99c 	bl	404194 <__malloc_unlock>
  403e5c:	3408      	adds	r4, #8
  403e5e:	e6dd      	b.n	403c1c <_malloc_r+0x18c>
  403e60:	687b      	ldr	r3, [r7, #4]
  403e62:	e679      	b.n	403b58 <_malloc_r+0xc8>
  403e64:	f108 0801 	add.w	r8, r8, #1
  403e68:	f018 0f03 	tst.w	r8, #3
  403e6c:	f10c 0c08 	add.w	ip, ip, #8
  403e70:	f47f ae85 	bne.w	403b7e <_malloc_r+0xee>
  403e74:	e02d      	b.n	403ed2 <_malloc_r+0x442>
  403e76:	68dc      	ldr	r4, [r3, #12]
  403e78:	42a3      	cmp	r3, r4
  403e7a:	bf08      	it	eq
  403e7c:	3002      	addeq	r0, #2
  403e7e:	f43f ae3e 	beq.w	403afe <_malloc_r+0x6e>
  403e82:	e6bb      	b.n	403bfc <_malloc_r+0x16c>
  403e84:	4419      	add	r1, r3
  403e86:	461c      	mov	r4, r3
  403e88:	684a      	ldr	r2, [r1, #4]
  403e8a:	68db      	ldr	r3, [r3, #12]
  403e8c:	f854 6f08 	ldr.w	r6, [r4, #8]!
  403e90:	f042 0201 	orr.w	r2, r2, #1
  403e94:	604a      	str	r2, [r1, #4]
  403e96:	4628      	mov	r0, r5
  403e98:	60f3      	str	r3, [r6, #12]
  403e9a:	609e      	str	r6, [r3, #8]
  403e9c:	f000 f97a 	bl	404194 <__malloc_unlock>
  403ea0:	e6bc      	b.n	403c1c <_malloc_r+0x18c>
  403ea2:	f103 005c 	add.w	r0, r3, #92	; 0x5c
  403ea6:	f103 0e5b 	add.w	lr, r3, #91	; 0x5b
  403eaa:	00c3      	lsls	r3, r0, #3
  403eac:	e612      	b.n	403ad4 <_malloc_r+0x44>
  403eae:	099a      	lsrs	r2, r3, #6
  403eb0:	f102 0139 	add.w	r1, r2, #57	; 0x39
  403eb4:	00c9      	lsls	r1, r1, #3
  403eb6:	3238      	adds	r2, #56	; 0x38
  403eb8:	e7a4      	b.n	403e04 <_malloc_r+0x374>
  403eba:	42bc      	cmp	r4, r7
  403ebc:	d054      	beq.n	403f68 <_malloc_r+0x4d8>
  403ebe:	68bc      	ldr	r4, [r7, #8]
  403ec0:	6862      	ldr	r2, [r4, #4]
  403ec2:	f022 0203 	bic.w	r2, r2, #3
  403ec6:	e75d      	b.n	403d84 <_malloc_r+0x2f4>
  403ec8:	f859 3908 	ldr.w	r3, [r9], #-8
  403ecc:	4599      	cmp	r9, r3
  403ece:	f040 8086 	bne.w	403fde <_malloc_r+0x54e>
  403ed2:	f010 0f03 	tst.w	r0, #3
  403ed6:	f100 30ff 	add.w	r0, r0, #4294967295
  403eda:	d1f5      	bne.n	403ec8 <_malloc_r+0x438>
  403edc:	687b      	ldr	r3, [r7, #4]
  403ede:	ea23 0304 	bic.w	r3, r3, r4
  403ee2:	607b      	str	r3, [r7, #4]
  403ee4:	0064      	lsls	r4, r4, #1
  403ee6:	429c      	cmp	r4, r3
  403ee8:	f63f aec7 	bhi.w	403c7a <_malloc_r+0x1ea>
  403eec:	2c00      	cmp	r4, #0
  403eee:	f43f aec4 	beq.w	403c7a <_malloc_r+0x1ea>
  403ef2:	421c      	tst	r4, r3
  403ef4:	4640      	mov	r0, r8
  403ef6:	f47f ae3e 	bne.w	403b76 <_malloc_r+0xe6>
  403efa:	0064      	lsls	r4, r4, #1
  403efc:	421c      	tst	r4, r3
  403efe:	f100 0004 	add.w	r0, r0, #4
  403f02:	d0fa      	beq.n	403efa <_malloc_r+0x46a>
  403f04:	e637      	b.n	403b76 <_malloc_r+0xe6>
  403f06:	468c      	mov	ip, r1
  403f08:	e78c      	b.n	403e24 <_malloc_r+0x394>
  403f0a:	f5b3 7faa 	cmp.w	r3, #340	; 0x154
  403f0e:	d815      	bhi.n	403f3c <_malloc_r+0x4ac>
  403f10:	0bf3      	lsrs	r3, r6, #15
  403f12:	f103 0078 	add.w	r0, r3, #120	; 0x78
  403f16:	f103 0e77 	add.w	lr, r3, #119	; 0x77
  403f1a:	00c3      	lsls	r3, r0, #3
  403f1c:	e5da      	b.n	403ad4 <_malloc_r+0x44>
  403f1e:	f44f 5180 	mov.w	r1, #4096	; 0x1000
  403f22:	e6ed      	b.n	403d00 <_malloc_r+0x270>
  403f24:	687b      	ldr	r3, [r7, #4]
  403f26:	1092      	asrs	r2, r2, #2
  403f28:	2101      	movs	r1, #1
  403f2a:	fa01 f202 	lsl.w	r2, r1, r2
  403f2e:	4313      	orrs	r3, r2
  403f30:	607b      	str	r3, [r7, #4]
  403f32:	4662      	mov	r2, ip
  403f34:	e779      	b.n	403e2a <_malloc_r+0x39a>
  403f36:	2301      	movs	r3, #1
  403f38:	6053      	str	r3, [r2, #4]
  403f3a:	e729      	b.n	403d90 <_malloc_r+0x300>
  403f3c:	f240 5254 	movw	r2, #1364	; 0x554
  403f40:	4293      	cmp	r3, r2
  403f42:	d822      	bhi.n	403f8a <_malloc_r+0x4fa>
  403f44:	0cb3      	lsrs	r3, r6, #18
  403f46:	f103 007d 	add.w	r0, r3, #125	; 0x7d
  403f4a:	f103 0e7c 	add.w	lr, r3, #124	; 0x7c
  403f4e:	00c3      	lsls	r3, r0, #3
  403f50:	e5c0      	b.n	403ad4 <_malloc_r+0x44>
  403f52:	f103 0b10 	add.w	fp, r3, #16
  403f56:	e6ae      	b.n	403cb6 <_malloc_r+0x226>
  403f58:	2a54      	cmp	r2, #84	; 0x54
  403f5a:	d829      	bhi.n	403fb0 <_malloc_r+0x520>
  403f5c:	0b1a      	lsrs	r2, r3, #12
  403f5e:	f102 016f 	add.w	r1, r2, #111	; 0x6f
  403f62:	00c9      	lsls	r1, r1, #3
  403f64:	326e      	adds	r2, #110	; 0x6e
  403f66:	e74d      	b.n	403e04 <_malloc_r+0x374>
  403f68:	4b20      	ldr	r3, [pc, #128]	; (403fec <_malloc_r+0x55c>)
  403f6a:	6819      	ldr	r1, [r3, #0]
  403f6c:	4459      	add	r1, fp
  403f6e:	6019      	str	r1, [r3, #0]
  403f70:	e6b2      	b.n	403cd8 <_malloc_r+0x248>
  403f72:	f3ca 000b 	ubfx	r0, sl, #0, #12
  403f76:	2800      	cmp	r0, #0
  403f78:	f47f aeae 	bne.w	403cd8 <_malloc_r+0x248>
  403f7c:	eb08 030b 	add.w	r3, r8, fp
  403f80:	68ba      	ldr	r2, [r7, #8]
  403f82:	f043 0301 	orr.w	r3, r3, #1
  403f86:	6053      	str	r3, [r2, #4]
  403f88:	e6ee      	b.n	403d68 <_malloc_r+0x2d8>
  403f8a:	207f      	movs	r0, #127	; 0x7f
  403f8c:	f44f 737e 	mov.w	r3, #1016	; 0x3f8
  403f90:	f04f 0e7e 	mov.w	lr, #126	; 0x7e
  403f94:	e59e      	b.n	403ad4 <_malloc_r+0x44>
  403f96:	f104 0108 	add.w	r1, r4, #8
  403f9a:	4628      	mov	r0, r5
  403f9c:	9300      	str	r3, [sp, #0]
  403f9e:	f7ff fa59 	bl	403454 <_free_r>
  403fa2:	9b00      	ldr	r3, [sp, #0]
  403fa4:	6819      	ldr	r1, [r3, #0]
  403fa6:	e6df      	b.n	403d68 <_malloc_r+0x2d8>
  403fa8:	2001      	movs	r0, #1
  403faa:	f04f 0900 	mov.w	r9, #0
  403fae:	e6bc      	b.n	403d2a <_malloc_r+0x29a>
  403fb0:	f5b2 7faa 	cmp.w	r2, #340	; 0x154
  403fb4:	d805      	bhi.n	403fc2 <_malloc_r+0x532>
  403fb6:	0bda      	lsrs	r2, r3, #15
  403fb8:	f102 0178 	add.w	r1, r2, #120	; 0x78
  403fbc:	00c9      	lsls	r1, r1, #3
  403fbe:	3277      	adds	r2, #119	; 0x77
  403fc0:	e720      	b.n	403e04 <_malloc_r+0x374>
  403fc2:	f240 5154 	movw	r1, #1364	; 0x554
  403fc6:	428a      	cmp	r2, r1
  403fc8:	d805      	bhi.n	403fd6 <_malloc_r+0x546>
  403fca:	0c9a      	lsrs	r2, r3, #18
  403fcc:	f102 017d 	add.w	r1, r2, #125	; 0x7d
  403fd0:	00c9      	lsls	r1, r1, #3
  403fd2:	327c      	adds	r2, #124	; 0x7c
  403fd4:	e716      	b.n	403e04 <_malloc_r+0x374>
  403fd6:	f44f 717e 	mov.w	r1, #1016	; 0x3f8
  403fda:	227e      	movs	r2, #126	; 0x7e
  403fdc:	e712      	b.n	403e04 <_malloc_r+0x374>
  403fde:	687b      	ldr	r3, [r7, #4]
  403fe0:	e780      	b.n	403ee4 <_malloc_r+0x454>
  403fe2:	08f0      	lsrs	r0, r6, #3
  403fe4:	f106 0308 	add.w	r3, r6, #8
  403fe8:	e600      	b.n	403bec <_malloc_r+0x15c>
  403fea:	bf00      	nop
  403fec:	20400a58 	.word	0x20400a58

00403ff0 <__ascii_mbtowc>:
  403ff0:	b082      	sub	sp, #8
  403ff2:	b149      	cbz	r1, 404008 <__ascii_mbtowc+0x18>
  403ff4:	b15a      	cbz	r2, 40400e <__ascii_mbtowc+0x1e>
  403ff6:	b16b      	cbz	r3, 404014 <__ascii_mbtowc+0x24>
  403ff8:	7813      	ldrb	r3, [r2, #0]
  403ffa:	600b      	str	r3, [r1, #0]
  403ffc:	7812      	ldrb	r2, [r2, #0]
  403ffe:	1c10      	adds	r0, r2, #0
  404000:	bf18      	it	ne
  404002:	2001      	movne	r0, #1
  404004:	b002      	add	sp, #8
  404006:	4770      	bx	lr
  404008:	a901      	add	r1, sp, #4
  40400a:	2a00      	cmp	r2, #0
  40400c:	d1f3      	bne.n	403ff6 <__ascii_mbtowc+0x6>
  40400e:	4610      	mov	r0, r2
  404010:	b002      	add	sp, #8
  404012:	4770      	bx	lr
  404014:	f06f 0001 	mvn.w	r0, #1
  404018:	e7f4      	b.n	404004 <__ascii_mbtowc+0x14>
  40401a:	bf00      	nop
  40401c:	0000      	movs	r0, r0
	...

00404020 <memchr>:
  404020:	f001 01ff 	and.w	r1, r1, #255	; 0xff
  404024:	2a10      	cmp	r2, #16
  404026:	db2b      	blt.n	404080 <memchr+0x60>
  404028:	f010 0f07 	tst.w	r0, #7
  40402c:	d008      	beq.n	404040 <memchr+0x20>
  40402e:	f810 3b01 	ldrb.w	r3, [r0], #1
  404032:	3a01      	subs	r2, #1
  404034:	428b      	cmp	r3, r1
  404036:	d02d      	beq.n	404094 <memchr+0x74>
  404038:	f010 0f07 	tst.w	r0, #7
  40403c:	b342      	cbz	r2, 404090 <memchr+0x70>
  40403e:	d1f6      	bne.n	40402e <memchr+0xe>
  404040:	b4f0      	push	{r4, r5, r6, r7}
  404042:	ea41 2101 	orr.w	r1, r1, r1, lsl #8
  404046:	ea41 4101 	orr.w	r1, r1, r1, lsl #16
  40404a:	f022 0407 	bic.w	r4, r2, #7
  40404e:	f07f 0700 	mvns.w	r7, #0
  404052:	2300      	movs	r3, #0
  404054:	e8f0 5602 	ldrd	r5, r6, [r0], #8
  404058:	3c08      	subs	r4, #8
  40405a:	ea85 0501 	eor.w	r5, r5, r1
  40405e:	ea86 0601 	eor.w	r6, r6, r1
  404062:	fa85 f547 	uadd8	r5, r5, r7
  404066:	faa3 f587 	sel	r5, r3, r7
  40406a:	fa86 f647 	uadd8	r6, r6, r7
  40406e:	faa5 f687 	sel	r6, r5, r7
  404072:	b98e      	cbnz	r6, 404098 <memchr+0x78>
  404074:	d1ee      	bne.n	404054 <memchr+0x34>
  404076:	bcf0      	pop	{r4, r5, r6, r7}
  404078:	f001 01ff 	and.w	r1, r1, #255	; 0xff
  40407c:	f002 0207 	and.w	r2, r2, #7
  404080:	b132      	cbz	r2, 404090 <memchr+0x70>
  404082:	f810 3b01 	ldrb.w	r3, [r0], #1
  404086:	3a01      	subs	r2, #1
  404088:	ea83 0301 	eor.w	r3, r3, r1
  40408c:	b113      	cbz	r3, 404094 <memchr+0x74>
  40408e:	d1f8      	bne.n	404082 <memchr+0x62>
  404090:	2000      	movs	r0, #0
  404092:	4770      	bx	lr
  404094:	3801      	subs	r0, #1
  404096:	4770      	bx	lr
  404098:	2d00      	cmp	r5, #0
  40409a:	bf06      	itte	eq
  40409c:	4635      	moveq	r5, r6
  40409e:	3803      	subeq	r0, #3
  4040a0:	3807      	subne	r0, #7
  4040a2:	f015 0f01 	tst.w	r5, #1
  4040a6:	d107      	bne.n	4040b8 <memchr+0x98>
  4040a8:	3001      	adds	r0, #1
  4040aa:	f415 7f80 	tst.w	r5, #256	; 0x100
  4040ae:	bf02      	ittt	eq
  4040b0:	3001      	addeq	r0, #1
  4040b2:	f415 3fc0 	tsteq.w	r5, #98304	; 0x18000
  4040b6:	3001      	addeq	r0, #1
  4040b8:	bcf0      	pop	{r4, r5, r6, r7}
  4040ba:	3801      	subs	r0, #1
  4040bc:	4770      	bx	lr
  4040be:	bf00      	nop

004040c0 <memmove>:
  4040c0:	4288      	cmp	r0, r1
  4040c2:	b5f0      	push	{r4, r5, r6, r7, lr}
  4040c4:	d90d      	bls.n	4040e2 <memmove+0x22>
  4040c6:	188b      	adds	r3, r1, r2
  4040c8:	4298      	cmp	r0, r3
  4040ca:	d20a      	bcs.n	4040e2 <memmove+0x22>
  4040cc:	1884      	adds	r4, r0, r2
  4040ce:	2a00      	cmp	r2, #0
  4040d0:	d051      	beq.n	404176 <memmove+0xb6>
  4040d2:	4622      	mov	r2, r4
  4040d4:	f813 4d01 	ldrb.w	r4, [r3, #-1]!
  4040d8:	f802 4d01 	strb.w	r4, [r2, #-1]!
  4040dc:	4299      	cmp	r1, r3
  4040de:	d1f9      	bne.n	4040d4 <memmove+0x14>
  4040e0:	bdf0      	pop	{r4, r5, r6, r7, pc}
  4040e2:	2a0f      	cmp	r2, #15
  4040e4:	d948      	bls.n	404178 <memmove+0xb8>
  4040e6:	ea41 0300 	orr.w	r3, r1, r0
  4040ea:	079b      	lsls	r3, r3, #30
  4040ec:	d146      	bne.n	40417c <memmove+0xbc>
  4040ee:	f100 0410 	add.w	r4, r0, #16
  4040f2:	f101 0310 	add.w	r3, r1, #16
  4040f6:	4615      	mov	r5, r2
  4040f8:	f853 6c10 	ldr.w	r6, [r3, #-16]
  4040fc:	f844 6c10 	str.w	r6, [r4, #-16]
  404100:	f853 6c0c 	ldr.w	r6, [r3, #-12]
  404104:	f844 6c0c 	str.w	r6, [r4, #-12]
  404108:	f853 6c08 	ldr.w	r6, [r3, #-8]
  40410c:	f844 6c08 	str.w	r6, [r4, #-8]
  404110:	3d10      	subs	r5, #16
  404112:	f853 6c04 	ldr.w	r6, [r3, #-4]
  404116:	f844 6c04 	str.w	r6, [r4, #-4]
  40411a:	2d0f      	cmp	r5, #15
  40411c:	f103 0310 	add.w	r3, r3, #16
  404120:	f104 0410 	add.w	r4, r4, #16
  404124:	d8e8      	bhi.n	4040f8 <memmove+0x38>
  404126:	f1a2 0310 	sub.w	r3, r2, #16
  40412a:	f023 030f 	bic.w	r3, r3, #15
  40412e:	f002 0e0f 	and.w	lr, r2, #15
  404132:	3310      	adds	r3, #16
  404134:	f1be 0f03 	cmp.w	lr, #3
  404138:	4419      	add	r1, r3
  40413a:	4403      	add	r3, r0
  40413c:	d921      	bls.n	404182 <memmove+0xc2>
  40413e:	1f1e      	subs	r6, r3, #4
  404140:	460d      	mov	r5, r1
  404142:	4674      	mov	r4, lr
  404144:	3c04      	subs	r4, #4
  404146:	f855 7b04 	ldr.w	r7, [r5], #4
  40414a:	f846 7f04 	str.w	r7, [r6, #4]!
  40414e:	2c03      	cmp	r4, #3
  404150:	d8f8      	bhi.n	404144 <memmove+0x84>
  404152:	f1ae 0404 	sub.w	r4, lr, #4
  404156:	f024 0403 	bic.w	r4, r4, #3
  40415a:	3404      	adds	r4, #4
  40415c:	4421      	add	r1, r4
  40415e:	4423      	add	r3, r4
  404160:	f002 0203 	and.w	r2, r2, #3
  404164:	b162      	cbz	r2, 404180 <memmove+0xc0>
  404166:	3b01      	subs	r3, #1
  404168:	440a      	add	r2, r1
  40416a:	f811 4b01 	ldrb.w	r4, [r1], #1
  40416e:	f803 4f01 	strb.w	r4, [r3, #1]!
  404172:	428a      	cmp	r2, r1
  404174:	d1f9      	bne.n	40416a <memmove+0xaa>
  404176:	bdf0      	pop	{r4, r5, r6, r7, pc}
  404178:	4603      	mov	r3, r0
  40417a:	e7f3      	b.n	404164 <memmove+0xa4>
  40417c:	4603      	mov	r3, r0
  40417e:	e7f2      	b.n	404166 <memmove+0xa6>
  404180:	bdf0      	pop	{r4, r5, r6, r7, pc}
  404182:	4672      	mov	r2, lr
  404184:	e7ee      	b.n	404164 <memmove+0xa4>
  404186:	bf00      	nop

00404188 <__malloc_lock>:
  404188:	4801      	ldr	r0, [pc, #4]	; (404190 <__malloc_lock+0x8>)
  40418a:	f7ff bbfd 	b.w	403988 <__retarget_lock_acquire_recursive>
  40418e:	bf00      	nop
  404190:	20400ac8 	.word	0x20400ac8

00404194 <__malloc_unlock>:
  404194:	4801      	ldr	r0, [pc, #4]	; (40419c <__malloc_unlock+0x8>)
  404196:	f7ff bbf9 	b.w	40398c <__retarget_lock_release_recursive>
  40419a:	bf00      	nop
  40419c:	20400ac8 	.word	0x20400ac8

004041a0 <_realloc_r>:
  4041a0:	2900      	cmp	r1, #0
  4041a2:	f000 8095 	beq.w	4042d0 <_realloc_r+0x130>
  4041a6:	e92d 4ff0 	stmdb	sp!, {r4, r5, r6, r7, r8, r9, sl, fp, lr}
  4041aa:	460d      	mov	r5, r1
  4041ac:	4616      	mov	r6, r2
  4041ae:	b083      	sub	sp, #12
  4041b0:	4680      	mov	r8, r0
  4041b2:	f106 070b 	add.w	r7, r6, #11
  4041b6:	f7ff ffe7 	bl	404188 <__malloc_lock>
  4041ba:	f855 ec04 	ldr.w	lr, [r5, #-4]
  4041be:	2f16      	cmp	r7, #22
  4041c0:	f02e 0403 	bic.w	r4, lr, #3
  4041c4:	f1a5 0908 	sub.w	r9, r5, #8
  4041c8:	d83c      	bhi.n	404244 <_realloc_r+0xa4>
  4041ca:	2210      	movs	r2, #16
  4041cc:	4617      	mov	r7, r2
  4041ce:	42be      	cmp	r6, r7
  4041d0:	d83d      	bhi.n	40424e <_realloc_r+0xae>
  4041d2:	4294      	cmp	r4, r2
  4041d4:	da43      	bge.n	40425e <_realloc_r+0xbe>
  4041d6:	4bc4      	ldr	r3, [pc, #784]	; (4044e8 <_realloc_r+0x348>)
  4041d8:	6899      	ldr	r1, [r3, #8]
  4041da:	eb09 0004 	add.w	r0, r9, r4
  4041de:	4288      	cmp	r0, r1
  4041e0:	f000 80b4 	beq.w	40434c <_realloc_r+0x1ac>
  4041e4:	6843      	ldr	r3, [r0, #4]
  4041e6:	f023 0101 	bic.w	r1, r3, #1
  4041ea:	4401      	add	r1, r0
  4041ec:	6849      	ldr	r1, [r1, #4]
  4041ee:	07c9      	lsls	r1, r1, #31
  4041f0:	d54c      	bpl.n	40428c <_realloc_r+0xec>
  4041f2:	f01e 0f01 	tst.w	lr, #1
  4041f6:	f000 809b 	beq.w	404330 <_realloc_r+0x190>
  4041fa:	4631      	mov	r1, r6
  4041fc:	4640      	mov	r0, r8
  4041fe:	f7ff fc47 	bl	403a90 <_malloc_r>
  404202:	4606      	mov	r6, r0
  404204:	2800      	cmp	r0, #0
  404206:	d03a      	beq.n	40427e <_realloc_r+0xde>
  404208:	f855 3c04 	ldr.w	r3, [r5, #-4]
  40420c:	f023 0301 	bic.w	r3, r3, #1
  404210:	444b      	add	r3, r9
  404212:	f1a0 0208 	sub.w	r2, r0, #8
  404216:	429a      	cmp	r2, r3
  404218:	f000 8121 	beq.w	40445e <_realloc_r+0x2be>
  40421c:	1f22      	subs	r2, r4, #4
  40421e:	2a24      	cmp	r2, #36	; 0x24
  404220:	f200 8107 	bhi.w	404432 <_realloc_r+0x292>
  404224:	2a13      	cmp	r2, #19
  404226:	f200 80db 	bhi.w	4043e0 <_realloc_r+0x240>
  40422a:	4603      	mov	r3, r0
  40422c:	462a      	mov	r2, r5
  40422e:	6811      	ldr	r1, [r2, #0]
  404230:	6019      	str	r1, [r3, #0]
  404232:	6851      	ldr	r1, [r2, #4]
  404234:	6059      	str	r1, [r3, #4]
  404236:	6892      	ldr	r2, [r2, #8]
  404238:	609a      	str	r2, [r3, #8]
  40423a:	4629      	mov	r1, r5
  40423c:	4640      	mov	r0, r8
  40423e:	f7ff f909 	bl	403454 <_free_r>
  404242:	e01c      	b.n	40427e <_realloc_r+0xde>
  404244:	f027 0707 	bic.w	r7, r7, #7
  404248:	2f00      	cmp	r7, #0
  40424a:	463a      	mov	r2, r7
  40424c:	dabf      	bge.n	4041ce <_realloc_r+0x2e>
  40424e:	2600      	movs	r6, #0
  404250:	230c      	movs	r3, #12
  404252:	4630      	mov	r0, r6
  404254:	f8c8 3000 	str.w	r3, [r8]
  404258:	b003      	add	sp, #12
  40425a:	e8bd 8ff0 	ldmia.w	sp!, {r4, r5, r6, r7, r8, r9, sl, fp, pc}
  40425e:	462e      	mov	r6, r5
  404260:	1be3      	subs	r3, r4, r7
  404262:	2b0f      	cmp	r3, #15
  404264:	d81e      	bhi.n	4042a4 <_realloc_r+0x104>
  404266:	f8d9 3004 	ldr.w	r3, [r9, #4]
  40426a:	f003 0301 	and.w	r3, r3, #1
  40426e:	4323      	orrs	r3, r4
  404270:	444c      	add	r4, r9
  404272:	f8c9 3004 	str.w	r3, [r9, #4]
  404276:	6863      	ldr	r3, [r4, #4]
  404278:	f043 0301 	orr.w	r3, r3, #1
  40427c:	6063      	str	r3, [r4, #4]
  40427e:	4640      	mov	r0, r8
  404280:	f7ff ff88 	bl	404194 <__malloc_unlock>
  404284:	4630      	mov	r0, r6
  404286:	b003      	add	sp, #12
  404288:	e8bd 8ff0 	ldmia.w	sp!, {r4, r5, r6, r7, r8, r9, sl, fp, pc}
  40428c:	f023 0303 	bic.w	r3, r3, #3
  404290:	18e1      	adds	r1, r4, r3
  404292:	4291      	cmp	r1, r2
  404294:	db1f      	blt.n	4042d6 <_realloc_r+0x136>
  404296:	68c3      	ldr	r3, [r0, #12]
  404298:	6882      	ldr	r2, [r0, #8]
  40429a:	462e      	mov	r6, r5
  40429c:	60d3      	str	r3, [r2, #12]
  40429e:	460c      	mov	r4, r1
  4042a0:	609a      	str	r2, [r3, #8]
  4042a2:	e7dd      	b.n	404260 <_realloc_r+0xc0>
  4042a4:	f8d9 2004 	ldr.w	r2, [r9, #4]
  4042a8:	eb09 0107 	add.w	r1, r9, r7
  4042ac:	f002 0201 	and.w	r2, r2, #1
  4042b0:	444c      	add	r4, r9
  4042b2:	f043 0301 	orr.w	r3, r3, #1
  4042b6:	4317      	orrs	r7, r2
  4042b8:	f8c9 7004 	str.w	r7, [r9, #4]
  4042bc:	604b      	str	r3, [r1, #4]
  4042be:	6863      	ldr	r3, [r4, #4]
  4042c0:	f043 0301 	orr.w	r3, r3, #1
  4042c4:	3108      	adds	r1, #8
  4042c6:	6063      	str	r3, [r4, #4]
  4042c8:	4640      	mov	r0, r8
  4042ca:	f7ff f8c3 	bl	403454 <_free_r>
  4042ce:	e7d6      	b.n	40427e <_realloc_r+0xde>
  4042d0:	4611      	mov	r1, r2
  4042d2:	f7ff bbdd 	b.w	403a90 <_malloc_r>
  4042d6:	f01e 0f01 	tst.w	lr, #1
  4042da:	d18e      	bne.n	4041fa <_realloc_r+0x5a>
  4042dc:	f855 1c08 	ldr.w	r1, [r5, #-8]
  4042e0:	eba9 0a01 	sub.w	sl, r9, r1
  4042e4:	f8da 1004 	ldr.w	r1, [sl, #4]
  4042e8:	f021 0103 	bic.w	r1, r1, #3
  4042ec:	440b      	add	r3, r1
  4042ee:	4423      	add	r3, r4
  4042f0:	4293      	cmp	r3, r2
  4042f2:	db25      	blt.n	404340 <_realloc_r+0x1a0>
  4042f4:	68c2      	ldr	r2, [r0, #12]
  4042f6:	6881      	ldr	r1, [r0, #8]
  4042f8:	4656      	mov	r6, sl
  4042fa:	60ca      	str	r2, [r1, #12]
  4042fc:	6091      	str	r1, [r2, #8]
  4042fe:	f8da 100c 	ldr.w	r1, [sl, #12]
  404302:	f856 0f08 	ldr.w	r0, [r6, #8]!
  404306:	1f22      	subs	r2, r4, #4
  404308:	2a24      	cmp	r2, #36	; 0x24
  40430a:	60c1      	str	r1, [r0, #12]
  40430c:	6088      	str	r0, [r1, #8]
  40430e:	f200 8094 	bhi.w	40443a <_realloc_r+0x29a>
  404312:	2a13      	cmp	r2, #19
  404314:	d96f      	bls.n	4043f6 <_realloc_r+0x256>
  404316:	6829      	ldr	r1, [r5, #0]
  404318:	f8ca 1008 	str.w	r1, [sl, #8]
  40431c:	6869      	ldr	r1, [r5, #4]
  40431e:	f8ca 100c 	str.w	r1, [sl, #12]
  404322:	2a1b      	cmp	r2, #27
  404324:	f200 80a2 	bhi.w	40446c <_realloc_r+0x2cc>
  404328:	3508      	adds	r5, #8
  40432a:	f10a 0210 	add.w	r2, sl, #16
  40432e:	e063      	b.n	4043f8 <_realloc_r+0x258>
  404330:	f855 3c08 	ldr.w	r3, [r5, #-8]
  404334:	eba9 0a03 	sub.w	sl, r9, r3
  404338:	f8da 1004 	ldr.w	r1, [sl, #4]
  40433c:	f021 0103 	bic.w	r1, r1, #3
  404340:	1863      	adds	r3, r4, r1
  404342:	4293      	cmp	r3, r2
  404344:	f6ff af59 	blt.w	4041fa <_realloc_r+0x5a>
  404348:	4656      	mov	r6, sl
  40434a:	e7d8      	b.n	4042fe <_realloc_r+0x15e>
  40434c:	6841      	ldr	r1, [r0, #4]
  40434e:	f021 0b03 	bic.w	fp, r1, #3
  404352:	44a3      	add	fp, r4
  404354:	f107 0010 	add.w	r0, r7, #16
  404358:	4583      	cmp	fp, r0
  40435a:	da56      	bge.n	40440a <_realloc_r+0x26a>
  40435c:	f01e 0f01 	tst.w	lr, #1
  404360:	f47f af4b 	bne.w	4041fa <_realloc_r+0x5a>
  404364:	f855 1c08 	ldr.w	r1, [r5, #-8]
  404368:	eba9 0a01 	sub.w	sl, r9, r1
  40436c:	f8da 1004 	ldr.w	r1, [sl, #4]
  404370:	f021 0103 	bic.w	r1, r1, #3
  404374:	448b      	add	fp, r1
  404376:	4558      	cmp	r0, fp
  404378:	dce2      	bgt.n	404340 <_realloc_r+0x1a0>
  40437a:	4656      	mov	r6, sl
  40437c:	f8da 100c 	ldr.w	r1, [sl, #12]
  404380:	f856 0f08 	ldr.w	r0, [r6, #8]!
  404384:	1f22      	subs	r2, r4, #4
  404386:	2a24      	cmp	r2, #36	; 0x24
  404388:	60c1      	str	r1, [r0, #12]
  40438a:	6088      	str	r0, [r1, #8]
  40438c:	f200 808f 	bhi.w	4044ae <_realloc_r+0x30e>
  404390:	2a13      	cmp	r2, #19
  404392:	f240 808a 	bls.w	4044aa <_realloc_r+0x30a>
  404396:	6829      	ldr	r1, [r5, #0]
  404398:	f8ca 1008 	str.w	r1, [sl, #8]
  40439c:	6869      	ldr	r1, [r5, #4]
  40439e:	f8ca 100c 	str.w	r1, [sl, #12]
  4043a2:	2a1b      	cmp	r2, #27
  4043a4:	f200 808a 	bhi.w	4044bc <_realloc_r+0x31c>
  4043a8:	3508      	adds	r5, #8
  4043aa:	f10a 0210 	add.w	r2, sl, #16
  4043ae:	6829      	ldr	r1, [r5, #0]
  4043b0:	6011      	str	r1, [r2, #0]
  4043b2:	6869      	ldr	r1, [r5, #4]
  4043b4:	6051      	str	r1, [r2, #4]
  4043b6:	68a9      	ldr	r1, [r5, #8]
  4043b8:	6091      	str	r1, [r2, #8]
  4043ba:	eb0a 0107 	add.w	r1, sl, r7
  4043be:	ebab 0207 	sub.w	r2, fp, r7
  4043c2:	f042 0201 	orr.w	r2, r2, #1
  4043c6:	6099      	str	r1, [r3, #8]
  4043c8:	604a      	str	r2, [r1, #4]
  4043ca:	f8da 3004 	ldr.w	r3, [sl, #4]
  4043ce:	f003 0301 	and.w	r3, r3, #1
  4043d2:	431f      	orrs	r7, r3
  4043d4:	4640      	mov	r0, r8
  4043d6:	f8ca 7004 	str.w	r7, [sl, #4]
  4043da:	f7ff fedb 	bl	404194 <__malloc_unlock>
  4043de:	e751      	b.n	404284 <_realloc_r+0xe4>
  4043e0:	682b      	ldr	r3, [r5, #0]
  4043e2:	6003      	str	r3, [r0, #0]
  4043e4:	686b      	ldr	r3, [r5, #4]
  4043e6:	6043      	str	r3, [r0, #4]
  4043e8:	2a1b      	cmp	r2, #27
  4043ea:	d82d      	bhi.n	404448 <_realloc_r+0x2a8>
  4043ec:	f100 0308 	add.w	r3, r0, #8
  4043f0:	f105 0208 	add.w	r2, r5, #8
  4043f4:	e71b      	b.n	40422e <_realloc_r+0x8e>
  4043f6:	4632      	mov	r2, r6
  4043f8:	6829      	ldr	r1, [r5, #0]
  4043fa:	6011      	str	r1, [r2, #0]
  4043fc:	6869      	ldr	r1, [r5, #4]
  4043fe:	6051      	str	r1, [r2, #4]
  404400:	68a9      	ldr	r1, [r5, #8]
  404402:	6091      	str	r1, [r2, #8]
  404404:	461c      	mov	r4, r3
  404406:	46d1      	mov	r9, sl
  404408:	e72a      	b.n	404260 <_realloc_r+0xc0>
  40440a:	eb09 0107 	add.w	r1, r9, r7
  40440e:	ebab 0b07 	sub.w	fp, fp, r7
  404412:	f04b 0201 	orr.w	r2, fp, #1
  404416:	6099      	str	r1, [r3, #8]
  404418:	604a      	str	r2, [r1, #4]
  40441a:	f855 3c04 	ldr.w	r3, [r5, #-4]
  40441e:	f003 0301 	and.w	r3, r3, #1
  404422:	431f      	orrs	r7, r3
  404424:	4640      	mov	r0, r8
  404426:	f845 7c04 	str.w	r7, [r5, #-4]
  40442a:	f7ff feb3 	bl	404194 <__malloc_unlock>
  40442e:	462e      	mov	r6, r5
  404430:	e728      	b.n	404284 <_realloc_r+0xe4>
  404432:	4629      	mov	r1, r5
  404434:	f7ff fe44 	bl	4040c0 <memmove>
  404438:	e6ff      	b.n	40423a <_realloc_r+0x9a>
  40443a:	4629      	mov	r1, r5
  40443c:	4630      	mov	r0, r6
  40443e:	461c      	mov	r4, r3
  404440:	46d1      	mov	r9, sl
  404442:	f7ff fe3d 	bl	4040c0 <memmove>
  404446:	e70b      	b.n	404260 <_realloc_r+0xc0>
  404448:	68ab      	ldr	r3, [r5, #8]
  40444a:	6083      	str	r3, [r0, #8]
  40444c:	68eb      	ldr	r3, [r5, #12]
  40444e:	60c3      	str	r3, [r0, #12]
  404450:	2a24      	cmp	r2, #36	; 0x24
  404452:	d017      	beq.n	404484 <_realloc_r+0x2e4>
  404454:	f100 0310 	add.w	r3, r0, #16
  404458:	f105 0210 	add.w	r2, r5, #16
  40445c:	e6e7      	b.n	40422e <_realloc_r+0x8e>
  40445e:	f850 3c04 	ldr.w	r3, [r0, #-4]
  404462:	f023 0303 	bic.w	r3, r3, #3
  404466:	441c      	add	r4, r3
  404468:	462e      	mov	r6, r5
  40446a:	e6f9      	b.n	404260 <_realloc_r+0xc0>
  40446c:	68a9      	ldr	r1, [r5, #8]
  40446e:	f8ca 1010 	str.w	r1, [sl, #16]
  404472:	68e9      	ldr	r1, [r5, #12]
  404474:	f8ca 1014 	str.w	r1, [sl, #20]
  404478:	2a24      	cmp	r2, #36	; 0x24
  40447a:	d00c      	beq.n	404496 <_realloc_r+0x2f6>
  40447c:	3510      	adds	r5, #16
  40447e:	f10a 0218 	add.w	r2, sl, #24
  404482:	e7b9      	b.n	4043f8 <_realloc_r+0x258>
  404484:	692b      	ldr	r3, [r5, #16]
  404486:	6103      	str	r3, [r0, #16]
  404488:	696b      	ldr	r3, [r5, #20]
  40448a:	6143      	str	r3, [r0, #20]
  40448c:	f105 0218 	add.w	r2, r5, #24
  404490:	f100 0318 	add.w	r3, r0, #24
  404494:	e6cb      	b.n	40422e <_realloc_r+0x8e>
  404496:	692a      	ldr	r2, [r5, #16]
  404498:	f8ca 2018 	str.w	r2, [sl, #24]
  40449c:	696a      	ldr	r2, [r5, #20]
  40449e:	f8ca 201c 	str.w	r2, [sl, #28]
  4044a2:	3518      	adds	r5, #24
  4044a4:	f10a 0220 	add.w	r2, sl, #32
  4044a8:	e7a6      	b.n	4043f8 <_realloc_r+0x258>
  4044aa:	4632      	mov	r2, r6
  4044ac:	e77f      	b.n	4043ae <_realloc_r+0x20e>
  4044ae:	4629      	mov	r1, r5
  4044b0:	4630      	mov	r0, r6
  4044b2:	9301      	str	r3, [sp, #4]
  4044b4:	f7ff fe04 	bl	4040c0 <memmove>
  4044b8:	9b01      	ldr	r3, [sp, #4]
  4044ba:	e77e      	b.n	4043ba <_realloc_r+0x21a>
  4044bc:	68a9      	ldr	r1, [r5, #8]
  4044be:	f8ca 1010 	str.w	r1, [sl, #16]
  4044c2:	68e9      	ldr	r1, [r5, #12]
  4044c4:	f8ca 1014 	str.w	r1, [sl, #20]
  4044c8:	2a24      	cmp	r2, #36	; 0x24
  4044ca:	d003      	beq.n	4044d4 <_realloc_r+0x334>
  4044cc:	3510      	adds	r5, #16
  4044ce:	f10a 0218 	add.w	r2, sl, #24
  4044d2:	e76c      	b.n	4043ae <_realloc_r+0x20e>
  4044d4:	692a      	ldr	r2, [r5, #16]
  4044d6:	f8ca 2018 	str.w	r2, [sl, #24]
  4044da:	696a      	ldr	r2, [r5, #20]
  4044dc:	f8ca 201c 	str.w	r2, [sl, #28]
  4044e0:	3518      	adds	r5, #24
  4044e2:	f10a 0220 	add.w	r2, sl, #32
  4044e6:	e762      	b.n	4043ae <_realloc_r+0x20e>
  4044e8:	204005b0 	.word	0x204005b0

004044ec <_sbrk_r>:
  4044ec:	b538      	push	{r3, r4, r5, lr}
  4044ee:	4c07      	ldr	r4, [pc, #28]	; (40450c <_sbrk_r+0x20>)
  4044f0:	2300      	movs	r3, #0
  4044f2:	4605      	mov	r5, r0
  4044f4:	4608      	mov	r0, r1
  4044f6:	6023      	str	r3, [r4, #0]
  4044f8:	f7fc fb64 	bl	400bc4 <_sbrk>
  4044fc:	1c43      	adds	r3, r0, #1
  4044fe:	d000      	beq.n	404502 <_sbrk_r+0x16>
  404500:	bd38      	pop	{r3, r4, r5, pc}
  404502:	6823      	ldr	r3, [r4, #0]
  404504:	2b00      	cmp	r3, #0
  404506:	d0fb      	beq.n	404500 <_sbrk_r+0x14>
  404508:	602b      	str	r3, [r5, #0]
  40450a:	bd38      	pop	{r3, r4, r5, pc}
  40450c:	20400adc 	.word	0x20400adc

00404510 <__sread>:
  404510:	b510      	push	{r4, lr}
  404512:	460c      	mov	r4, r1
  404514:	f9b1 100e 	ldrsh.w	r1, [r1, #14]
  404518:	f000 f9f6 	bl	404908 <_read_r>
  40451c:	2800      	cmp	r0, #0
  40451e:	db03      	blt.n	404528 <__sread+0x18>
  404520:	6d23      	ldr	r3, [r4, #80]	; 0x50
  404522:	4403      	add	r3, r0
  404524:	6523      	str	r3, [r4, #80]	; 0x50
  404526:	bd10      	pop	{r4, pc}
  404528:	89a3      	ldrh	r3, [r4, #12]
  40452a:	f423 5380 	bic.w	r3, r3, #4096	; 0x1000
  40452e:	81a3      	strh	r3, [r4, #12]
  404530:	bd10      	pop	{r4, pc}
  404532:	bf00      	nop

00404534 <__swrite>:
  404534:	e92d 41f0 	stmdb	sp!, {r4, r5, r6, r7, r8, lr}
  404538:	4616      	mov	r6, r2
  40453a:	f9b1 200c 	ldrsh.w	r2, [r1, #12]
  40453e:	461f      	mov	r7, r3
  404540:	05d3      	lsls	r3, r2, #23
  404542:	460c      	mov	r4, r1
  404544:	4605      	mov	r5, r0
  404546:	d507      	bpl.n	404558 <__swrite+0x24>
  404548:	2200      	movs	r2, #0
  40454a:	2302      	movs	r3, #2
  40454c:	f9b1 100e 	ldrsh.w	r1, [r1, #14]
  404550:	f000 f9c4 	bl	4048dc <_lseek_r>
  404554:	f9b4 200c 	ldrsh.w	r2, [r4, #12]
  404558:	f9b4 100e 	ldrsh.w	r1, [r4, #14]
  40455c:	f422 5280 	bic.w	r2, r2, #4096	; 0x1000
  404560:	81a2      	strh	r2, [r4, #12]
  404562:	463b      	mov	r3, r7
  404564:	4632      	mov	r2, r6
  404566:	4628      	mov	r0, r5
  404568:	e8bd 41f0 	ldmia.w	sp!, {r4, r5, r6, r7, r8, lr}
  40456c:	f000 b8a4 	b.w	4046b8 <_write_r>

00404570 <__sseek>:
  404570:	b510      	push	{r4, lr}
  404572:	460c      	mov	r4, r1
  404574:	f9b1 100e 	ldrsh.w	r1, [r1, #14]
  404578:	f000 f9b0 	bl	4048dc <_lseek_r>
  40457c:	89a3      	ldrh	r3, [r4, #12]
  40457e:	1c42      	adds	r2, r0, #1
  404580:	bf0e      	itee	eq
  404582:	f423 5380 	biceq.w	r3, r3, #4096	; 0x1000
  404586:	f443 5380 	orrne.w	r3, r3, #4096	; 0x1000
  40458a:	6520      	strne	r0, [r4, #80]	; 0x50
  40458c:	81a3      	strh	r3, [r4, #12]
  40458e:	bd10      	pop	{r4, pc}

00404590 <__sclose>:
  404590:	f9b1 100e 	ldrsh.w	r1, [r1, #14]
  404594:	f000 b908 	b.w	4047a8 <_close_r>

00404598 <__swbuf_r>:
  404598:	b5f8      	push	{r3, r4, r5, r6, r7, lr}
  40459a:	460d      	mov	r5, r1
  40459c:	4614      	mov	r4, r2
  40459e:	4606      	mov	r6, r0
  4045a0:	b110      	cbz	r0, 4045a8 <__swbuf_r+0x10>
  4045a2:	6b83      	ldr	r3, [r0, #56]	; 0x38
  4045a4:	2b00      	cmp	r3, #0
  4045a6:	d04b      	beq.n	404640 <__swbuf_r+0xa8>
  4045a8:	f9b4 200c 	ldrsh.w	r2, [r4, #12]
  4045ac:	69a3      	ldr	r3, [r4, #24]
  4045ae:	60a3      	str	r3, [r4, #8]
  4045b0:	b291      	uxth	r1, r2
  4045b2:	0708      	lsls	r0, r1, #28
  4045b4:	d539      	bpl.n	40462a <__swbuf_r+0x92>
  4045b6:	6923      	ldr	r3, [r4, #16]
  4045b8:	2b00      	cmp	r3, #0
  4045ba:	d036      	beq.n	40462a <__swbuf_r+0x92>
  4045bc:	b2ed      	uxtb	r5, r5
  4045be:	0489      	lsls	r1, r1, #18
  4045c0:	462f      	mov	r7, r5
  4045c2:	d515      	bpl.n	4045f0 <__swbuf_r+0x58>
  4045c4:	6822      	ldr	r2, [r4, #0]
  4045c6:	6961      	ldr	r1, [r4, #20]
  4045c8:	1ad3      	subs	r3, r2, r3
  4045ca:	428b      	cmp	r3, r1
  4045cc:	da1c      	bge.n	404608 <__swbuf_r+0x70>
  4045ce:	3301      	adds	r3, #1
  4045d0:	68a1      	ldr	r1, [r4, #8]
  4045d2:	1c50      	adds	r0, r2, #1
  4045d4:	3901      	subs	r1, #1
  4045d6:	60a1      	str	r1, [r4, #8]
  4045d8:	6020      	str	r0, [r4, #0]
  4045da:	7015      	strb	r5, [r2, #0]
  4045dc:	6962      	ldr	r2, [r4, #20]
  4045de:	429a      	cmp	r2, r3
  4045e0:	d01a      	beq.n	404618 <__swbuf_r+0x80>
  4045e2:	89a3      	ldrh	r3, [r4, #12]
  4045e4:	07db      	lsls	r3, r3, #31
  4045e6:	d501      	bpl.n	4045ec <__swbuf_r+0x54>
  4045e8:	2d0a      	cmp	r5, #10
  4045ea:	d015      	beq.n	404618 <__swbuf_r+0x80>
  4045ec:	4638      	mov	r0, r7
  4045ee:	bdf8      	pop	{r3, r4, r5, r6, r7, pc}
  4045f0:	6e61      	ldr	r1, [r4, #100]	; 0x64
  4045f2:	f442 5200 	orr.w	r2, r2, #8192	; 0x2000
  4045f6:	f421 5100 	bic.w	r1, r1, #8192	; 0x2000
  4045fa:	81a2      	strh	r2, [r4, #12]
  4045fc:	6822      	ldr	r2, [r4, #0]
  4045fe:	6661      	str	r1, [r4, #100]	; 0x64
  404600:	6961      	ldr	r1, [r4, #20]
  404602:	1ad3      	subs	r3, r2, r3
  404604:	428b      	cmp	r3, r1
  404606:	dbe2      	blt.n	4045ce <__swbuf_r+0x36>
  404608:	4621      	mov	r1, r4
  40460a:	4630      	mov	r0, r6
  40460c:	f7fe fda4 	bl	403158 <_fflush_r>
  404610:	b940      	cbnz	r0, 404624 <__swbuf_r+0x8c>
  404612:	6822      	ldr	r2, [r4, #0]
  404614:	2301      	movs	r3, #1
  404616:	e7db      	b.n	4045d0 <__swbuf_r+0x38>
  404618:	4621      	mov	r1, r4
  40461a:	4630      	mov	r0, r6
  40461c:	f7fe fd9c 	bl	403158 <_fflush_r>
  404620:	2800      	cmp	r0, #0
  404622:	d0e3      	beq.n	4045ec <__swbuf_r+0x54>
  404624:	f04f 37ff 	mov.w	r7, #4294967295
  404628:	e7e0      	b.n	4045ec <__swbuf_r+0x54>
  40462a:	4621      	mov	r1, r4
  40462c:	4630      	mov	r0, r6
  40462e:	f7fe fc7f 	bl	402f30 <__swsetup_r>
  404632:	2800      	cmp	r0, #0
  404634:	d1f6      	bne.n	404624 <__swbuf_r+0x8c>
  404636:	f9b4 200c 	ldrsh.w	r2, [r4, #12]
  40463a:	6923      	ldr	r3, [r4, #16]
  40463c:	b291      	uxth	r1, r2
  40463e:	e7bd      	b.n	4045bc <__swbuf_r+0x24>
  404640:	f7fe fde2 	bl	403208 <__sinit>
  404644:	e7b0      	b.n	4045a8 <__swbuf_r+0x10>
  404646:	bf00      	nop

00404648 <_wcrtomb_r>:
  404648:	b5f0      	push	{r4, r5, r6, r7, lr}
  40464a:	4606      	mov	r6, r0
  40464c:	b085      	sub	sp, #20
  40464e:	461f      	mov	r7, r3
  404650:	b189      	cbz	r1, 404676 <_wcrtomb_r+0x2e>
  404652:	4c10      	ldr	r4, [pc, #64]	; (404694 <_wcrtomb_r+0x4c>)
  404654:	4d10      	ldr	r5, [pc, #64]	; (404698 <_wcrtomb_r+0x50>)
  404656:	6824      	ldr	r4, [r4, #0]
  404658:	6b64      	ldr	r4, [r4, #52]	; 0x34
  40465a:	2c00      	cmp	r4, #0
  40465c:	bf08      	it	eq
  40465e:	462c      	moveq	r4, r5
  404660:	f8d4 40e0 	ldr.w	r4, [r4, #224]	; 0xe0
  404664:	47a0      	blx	r4
  404666:	1c43      	adds	r3, r0, #1
  404668:	d103      	bne.n	404672 <_wcrtomb_r+0x2a>
  40466a:	2200      	movs	r2, #0
  40466c:	238a      	movs	r3, #138	; 0x8a
  40466e:	603a      	str	r2, [r7, #0]
  404670:	6033      	str	r3, [r6, #0]
  404672:	b005      	add	sp, #20
  404674:	bdf0      	pop	{r4, r5, r6, r7, pc}
  404676:	460c      	mov	r4, r1
  404678:	4906      	ldr	r1, [pc, #24]	; (404694 <_wcrtomb_r+0x4c>)
  40467a:	4a07      	ldr	r2, [pc, #28]	; (404698 <_wcrtomb_r+0x50>)
  40467c:	6809      	ldr	r1, [r1, #0]
  40467e:	6b49      	ldr	r1, [r1, #52]	; 0x34
  404680:	2900      	cmp	r1, #0
  404682:	bf08      	it	eq
  404684:	4611      	moveq	r1, r2
  404686:	4622      	mov	r2, r4
  404688:	f8d1 40e0 	ldr.w	r4, [r1, #224]	; 0xe0
  40468c:	a901      	add	r1, sp, #4
  40468e:	47a0      	blx	r4
  404690:	e7e9      	b.n	404666 <_wcrtomb_r+0x1e>
  404692:	bf00      	nop
  404694:	20400014 	.word	0x20400014
  404698:	20400444 	.word	0x20400444

0040469c <__ascii_wctomb>:
  40469c:	b121      	cbz	r1, 4046a8 <__ascii_wctomb+0xc>
  40469e:	2aff      	cmp	r2, #255	; 0xff
  4046a0:	d804      	bhi.n	4046ac <__ascii_wctomb+0x10>
  4046a2:	700a      	strb	r2, [r1, #0]
  4046a4:	2001      	movs	r0, #1
  4046a6:	4770      	bx	lr
  4046a8:	4608      	mov	r0, r1
  4046aa:	4770      	bx	lr
  4046ac:	238a      	movs	r3, #138	; 0x8a
  4046ae:	6003      	str	r3, [r0, #0]
  4046b0:	f04f 30ff 	mov.w	r0, #4294967295
  4046b4:	4770      	bx	lr
  4046b6:	bf00      	nop

004046b8 <_write_r>:
  4046b8:	b570      	push	{r4, r5, r6, lr}
  4046ba:	460d      	mov	r5, r1
  4046bc:	4c08      	ldr	r4, [pc, #32]	; (4046e0 <_write_r+0x28>)
  4046be:	4611      	mov	r1, r2
  4046c0:	4606      	mov	r6, r0
  4046c2:	461a      	mov	r2, r3
  4046c4:	4628      	mov	r0, r5
  4046c6:	2300      	movs	r3, #0
  4046c8:	6023      	str	r3, [r4, #0]
  4046ca:	f7fb fe2b 	bl	400324 <_write>
  4046ce:	1c43      	adds	r3, r0, #1
  4046d0:	d000      	beq.n	4046d4 <_write_r+0x1c>
  4046d2:	bd70      	pop	{r4, r5, r6, pc}
  4046d4:	6823      	ldr	r3, [r4, #0]
  4046d6:	2b00      	cmp	r3, #0
  4046d8:	d0fb      	beq.n	4046d2 <_write_r+0x1a>
  4046da:	6033      	str	r3, [r6, #0]
  4046dc:	bd70      	pop	{r4, r5, r6, pc}
  4046de:	bf00      	nop
  4046e0:	20400adc 	.word	0x20400adc

004046e4 <__register_exitproc>:
  4046e4:	e92d 43f8 	stmdb	sp!, {r3, r4, r5, r6, r7, r8, r9, lr}
  4046e8:	4d2c      	ldr	r5, [pc, #176]	; (40479c <__register_exitproc+0xb8>)
  4046ea:	4606      	mov	r6, r0
  4046ec:	6828      	ldr	r0, [r5, #0]
  4046ee:	4698      	mov	r8, r3
  4046f0:	460f      	mov	r7, r1
  4046f2:	4691      	mov	r9, r2
  4046f4:	f7ff f948 	bl	403988 <__retarget_lock_acquire_recursive>
  4046f8:	4b29      	ldr	r3, [pc, #164]	; (4047a0 <__register_exitproc+0xbc>)
  4046fa:	681c      	ldr	r4, [r3, #0]
  4046fc:	f8d4 3148 	ldr.w	r3, [r4, #328]	; 0x148
  404700:	2b00      	cmp	r3, #0
  404702:	d03e      	beq.n	404782 <__register_exitproc+0x9e>
  404704:	685a      	ldr	r2, [r3, #4]
  404706:	2a1f      	cmp	r2, #31
  404708:	dc1c      	bgt.n	404744 <__register_exitproc+0x60>
  40470a:	f102 0e01 	add.w	lr, r2, #1
  40470e:	b176      	cbz	r6, 40472e <__register_exitproc+0x4a>
  404710:	eb03 0182 	add.w	r1, r3, r2, lsl #2
  404714:	2401      	movs	r4, #1
  404716:	f8c1 9088 	str.w	r9, [r1, #136]	; 0x88
  40471a:	f8d3 0188 	ldr.w	r0, [r3, #392]	; 0x188
  40471e:	4094      	lsls	r4, r2
  404720:	4320      	orrs	r0, r4
  404722:	2e02      	cmp	r6, #2
  404724:	f8c3 0188 	str.w	r0, [r3, #392]	; 0x188
  404728:	f8c1 8108 	str.w	r8, [r1, #264]	; 0x108
  40472c:	d023      	beq.n	404776 <__register_exitproc+0x92>
  40472e:	3202      	adds	r2, #2
  404730:	f8c3 e004 	str.w	lr, [r3, #4]
  404734:	6828      	ldr	r0, [r5, #0]
  404736:	f843 7022 	str.w	r7, [r3, r2, lsl #2]
  40473a:	f7ff f927 	bl	40398c <__retarget_lock_release_recursive>
  40473e:	2000      	movs	r0, #0
  404740:	e8bd 83f8 	ldmia.w	sp!, {r3, r4, r5, r6, r7, r8, r9, pc}
  404744:	4b17      	ldr	r3, [pc, #92]	; (4047a4 <__register_exitproc+0xc0>)
  404746:	b30b      	cbz	r3, 40478c <__register_exitproc+0xa8>
  404748:	f44f 70c8 	mov.w	r0, #400	; 0x190
  40474c:	f7ff f998 	bl	403a80 <malloc>
  404750:	4603      	mov	r3, r0
  404752:	b1d8      	cbz	r0, 40478c <__register_exitproc+0xa8>
  404754:	f8d4 2148 	ldr.w	r2, [r4, #328]	; 0x148
  404758:	6002      	str	r2, [r0, #0]
  40475a:	2100      	movs	r1, #0
  40475c:	6041      	str	r1, [r0, #4]
  40475e:	460a      	mov	r2, r1
  404760:	f8c4 0148 	str.w	r0, [r4, #328]	; 0x148
  404764:	f04f 0e01 	mov.w	lr, #1
  404768:	f8c0 1188 	str.w	r1, [r0, #392]	; 0x188
  40476c:	f8c0 118c 	str.w	r1, [r0, #396]	; 0x18c
  404770:	2e00      	cmp	r6, #0
  404772:	d0dc      	beq.n	40472e <__register_exitproc+0x4a>
  404774:	e7cc      	b.n	404710 <__register_exitproc+0x2c>
  404776:	f8d3 118c 	ldr.w	r1, [r3, #396]	; 0x18c
  40477a:	430c      	orrs	r4, r1
  40477c:	f8c3 418c 	str.w	r4, [r3, #396]	; 0x18c
  404780:	e7d5      	b.n	40472e <__register_exitproc+0x4a>
  404782:	f504 73a6 	add.w	r3, r4, #332	; 0x14c
  404786:	f8c4 3148 	str.w	r3, [r4, #328]	; 0x148
  40478a:	e7bb      	b.n	404704 <__register_exitproc+0x20>
  40478c:	6828      	ldr	r0, [r5, #0]
  40478e:	f7ff f8fd 	bl	40398c <__retarget_lock_release_recursive>
  404792:	f04f 30ff 	mov.w	r0, #4294967295
  404796:	e8bd 83f8 	ldmia.w	sp!, {r3, r4, r5, r6, r7, r8, r9, pc}
  40479a:	bf00      	nop
  40479c:	20400440 	.word	0x20400440
  4047a0:	00404bf8 	.word	0x00404bf8
  4047a4:	00403a81 	.word	0x00403a81

004047a8 <_close_r>:
  4047a8:	b538      	push	{r3, r4, r5, lr}
  4047aa:	4c07      	ldr	r4, [pc, #28]	; (4047c8 <_close_r+0x20>)
  4047ac:	2300      	movs	r3, #0
  4047ae:	4605      	mov	r5, r0
  4047b0:	4608      	mov	r0, r1
  4047b2:	6023      	str	r3, [r4, #0]
  4047b4:	f7fc fa22 	bl	400bfc <_close>
  4047b8:	1c43      	adds	r3, r0, #1
  4047ba:	d000      	beq.n	4047be <_close_r+0x16>
  4047bc:	bd38      	pop	{r3, r4, r5, pc}
  4047be:	6823      	ldr	r3, [r4, #0]
  4047c0:	2b00      	cmp	r3, #0
  4047c2:	d0fb      	beq.n	4047bc <_close_r+0x14>
  4047c4:	602b      	str	r3, [r5, #0]
  4047c6:	bd38      	pop	{r3, r4, r5, pc}
  4047c8:	20400adc 	.word	0x20400adc

004047cc <_fclose_r>:
  4047cc:	b570      	push	{r4, r5, r6, lr}
  4047ce:	b159      	cbz	r1, 4047e8 <_fclose_r+0x1c>
  4047d0:	4605      	mov	r5, r0
  4047d2:	460c      	mov	r4, r1
  4047d4:	b110      	cbz	r0, 4047dc <_fclose_r+0x10>
  4047d6:	6b83      	ldr	r3, [r0, #56]	; 0x38
  4047d8:	2b00      	cmp	r3, #0
  4047da:	d03c      	beq.n	404856 <_fclose_r+0x8a>
  4047dc:	6e63      	ldr	r3, [r4, #100]	; 0x64
  4047de:	07d8      	lsls	r0, r3, #31
  4047e0:	d505      	bpl.n	4047ee <_fclose_r+0x22>
  4047e2:	f9b4 300c 	ldrsh.w	r3, [r4, #12]
  4047e6:	b92b      	cbnz	r3, 4047f4 <_fclose_r+0x28>
  4047e8:	2600      	movs	r6, #0
  4047ea:	4630      	mov	r0, r6
  4047ec:	bd70      	pop	{r4, r5, r6, pc}
  4047ee:	89a3      	ldrh	r3, [r4, #12]
  4047f0:	0599      	lsls	r1, r3, #22
  4047f2:	d53c      	bpl.n	40486e <_fclose_r+0xa2>
  4047f4:	4621      	mov	r1, r4
  4047f6:	4628      	mov	r0, r5
  4047f8:	f7fe fc0e 	bl	403018 <__sflush_r>
  4047fc:	6ae3      	ldr	r3, [r4, #44]	; 0x2c
  4047fe:	4606      	mov	r6, r0
  404800:	b133      	cbz	r3, 404810 <_fclose_r+0x44>
  404802:	69e1      	ldr	r1, [r4, #28]
  404804:	4628      	mov	r0, r5
  404806:	4798      	blx	r3
  404808:	2800      	cmp	r0, #0
  40480a:	bfb8      	it	lt
  40480c:	f04f 36ff 	movlt.w	r6, #4294967295
  404810:	89a3      	ldrh	r3, [r4, #12]
  404812:	061a      	lsls	r2, r3, #24
  404814:	d422      	bmi.n	40485c <_fclose_r+0x90>
  404816:	6b21      	ldr	r1, [r4, #48]	; 0x30
  404818:	b141      	cbz	r1, 40482c <_fclose_r+0x60>
  40481a:	f104 0340 	add.w	r3, r4, #64	; 0x40
  40481e:	4299      	cmp	r1, r3
  404820:	d002      	beq.n	404828 <_fclose_r+0x5c>
  404822:	4628      	mov	r0, r5
  404824:	f7fe fe16 	bl	403454 <_free_r>
  404828:	2300      	movs	r3, #0
  40482a:	6323      	str	r3, [r4, #48]	; 0x30
  40482c:	6c61      	ldr	r1, [r4, #68]	; 0x44
  40482e:	b121      	cbz	r1, 40483a <_fclose_r+0x6e>
  404830:	4628      	mov	r0, r5
  404832:	f7fe fe0f 	bl	403454 <_free_r>
  404836:	2300      	movs	r3, #0
  404838:	6463      	str	r3, [r4, #68]	; 0x44
  40483a:	f7fe fd11 	bl	403260 <__sfp_lock_acquire>
  40483e:	6e63      	ldr	r3, [r4, #100]	; 0x64
  404840:	2200      	movs	r2, #0
  404842:	07db      	lsls	r3, r3, #31
  404844:	81a2      	strh	r2, [r4, #12]
  404846:	d50e      	bpl.n	404866 <_fclose_r+0x9a>
  404848:	6da0      	ldr	r0, [r4, #88]	; 0x58
  40484a:	f7ff f89b 	bl	403984 <__retarget_lock_close_recursive>
  40484e:	f7fe fd0d 	bl	40326c <__sfp_lock_release>
  404852:	4630      	mov	r0, r6
  404854:	bd70      	pop	{r4, r5, r6, pc}
  404856:	f7fe fcd7 	bl	403208 <__sinit>
  40485a:	e7bf      	b.n	4047dc <_fclose_r+0x10>
  40485c:	6921      	ldr	r1, [r4, #16]
  40485e:	4628      	mov	r0, r5
  404860:	f7fe fdf8 	bl	403454 <_free_r>
  404864:	e7d7      	b.n	404816 <_fclose_r+0x4a>
  404866:	6da0      	ldr	r0, [r4, #88]	; 0x58
  404868:	f7ff f890 	bl	40398c <__retarget_lock_release_recursive>
  40486c:	e7ec      	b.n	404848 <_fclose_r+0x7c>
  40486e:	6da0      	ldr	r0, [r4, #88]	; 0x58
  404870:	f7ff f88a 	bl	403988 <__retarget_lock_acquire_recursive>
  404874:	f9b4 300c 	ldrsh.w	r3, [r4, #12]
  404878:	2b00      	cmp	r3, #0
  40487a:	d1bb      	bne.n	4047f4 <_fclose_r+0x28>
  40487c:	6e66      	ldr	r6, [r4, #100]	; 0x64
  40487e:	f016 0601 	ands.w	r6, r6, #1
  404882:	d1b1      	bne.n	4047e8 <_fclose_r+0x1c>
  404884:	6da0      	ldr	r0, [r4, #88]	; 0x58
  404886:	f7ff f881 	bl	40398c <__retarget_lock_release_recursive>
  40488a:	4630      	mov	r0, r6
  40488c:	bd70      	pop	{r4, r5, r6, pc}
  40488e:	bf00      	nop

00404890 <_fstat_r>:
  404890:	b538      	push	{r3, r4, r5, lr}
  404892:	460b      	mov	r3, r1
  404894:	4c07      	ldr	r4, [pc, #28]	; (4048b4 <_fstat_r+0x24>)
  404896:	4605      	mov	r5, r0
  404898:	4611      	mov	r1, r2
  40489a:	4618      	mov	r0, r3
  40489c:	2300      	movs	r3, #0
  40489e:	6023      	str	r3, [r4, #0]
  4048a0:	f7fc f9af 	bl	400c02 <_fstat>
  4048a4:	1c43      	adds	r3, r0, #1
  4048a6:	d000      	beq.n	4048aa <_fstat_r+0x1a>
  4048a8:	bd38      	pop	{r3, r4, r5, pc}
  4048aa:	6823      	ldr	r3, [r4, #0]
  4048ac:	2b00      	cmp	r3, #0
  4048ae:	d0fb      	beq.n	4048a8 <_fstat_r+0x18>
  4048b0:	602b      	str	r3, [r5, #0]
  4048b2:	bd38      	pop	{r3, r4, r5, pc}
  4048b4:	20400adc 	.word	0x20400adc

004048b8 <_isatty_r>:
  4048b8:	b538      	push	{r3, r4, r5, lr}
  4048ba:	4c07      	ldr	r4, [pc, #28]	; (4048d8 <_isatty_r+0x20>)
  4048bc:	2300      	movs	r3, #0
  4048be:	4605      	mov	r5, r0
  4048c0:	4608      	mov	r0, r1
  4048c2:	6023      	str	r3, [r4, #0]
  4048c4:	f7fc f9a2 	bl	400c0c <_isatty>
  4048c8:	1c43      	adds	r3, r0, #1
  4048ca:	d000      	beq.n	4048ce <_isatty_r+0x16>
  4048cc:	bd38      	pop	{r3, r4, r5, pc}
  4048ce:	6823      	ldr	r3, [r4, #0]
  4048d0:	2b00      	cmp	r3, #0
  4048d2:	d0fb      	beq.n	4048cc <_isatty_r+0x14>
  4048d4:	602b      	str	r3, [r5, #0]
  4048d6:	bd38      	pop	{r3, r4, r5, pc}
  4048d8:	20400adc 	.word	0x20400adc

004048dc <_lseek_r>:
  4048dc:	b570      	push	{r4, r5, r6, lr}
  4048de:	460d      	mov	r5, r1
  4048e0:	4c08      	ldr	r4, [pc, #32]	; (404904 <_lseek_r+0x28>)
  4048e2:	4611      	mov	r1, r2
  4048e4:	4606      	mov	r6, r0
  4048e6:	461a      	mov	r2, r3
  4048e8:	4628      	mov	r0, r5
  4048ea:	2300      	movs	r3, #0
  4048ec:	6023      	str	r3, [r4, #0]
  4048ee:	f7fc f98f 	bl	400c10 <_lseek>
  4048f2:	1c43      	adds	r3, r0, #1
  4048f4:	d000      	beq.n	4048f8 <_lseek_r+0x1c>
  4048f6:	bd70      	pop	{r4, r5, r6, pc}
  4048f8:	6823      	ldr	r3, [r4, #0]
  4048fa:	2b00      	cmp	r3, #0
  4048fc:	d0fb      	beq.n	4048f6 <_lseek_r+0x1a>
  4048fe:	6033      	str	r3, [r6, #0]
  404900:	bd70      	pop	{r4, r5, r6, pc}
  404902:	bf00      	nop
  404904:	20400adc 	.word	0x20400adc

00404908 <_read_r>:
  404908:	b570      	push	{r4, r5, r6, lr}
  40490a:	460d      	mov	r5, r1
  40490c:	4c08      	ldr	r4, [pc, #32]	; (404930 <_read_r+0x28>)
  40490e:	4611      	mov	r1, r2
  404910:	4606      	mov	r6, r0
  404912:	461a      	mov	r2, r3
  404914:	4628      	mov	r0, r5
  404916:	2300      	movs	r3, #0
  404918:	6023      	str	r3, [r4, #0]
  40491a:	f7fb fc5b 	bl	4001d4 <_read>
  40491e:	1c43      	adds	r3, r0, #1
  404920:	d000      	beq.n	404924 <_read_r+0x1c>
  404922:	bd70      	pop	{r4, r5, r6, pc}
  404924:	6823      	ldr	r3, [r4, #0]
  404926:	2b00      	cmp	r3, #0
  404928:	d0fb      	beq.n	404922 <_read_r+0x1a>
  40492a:	6033      	str	r3, [r6, #0]
  40492c:	bd70      	pop	{r4, r5, r6, pc}
  40492e:	bf00      	nop
  404930:	20400adc 	.word	0x20400adc
  404934:	00007350 	.word	0x00007350
  404938:	70532d2d 	.word	0x70532d2d
  40493c:	526e2069 	.word	0x526e2069
  404940:	4c343246 	.word	0x4c343246
  404944:	54203130 	.word	0x54203130
  404948:	20747365 	.word	0x20747365
  40494c:	0a0d2d2d 	.word	0x0a0d2d2d
  404950:	53202d2d 	.word	0x53202d2d
  404954:	37454d41 	.word	0x37454d41
  404958:	50582d30 	.word	0x50582d30
  40495c:	2d20444c 	.word	0x2d20444c
  404960:	2d0a0d2d 	.word	0x2d0a0d2d
  404964:	6f43202d 	.word	0x6f43202d
  404968:	6c69706d 	.word	0x6c69706d
  40496c:	203a6465 	.word	0x203a6465
  404970:	20677541 	.word	0x20677541
  404974:	32203033 	.word	0x32203033
  404978:	20303230 	.word	0x20303230
  40497c:	313a3831 	.word	0x313a3831
  404980:	35323a32 	.word	0x35323a32
  404984:	0d2d2d20 	.word	0x0d2d2d20
  404988:	00000000 	.word	0x00000000
  40498c:	74746553 	.word	0x74746553
  404990:	20676e69 	.word	0x20676e69
  404994:	20495053 	.word	0x20495053
  404998:	636f6c63 	.word	0x636f6c63
  40499c:	2523206b 	.word	0x2523206b
  4049a0:	2e20756c 	.word	0x2e20756c
  4049a4:	0a202e2e 	.word	0x0a202e2e
  4049a8:	0000000d 	.word	0x0000000d
  4049ac:	202d492d 	.word	0x202d492d
  4049b0:	74696e49 	.word	0x74696e49
  4049b4:	696c6169 	.word	0x696c6169
  4049b8:	5320657a 	.word	0x5320657a
  4049bc:	61204950 	.word	0x61204950
  4049c0:	616d2073 	.word	0x616d2073
  4049c4:	72657473 	.word	0x72657473
  4049c8:	0000000d 	.word	0x0000000d
  4049cc:	6d6d6f63 	.word	0x6d6d6f63
  4049d0:	6f646e61 	.word	0x6f646e61
  4049d4:	20642520 	.word	0x20642520
  4049d8:	646e6573 	.word	0x646e6573
  4049dc:	206f7420 	.word	0x206f7420
  4049e0:	0d646c25 	.word	0x0d646c25
  4049e4:	0000000a 	.word	0x0000000a
  4049e8:	6e617274 	.word	0x6e617274
  4049ec:	73696d73 	.word	0x73696d73
  4049f0:	6e6f6973 	.word	0x6e6f6973
  4049f4:	69616620 	.word	0x69616620
  4049f8:	2064656c 	.word	0x2064656c
  4049fc:	00000d0a 	.word	0x00000d0a
  404a00:	6d6d6f63 	.word	0x6d6d6f63
  404a04:	6f646e61 	.word	0x6f646e61
  404a08:	0d642520 	.word	0x0d642520
  404a0c:	0000000a 	.word	0x0000000a

00404a10 <pipe_enable_s>:
  404a10:	03020100 00000504                       ........

00404a18 <pipe_s>:
  404a18:	0d0c0b0a 00000f0e                       ........

00404a20 <pipe_size_s>:
  404a20:	14131211 00001615 20495053 65657053     ........SPI Spee
  404a30:	3d200964 646c2520 7a484d20 00000a0d     d. = %ld MHz....
  404a40:	415f5852 5f524444 312d3050 00000000     RX_ADDR_P0-1....
  404a50:	415f5852 5f524444 352d3250 00000000     RX_ADDR_P2-5....
  404a60:	415f5854 09524444 00000000 505f5852     TX_ADDR.....RX_P
  404a70:	30505f57 0000352d 55544553 57415f50     W_P0-5..SETUP_AW
  404a80:	00000000 415f4e45 00000941 525f4e45     ....EN_AA...EN_R
  404a90:	44444158 00000052 435f4652 00000948     XADDR...RF_CH...
  404aa0:	535f4652 50555445 00000000 464e4f43     RF_SETUP....CONF
  404ab0:	00094749 504e5944 45462f44 52555441     IG..DYNPD/FEATUR
  404ac0:	00000045 61746144 74615220 3d200965     E...Data Rate. =
  404ad0:	0d732520 0000000a 65646f4d 2009096c      %s.....Model.. 
  404ae0:	7325203d 00000a0d 20435243 676e654c     = %s....CRC Leng
  404af0:	20096874 7325203d 00000a0d 50204150     th. = %s....PA P
  404b00:	7265776f 203d2009 0a0d7325 00000000     ower. = %s......
  404b10:	00097325 00783020 78323025 00000000     %s.. 0x.%02x....
  404b20:	25783020 00783230 54415453 09095355      0x%02x.STATUS..
  404b30:	30203d20 32302578 58522078 3d52445f      = 0x%02x RX_DR=
  404b40:	54207825 53445f58 2078253d 5f58414d     %x TX_DS=%x MAX_
  404b50:	253d5452 58522078 4e5f505f 78253d4f     RT=%x RX_P_NO=%x
  404b60:	5f585420 4c4c5546 0d78253d 0000000a      TX_FULL=%x.....

00404b70 <rf24_crclength_e_str_0>:
  404b70:	61736944 64656c62 00000000              Disabled....

00404b7c <rf24_crclength_e_str_1>:
  404b7c:	69622038 00007374                       8 bits..

00404b84 <rf24_crclength_e_str_2>:
  404b84:	62203631 00737469                       16 bits.

00404b8c <rf24_crclength_e_str_P>:
  404b8c:	00404b70 00404b7c 00404b84              pK@.|K@..K@.

00404b98 <rf24_datarate_e_str_0>:
  404b98:	50424d31 00000053                       1MBPS...

00404ba0 <rf24_datarate_e_str_1>:
  404ba0:	50424d32 00000053                       2MBPS...

00404ba8 <rf24_datarate_e_str_2>:
  404ba8:	4b303532 00535042                       250KBPS.

00404bb0 <rf24_datarate_e_str_P>:
  404bb0:	00404b98 00404ba0 00404ba8              .K@..K@..K@.

00404bbc <rf24_model_e_str_1>:
  404bbc:	3246526e 31304c34 0000002b              nRF24L01+...

00404bc8 <rf24_pa_dbm_e_str_0>:
  404bc8:	4d5f4150 00004e49                       PA_MIN..

00404bd0 <rf24_pa_dbm_e_str_1>:
  404bd0:	4c5f4150 0000574f                       PA_LOW..

00404bd8 <rf24_pa_dbm_e_str_2>:
  404bd8:	485f4150 00484749                       PA_HIGH.

00404be0 <rf24_pa_dbm_e_str_3>:
  404be0:	4d5f4150 00005841                       PA_MAX..

00404be8 <rf24_pa_dbm_e_str_P>:
  404be8:	00404bc8 00404bd0 00404bd8 00404be0     .K@..K@..K@..K@.

00404bf8 <_global_impure_ptr>:
  404bf8:	20400018 33323130 37363534 42413938     ..@ 0123456789AB
  404c08:	46454443 00000000 33323130 37363534     CDEF....01234567
  404c18:	62613938 66656463 00000000 6c756e28     89abcdef....(nul
  404c28:	0000296c                                l)..

00404c2c <blanks.7217>:
  404c2c:	20202020 20202020 20202020 20202020                     

00404c3c <zeroes.7218>:
  404c3c:	30303030 30303030 30303030 30303030     0000000000000000
  404c4c:	00000043 49534f50 00000058 0000002e     C...POSIX.......

00404c5c <_ctype_>:
  404c5c:	20202000 20202020 28282020 20282828     .         ((((( 
  404c6c:	20202020 20202020 20202020 20202020                     
  404c7c:	10108820 10101010 10101010 10101010      ...............
  404c8c:	04040410 04040404 10040404 10101010     ................
  404c9c:	41411010 41414141 01010101 01010101     ..AAAAAA........
  404cac:	01010101 01010101 01010101 10101010     ................
  404cbc:	42421010 42424242 02020202 02020202     ..BBBBBB........
  404ccc:	02020202 02020202 02020202 10101010     ................
  404cdc:	00000020 00000000 00000000 00000000      ...............
	...

00404d60 <_init>:
  404d60:	b5f8      	push	{r3, r4, r5, r6, r7, lr}
  404d62:	bf00      	nop
  404d64:	bcf8      	pop	{r3, r4, r5, r6, r7}
  404d66:	bc08      	pop	{r3}
  404d68:	469e      	mov	lr, r3
  404d6a:	4770      	bx	lr

00404d6c <__init_array_start>:
  404d6c:	00402ff9 	.word	0x00402ff9

00404d70 <__frame_dummy_init_array_entry>:
  404d70:	0040018d                                ..@.

00404d74 <_fini>:
  404d74:	b5f8      	push	{r3, r4, r5, r6, r7, lr}
  404d76:	bf00      	nop
  404d78:	bcf8      	pop	{r3, r4, r5, r6, r7}
  404d7a:	bc08      	pop	{r3}
  404d7c:	469e      	mov	lr, r3
  404d7e:	4770      	bx	lr

00404d80 <__fini_array_start>:
  404d80:	00400169 	.word	0x00400169

Disassembly of section .relocate:

20400000 <portable_delay_cycles>:
RAMFUNC
void portable_delay_cycles(unsigned long n)
{
	UNUSED(n);

	__asm (
20400000:	f3bf 8f5f 	dmb	sy
20400004:	3801      	subs	r0, #1
20400006:	d1fb      	bne.n	20400000 <portable_delay_cycles>
20400008:	4770      	bx	lr

2040000a <g_interrupt_enabled>:
2040000a:	0001                                        ..

2040000c <SystemCoreClock>:
2040000c:	0900 003d                                   ..=.

20400010 <payload_size>:
20400010:	0020 0000                                    ...

20400014 <_impure_ptr>:
20400014:	0018 2040                                   ..@ 

20400018 <impure_data>:
20400018:	0000 0000 0304 2040 036c 2040 03d4 2040     ......@ l.@ ..@ 
	...
204000c0:	0001 0000 0000 0000 330e abcd 1234 e66d     .........3..4.m.
204000d0:	deec 0005 000b 0000 0000 0000 0000 0000     ................
	...

20400440 <__atexit_recursive_mutex>:
20400440:	0ab8 2040                                   ..@ 

20400444 <__global_locale>:
20400444:	0043 0000 0000 0000 0000 0000 0000 0000     C...............
	...
20400464:	0043 0000 0000 0000 0000 0000 0000 0000     C...............
	...
20400484:	0043 0000 0000 0000 0000 0000 0000 0000     C...............
	...
204004a4:	0043 0000 0000 0000 0000 0000 0000 0000     C...............
	...
204004c4:	0043 0000 0000 0000 0000 0000 0000 0000     C...............
	...
204004e4:	0043 0000 0000 0000 0000 0000 0000 0000     C...............
	...
20400504:	0043 0000 0000 0000 0000 0000 0000 0000     C...............
	...
20400524:	469d 0040 3ff1 0040 0000 0000 4c5c 0040     .F@..?@.....\L@.
20400534:	4c58 0040 4a68 0040 4a68 0040 4a68 0040     XL@.hJ@.hJ@.hJ@.
20400544:	4a68 0040 4a68 0040 4a68 0040 4a68 0040     hJ@.hJ@.hJ@.hJ@.
20400554:	4a68 0040 4a68 0040 ffff ffff ffff ffff     hJ@.hJ@.........
20400564:	ffff ffff ffff 0000 0001 5341 4943 0049     ..........ASCII.
	...
2040058c:	0000 5341 4943 0049 0000 0000 0000 0000     ..ASCII.........
	...

204005b0 <__malloc_av_>:
	...
204005b8:	05b0 2040 05b0 2040 05b8 2040 05b8 2040     ..@ ..@ ..@ ..@ 
204005c8:	05c0 2040 05c0 2040 05c8 2040 05c8 2040     ..@ ..@ ..@ ..@ 
204005d8:	05d0 2040 05d0 2040 05d8 2040 05d8 2040     ..@ ..@ ..@ ..@ 
204005e8:	05e0 2040 05e0 2040 05e8 2040 05e8 2040     ..@ ..@ ..@ ..@ 
204005f8:	05f0 2040 05f0 2040 05f8 2040 05f8 2040     ..@ ..@ ..@ ..@ 
20400608:	0600 2040 0600 2040 0608 2040 0608 2040     ..@ ..@ ..@ ..@ 
20400618:	0610 2040 0610 2040 0618 2040 0618 2040     ..@ ..@ ..@ ..@ 
20400628:	0620 2040 0620 2040 0628 2040 0628 2040      .@  .@ (.@ (.@ 
20400638:	0630 2040 0630 2040 0638 2040 0638 2040     0.@ 0.@ 8.@ 8.@ 
20400648:	0640 2040 0640 2040 0648 2040 0648 2040     @.@ @.@ H.@ H.@ 
20400658:	0650 2040 0650 2040 0658 2040 0658 2040     P.@ P.@ X.@ X.@ 
20400668:	0660 2040 0660 2040 0668 2040 0668 2040     `.@ `.@ h.@ h.@ 
20400678:	0670 2040 0670 2040 0678 2040 0678 2040     p.@ p.@ x.@ x.@ 
20400688:	0680 2040 0680 2040 0688 2040 0688 2040     ..@ ..@ ..@ ..@ 
20400698:	0690 2040 0690 2040 0698 2040 0698 2040     ..@ ..@ ..@ ..@ 
204006a8:	06a0 2040 06a0 2040 06a8 2040 06a8 2040     ..@ ..@ ..@ ..@ 
204006b8:	06b0 2040 06b0 2040 06b8 2040 06b8 2040     ..@ ..@ ..@ ..@ 
204006c8:	06c0 2040 06c0 2040 06c8 2040 06c8 2040     ..@ ..@ ..@ ..@ 
204006d8:	06d0 2040 06d0 2040 06d8 2040 06d8 2040     ..@ ..@ ..@ ..@ 
204006e8:	06e0 2040 06e0 2040 06e8 2040 06e8 2040     ..@ ..@ ..@ ..@ 
204006f8:	06f0 2040 06f0 2040 06f8 2040 06f8 2040     ..@ ..@ ..@ ..@ 
20400708:	0700 2040 0700 2040 0708 2040 0708 2040     ..@ ..@ ..@ ..@ 
20400718:	0710 2040 0710 2040 0718 2040 0718 2040     ..@ ..@ ..@ ..@ 
20400728:	0720 2040 0720 2040 0728 2040 0728 2040      .@  .@ (.@ (.@ 
20400738:	0730 2040 0730 2040 0738 2040 0738 2040     0.@ 0.@ 8.@ 8.@ 
20400748:	0740 2040 0740 2040 0748 2040 0748 2040     @.@ @.@ H.@ H.@ 
20400758:	0750 2040 0750 2040 0758 2040 0758 2040     P.@ P.@ X.@ X.@ 
20400768:	0760 2040 0760 2040 0768 2040 0768 2040     `.@ `.@ h.@ h.@ 
20400778:	0770 2040 0770 2040 0778 2040 0778 2040     p.@ p.@ x.@ x.@ 
20400788:	0780 2040 0780 2040 0788 2040 0788 2040     ..@ ..@ ..@ ..@ 
20400798:	0790 2040 0790 2040 0798 2040 0798 2040     ..@ ..@ ..@ ..@ 
204007a8:	07a0 2040 07a0 2040 07a8 2040 07a8 2040     ..@ ..@ ..@ ..@ 
204007b8:	07b0 2040 07b0 2040 07b8 2040 07b8 2040     ..@ ..@ ..@ ..@ 
204007c8:	07c0 2040 07c0 2040 07c8 2040 07c8 2040     ..@ ..@ ..@ ..@ 
204007d8:	07d0 2040 07d0 2040 07d8 2040 07d8 2040     ..@ ..@ ..@ ..@ 
204007e8:	07e0 2040 07e0 2040 07e8 2040 07e8 2040     ..@ ..@ ..@ ..@ 
204007f8:	07f0 2040 07f0 2040 07f8 2040 07f8 2040     ..@ ..@ ..@ ..@ 
20400808:	0800 2040 0800 2040 0808 2040 0808 2040     ..@ ..@ ..@ ..@ 
20400818:	0810 2040 0810 2040 0818 2040 0818 2040     ..@ ..@ ..@ ..@ 
20400828:	0820 2040 0820 2040 0828 2040 0828 2040      .@  .@ (.@ (.@ 
20400838:	0830 2040 0830 2040 0838 2040 0838 2040     0.@ 0.@ 8.@ 8.@ 
20400848:	0840 2040 0840 2040 0848 2040 0848 2040     @.@ @.@ H.@ H.@ 
20400858:	0850 2040 0850 2040 0858 2040 0858 2040     P.@ P.@ X.@ X.@ 
20400868:	0860 2040 0860 2040 0868 2040 0868 2040     `.@ `.@ h.@ h.@ 
20400878:	0870 2040 0870 2040 0878 2040 0878 2040     p.@ p.@ x.@ x.@ 
20400888:	0880 2040 0880 2040 0888 2040 0888 2040     ..@ ..@ ..@ ..@ 
20400898:	0890 2040 0890 2040 0898 2040 0898 2040     ..@ ..@ ..@ ..@ 
204008a8:	08a0 2040 08a0 2040 08a8 2040 08a8 2040     ..@ ..@ ..@ ..@ 
204008b8:	08b0 2040 08b0 2040 08b8 2040 08b8 2040     ..@ ..@ ..@ ..@ 
204008c8:	08c0 2040 08c0 2040 08c8 2040 08c8 2040     ..@ ..@ ..@ ..@ 
204008d8:	08d0 2040 08d0 2040 08d8 2040 08d8 2040     ..@ ..@ ..@ ..@ 
204008e8:	08e0 2040 08e0 2040 08e8 2040 08e8 2040     ..@ ..@ ..@ ..@ 
204008f8:	08f0 2040 08f0 2040 08f8 2040 08f8 2040     ..@ ..@ ..@ ..@ 
20400908:	0900 2040 0900 2040 0908 2040 0908 2040     ..@ ..@ ..@ ..@ 
20400918:	0910 2040 0910 2040 0918 2040 0918 2040     ..@ ..@ ..@ ..@ 
20400928:	0920 2040 0920 2040 0928 2040 0928 2040      .@  .@ (.@ (.@ 
20400938:	0930 2040 0930 2040 0938 2040 0938 2040     0.@ 0.@ 8.@ 8.@ 
20400948:	0940 2040 0940 2040 0948 2040 0948 2040     @.@ @.@ H.@ H.@ 
20400958:	0950 2040 0950 2040 0958 2040 0958 2040     P.@ P.@ X.@ X.@ 
20400968:	0960 2040 0960 2040 0968 2040 0968 2040     `.@ `.@ h.@ h.@ 
20400978:	0970 2040 0970 2040 0978 2040 0978 2040     p.@ p.@ x.@ x.@ 
20400988:	0980 2040 0980 2040 0988 2040 0988 2040     ..@ ..@ ..@ ..@ 
20400998:	0990 2040 0990 2040 0998 2040 0998 2040     ..@ ..@ ..@ ..@ 
204009a8:	09a0 2040 09a0 2040 09a8 2040 09a8 2040     ..@ ..@ ..@ ..@ 

204009b8 <__malloc_sbrk_base>:
204009b8:	ffff ffff                                   ....

204009bc <__malloc_trim_threshold>:
204009bc:	0000 0002                                   ....
