
nRF24L01_SPI.elf:     file format elf32-littlearm

Sections:
Idx Name          Size      VMA       LMA       File off  Algn
  0 .text         0000480c  00400000  00400000  00010000  2**6
                  CONTENTS, ALLOC, LOAD, READONLY, CODE
  1 .ARM.exidx    00000008  0040480c  0040480c  0001480c  2**2
                  CONTENTS, ALLOC, LOAD, READONLY, DATA
  2 .relocate     000009c0  20400000  00404814  00020000  2**3
                  CONTENTS, ALLOC, LOAD, CODE
  3 .bss          00000124  204009c0  004051d4  000209c0  2**2
                  ALLOC
  4 .stack        00002004  20400ae4  004052f8  000209c0  2**0
                  ALLOC
  5 .heap         00000200  20402ae8  004072fc  000209c0  2**0
                  ALLOC
  6 .ARM.attributes 0000002e  00000000  00000000  000209c0  2**0
                  CONTENTS, READONLY
  7 .comment      00000059  00000000  00000000  000209ee  2**0
                  CONTENTS, READONLY
  8 .debug_info   0001688a  00000000  00000000  00020a47  2**0
                  CONTENTS, READONLY, DEBUGGING
  9 .debug_abbrev 00002f1c  00000000  00000000  000372d1  2**0
                  CONTENTS, READONLY, DEBUGGING
 10 .debug_aranges 00000b78  00000000  00000000  0003a1ed  2**0
                  CONTENTS, READONLY, DEBUGGING
 11 .debug_ranges 00000b98  00000000  00000000  0003ad65  2**0
                  CONTENTS, READONLY, DEBUGGING
 12 .debug_macro  00020239  00000000  00000000  0003b8fd  2**0
                  CONTENTS, READONLY, DEBUGGING
 13 .debug_line   0000beb7  00000000  00000000  0005bb36  2**0
                  CONTENTS, READONLY, DEBUGGING
 14 .debug_str    00094b79  00000000  00000000  000679ed  2**0
                  CONTENTS, READONLY, DEBUGGING
 15 .debug_frame  0000268c  00000000  00000000  000fc568  2**2
                  CONTENTS, READONLY, DEBUGGING
 16 .debug_loc    0000551f  00000000  00000000  000febf4  2**0
                  CONTENTS, READONLY, DEBUGGING

Disassembly of section .text:

00400000 <exception_table>:
  400000:	e8 2a 40 20 65 09 40 00 61 09 40 00 61 09 40 00     .*@ e.@.a.@.a.@.
  400010:	61 09 40 00 61 09 40 00 61 09 40 00 00 00 00 00     a.@.a.@.a.@.....
	...
  40002c:	61 09 40 00 61 09 40 00 00 00 00 00 61 09 40 00     a.@.a.@.....a.@.
  40003c:	61 09 40 00 61 09 40 00 61 09 40 00 61 09 40 00     a.@.a.@.a.@.a.@.
  40004c:	61 09 40 00 61 09 40 00 61 09 40 00 61 09 40 00     a.@.a.@.a.@.a.@.
  40005c:	61 09 40 00 61 09 40 00 00 00 00 00 bd 07 40 00     a.@.a.@.......@.
  40006c:	d1 07 40 00 e5 07 40 00 61 09 40 00 61 09 40 00     ..@...@.a.@.a.@.
  40007c:	61 09 40 00 f9 07 40 00 0d 08 40 00 61 09 40 00     a.@...@...@.a.@.
  40008c:	61 09 40 00 61 09 40 00 61 09 40 00 61 09 40 00     a.@.a.@.a.@.a.@.
  40009c:	61 09 40 00 61 09 40 00 61 09 40 00 61 09 40 00     a.@.a.@.a.@.a.@.
  4000ac:	61 09 40 00 61 09 40 00 61 09 40 00 61 09 40 00     a.@.a.@.a.@.a.@.
  4000bc:	61 09 40 00 61 09 40 00 61 09 40 00 61 09 40 00     a.@.a.@.a.@.a.@.
  4000cc:	61 09 40 00 61 09 40 00 61 09 40 00 61 09 40 00     a.@.a.@.a.@.a.@.
  4000dc:	61 09 40 00 61 09 40 00 61 09 40 00 61 09 40 00     a.@.a.@.a.@.a.@.
  4000ec:	61 09 40 00 61 09 40 00 61 09 40 00 61 09 40 00     a.@.a.@.a.@.a.@.
  4000fc:	61 09 40 00 61 09 40 00 61 09 40 00 61 09 40 00     a.@.a.@.a.@.a.@.
  40010c:	61 09 40 00 61 09 40 00 00 00 00 00 00 00 00 00     a.@.a.@.........
  40011c:	00 00 00 00 61 09 40 00 61 09 40 00 61 09 40 00     ....a.@.a.@.a.@.
  40012c:	61 09 40 00 61 09 40 00 61 09 40 00 61 09 40 00     a.@.a.@.a.@.a.@.
  40013c:	61 09 40 00 61 09 40 00 61 09 40 00 61 09 40 00     a.@.a.@.a.@.a.@.
  40014c:	61 09 40 00 61 09 40 00 61 09 40 00 61 09 40 00     a.@.a.@.a.@.a.@.
  40015c:	61 09 40 00 61 09 40 00 61 09 40 00                 a.@.a.@.a.@.

00400168 <__do_global_dtors_aux>:
  400168:	b510      	push	{r4, lr}
  40016a:	4c05      	ldr	r4, [pc, #20]	; (400180 <__do_global_dtors_aux+0x18>)
  40016c:	7823      	ldrb	r3, [r4, #0]
  40016e:	b933      	cbnz	r3, 40017e <__do_global_dtors_aux+0x16>
  400170:	4b04      	ldr	r3, [pc, #16]	; (400184 <__do_global_dtors_aux+0x1c>)
  400172:	b113      	cbz	r3, 40017a <__do_global_dtors_aux+0x12>
  400174:	4804      	ldr	r0, [pc, #16]	; (400188 <__do_global_dtors_aux+0x20>)
  400176:	f3af 8000 	nop.w
  40017a:	2301      	movs	r3, #1
  40017c:	7023      	strb	r3, [r4, #0]
  40017e:	bd10      	pop	{r4, pc}
  400180:	204009c0 	.word	0x204009c0
  400184:	00000000 	.word	0x00000000
  400188:	00404814 	.word	0x00404814

0040018c <frame_dummy>:
  40018c:	4b0c      	ldr	r3, [pc, #48]	; (4001c0 <frame_dummy+0x34>)
  40018e:	b143      	cbz	r3, 4001a2 <frame_dummy+0x16>
  400190:	480c      	ldr	r0, [pc, #48]	; (4001c4 <frame_dummy+0x38>)
  400192:	490d      	ldr	r1, [pc, #52]	; (4001c8 <frame_dummy+0x3c>)
  400194:	b510      	push	{r4, lr}
  400196:	f3af 8000 	nop.w
  40019a:	480c      	ldr	r0, [pc, #48]	; (4001cc <frame_dummy+0x40>)
  40019c:	6803      	ldr	r3, [r0, #0]
  40019e:	b923      	cbnz	r3, 4001aa <frame_dummy+0x1e>
  4001a0:	bd10      	pop	{r4, pc}
  4001a2:	480a      	ldr	r0, [pc, #40]	; (4001cc <frame_dummy+0x40>)
  4001a4:	6803      	ldr	r3, [r0, #0]
  4001a6:	b933      	cbnz	r3, 4001b6 <frame_dummy+0x2a>
  4001a8:	4770      	bx	lr
  4001aa:	4b09      	ldr	r3, [pc, #36]	; (4001d0 <frame_dummy+0x44>)
  4001ac:	2b00      	cmp	r3, #0
  4001ae:	d0f7      	beq.n	4001a0 <frame_dummy+0x14>
  4001b0:	e8bd 4010 	ldmia.w	sp!, {r4, lr}
  4001b4:	4718      	bx	r3
  4001b6:	4b06      	ldr	r3, [pc, #24]	; (4001d0 <frame_dummy+0x44>)
  4001b8:	2b00      	cmp	r3, #0
  4001ba:	d0f5      	beq.n	4001a8 <frame_dummy+0x1c>
  4001bc:	4718      	bx	r3
  4001be:	bf00      	nop
  4001c0:	00000000 	.word	0x00000000
  4001c4:	00404814 	.word	0x00404814
  4001c8:	204009c4 	.word	0x204009c4
  4001cc:	00404814 	.word	0x00404814
  4001d0:	00000000 	.word	0x00000000

004001d4 <_read>:
int __attribute__((weak))
_read (int file, char * ptr, int len); // Remove GCC compiler warning

int __attribute__((weak))
_read (int file, char * ptr, int len)
{
  4001d4:	e92d 41f0 	stmdb	sp!, {r4, r5, r6, r7, r8, lr}
	int nChars = 0;

	if (file != 0) {
  4001d8:	b980      	cbnz	r0, 4001fc <_read+0x28>
  4001da:	460c      	mov	r4, r1
  4001dc:	4690      	mov	r8, r2
		return -1;
	}

	for (; len > 0; --len) {
  4001de:	2a00      	cmp	r2, #0
  4001e0:	dd0f      	ble.n	400202 <_read+0x2e>
  4001e2:	188f      	adds	r7, r1, r2
		ptr_get(stdio_base, ptr);
  4001e4:	4e08      	ldr	r6, [pc, #32]	; (400208 <_read+0x34>)
  4001e6:	4d09      	ldr	r5, [pc, #36]	; (40020c <_read+0x38>)
  4001e8:	6830      	ldr	r0, [r6, #0]
  4001ea:	4621      	mov	r1, r4
  4001ec:	682b      	ldr	r3, [r5, #0]
  4001ee:	4798      	blx	r3
		ptr++;
  4001f0:	3401      	adds	r4, #1
	for (; len > 0; --len) {
  4001f2:	42bc      	cmp	r4, r7
  4001f4:	d1f8      	bne.n	4001e8 <_read+0x14>
		nChars++;
	}
	return nChars;
}
  4001f6:	4640      	mov	r0, r8
  4001f8:	e8bd 81f0 	ldmia.w	sp!, {r4, r5, r6, r7, r8, pc}
		return -1;
  4001fc:	f04f 38ff 	mov.w	r8, #4294967295
  400200:	e7f9      	b.n	4001f6 <_read+0x22>
	for (; len > 0; --len) {
  400202:	4680      	mov	r8, r0
  400204:	e7f7      	b.n	4001f6 <_read+0x22>
  400206:	bf00      	nop
  400208:	20400a94 	.word	0x20400a94
  40020c:	20400a8c 	.word	0x20400a8c

00400210 <usart_set_async_baudrate>:
 * \retval 1 Baud rate set point is out of range for the given input clock
 * frequency.
 */
uint32_t usart_set_async_baudrate(Usart *p_usart,
		uint32_t baudrate, uint32_t ul_mck)
{
  400210:	b410      	push	{r4}
	uint32_t cd_fp;
	uint32_t cd;
	uint32_t fp;

	/* Calculate the receiver sampling divide of baudrate clock. */
	if (ul_mck >= HIGH_FRQ_SAMPLE_DIV * baudrate) {
  400212:	010b      	lsls	r3, r1, #4
  400214:	4293      	cmp	r3, r2
  400216:	d914      	bls.n	400242 <usart_set_async_baudrate+0x32>
	} else {
		over = LOW_FRQ_SAMPLE_DIV;
	}

	/* Calculate clock divider according to the fraction calculated formula. */
	cd_fp = (8 * ul_mck + (over * baudrate) / 2) / (over * baudrate);
  400218:	00c9      	lsls	r1, r1, #3
  40021a:	084b      	lsrs	r3, r1, #1
  40021c:	eb03 02c2 	add.w	r2, r3, r2, lsl #3
  400220:	fbb2 f2f1 	udiv	r2, r2, r1
	cd = cd_fp >> 3;
  400224:	08d3      	lsrs	r3, r2, #3
	fp = cd_fp & 0x07;
	if (cd < MIN_CD_VALUE || cd > MAX_CD_VALUE) {
  400226:	1e5c      	subs	r4, r3, #1
  400228:	f64f 71fe 	movw	r1, #65534	; 0xfffe
  40022c:	428c      	cmp	r4, r1
  40022e:	d901      	bls.n	400234 <usart_set_async_baudrate+0x24>
		return 1;
  400230:	2001      	movs	r0, #1
  400232:	e017      	b.n	400264 <usart_set_async_baudrate+0x54>
	}

	/* Configure the OVER bit in MR register. */
	if (over == 8) {
		p_usart->US_MR |= US_MR_OVER;
  400234:	6841      	ldr	r1, [r0, #4]
  400236:	f441 2100 	orr.w	r1, r1, #524288	; 0x80000
  40023a:	6041      	str	r1, [r0, #4]
  40023c:	e00c      	b.n	400258 <usart_set_async_baudrate+0x48>
		return 1;
  40023e:	2001      	movs	r0, #1
  400240:	e010      	b.n	400264 <usart_set_async_baudrate+0x54>
	cd_fp = (8 * ul_mck + (over * baudrate) / 2) / (over * baudrate);
  400242:	0859      	lsrs	r1, r3, #1
  400244:	eb01 02c2 	add.w	r2, r1, r2, lsl #3
  400248:	fbb2 f2f3 	udiv	r2, r2, r3
	cd = cd_fp >> 3;
  40024c:	08d3      	lsrs	r3, r2, #3
	if (cd < MIN_CD_VALUE || cd > MAX_CD_VALUE) {
  40024e:	1e5c      	subs	r4, r3, #1
  400250:	f64f 71fe 	movw	r1, #65534	; 0xfffe
  400254:	428c      	cmp	r4, r1
  400256:	d8f2      	bhi.n	40023e <usart_set_async_baudrate+0x2e>
	}

	/* Configure the baudrate generate register. */
	p_usart->US_BRGR = (cd << US_BRGR_CD_Pos) | (fp << US_BRGR_FP_Pos);
  400258:	0412      	lsls	r2, r2, #16
  40025a:	f402 22e0 	and.w	r2, r2, #458752	; 0x70000
  40025e:	431a      	orrs	r2, r3
  400260:	6202      	str	r2, [r0, #32]

	return 0;
  400262:	2000      	movs	r0, #0
}
  400264:	f85d 4b04 	ldr.w	r4, [sp], #4
  400268:	4770      	bx	lr
	...

0040026c <usart_reset>:
 *
 * \param p_usart Pointer to a USART instance.
 */
void usart_disable_writeprotect(Usart *p_usart)
{
	p_usart->US_WPMR = US_WPMR_WPKEY_PASSWD;
  40026c:	4b08      	ldr	r3, [pc, #32]	; (400290 <usart_reset+0x24>)
  40026e:	f8c0 30e4 	str.w	r3, [r0, #228]	; 0xe4
	p_usart->US_MR = 0;
  400272:	2300      	movs	r3, #0
  400274:	6043      	str	r3, [r0, #4]
	p_usart->US_RTOR = 0;
  400276:	6243      	str	r3, [r0, #36]	; 0x24
	p_usart->US_TTGR = 0;
  400278:	6283      	str	r3, [r0, #40]	; 0x28
	p_usart->US_CR = US_CR_RSTTX | US_CR_TXDIS;
  40027a:	2388      	movs	r3, #136	; 0x88
  40027c:	6003      	str	r3, [r0, #0]
	p_usart->US_CR = US_CR_RSTRX | US_CR_RXDIS;
  40027e:	2324      	movs	r3, #36	; 0x24
  400280:	6003      	str	r3, [r0, #0]
	p_usart->US_CR = US_CR_RSTSTA;
  400282:	f44f 7380 	mov.w	r3, #256	; 0x100
  400286:	6003      	str	r3, [r0, #0]
	p_usart->US_CR = US_CR_RTSDIS;
  400288:	f44f 2300 	mov.w	r3, #524288	; 0x80000
  40028c:	6003      	str	r3, [r0, #0]
  40028e:	4770      	bx	lr
  400290:	55534100 	.word	0x55534100

00400294 <usart_init_rs232>:
{
  400294:	b570      	push	{r4, r5, r6, lr}
  400296:	4605      	mov	r5, r0
  400298:	460c      	mov	r4, r1
  40029a:	4616      	mov	r6, r2
	usart_reset(p_usart);
  40029c:	4b0f      	ldr	r3, [pc, #60]	; (4002dc <usart_init_rs232+0x48>)
  40029e:	4798      	blx	r3
	ul_reg_val = 0;
  4002a0:	2200      	movs	r2, #0
  4002a2:	4b0f      	ldr	r3, [pc, #60]	; (4002e0 <usart_init_rs232+0x4c>)
  4002a4:	601a      	str	r2, [r3, #0]
	if (!p_usart_opt || usart_set_async_baudrate(p_usart,
  4002a6:	b1a4      	cbz	r4, 4002d2 <usart_init_rs232+0x3e>
  4002a8:	4632      	mov	r2, r6
  4002aa:	6821      	ldr	r1, [r4, #0]
  4002ac:	4628      	mov	r0, r5
  4002ae:	4b0d      	ldr	r3, [pc, #52]	; (4002e4 <usart_init_rs232+0x50>)
  4002b0:	4798      	blx	r3
  4002b2:	4602      	mov	r2, r0
  4002b4:	b978      	cbnz	r0, 4002d6 <usart_init_rs232+0x42>
	ul_reg_val |= p_usart_opt->char_length | p_usart_opt->parity_type |
  4002b6:	6863      	ldr	r3, [r4, #4]
  4002b8:	68a1      	ldr	r1, [r4, #8]
  4002ba:	430b      	orrs	r3, r1
  4002bc:	6921      	ldr	r1, [r4, #16]
  4002be:	430b      	orrs	r3, r1
			p_usart_opt->channel_mode | p_usart_opt->stop_bits;
  4002c0:	68e1      	ldr	r1, [r4, #12]
  4002c2:	430b      	orrs	r3, r1
	ul_reg_val |= p_usart_opt->char_length | p_usart_opt->parity_type |
  4002c4:	4906      	ldr	r1, [pc, #24]	; (4002e0 <usart_init_rs232+0x4c>)
  4002c6:	600b      	str	r3, [r1, #0]
	p_usart->US_MR |= ul_reg_val;
  4002c8:	6869      	ldr	r1, [r5, #4]
  4002ca:	430b      	orrs	r3, r1
  4002cc:	606b      	str	r3, [r5, #4]
}
  4002ce:	4610      	mov	r0, r2
  4002d0:	bd70      	pop	{r4, r5, r6, pc}
		return 1;
  4002d2:	2201      	movs	r2, #1
  4002d4:	e7fb      	b.n	4002ce <usart_init_rs232+0x3a>
  4002d6:	2201      	movs	r2, #1
  4002d8:	e7f9      	b.n	4002ce <usart_init_rs232+0x3a>
  4002da:	bf00      	nop
  4002dc:	0040026d 	.word	0x0040026d
  4002e0:	204009dc 	.word	0x204009dc
  4002e4:	00400211 	.word	0x00400211

004002e8 <usart_enable_tx>:
	p_usart->US_CR = US_CR_TXEN;
  4002e8:	2340      	movs	r3, #64	; 0x40
  4002ea:	6003      	str	r3, [r0, #0]
  4002ec:	4770      	bx	lr

004002ee <usart_enable_rx>:
	p_usart->US_CR = US_CR_RXEN;
  4002ee:	2310      	movs	r3, #16
  4002f0:	6003      	str	r3, [r0, #0]
  4002f2:	4770      	bx	lr

004002f4 <usart_write>:
	if (!(p_usart->US_CSR & US_CSR_TXRDY)) {
  4002f4:	6943      	ldr	r3, [r0, #20]
  4002f6:	f013 0f02 	tst.w	r3, #2
  4002fa:	d004      	beq.n	400306 <usart_write+0x12>
	p_usart->US_THR = US_THR_TXCHR(c);
  4002fc:	f3c1 0108 	ubfx	r1, r1, #0, #9
  400300:	61c1      	str	r1, [r0, #28]
	return 0;
  400302:	2000      	movs	r0, #0
  400304:	4770      	bx	lr
		return 1;
  400306:	2001      	movs	r0, #1
}
  400308:	4770      	bx	lr

0040030a <usart_read>:
	if (!(p_usart->US_CSR & US_CSR_RXRDY)) {
  40030a:	6943      	ldr	r3, [r0, #20]
  40030c:	f013 0f01 	tst.w	r3, #1
  400310:	d005      	beq.n	40031e <usart_read+0x14>
	*c = p_usart->US_RHR & US_RHR_RXCHR_Msk;
  400312:	6983      	ldr	r3, [r0, #24]
  400314:	f3c3 0308 	ubfx	r3, r3, #0, #9
  400318:	600b      	str	r3, [r1, #0]
	return 0;
  40031a:	2000      	movs	r0, #0
  40031c:	4770      	bx	lr
		return 1;
  40031e:	2001      	movs	r0, #1
}
  400320:	4770      	bx	lr
	...

00400324 <_write>:
int __attribute__((weak))
_write (int file, const char *ptr, int len)
{
	int nChars = 0;

	if ((file != 1) && (file != 2) && (file!=3)) {
  400324:	3801      	subs	r0, #1
  400326:	2802      	cmp	r0, #2
  400328:	d815      	bhi.n	400356 <_write+0x32>
{
  40032a:	e92d 41f0 	stmdb	sp!, {r4, r5, r6, r7, r8, lr}
  40032e:	460e      	mov	r6, r1
  400330:	4614      	mov	r4, r2
		return -1;
	}

	for (; len != 0; --len) {
  400332:	b19a      	cbz	r2, 40035c <_write+0x38>
  400334:	460d      	mov	r5, r1
		if (ptr_put(stdio_base, *ptr++) < 0) {
  400336:	f8df 8038 	ldr.w	r8, [pc, #56]	; 400370 <_write+0x4c>
  40033a:	4f0c      	ldr	r7, [pc, #48]	; (40036c <_write+0x48>)
  40033c:	f8d8 0000 	ldr.w	r0, [r8]
  400340:	f815 1b01 	ldrb.w	r1, [r5], #1
  400344:	683b      	ldr	r3, [r7, #0]
  400346:	4798      	blx	r3
  400348:	2800      	cmp	r0, #0
  40034a:	db0a      	blt.n	400362 <_write+0x3e>
  40034c:	1ba8      	subs	r0, r5, r6
	for (; len != 0; --len) {
  40034e:	3c01      	subs	r4, #1
  400350:	d1f4      	bne.n	40033c <_write+0x18>
  400352:	e8bd 81f0 	ldmia.w	sp!, {r4, r5, r6, r7, r8, pc}
		return -1;
  400356:	f04f 30ff 	mov.w	r0, #4294967295
  40035a:	4770      	bx	lr
	for (; len != 0; --len) {
  40035c:	4610      	mov	r0, r2
  40035e:	e8bd 81f0 	ldmia.w	sp!, {r4, r5, r6, r7, r8, pc}
			return -1;
  400362:	f04f 30ff 	mov.w	r0, #4294967295
		}
		++nChars;
	}
	return nChars;
}
  400366:	e8bd 81f0 	ldmia.w	sp!, {r4, r5, r6, r7, r8, pc}
  40036a:	bf00      	nop
  40036c:	20400a90 	.word	0x20400a90
  400370:	20400a94 	.word	0x20400a94

00400374 <spi_enable_clock>:
 * \brief Enable SPI clock.
 *
 * \param p_spi Pointer to an SPI instance.
 */
void spi_enable_clock(Spi *p_spi)
{
  400374:	b508      	push	{r3, lr}
#if (SAM4S || SAM3S || SAM3N || SAM3U || SAM4E || SAM4N || SAMG51|| SAMG53|| SAMG54)
	UNUSED(p_spi);
	sysclk_enable_peripheral_clock(ID_SPI);
#elif (SAM3XA || SAM4C || SAM4CP || SAM4CM || SAMV71 || SAMV70 || SAME70 || SAMS70)
	if (p_spi == SPI0) {
  400376:	4b07      	ldr	r3, [pc, #28]	; (400394 <spi_enable_clock+0x20>)
  400378:	4298      	cmp	r0, r3
  40037a:	d003      	beq.n	400384 <spi_enable_clock+0x10>
		sysclk_enable_peripheral_clock(ID_SPI0);
	}
	#ifdef SPI1
	else if (p_spi == SPI1) {
  40037c:	4b06      	ldr	r3, [pc, #24]	; (400398 <spi_enable_clock+0x24>)
  40037e:	4298      	cmp	r0, r3
  400380:	d004      	beq.n	40038c <spi_enable_clock+0x18>
  400382:	bd08      	pop	{r3, pc}
 *
 * \param ul_id Id (number) of the peripheral clock.
 */
static inline void sysclk_enable_peripheral_clock(uint32_t ul_id)
{
	pmc_enable_periph_clk(ul_id);
  400384:	2015      	movs	r0, #21
  400386:	4b05      	ldr	r3, [pc, #20]	; (40039c <spi_enable_clock+0x28>)
  400388:	4798      	blx	r3
  40038a:	bd08      	pop	{r3, pc}
  40038c:	202a      	movs	r0, #42	; 0x2a
  40038e:	4b03      	ldr	r3, [pc, #12]	; (40039c <spi_enable_clock+0x28>)
  400390:	4798      	blx	r3
	}
	#endif
#elif SAM4L
	sysclk_enable_peripheral_clock(p_spi);
#endif
}
  400392:	e7f6      	b.n	400382 <spi_enable_clock+0xe>
  400394:	40008000 	.word	0x40008000
  400398:	40058000 	.word	0x40058000
  40039c:	00400941 	.word	0x00400941

004003a0 <spi_set_peripheral_chip_select_value>:
 *                 \ref spi_enable_peripheral_select_decode,
 *                 \ref spi_disable_peripheral_select_decode.
 */
void spi_set_peripheral_chip_select_value(Spi *p_spi, uint32_t ul_value)
{
	p_spi->SPI_MR &= (~SPI_MR_PCS_Msk);
  4003a0:	6843      	ldr	r3, [r0, #4]
  4003a2:	f423 2370 	bic.w	r3, r3, #983040	; 0xf0000
  4003a6:	6043      	str	r3, [r0, #4]
	p_spi->SPI_MR |= SPI_MR_PCS(ul_value);
  4003a8:	6843      	ldr	r3, [r0, #4]
  4003aa:	0409      	lsls	r1, r1, #16
  4003ac:	f401 2170 	and.w	r1, r1, #983040	; 0xf0000
  4003b0:	4319      	orrs	r1, r3
  4003b2:	6041      	str	r1, [r0, #4]
  4003b4:	4770      	bx	lr

004003b6 <spi_read>:
 *
 * \retval SPI_OK on Success.
 * \retval SPI_ERROR_TIMEOUT on Time-out.
 */
spi_status_t spi_read(Spi *p_spi, uint16_t *us_data, uint8_t *p_pcs)
{
  4003b6:	b410      	push	{r4}
	uint32_t timeout = SPI_TIMEOUT;
	static uint32_t reg_value;

	while (!(p_spi->SPI_SR & SPI_SR_RDRF)) {
  4003b8:	f643 2399 	movw	r3, #15001	; 0x3a99
  4003bc:	6904      	ldr	r4, [r0, #16]
  4003be:	f014 0f01 	tst.w	r4, #1
  4003c2:	d103      	bne.n	4003cc <spi_read+0x16>
		if (!timeout--) {
  4003c4:	3b01      	subs	r3, #1
  4003c6:	d1f9      	bne.n	4003bc <spi_read+0x6>
			return SPI_ERROR_TIMEOUT;
  4003c8:	2001      	movs	r0, #1
  4003ca:	e009      	b.n	4003e0 <spi_read+0x2a>
		}
	}

	reg_value = p_spi->SPI_RDR;
  4003cc:	6883      	ldr	r3, [r0, #8]
 *
 * \return 1 for Variable mode, 0 for fixed mode.
 */
static inline uint32_t spi_get_peripheral_select_mode(Spi *p_spi)
{
	if (p_spi->SPI_MR & SPI_MR_PS) {
  4003ce:	6840      	ldr	r0, [r0, #4]
	if (spi_get_peripheral_select_mode(p_spi)) {
  4003d0:	f010 0f02 	tst.w	r0, #2
  4003d4:	d002      	beq.n	4003dc <spi_read+0x26>
		*p_pcs = (uint8_t) ((reg_value & SPI_RDR_PCS_Msk) >> SPI_RDR_PCS_Pos);
  4003d6:	f3c3 4003 	ubfx	r0, r3, #16, #4
  4003da:	7010      	strb	r0, [r2, #0]
	}
	*us_data = (uint16_t) (reg_value & SPI_RDR_RD_Msk);
  4003dc:	800b      	strh	r3, [r1, #0]

	return SPI_OK;
  4003de:	2000      	movs	r0, #0
}
  4003e0:	f85d 4b04 	ldr.w	r4, [sp], #4
  4003e4:	4770      	bx	lr

004003e6 <spi_write>:
 * \retval SPI_OK on Success.
 * \retval SPI_ERROR_TIMEOUT on Time-out.
 */
spi_status_t spi_write(Spi *p_spi, uint16_t us_data,
		uint8_t uc_pcs, uint8_t uc_last)
{
  4003e6:	b430      	push	{r4, r5}
	uint32_t timeout = SPI_TIMEOUT;
	uint32_t value;

	while (!(p_spi->SPI_SR & SPI_SR_TDRE)) {
  4003e8:	f643 2499 	movw	r4, #15001	; 0x3a99
  4003ec:	6905      	ldr	r5, [r0, #16]
  4003ee:	f015 0f02 	tst.w	r5, #2
  4003f2:	d103      	bne.n	4003fc <spi_write+0x16>
		if (!timeout--) {
  4003f4:	3c01      	subs	r4, #1
  4003f6:	d1f9      	bne.n	4003ec <spi_write+0x6>
			return SPI_ERROR_TIMEOUT;
  4003f8:	2001      	movs	r0, #1
  4003fa:	e00c      	b.n	400416 <spi_write+0x30>
  4003fc:	6844      	ldr	r4, [r0, #4]
		}
	}

	if (spi_get_peripheral_select_mode(p_spi)) {
  4003fe:	f014 0f02 	tst.w	r4, #2
  400402:	d006      	beq.n	400412 <spi_write+0x2c>
		value = SPI_TDR_TD(us_data) | SPI_TDR_PCS(uc_pcs);
  400404:	0412      	lsls	r2, r2, #16
  400406:	f402 2270 	and.w	r2, r2, #983040	; 0xf0000
  40040a:	4311      	orrs	r1, r2
		if (uc_last) {
  40040c:	b10b      	cbz	r3, 400412 <spi_write+0x2c>
			value |= SPI_TDR_LASTXFER;
  40040e:	f041 7180 	orr.w	r1, r1, #16777216	; 0x1000000
		}
	} else {
		value = SPI_TDR_TD(us_data);
	}

	p_spi->SPI_TDR = value;
  400412:	60c1      	str	r1, [r0, #12]

	return SPI_OK;
  400414:	2000      	movs	r0, #0
}
  400416:	bc30      	pop	{r4, r5}
  400418:	4770      	bx	lr

0040041a <spi_set_clock_polarity>:
 * \param ul_polarity Default clock state is logical one(high)/zero(low).
 */
void spi_set_clock_polarity(Spi *p_spi, uint32_t ul_pcs_ch,
		uint32_t ul_polarity)
{
	if (ul_polarity) {
  40041a:	b932      	cbnz	r2, 40042a <spi_set_clock_polarity+0x10>
  40041c:	eb00 0081 	add.w	r0, r0, r1, lsl #2
		p_spi->SPI_CSR[ul_pcs_ch] |= SPI_CSR_CPOL;
	} else {
		p_spi->SPI_CSR[ul_pcs_ch] &= (~SPI_CSR_CPOL);
  400420:	6b03      	ldr	r3, [r0, #48]	; 0x30
  400422:	f023 0301 	bic.w	r3, r3, #1
  400426:	6303      	str	r3, [r0, #48]	; 0x30
  400428:	4770      	bx	lr
  40042a:	eb00 0081 	add.w	r0, r0, r1, lsl #2
		p_spi->SPI_CSR[ul_pcs_ch] |= SPI_CSR_CPOL;
  40042e:	6b03      	ldr	r3, [r0, #48]	; 0x30
  400430:	f043 0301 	orr.w	r3, r3, #1
  400434:	6303      	str	r3, [r0, #48]	; 0x30
  400436:	4770      	bx	lr

00400438 <spi_set_clock_phase>:
 *  \param ul_pcs_ch Peripheral Chip Select channel (0~3).
 *  \param ul_phase Data capture on the rising/falling edge of clock.
 */
void spi_set_clock_phase(Spi *p_spi, uint32_t ul_pcs_ch, uint32_t ul_phase)
{
	if (ul_phase) {
  400438:	b932      	cbnz	r2, 400448 <spi_set_clock_phase+0x10>
  40043a:	eb00 0081 	add.w	r0, r0, r1, lsl #2
		p_spi->SPI_CSR[ul_pcs_ch] |= SPI_CSR_NCPHA;
	} else {
		p_spi->SPI_CSR[ul_pcs_ch] &= (~SPI_CSR_NCPHA);
  40043e:	6b03      	ldr	r3, [r0, #48]	; 0x30
  400440:	f023 0302 	bic.w	r3, r3, #2
  400444:	6303      	str	r3, [r0, #48]	; 0x30
  400446:	4770      	bx	lr
  400448:	eb00 0081 	add.w	r0, r0, r1, lsl #2
		p_spi->SPI_CSR[ul_pcs_ch] |= SPI_CSR_NCPHA;
  40044c:	6b03      	ldr	r3, [r0, #48]	; 0x30
  40044e:	f043 0302 	orr.w	r3, r3, #2
  400452:	6303      	str	r3, [r0, #48]	; 0x30
  400454:	4770      	bx	lr

00400456 <spi_set_bits_per_transfer>:
 * \param ul_bits Number of bits (8~16), use the pattern defined
 *        in the device header file.
 */
void spi_set_bits_per_transfer(Spi *p_spi, uint32_t ul_pcs_ch,
		uint32_t ul_bits)
{
  400456:	eb00 0181 	add.w	r1, r0, r1, lsl #2
	p_spi->SPI_CSR[ul_pcs_ch] &= (~SPI_CSR_BITS_Msk);
  40045a:	6b0b      	ldr	r3, [r1, #48]	; 0x30
  40045c:	f023 03f0 	bic.w	r3, r3, #240	; 0xf0
  400460:	630b      	str	r3, [r1, #48]	; 0x30
	p_spi->SPI_CSR[ul_pcs_ch] |= ul_bits;
  400462:	6b0b      	ldr	r3, [r1, #48]	; 0x30
  400464:	431a      	orrs	r2, r3
  400466:	630a      	str	r2, [r1, #48]	; 0x30
  400468:	4770      	bx	lr

0040046a <spi_set_baudrate_div>:
 */
int16_t spi_set_baudrate_div(Spi *p_spi, uint32_t ul_pcs_ch,
		uint8_t uc_baudrate_divider)
{
    /* Programming the SCBR field to 0 is forbidden */
    if (!uc_baudrate_divider){
  40046a:	b17a      	cbz	r2, 40048c <spi_set_baudrate_div+0x22>
{
  40046c:	b410      	push	{r4}
  40046e:	4614      	mov	r4, r2
  400470:	eb00 0181 	add.w	r1, r0, r1, lsl #2
        return -1;
	}
	p_spi->SPI_CSR[ul_pcs_ch] &= (~SPI_CSR_SCBR_Msk);
  400474:	6b0b      	ldr	r3, [r1, #48]	; 0x30
  400476:	f423 437f 	bic.w	r3, r3, #65280	; 0xff00
  40047a:	630b      	str	r3, [r1, #48]	; 0x30
	p_spi->SPI_CSR[ul_pcs_ch] |= SPI_CSR_SCBR(uc_baudrate_divider);
  40047c:	6b0a      	ldr	r2, [r1, #48]	; 0x30
  40047e:	ea42 2204 	orr.w	r2, r2, r4, lsl #8
  400482:	630a      	str	r2, [r1, #48]	; 0x30
    return 0;
  400484:	2000      	movs	r0, #0
}
  400486:	f85d 4b04 	ldr.w	r4, [sp], #4
  40048a:	4770      	bx	lr
        return -1;
  40048c:	f04f 30ff 	mov.w	r0, #4294967295
  400490:	4770      	bx	lr

00400492 <spi_set_transfer_delay>:
 * \param uc_dlybs Delay before SPCK (in number of MCK clocks).
 * \param uc_dlybct Delay between consecutive transfers (in number of MCK clocks).
 */
void spi_set_transfer_delay(Spi *p_spi, uint32_t ul_pcs_ch,
		uint8_t uc_dlybs, uint8_t uc_dlybct)
{
  400492:	b410      	push	{r4}
  400494:	eb00 0181 	add.w	r1, r0, r1, lsl #2
	p_spi->SPI_CSR[ul_pcs_ch] &= ~(SPI_CSR_DLYBS_Msk | SPI_CSR_DLYBCT_Msk);
  400498:	6b08      	ldr	r0, [r1, #48]	; 0x30
  40049a:	b280      	uxth	r0, r0
  40049c:	6308      	str	r0, [r1, #48]	; 0x30
	p_spi->SPI_CSR[ul_pcs_ch] |= SPI_CSR_DLYBS(uc_dlybs)
  40049e:	6b0c      	ldr	r4, [r1, #48]	; 0x30
  4004a0:	ea44 6303 	orr.w	r3, r4, r3, lsl #24
  4004a4:	ea43 4302 	orr.w	r3, r3, r2, lsl #16
  4004a8:	630b      	str	r3, [r1, #48]	; 0x30
			| SPI_CSR_DLYBCT(uc_dlybct);
}
  4004aa:	f85d 4b04 	ldr.w	r4, [sp], #4
  4004ae:	4770      	bx	lr

004004b0 <uart_write>:
 * \retval 1 I/O Failure, UART is not ready.
 */
uint32_t uart_write(Uart *p_uart, const uint8_t uc_data)
{
	/* Check if the transmitter is ready */
	if (!(p_uart->UART_SR & UART_SR_TXRDY))
  4004b0:	6943      	ldr	r3, [r0, #20]
  4004b2:	f013 0f02 	tst.w	r3, #2
  4004b6:	d002      	beq.n	4004be <uart_write+0xe>
		return 1;

	/* Send character */
	p_uart->UART_THR = uc_data;
  4004b8:	61c1      	str	r1, [r0, #28]
	return 0;
  4004ba:	2000      	movs	r0, #0
  4004bc:	4770      	bx	lr
		return 1;
  4004be:	2001      	movs	r0, #1
}
  4004c0:	4770      	bx	lr

004004c2 <uart_read>:
 * \retval 1 I/O Failure, UART is not ready.
 */
uint32_t uart_read(Uart *p_uart, uint8_t *puc_data)
{
	/* Check if the receiver is ready */
	if ((p_uart->UART_SR & UART_SR_RXRDY) == 0)
  4004c2:	6943      	ldr	r3, [r0, #20]
  4004c4:	f013 0f01 	tst.w	r3, #1
  4004c8:	d003      	beq.n	4004d2 <uart_read+0x10>
		return 1;

	/* Read character */
	*puc_data = (uint8_t) p_uart->UART_RHR;
  4004ca:	6983      	ldr	r3, [r0, #24]
  4004cc:	700b      	strb	r3, [r1, #0]
	return 0;
  4004ce:	2000      	movs	r0, #0
  4004d0:	4770      	bx	lr
		return 1;
  4004d2:	2001      	movs	r0, #1
}
  4004d4:	4770      	bx	lr
	...

004004d8 <sysclk_init>:
	pmc_disable_udpck();
}
#endif // CONFIG_USBCLK_SOURCE

void sysclk_init(void)
{
  4004d8:	b510      	push	{r4, lr}
	struct pll_config pllcfg;

	/* Set flash wait state to max in case the below clock switching. */
	system_init_flash(CHIP_FREQ_CPU_MAX/2);
  4004da:	4810      	ldr	r0, [pc, #64]	; (40051c <sysclk_init+0x44>)
  4004dc:	4b10      	ldr	r3, [pc, #64]	; (400520 <sysclk_init+0x48>)
  4004de:	4798      	blx	r3
		pmc_switch_mainck_to_fastrc(CKGR_MOR_MOSCRCF_12_MHz);
		break;


	case OSC_MAINCK_XTAL:
		pmc_switch_mainck_to_xtal(PMC_OSC_XTAL,
  4004e0:	213e      	movs	r1, #62	; 0x3e
  4004e2:	2000      	movs	r0, #0
  4004e4:	4b0f      	ldr	r3, [pc, #60]	; (400524 <sysclk_init+0x4c>)
  4004e6:	4798      	blx	r3
	case OSC_MAINCK_4M_RC:
	case OSC_MAINCK_8M_RC:
	case OSC_MAINCK_12M_RC:
	case OSC_MAINCK_XTAL:
	case OSC_MAINCK_BYPASS:
		return pmc_osc_is_ready_mainck();
  4004e8:	4c0f      	ldr	r4, [pc, #60]	; (400528 <sysclk_init+0x50>)
  4004ea:	47a0      	blx	r4
 *
 * \param id A number identifying the oscillator to wait for.
 */
static inline void osc_wait_ready(uint8_t id)
{
	while (!osc_is_ready(id)) {
  4004ec:	2800      	cmp	r0, #0
  4004ee:	d0fc      	beq.n	4004ea <sysclk_init+0x12>
static inline void pll_enable(const struct pll_config *p_cfg, uint32_t ul_pll_id)
{
	Assert(ul_pll_id < NR_PLLS);

	if (ul_pll_id == PLLA_ID) {
		pmc_disable_pllack(); // Always stop PLL first!
  4004f0:	4b0e      	ldr	r3, [pc, #56]	; (40052c <sysclk_init+0x54>)
  4004f2:	4798      	blx	r3
		PMC->CKGR_PLLAR = CKGR_PLLAR_ONE | p_cfg->ctrl;
  4004f4:	4a0e      	ldr	r2, [pc, #56]	; (400530 <sysclk_init+0x58>)
  4004f6:	4b0f      	ldr	r3, [pc, #60]	; (400534 <sysclk_init+0x5c>)
  4004f8:	629a      	str	r2, [r3, #40]	; 0x28
static inline uint32_t pll_is_locked(uint32_t ul_pll_id)
{
	Assert(ul_pll_id < NR_PLLS);

	if (ul_pll_id == PLLA_ID) {
	return pmc_is_locked_pllack();
  4004fa:	4c0f      	ldr	r4, [pc, #60]	; (400538 <sysclk_init+0x60>)
  4004fc:	47a0      	blx	r4
 */
static inline int pll_wait_for_lock(unsigned int pll_id)
{
	Assert(pll_id < NR_PLLS);

	while (!pll_is_locked(pll_id)) {
  4004fe:	2800      	cmp	r0, #0
  400500:	d0fc      	beq.n	4004fc <sysclk_init+0x24>
	else if (CONFIG_SYSCLK_SOURCE == SYSCLK_SRC_PLLACK) {
		pll_enable_source(CONFIG_PLL0_SOURCE);
		pll_config_defaults(&pllcfg, 0);
		pll_enable(&pllcfg, 0);
		pll_wait_for_lock(0);
		pmc_mck_set_division(CONFIG_SYSCLK_DIV);
  400502:	2002      	movs	r0, #2
  400504:	4b0d      	ldr	r3, [pc, #52]	; (40053c <sysclk_init+0x64>)
  400506:	4798      	blx	r3
		pmc_switch_mck_to_pllack(CONFIG_SYSCLK_PRES);
  400508:	2000      	movs	r0, #0
  40050a:	4b0d      	ldr	r3, [pc, #52]	; (400540 <sysclk_init+0x68>)
  40050c:	4798      	blx	r3
		pll_wait_for_lock(1);
		pmc_mck_set_division(CONFIG_SYSCLK_DIV);
		pmc_switch_mck_to_upllck(CONFIG_SYSCLK_PRES);
	}
	/* Update the SystemFrequency variable */
	SystemCoreClockUpdate();
  40050e:	4b0d      	ldr	r3, [pc, #52]	; (400544 <sysclk_init+0x6c>)
  400510:	4798      	blx	r3

	/* Set a flash wait state depending on the master clock frequency */
	system_init_flash(sysclk_get_cpu_hz() / CONFIG_SYSCLK_DIV);
  400512:	4802      	ldr	r0, [pc, #8]	; (40051c <sysclk_init+0x44>)
  400514:	4b02      	ldr	r3, [pc, #8]	; (400520 <sysclk_init+0x48>)
  400516:	4798      	blx	r3
  400518:	bd10      	pop	{r4, pc}
  40051a:	bf00      	nop
  40051c:	08f0d180 	.word	0x08f0d180
  400520:	00400b39 	.word	0x00400b39
  400524:	004008bd 	.word	0x004008bd
  400528:	00400911 	.word	0x00400911
  40052c:	00400921 	.word	0x00400921
  400530:	20183f01 	.word	0x20183f01
  400534:	400e0600 	.word	0x400e0600
  400538:	00400931 	.word	0x00400931
  40053c:	00400821 	.word	0x00400821
  400540:	00400859 	.word	0x00400859
  400544:	00400a2d 	.word	0x00400a2d

00400548 <board_init>:
	__ISB();
}
#endif

void board_init(void)
{
  400548:	b5f8      	push	{r3, r4, r5, r6, r7, lr}
#ifndef CONF_BOARD_KEEP_WATCHDOG_AT_INIT
	/* Disable the watchdog */
	WDT->WDT_MR = WDT_MR_WDDIS;
  40054a:	f44f 4200 	mov.w	r2, #32768	; 0x8000
  40054e:	4b7d      	ldr	r3, [pc, #500]	; (400744 <board_init+0x1fc>)
  400550:	605a      	str	r2, [r3, #4]
  \details Acts as a special kind of Data Memory Barrier.
           It completes when all explicit memory accesses before this instruction complete.
 */
__STATIC_FORCEINLINE void __DSB(void)
{
  __ASM volatile ("dsb 0xF":::"memory");
  400552:	f3bf 8f4f 	dsb	sy
  __ASM volatile ("isb 0xF":::"memory");
  400556:	f3bf 8f6f 	isb	sy
__STATIC_INLINE void SCB_EnableICache (void)
{
  #if defined (__ICACHE_PRESENT) && (__ICACHE_PRESENT == 1U)
    __DSB();
    __ISB();
    SCB->ICIALLU = 0UL;                     /* invalidate I-Cache */
  40055a:	4b7b      	ldr	r3, [pc, #492]	; (400748 <board_init+0x200>)
  40055c:	2100      	movs	r1, #0
  40055e:	f8c3 1250 	str.w	r1, [r3, #592]	; 0x250
  __ASM volatile ("dsb 0xF":::"memory");
  400562:	f3bf 8f4f 	dsb	sy
  __ASM volatile ("isb 0xF":::"memory");
  400566:	f3bf 8f6f 	isb	sy
    __DSB();
    __ISB();
    SCB->CCR |=  (uint32_t)SCB_CCR_IC_Msk;  /* enable I-Cache */
  40056a:	695a      	ldr	r2, [r3, #20]
  40056c:	f442 3200 	orr.w	r2, r2, #131072	; 0x20000
  400570:	615a      	str	r2, [r3, #20]
  __ASM volatile ("dsb 0xF":::"memory");
  400572:	f3bf 8f4f 	dsb	sy
  __ASM volatile ("isb 0xF":::"memory");
  400576:	f3bf 8f6f 	isb	sy
  #if defined (__DCACHE_PRESENT) && (__DCACHE_PRESENT == 1U)
    uint32_t ccsidr;
    uint32_t sets;
    uint32_t ways;

    SCB->CSSELR = 0U; /*(0U << 1U) | 0U;*/  /* Level 1 data cache */
  40057a:	f8c3 1084 	str.w	r1, [r3, #132]	; 0x84
  __ASM volatile ("dsb 0xF":::"memory");
  40057e:	f3bf 8f4f 	dsb	sy
    __DSB();

    ccsidr = SCB->CCSIDR;
  400582:	f8d3 7080 	ldr.w	r7, [r3, #128]	; 0x80

                                            /* invalidate D-Cache */
    sets = (uint32_t)(CCSIDR_SETS(ccsidr));
  400586:	f3c7 354e 	ubfx	r5, r7, #13, #15
    do {
      ways = (uint32_t)(CCSIDR_WAYS(ccsidr));
  40058a:	f3c7 07c9 	ubfx	r7, r7, #3, #10
  40058e:	016e      	lsls	r6, r5, #5
  400590:	ea4f 7c87 	mov.w	ip, r7, lsl #30
      do {
        SCB->DCISW = (((sets << SCB_DCISW_SET_Pos) & SCB_DCISW_SET_Msk) |
  400594:	f643 7ee0 	movw	lr, #16352	; 0x3fe0
  400598:	461c      	mov	r4, r3
  40059a:	ea06 000e 	and.w	r0, r6, lr
  40059e:	4662      	mov	r2, ip
      ways = (uint32_t)(CCSIDR_WAYS(ccsidr));
  4005a0:	463b      	mov	r3, r7
        SCB->DCISW = (((sets << SCB_DCISW_SET_Pos) & SCB_DCISW_SET_Msk) |
  4005a2:	ea40 0102 	orr.w	r1, r0, r2
  4005a6:	f8c4 1260 	str.w	r1, [r4, #608]	; 0x260
                      ((ways << SCB_DCISW_WAY_Pos) & SCB_DCISW_WAY_Msk)  );
        #if defined ( __CC_ARM )
          __schedule_barrier();
        #endif
      } while (ways-- != 0U);
  4005aa:	3b01      	subs	r3, #1
  4005ac:	f102 4240 	add.w	r2, r2, #3221225472	; 0xc0000000
  4005b0:	f1b3 3fff 	cmp.w	r3, #4294967295
  4005b4:	d1f5      	bne.n	4005a2 <board_init+0x5a>
    } while(sets-- != 0U);
  4005b6:	3d01      	subs	r5, #1
  4005b8:	3e20      	subs	r6, #32
  4005ba:	f1b5 3fff 	cmp.w	r5, #4294967295
  4005be:	d1ec      	bne.n	40059a <board_init+0x52>
  4005c0:	f3bf 8f4f 	dsb	sy
    __DSB();

    SCB->CCR |=  (uint32_t)SCB_CCR_DC_Msk;  /* enable D-Cache */
  4005c4:	4b60      	ldr	r3, [pc, #384]	; (400748 <board_init+0x200>)
  4005c6:	695a      	ldr	r2, [r3, #20]
  4005c8:	f442 3280 	orr.w	r2, r2, #65536	; 0x10000
  4005cc:	615a      	str	r2, [r3, #20]
  4005ce:	f3bf 8f4f 	dsb	sy
  __ASM volatile ("isb 0xF":::"memory");
  4005d2:	f3bf 8f6f 	isb	sy
		*dst++ = *src++;
	}
#endif
#else
	/* TCM Configuration */
	EFC->EEFC_FCR = (EEFC_FCR_FKEY_PASSWD | EEFC_FCR_FCMD_CGPB 
  4005d6:	4a5d      	ldr	r2, [pc, #372]	; (40074c <board_init+0x204>)
  4005d8:	495d      	ldr	r1, [pc, #372]	; (400750 <board_init+0x208>)
  4005da:	6051      	str	r1, [r2, #4]
					| EEFC_FCR_FARG(8));
	EFC->EEFC_FCR = (EEFC_FCR_FKEY_PASSWD | EEFC_FCR_FCMD_CGPB 
  4005dc:	f5a1 7180 	sub.w	r1, r1, #256	; 0x100
  4005e0:	6051      	str	r1, [r2, #4]
  __ASM volatile ("dsb 0xF":::"memory");
  4005e2:	f3bf 8f4f 	dsb	sy
  __ASM volatile ("isb 0xF":::"memory");
  4005e6:	f3bf 8f6f 	isb	sy
	SCB->ITCMCR &= ~(uint32_t)(1UL);
  4005ea:	f8d3 2290 	ldr.w	r2, [r3, #656]	; 0x290
  4005ee:	f022 0201 	bic.w	r2, r2, #1
  4005f2:	f8c3 2290 	str.w	r2, [r3, #656]	; 0x290
	SCB->DTCMCR &= ~(uint32_t)SCB_DTCMCR_EN_Msk;
  4005f6:	f8d3 2294 	ldr.w	r2, [r3, #660]	; 0x294
  4005fa:	f022 0201 	bic.w	r2, r2, #1
  4005fe:	f8c3 2294 	str.w	r2, [r3, #660]	; 0x294
  __ASM volatile ("dsb 0xF":::"memory");
  400602:	f3bf 8f4f 	dsb	sy
  __ASM volatile ("isb 0xF":::"memory");
  400606:	f3bf 8f6f 	isb	sy
  40060a:	200a      	movs	r0, #10
  40060c:	4c51      	ldr	r4, [pc, #324]	; (400754 <board_init+0x20c>)
  40060e:	47a0      	blx	r4
  400610:	200b      	movs	r0, #11
  400612:	47a0      	blx	r4
  400614:	200c      	movs	r0, #12
  400616:	47a0      	blx	r4
  400618:	2010      	movs	r0, #16
  40061a:	47a0      	blx	r4
  40061c:	2011      	movs	r0, #17
  40061e:	47a0      	blx	r4
		enum ioport_direction dir)
{
	Pio *base = arch_ioport_pin_to_base(pin);

	if (dir == IOPORT_DIR_OUTPUT) {
		base->PIO_OER = arch_ioport_pin_to_mask(pin);
  400620:	4b4d      	ldr	r3, [pc, #308]	; (400758 <board_init+0x210>)
  400622:	f44f 7280 	mov.w	r2, #256	; 0x100
  400626:	611a      	str	r2, [r3, #16]
	} else if (dir == IOPORT_DIR_INPUT) {
		base->PIO_ODR = arch_ioport_pin_to_mask(pin);
	}

	base->PIO_OWER = arch_ioport_pin_to_mask(pin);
  400628:	f8c3 20a0 	str.w	r2, [r3, #160]	; 0xa0
		bool level)
{
	Pio *base = arch_ioport_pin_to_base(pin);

	if (level) {
		base->PIO_SODR = arch_ioport_pin_to_mask(pin);
  40062c:	631a      	str	r2, [r3, #48]	; 0x30
		base->PIO_ODR = arch_ioport_pin_to_mask(pin);
  40062e:	f5a3 6380 	sub.w	r3, r3, #1024	; 0x400
  400632:	f44f 6200 	mov.w	r2, #2048	; 0x800
  400636:	615a      	str	r2, [r3, #20]
	base->PIO_OWER = arch_ioport_pin_to_mask(pin);
  400638:	f8c3 20a0 	str.w	r2, [r3, #160]	; 0xa0
		base->PIO_PUER = mask;
  40063c:	665a      	str	r2, [r3, #100]	; 0x64
		base->PIO_PPDDR = mask;
  40063e:	f8c3 2090 	str.w	r2, [r3, #144]	; 0x90
		base->PIO_MDDR = mask;
  400642:	655a      	str	r2, [r3, #84]	; 0x54
		base->PIO_IFER = mask;
  400644:	621a      	str	r2, [r3, #32]
		base->PIO_IFSCER = mask;
  400646:	f8c3 2084 	str.w	r2, [r3, #132]	; 0x84
		base->PIO_ABCDSR[0] &= ~mask;
  40064a:	6f19      	ldr	r1, [r3, #112]	; 0x70
  40064c:	f421 6100 	bic.w	r1, r1, #2048	; 0x800
  400650:	6719      	str	r1, [r3, #112]	; 0x70
		base->PIO_ABCDSR[1] &= ~mask;
  400652:	6f59      	ldr	r1, [r3, #116]	; 0x74
  400654:	f421 6100 	bic.w	r1, r1, #2048	; 0x800
  400658:	6759      	str	r1, [r3, #116]	; 0x74
	case IOPORT_SENSE_FALLING:
		base->PIO_ESR = mask;
		base->PIO_FELLSR = mask;
		break;
	case IOPORT_SENSE_RISING:
		base->PIO_ESR = mask;
  40065a:	f8c3 20c0 	str.w	r2, [r3, #192]	; 0xc0
		base->PIO_REHLSR = mask;
  40065e:	f8c3 20d4 	str.w	r2, [r3, #212]	; 0xd4
		break;
	default:
		base->PIO_AIMDR = mask;
		return;
	}
	base->PIO_AIMER = mask;
  400662:	f8c3 20b0 	str.w	r2, [r3, #176]	; 0xb0
		base->PIO_PUDR = mask;
  400666:	f44f 1200 	mov.w	r2, #2097152	; 0x200000
  40066a:	661a      	str	r2, [r3, #96]	; 0x60
		base->PIO_PPDDR = mask;
  40066c:	f8c3 2090 	str.w	r2, [r3, #144]	; 0x90
		base->PIO_MDDR = mask;
  400670:	655a      	str	r2, [r3, #84]	; 0x54
		base->PIO_IFDR = mask;
  400672:	625a      	str	r2, [r3, #36]	; 0x24
		base->PIO_IFSCDR = mask;
  400674:	f8c3 2080 	str.w	r2, [r3, #128]	; 0x80
		base->PIO_ABCDSR[0] &= ~mask;
  400678:	6f19      	ldr	r1, [r3, #112]	; 0x70
  40067a:	f421 1100 	bic.w	r1, r1, #2097152	; 0x200000
  40067e:	6719      	str	r1, [r3, #112]	; 0x70
		base->PIO_ABCDSR[1] &= ~mask;
  400680:	6f59      	ldr	r1, [r3, #116]	; 0x74
  400682:	f421 1100 	bic.w	r1, r1, #2097152	; 0x200000
  400686:	6759      	str	r1, [r3, #116]	; 0x74
	arch_ioport_port_to_base(port)->PIO_PDR = mask;
  400688:	605a      	str	r2, [r3, #4]
			GPIO_PUSH_BUTTON_1_SENSE);

#ifdef CONF_BOARD_UART_CONSOLE
	/* Configure UART pins */
	ioport_set_pin_peripheral_mode(USART1_RXD_GPIO, USART1_RXD_FLAGS);
	MATRIX->CCFG_SYSIO |= CCFG_SYSIO_SYSIO4;
  40068a:	4934      	ldr	r1, [pc, #208]	; (40075c <board_init+0x214>)
  40068c:	f8d1 3114 	ldr.w	r3, [r1, #276]	; 0x114
  400690:	f043 0310 	orr.w	r3, r3, #16
  400694:	f8c1 3114 	str.w	r3, [r1, #276]	; 0x114
		base->PIO_PUDR = mask;
  400698:	4b31      	ldr	r3, [pc, #196]	; (400760 <board_init+0x218>)
  40069a:	2110      	movs	r1, #16
  40069c:	6619      	str	r1, [r3, #96]	; 0x60
		base->PIO_PPDDR = mask;
  40069e:	f8c3 1090 	str.w	r1, [r3, #144]	; 0x90
		base->PIO_MDDR = mask;
  4006a2:	6559      	str	r1, [r3, #84]	; 0x54
		base->PIO_IFDR = mask;
  4006a4:	6259      	str	r1, [r3, #36]	; 0x24
		base->PIO_IFSCDR = mask;
  4006a6:	f8c3 1080 	str.w	r1, [r3, #128]	; 0x80
		base->PIO_ABCDSR[0] |= mask;
  4006aa:	6f18      	ldr	r0, [r3, #112]	; 0x70
  4006ac:	4308      	orrs	r0, r1
  4006ae:	6718      	str	r0, [r3, #112]	; 0x70
		base->PIO_ABCDSR[1] |= mask;
  4006b0:	6f58      	ldr	r0, [r3, #116]	; 0x74
  4006b2:	4308      	orrs	r0, r1
  4006b4:	6758      	str	r0, [r3, #116]	; 0x74
	arch_ioport_port_to_base(port)->PIO_PDR = mask;
  4006b6:	6059      	str	r1, [r3, #4]
		base->PIO_PUDR = mask;
  4006b8:	f503 6380 	add.w	r3, r3, #1024	; 0x400
  4006bc:	f44f 1180 	mov.w	r1, #1048576	; 0x100000
  4006c0:	6619      	str	r1, [r3, #96]	; 0x60
		base->PIO_PPDDR = mask;
  4006c2:	f8c3 1090 	str.w	r1, [r3, #144]	; 0x90
		base->PIO_MDDR = mask;
  4006c6:	6559      	str	r1, [r3, #84]	; 0x54
		base->PIO_IFDR = mask;
  4006c8:	6259      	str	r1, [r3, #36]	; 0x24
		base->PIO_IFSCDR = mask;
  4006ca:	f8c3 1080 	str.w	r1, [r3, #128]	; 0x80
		base->PIO_ABCDSR[0] |= mask;
  4006ce:	6f18      	ldr	r0, [r3, #112]	; 0x70
  4006d0:	4308      	orrs	r0, r1
  4006d2:	6718      	str	r0, [r3, #112]	; 0x70
		base->PIO_ABCDSR[1] &= ~mask;
  4006d4:	6f58      	ldr	r0, [r3, #116]	; 0x74
  4006d6:	f420 1080 	bic.w	r0, r0, #1048576	; 0x100000
  4006da:	6758      	str	r0, [r3, #116]	; 0x74
	arch_ioport_port_to_base(port)->PIO_PDR = mask;
  4006dc:	6059      	str	r1, [r3, #4]
		base->PIO_PUDR = mask;
  4006de:	661a      	str	r2, [r3, #96]	; 0x60
		base->PIO_PPDDR = mask;
  4006e0:	f8c3 2090 	str.w	r2, [r3, #144]	; 0x90
		base->PIO_MDDR = mask;
  4006e4:	655a      	str	r2, [r3, #84]	; 0x54
		base->PIO_IFDR = mask;
  4006e6:	625a      	str	r2, [r3, #36]	; 0x24
		base->PIO_IFSCDR = mask;
  4006e8:	f8c3 2080 	str.w	r2, [r3, #128]	; 0x80
		base->PIO_ABCDSR[0] |= mask;
  4006ec:	6f19      	ldr	r1, [r3, #112]	; 0x70
  4006ee:	4311      	orrs	r1, r2
  4006f0:	6719      	str	r1, [r3, #112]	; 0x70
		base->PIO_ABCDSR[1] &= ~mask;
  4006f2:	6f59      	ldr	r1, [r3, #116]	; 0x74
  4006f4:	f421 1100 	bic.w	r1, r1, #2097152	; 0x200000
  4006f8:	6759      	str	r1, [r3, #116]	; 0x74
	arch_ioport_port_to_base(port)->PIO_PDR = mask;
  4006fa:	605a      	str	r2, [r3, #4]
		base->PIO_PUDR = mask;
  4006fc:	f44f 0280 	mov.w	r2, #4194304	; 0x400000
  400700:	661a      	str	r2, [r3, #96]	; 0x60
		base->PIO_PPDDR = mask;
  400702:	f8c3 2090 	str.w	r2, [r3, #144]	; 0x90
		base->PIO_MDDR = mask;
  400706:	655a      	str	r2, [r3, #84]	; 0x54
		base->PIO_IFDR = mask;
  400708:	625a      	str	r2, [r3, #36]	; 0x24
		base->PIO_IFSCDR = mask;
  40070a:	f8c3 2080 	str.w	r2, [r3, #128]	; 0x80
		base->PIO_ABCDSR[0] |= mask;
  40070e:	6f19      	ldr	r1, [r3, #112]	; 0x70
  400710:	4311      	orrs	r1, r2
  400712:	6719      	str	r1, [r3, #112]	; 0x70
		base->PIO_ABCDSR[1] &= ~mask;
  400714:	6f59      	ldr	r1, [r3, #116]	; 0x74
  400716:	f421 0180 	bic.w	r1, r1, #4194304	; 0x400000
  40071a:	6759      	str	r1, [r3, #116]	; 0x74
	arch_ioport_port_to_base(port)->PIO_PDR = mask;
  40071c:	605a      	str	r2, [r3, #4]
		base->PIO_PUDR = mask;
  40071e:	f04f 7200 	mov.w	r2, #33554432	; 0x2000000
  400722:	661a      	str	r2, [r3, #96]	; 0x60
		base->PIO_PPDDR = mask;
  400724:	f8c3 2090 	str.w	r2, [r3, #144]	; 0x90
		base->PIO_MDDR = mask;
  400728:	655a      	str	r2, [r3, #84]	; 0x54
		base->PIO_IFDR = mask;
  40072a:	625a      	str	r2, [r3, #36]	; 0x24
		base->PIO_IFSCDR = mask;
  40072c:	f8c3 2080 	str.w	r2, [r3, #128]	; 0x80
		base->PIO_ABCDSR[0] |= mask;
  400730:	6f19      	ldr	r1, [r3, #112]	; 0x70
  400732:	4311      	orrs	r1, r2
  400734:	6719      	str	r1, [r3, #112]	; 0x70
		base->PIO_ABCDSR[1] &= ~mask;
  400736:	6f59      	ldr	r1, [r3, #116]	; 0x74
  400738:	f021 7100 	bic.w	r1, r1, #33554432	; 0x2000000
  40073c:	6759      	str	r1, [r3, #116]	; 0x74
	arch_ioport_port_to_base(port)->PIO_PDR = mask;
  40073e:	605a      	str	r2, [r3, #4]
  400740:	bdf8      	pop	{r3, r4, r5, r6, r7, pc}
  400742:	bf00      	nop
  400744:	400e1850 	.word	0x400e1850
  400748:	e000ed00 	.word	0xe000ed00
  40074c:	400e0c00 	.word	0x400e0c00
  400750:	5a00080c 	.word	0x5a00080c
  400754:	00400941 	.word	0x00400941
  400758:	400e1200 	.word	0x400e1200
  40075c:	40088000 	.word	0x40088000
  400760:	400e1000 	.word	0x400e1000

00400764 <pio_get_interrupt_status>:
 *
 * \return The interrupt status value.
 */
uint32_t pio_get_interrupt_status(const Pio *p_pio)
{
	return p_pio->PIO_ISR;
  400764:	6cc0      	ldr	r0, [r0, #76]	; 0x4c
}
  400766:	4770      	bx	lr

00400768 <pio_get_interrupt_mask>:
 *
 * \return The interrupt mask value.
 */
uint32_t pio_get_interrupt_mask(const Pio *p_pio)
{
	return p_pio->PIO_IMR;
  400768:	6c80      	ldr	r0, [r0, #72]	; 0x48
}
  40076a:	4770      	bx	lr

0040076c <pio_handler_process>:
 *
 * \param p_pio PIO controller base address.
 * \param ul_id PIO controller ID.
 */
void pio_handler_process(Pio *p_pio, uint32_t ul_id)
{
  40076c:	e92d 41f0 	stmdb	sp!, {r4, r5, r6, r7, r8, lr}
  400770:	4604      	mov	r4, r0
  400772:	4688      	mov	r8, r1
	uint32_t status;
	uint32_t i;

	/* Read PIO controller status */
	status = pio_get_interrupt_status(p_pio);
  400774:	4b0e      	ldr	r3, [pc, #56]	; (4007b0 <pio_handler_process+0x44>)
  400776:	4798      	blx	r3
  400778:	4605      	mov	r5, r0
	status &= pio_get_interrupt_mask(p_pio);
  40077a:	4620      	mov	r0, r4
  40077c:	4b0d      	ldr	r3, [pc, #52]	; (4007b4 <pio_handler_process+0x48>)
  40077e:	4798      	blx	r3

	/* Check pending events */
	if (status != 0) {
  400780:	4005      	ands	r5, r0
  400782:	d013      	beq.n	4007ac <pio_handler_process+0x40>
  400784:	4c0c      	ldr	r4, [pc, #48]	; (4007b8 <pio_handler_process+0x4c>)
  400786:	f104 0660 	add.w	r6, r4, #96	; 0x60
  40078a:	e003      	b.n	400794 <pio_handler_process+0x28>
							gs_interrupt_sources[i].mask);
					status &= ~(gs_interrupt_sources[i].mask);
				}
			}
			i++;
			if (i >= MAX_INTERRUPT_SOURCES) {
  40078c:	42b4      	cmp	r4, r6
  40078e:	d00d      	beq.n	4007ac <pio_handler_process+0x40>
  400790:	3410      	adds	r4, #16
		while (status != 0) {
  400792:	b15d      	cbz	r5, 4007ac <pio_handler_process+0x40>
			if (gs_interrupt_sources[i].id == ul_id) {
  400794:	6820      	ldr	r0, [r4, #0]
  400796:	4540      	cmp	r0, r8
  400798:	d1f8      	bne.n	40078c <pio_handler_process+0x20>
				if ((status & gs_interrupt_sources[i].mask) != 0) {
  40079a:	6861      	ldr	r1, [r4, #4]
  40079c:	4229      	tst	r1, r5
  40079e:	d0f5      	beq.n	40078c <pio_handler_process+0x20>
					gs_interrupt_sources[i].handler(gs_interrupt_sources[i].id,
  4007a0:	68e3      	ldr	r3, [r4, #12]
  4007a2:	4798      	blx	r3
					status &= ~(gs_interrupt_sources[i].mask);
  4007a4:	6863      	ldr	r3, [r4, #4]
  4007a6:	ea25 0503 	bic.w	r5, r5, r3
  4007aa:	e7ef      	b.n	40078c <pio_handler_process+0x20>
  4007ac:	e8bd 81f0 	ldmia.w	sp!, {r4, r5, r6, r7, r8, pc}
  4007b0:	00400765 	.word	0x00400765
  4007b4:	00400769 	.word	0x00400769
  4007b8:	204009e0 	.word	0x204009e0

004007bc <PIOA_Handler>:
/**
 * \brief Parallel IO Controller A interrupt handler.
 * Redefined PIOA interrupt handler for NVIC interrupt table.
 */
void PIOA_Handler(void)
{
  4007bc:	b508      	push	{r3, lr}
	pio_handler_process(PIOA, ID_PIOA);
  4007be:	210a      	movs	r1, #10
  4007c0:	4801      	ldr	r0, [pc, #4]	; (4007c8 <PIOA_Handler+0xc>)
  4007c2:	4b02      	ldr	r3, [pc, #8]	; (4007cc <PIOA_Handler+0x10>)
  4007c4:	4798      	blx	r3
  4007c6:	bd08      	pop	{r3, pc}
  4007c8:	400e0e00 	.word	0x400e0e00
  4007cc:	0040076d 	.word	0x0040076d

004007d0 <PIOB_Handler>:
/**
 * \brief Parallel IO Controller B interrupt handler
 * Redefined PIOB interrupt handler for NVIC interrupt table.
 */
void PIOB_Handler(void)
{
  4007d0:	b508      	push	{r3, lr}
    pio_handler_process(PIOB, ID_PIOB);
  4007d2:	210b      	movs	r1, #11
  4007d4:	4801      	ldr	r0, [pc, #4]	; (4007dc <PIOB_Handler+0xc>)
  4007d6:	4b02      	ldr	r3, [pc, #8]	; (4007e0 <PIOB_Handler+0x10>)
  4007d8:	4798      	blx	r3
  4007da:	bd08      	pop	{r3, pc}
  4007dc:	400e1000 	.word	0x400e1000
  4007e0:	0040076d 	.word	0x0040076d

004007e4 <PIOC_Handler>:
/**
 * \brief Parallel IO Controller C interrupt handler.
 * Redefined PIOC interrupt handler for NVIC interrupt table.
 */
void PIOC_Handler(void)
{
  4007e4:	b508      	push	{r3, lr}
	pio_handler_process(PIOC, ID_PIOC);
  4007e6:	210c      	movs	r1, #12
  4007e8:	4801      	ldr	r0, [pc, #4]	; (4007f0 <PIOC_Handler+0xc>)
  4007ea:	4b02      	ldr	r3, [pc, #8]	; (4007f4 <PIOC_Handler+0x10>)
  4007ec:	4798      	blx	r3
  4007ee:	bd08      	pop	{r3, pc}
  4007f0:	400e1200 	.word	0x400e1200
  4007f4:	0040076d 	.word	0x0040076d

004007f8 <PIOD_Handler>:
/**
 * \brief Parallel IO Controller D interrupt handler.
 * Redefined PIOD interrupt handler for NVIC interrupt table.
 */
void PIOD_Handler(void)
{
  4007f8:	b508      	push	{r3, lr}
	pio_handler_process(PIOD, ID_PIOD);
  4007fa:	2110      	movs	r1, #16
  4007fc:	4801      	ldr	r0, [pc, #4]	; (400804 <PIOD_Handler+0xc>)
  4007fe:	4b02      	ldr	r3, [pc, #8]	; (400808 <PIOD_Handler+0x10>)
  400800:	4798      	blx	r3
  400802:	bd08      	pop	{r3, pc}
  400804:	400e1400 	.word	0x400e1400
  400808:	0040076d 	.word	0x0040076d

0040080c <PIOE_Handler>:
/**
 * \brief Parallel IO Controller E interrupt handler.
 * Redefined PIOE interrupt handler for NVIC interrupt table.
 */
void PIOE_Handler(void)
{
  40080c:	b508      	push	{r3, lr}
	pio_handler_process(PIOE, ID_PIOE);
  40080e:	2111      	movs	r1, #17
  400810:	4801      	ldr	r0, [pc, #4]	; (400818 <PIOE_Handler+0xc>)
  400812:	4b02      	ldr	r3, [pc, #8]	; (40081c <PIOE_Handler+0x10>)
  400814:	4798      	blx	r3
  400816:	bd08      	pop	{r3, pc}
  400818:	400e1600 	.word	0x400e1600
  40081c:	0040076d 	.word	0x0040076d

00400820 <pmc_mck_set_division>:
 *
 * \param ul_div Division value.
 */
void pmc_mck_set_division(uint32_t ul_div)
{
	switch (ul_div) {
  400820:	2803      	cmp	r0, #3
  400822:	d011      	beq.n	400848 <pmc_mck_set_division+0x28>
  400824:	2804      	cmp	r0, #4
  400826:	d012      	beq.n	40084e <pmc_mck_set_division+0x2e>
		case 1:
			ul_div = PMC_MCKR_MDIV_EQ_PCK;
  400828:	2802      	cmp	r0, #2
  40082a:	bf0c      	ite	eq
  40082c:	f44f 7180 	moveq.w	r1, #256	; 0x100
  400830:	2100      	movne	r1, #0
		default:
			ul_div = PMC_MCKR_MDIV_EQ_PCK;
			break;
	}
	PMC->PMC_MCKR =
			(PMC->PMC_MCKR & (~PMC_MCKR_MDIV_Msk)) | ul_div;
  400832:	4a08      	ldr	r2, [pc, #32]	; (400854 <pmc_mck_set_division+0x34>)
  400834:	6b13      	ldr	r3, [r2, #48]	; 0x30
  400836:	f423 7340 	bic.w	r3, r3, #768	; 0x300
  40083a:	430b      	orrs	r3, r1
	PMC->PMC_MCKR =
  40083c:	6313      	str	r3, [r2, #48]	; 0x30
	while (!(PMC->PMC_SR & PMC_SR_MCKRDY));
  40083e:	6e93      	ldr	r3, [r2, #104]	; 0x68
  400840:	f013 0f08 	tst.w	r3, #8
  400844:	d0fb      	beq.n	40083e <pmc_mck_set_division+0x1e>
}
  400846:	4770      	bx	lr
			ul_div = PMC_MCKR_MDIV_PCK_DIV3;
  400848:	f44f 7140 	mov.w	r1, #768	; 0x300
			break;
  40084c:	e7f1      	b.n	400832 <pmc_mck_set_division+0x12>
			ul_div = PMC_MCKR_MDIV_PCK_DIV4;
  40084e:	f44f 7100 	mov.w	r1, #512	; 0x200
			break;
  400852:	e7ee      	b.n	400832 <pmc_mck_set_division+0x12>
  400854:	400e0600 	.word	0x400e0600

00400858 <pmc_switch_mck_to_pllack>:
 */
uint32_t pmc_switch_mck_to_pllack(uint32_t ul_pres)
{
	uint32_t ul_timeout;

	PMC->PMC_MCKR = (PMC->PMC_MCKR & (~PMC_MCKR_PRES_Msk)) | ul_pres;
  400858:	4a17      	ldr	r2, [pc, #92]	; (4008b8 <pmc_switch_mck_to_pllack+0x60>)
  40085a:	6b13      	ldr	r3, [r2, #48]	; 0x30
  40085c:	f023 0370 	bic.w	r3, r3, #112	; 0x70
  400860:	4318      	orrs	r0, r3
  400862:	6310      	str	r0, [r2, #48]	; 0x30
	for (ul_timeout = PMC_TIMEOUT; !(PMC->PMC_SR & PMC_SR_MCKRDY);
  400864:	6e93      	ldr	r3, [r2, #104]	; 0x68
  400866:	f013 0f08 	tst.w	r3, #8
  40086a:	d10a      	bne.n	400882 <pmc_switch_mck_to_pllack+0x2a>
  40086c:	f44f 5380 	mov.w	r3, #4096	; 0x1000
  400870:	4911      	ldr	r1, [pc, #68]	; (4008b8 <pmc_switch_mck_to_pllack+0x60>)
  400872:	6e8a      	ldr	r2, [r1, #104]	; 0x68
  400874:	f012 0f08 	tst.w	r2, #8
  400878:	d103      	bne.n	400882 <pmc_switch_mck_to_pllack+0x2a>
			--ul_timeout) {
		if (ul_timeout == 0) {
  40087a:	3b01      	subs	r3, #1
  40087c:	d1f9      	bne.n	400872 <pmc_switch_mck_to_pllack+0x1a>
			return 1;
  40087e:	2001      	movs	r0, #1
  400880:	4770      	bx	lr
		}
	}

	PMC->PMC_MCKR = (PMC->PMC_MCKR & (~PMC_MCKR_CSS_Msk)) |
  400882:	4a0d      	ldr	r2, [pc, #52]	; (4008b8 <pmc_switch_mck_to_pllack+0x60>)
  400884:	6b13      	ldr	r3, [r2, #48]	; 0x30
  400886:	f023 0303 	bic.w	r3, r3, #3
  40088a:	f043 0302 	orr.w	r3, r3, #2
  40088e:	6313      	str	r3, [r2, #48]	; 0x30
			PMC_MCKR_CSS_PLLA_CLK;

	for (ul_timeout = PMC_TIMEOUT; !(PMC->PMC_SR & PMC_SR_MCKRDY);
  400890:	6e93      	ldr	r3, [r2, #104]	; 0x68
  400892:	f013 0f08 	tst.w	r3, #8
  400896:	d10a      	bne.n	4008ae <pmc_switch_mck_to_pllack+0x56>
  400898:	f44f 5380 	mov.w	r3, #4096	; 0x1000
  40089c:	4906      	ldr	r1, [pc, #24]	; (4008b8 <pmc_switch_mck_to_pllack+0x60>)
  40089e:	6e8a      	ldr	r2, [r1, #104]	; 0x68
  4008a0:	f012 0f08 	tst.w	r2, #8
  4008a4:	d105      	bne.n	4008b2 <pmc_switch_mck_to_pllack+0x5a>
			--ul_timeout) {
		if (ul_timeout == 0) {
  4008a6:	3b01      	subs	r3, #1
  4008a8:	d1f9      	bne.n	40089e <pmc_switch_mck_to_pllack+0x46>
			return 1;
  4008aa:	2001      	movs	r0, #1
		}
	}

	return 0;
}
  4008ac:	4770      	bx	lr
	return 0;
  4008ae:	2000      	movs	r0, #0
  4008b0:	4770      	bx	lr
  4008b2:	2000      	movs	r0, #0
  4008b4:	4770      	bx	lr
  4008b6:	bf00      	nop
  4008b8:	400e0600 	.word	0x400e0600

004008bc <pmc_switch_mainck_to_xtal>:
 */
void pmc_switch_mainck_to_xtal(uint32_t ul_bypass,
		uint32_t ul_xtal_startup_time)
{
	/* Enable Main Xtal oscillator */
	if (ul_bypass) {
  4008bc:	b9a0      	cbnz	r0, 4008e8 <pmc_switch_mainck_to_xtal+0x2c>
		PMC->CKGR_MOR = (PMC->CKGR_MOR & ~CKGR_MOR_MOSCXTEN) |
				CKGR_MOR_KEY_PASSWD | CKGR_MOR_MOSCXTBY |
				CKGR_MOR_MOSCSEL;
	} else {
		PMC->CKGR_MOR = (PMC->CKGR_MOR & ~CKGR_MOR_MOSCXTBY) |
  4008be:	480e      	ldr	r0, [pc, #56]	; (4008f8 <pmc_switch_mainck_to_xtal+0x3c>)
  4008c0:	6a03      	ldr	r3, [r0, #32]
				CKGR_MOR_KEY_PASSWD | CKGR_MOR_MOSCXTEN |
				CKGR_MOR_MOSCXTST(ul_xtal_startup_time);
  4008c2:	0209      	lsls	r1, r1, #8
  4008c4:	b289      	uxth	r1, r1
				CKGR_MOR_KEY_PASSWD | CKGR_MOR_MOSCXTEN |
  4008c6:	4a0d      	ldr	r2, [pc, #52]	; (4008fc <pmc_switch_mainck_to_xtal+0x40>)
  4008c8:	401a      	ands	r2, r3
  4008ca:	4b0d      	ldr	r3, [pc, #52]	; (400900 <pmc_switch_mainck_to_xtal+0x44>)
  4008cc:	4313      	orrs	r3, r2
  4008ce:	4319      	orrs	r1, r3
		PMC->CKGR_MOR = (PMC->CKGR_MOR & ~CKGR_MOR_MOSCXTBY) |
  4008d0:	6201      	str	r1, [r0, #32]
		/* Wait the Xtal to stabilize */
		while (!(PMC->PMC_SR & PMC_SR_MOSCXTS));
  4008d2:	4602      	mov	r2, r0
  4008d4:	6e93      	ldr	r3, [r2, #104]	; 0x68
  4008d6:	f013 0f01 	tst.w	r3, #1
  4008da:	d0fb      	beq.n	4008d4 <pmc_switch_mainck_to_xtal+0x18>

		PMC->CKGR_MOR |= CKGR_MOR_KEY_PASSWD | CKGR_MOR_MOSCSEL;
  4008dc:	4a06      	ldr	r2, [pc, #24]	; (4008f8 <pmc_switch_mainck_to_xtal+0x3c>)
  4008de:	6a11      	ldr	r1, [r2, #32]
  4008e0:	4b08      	ldr	r3, [pc, #32]	; (400904 <pmc_switch_mainck_to_xtal+0x48>)
  4008e2:	430b      	orrs	r3, r1
  4008e4:	6213      	str	r3, [r2, #32]
  4008e6:	4770      	bx	lr
		PMC->CKGR_MOR = (PMC->CKGR_MOR & ~CKGR_MOR_MOSCXTEN) |
  4008e8:	4903      	ldr	r1, [pc, #12]	; (4008f8 <pmc_switch_mainck_to_xtal+0x3c>)
  4008ea:	6a0b      	ldr	r3, [r1, #32]
				CKGR_MOR_KEY_PASSWD | CKGR_MOR_MOSCXTBY |
  4008ec:	4a06      	ldr	r2, [pc, #24]	; (400908 <pmc_switch_mainck_to_xtal+0x4c>)
  4008ee:	401a      	ands	r2, r3
  4008f0:	4b06      	ldr	r3, [pc, #24]	; (40090c <pmc_switch_mainck_to_xtal+0x50>)
  4008f2:	4313      	orrs	r3, r2
		PMC->CKGR_MOR = (PMC->CKGR_MOR & ~CKGR_MOR_MOSCXTEN) |
  4008f4:	620b      	str	r3, [r1, #32]
  4008f6:	4770      	bx	lr
  4008f8:	400e0600 	.word	0x400e0600
  4008fc:	ffc8fffc 	.word	0xffc8fffc
  400900:	00370001 	.word	0x00370001
  400904:	01370000 	.word	0x01370000
  400908:	fec8fffc 	.word	0xfec8fffc
  40090c:	01370002 	.word	0x01370002

00400910 <pmc_osc_is_ready_mainck>:
 * \retval 1 Xtal is ready.
 * \retval 0 Xtal is not ready.
 */
uint32_t pmc_osc_is_ready_mainck(void)
{
	return PMC->PMC_SR & PMC_SR_MOSCSELS;
  400910:	4b02      	ldr	r3, [pc, #8]	; (40091c <pmc_osc_is_ready_mainck+0xc>)
  400912:	6e98      	ldr	r0, [r3, #104]	; 0x68
}
  400914:	f400 3080 	and.w	r0, r0, #65536	; 0x10000
  400918:	4770      	bx	lr
  40091a:	bf00      	nop
  40091c:	400e0600 	.word	0x400e0600

00400920 <pmc_disable_pllack>:
void pmc_disable_pllack(void)
{
#if (SAM4C || SAM4CM || SAM4CP || SAMG)
	PMC->CKGR_PLLAR = CKGR_PLLAR_MULA(0);
#else
	PMC->CKGR_PLLAR = CKGR_PLLAR_ONE | CKGR_PLLAR_MULA(0);
  400920:	f04f 5200 	mov.w	r2, #536870912	; 0x20000000
  400924:	4b01      	ldr	r3, [pc, #4]	; (40092c <pmc_disable_pllack+0xc>)
  400926:	629a      	str	r2, [r3, #40]	; 0x28
  400928:	4770      	bx	lr
  40092a:	bf00      	nop
  40092c:	400e0600 	.word	0x400e0600

00400930 <pmc_is_locked_pllack>:
 * \retval 0 Not locked.
 * \retval 1 Locked.
 */
uint32_t pmc_is_locked_pllack(void)
{
	return (PMC->PMC_SR & PMC_SR_LOCKA);
  400930:	4b02      	ldr	r3, [pc, #8]	; (40093c <pmc_is_locked_pllack+0xc>)
  400932:	6e98      	ldr	r0, [r3, #104]	; 0x68
}
  400934:	f000 0002 	and.w	r0, r0, #2
  400938:	4770      	bx	lr
  40093a:	bf00      	nop
  40093c:	400e0600 	.word	0x400e0600

00400940 <pmc_enable_periph_clk>:
 */
uint32_t pmc_enable_periph_clk(uint32_t ul_id)
{
#if defined(REG_PMC_PCR) && !SAMG55
	uint32_t pcr;
	PMC->PMC_PCR = ul_id & 0x7F;
  400940:	f000 007f 	and.w	r0, r0, #127	; 0x7f
  400944:	4b05      	ldr	r3, [pc, #20]	; (40095c <pmc_enable_periph_clk+0x1c>)
  400946:	f8c3 010c 	str.w	r0, [r3, #268]	; 0x10c
	pcr = PMC->PMC_PCR | PMC_PCR_EN | PMC_PCR_CMD;
  40094a:	f8d3 210c 	ldr.w	r2, [r3, #268]	; 0x10c
  40094e:	f042 2210 	orr.w	r2, r2, #268439552	; 0x10001000
	PMC->PMC_PCR = pcr;
  400952:	f8c3 210c 	str.w	r2, [r3, #268]	; 0x10c
#endif
	}

	return 0;
#endif /* defined(REG_PMC_PCR) && !SAMG55 */
}
  400956:	2000      	movs	r0, #0
  400958:	4770      	bx	lr
  40095a:	bf00      	nop
  40095c:	400e0600 	.word	0x400e0600

00400960 <Dummy_Handler>:

/**
 * \brief Default interrupt handler for unused IRQs.
 */
void Dummy_Handler(void)
{
  400960:	e7fe      	b.n	400960 <Dummy_Handler>
	...

00400964 <Reset_Handler>:
{
  400964:	b500      	push	{lr}
  400966:	b083      	sub	sp, #12
        if (pSrc != pDest) {
  400968:	4b25      	ldr	r3, [pc, #148]	; (400a00 <Reset_Handler+0x9c>)
  40096a:	4a26      	ldr	r2, [pc, #152]	; (400a04 <Reset_Handler+0xa0>)
  40096c:	429a      	cmp	r2, r3
  40096e:	d010      	beq.n	400992 <Reset_Handler+0x2e>
                for (; pDest < &_erelocate;) {
  400970:	4b25      	ldr	r3, [pc, #148]	; (400a08 <Reset_Handler+0xa4>)
  400972:	4a23      	ldr	r2, [pc, #140]	; (400a00 <Reset_Handler+0x9c>)
  400974:	429a      	cmp	r2, r3
  400976:	d20c      	bcs.n	400992 <Reset_Handler+0x2e>
  400978:	3b01      	subs	r3, #1
  40097a:	1a9b      	subs	r3, r3, r2
  40097c:	f023 0303 	bic.w	r3, r3, #3
  400980:	3304      	adds	r3, #4
  400982:	4413      	add	r3, r2
  400984:	491f      	ldr	r1, [pc, #124]	; (400a04 <Reset_Handler+0xa0>)
                        *pDest++ = *pSrc++;
  400986:	f851 0b04 	ldr.w	r0, [r1], #4
  40098a:	f842 0b04 	str.w	r0, [r2], #4
                for (; pDest < &_erelocate;) {
  40098e:	429a      	cmp	r2, r3
  400990:	d1f9      	bne.n	400986 <Reset_Handler+0x22>
        for (pDest = &_szero; pDest < &_ezero;) {
  400992:	4b1e      	ldr	r3, [pc, #120]	; (400a0c <Reset_Handler+0xa8>)
  400994:	4a1e      	ldr	r2, [pc, #120]	; (400a10 <Reset_Handler+0xac>)
  400996:	429a      	cmp	r2, r3
  400998:	d20a      	bcs.n	4009b0 <Reset_Handler+0x4c>
  40099a:	3b01      	subs	r3, #1
  40099c:	1a9b      	subs	r3, r3, r2
  40099e:	f023 0303 	bic.w	r3, r3, #3
  4009a2:	3304      	adds	r3, #4
  4009a4:	4413      	add	r3, r2
                *pDest++ = 0;
  4009a6:	2100      	movs	r1, #0
  4009a8:	f842 1b04 	str.w	r1, [r2], #4
        for (pDest = &_szero; pDest < &_ezero;) {
  4009ac:	4293      	cmp	r3, r2
  4009ae:	d1fb      	bne.n	4009a8 <Reset_Handler+0x44>
        SCB->VTOR = ((uint32_t) pSrc & SCB_VTOR_TBLOFF_Msk);
  4009b0:	4a18      	ldr	r2, [pc, #96]	; (400a14 <Reset_Handler+0xb0>)
  4009b2:	4b19      	ldr	r3, [pc, #100]	; (400a18 <Reset_Handler+0xb4>)
  4009b4:	f023 037f 	bic.w	r3, r3, #127	; 0x7f
  4009b8:	6093      	str	r3, [r2, #8]
  __ASM volatile ("MRS %0, primask" : "=r" (result) :: "memory");
  4009ba:	f3ef 8310 	mrs	r3, PRIMASK
static volatile uint32_t cpu_irq_critical_section_counter;
static volatile bool     cpu_irq_prev_interrupt_state;

static inline irqflags_t cpu_irq_save(void)
{
	volatile irqflags_t flags = cpu_irq_is_enabled();
  4009be:	fab3 f383 	clz	r3, r3
  4009c2:	095b      	lsrs	r3, r3, #5
  4009c4:	9301      	str	r3, [sp, #4]
  __ASM volatile ("cpsid i" : : : "memory");
  4009c6:	b672      	cpsid	i
  \details Ensures the apparent order of the explicit memory operations before
           and after the instruction, without ensuring their completion.
 */
__STATIC_FORCEINLINE void __DMB(void)
{
  __ASM volatile ("dmb 0xF":::"memory");
  4009c8:	f3bf 8f5f 	dmb	sy
	cpu_irq_disable();
  4009cc:	2200      	movs	r2, #0
  4009ce:	4b13      	ldr	r3, [pc, #76]	; (400a1c <Reset_Handler+0xb8>)
  4009d0:	701a      	strb	r2, [r3, #0]
	return flags;
  4009d2:	9901      	ldr	r1, [sp, #4]
 */
__always_inline static void fpu_enable(void)
{
	irqflags_t flags;
	flags = cpu_irq_save();
	REG_CPACR |=  (0xFu << 20);
  4009d4:	4a12      	ldr	r2, [pc, #72]	; (400a20 <Reset_Handler+0xbc>)
  4009d6:	6813      	ldr	r3, [r2, #0]
  4009d8:	f443 0370 	orr.w	r3, r3, #15728640	; 0xf00000
  4009dc:	6013      	str	r3, [r2, #0]
  __ASM volatile ("dsb 0xF":::"memory");
  4009de:	f3bf 8f4f 	dsb	sy
  __ASM volatile ("isb 0xF":::"memory");
  4009e2:	f3bf 8f6f 	isb	sy
	return (flags);
}

static inline void cpu_irq_restore(irqflags_t flags)
{
	if (cpu_irq_is_enabled_flags(flags))
  4009e6:	b129      	cbz	r1, 4009f4 <Reset_Handler+0x90>
		cpu_irq_enable();
  4009e8:	2201      	movs	r2, #1
  4009ea:	4b0c      	ldr	r3, [pc, #48]	; (400a1c <Reset_Handler+0xb8>)
  4009ec:	701a      	strb	r2, [r3, #0]
  __ASM volatile ("dmb 0xF":::"memory");
  4009ee:	f3bf 8f5f 	dmb	sy
  __ASM volatile ("cpsie i" : : : "memory");
  4009f2:	b662      	cpsie	i
        __libc_init_array();
  4009f4:	4b0b      	ldr	r3, [pc, #44]	; (400a24 <Reset_Handler+0xc0>)
  4009f6:	4798      	blx	r3
        main();
  4009f8:	4b0b      	ldr	r3, [pc, #44]	; (400a28 <Reset_Handler+0xc4>)
  4009fa:	4798      	blx	r3
  4009fc:	e7fe      	b.n	4009fc <Reset_Handler+0x98>
  4009fe:	bf00      	nop
  400a00:	20400000 	.word	0x20400000
  400a04:	00404814 	.word	0x00404814
  400a08:	204009c0 	.word	0x204009c0
  400a0c:	20400ae4 	.word	0x20400ae4
  400a10:	204009c0 	.word	0x204009c0
  400a14:	e000ed00 	.word	0xe000ed00
  400a18:	00400000 	.word	0x00400000
  400a1c:	2040000a 	.word	0x2040000a
  400a20:	e000ed88 	.word	0xe000ed88
  400a24:	004018a5 	.word	0x004018a5
  400a28:	00401361 	.word	0x00401361

00400a2c <SystemCoreClockUpdate>:
}

void SystemCoreClockUpdate( void )
{
  /* Determine clock frequency according to clock register values */
  switch (PMC->PMC_MCKR & (uint32_t) PMC_MCKR_CSS_Msk)
  400a2c:	4b3b      	ldr	r3, [pc, #236]	; (400b1c <SystemCoreClockUpdate+0xf0>)
  400a2e:	6b1b      	ldr	r3, [r3, #48]	; 0x30
  400a30:	f003 0303 	and.w	r3, r3, #3
  400a34:	2b01      	cmp	r3, #1
  400a36:	d01d      	beq.n	400a74 <SystemCoreClockUpdate+0x48>
  400a38:	b183      	cbz	r3, 400a5c <SystemCoreClockUpdate+0x30>
  400a3a:	2b02      	cmp	r3, #2
  400a3c:	d036      	beq.n	400aac <SystemCoreClockUpdate+0x80>

    default:
    break;
  }

  if ( (PMC->PMC_MCKR & PMC_MCKR_PRES_Msk) == PMC_MCKR_PRES_CLK_3 )
  400a3e:	4b37      	ldr	r3, [pc, #220]	; (400b1c <SystemCoreClockUpdate+0xf0>)
  400a40:	6b1b      	ldr	r3, [r3, #48]	; 0x30
  400a42:	f003 0370 	and.w	r3, r3, #112	; 0x70
  400a46:	2b70      	cmp	r3, #112	; 0x70
  400a48:	d05f      	beq.n	400b0a <SystemCoreClockUpdate+0xde>
  {
    SystemCoreClock /= 3U;
  }
  else
  {
    SystemCoreClock >>= ((PMC->PMC_MCKR & PMC_MCKR_PRES_Msk) >> PMC_MCKR_PRES_Pos);
  400a4a:	4b34      	ldr	r3, [pc, #208]	; (400b1c <SystemCoreClockUpdate+0xf0>)
  400a4c:	6b1a      	ldr	r2, [r3, #48]	; 0x30
  400a4e:	4934      	ldr	r1, [pc, #208]	; (400b20 <SystemCoreClockUpdate+0xf4>)
  400a50:	f3c2 1202 	ubfx	r2, r2, #4, #3
  400a54:	680b      	ldr	r3, [r1, #0]
  400a56:	40d3      	lsrs	r3, r2
  400a58:	600b      	str	r3, [r1, #0]
  400a5a:	4770      	bx	lr
      if ( SUPC->SUPC_SR & SUPC_SR_OSCSEL )
  400a5c:	4b31      	ldr	r3, [pc, #196]	; (400b24 <SystemCoreClockUpdate+0xf8>)
  400a5e:	695b      	ldr	r3, [r3, #20]
  400a60:	f013 0f80 	tst.w	r3, #128	; 0x80
        SystemCoreClock = CHIP_FREQ_XTAL_32K;
  400a64:	bf14      	ite	ne
  400a66:	f44f 4200 	movne.w	r2, #32768	; 0x8000
        SystemCoreClock = CHIP_FREQ_SLCK_RC;
  400a6a:	f44f 42fa 	moveq.w	r2, #32000	; 0x7d00
  400a6e:	4b2c      	ldr	r3, [pc, #176]	; (400b20 <SystemCoreClockUpdate+0xf4>)
  400a70:	601a      	str	r2, [r3, #0]
  400a72:	e7e4      	b.n	400a3e <SystemCoreClockUpdate+0x12>
      if ( PMC->CKGR_MOR & CKGR_MOR_MOSCSEL )
  400a74:	4b29      	ldr	r3, [pc, #164]	; (400b1c <SystemCoreClockUpdate+0xf0>)
  400a76:	6a1b      	ldr	r3, [r3, #32]
  400a78:	f013 7f80 	tst.w	r3, #16777216	; 0x1000000
  400a7c:	d003      	beq.n	400a86 <SystemCoreClockUpdate+0x5a>
        SystemCoreClock = CHIP_FREQ_XTAL_12M;
  400a7e:	4a2a      	ldr	r2, [pc, #168]	; (400b28 <SystemCoreClockUpdate+0xfc>)
  400a80:	4b27      	ldr	r3, [pc, #156]	; (400b20 <SystemCoreClockUpdate+0xf4>)
  400a82:	601a      	str	r2, [r3, #0]
  400a84:	e7db      	b.n	400a3e <SystemCoreClockUpdate+0x12>
        SystemCoreClock = CHIP_FREQ_MAINCK_RC_4MHZ;
  400a86:	4a29      	ldr	r2, [pc, #164]	; (400b2c <SystemCoreClockUpdate+0x100>)
  400a88:	4b25      	ldr	r3, [pc, #148]	; (400b20 <SystemCoreClockUpdate+0xf4>)
  400a8a:	601a      	str	r2, [r3, #0]
        switch ( PMC->CKGR_MOR & CKGR_MOR_MOSCRCF_Msk )
  400a8c:	4b23      	ldr	r3, [pc, #140]	; (400b1c <SystemCoreClockUpdate+0xf0>)
  400a8e:	6a1b      	ldr	r3, [r3, #32]
  400a90:	f003 0370 	and.w	r3, r3, #112	; 0x70
  400a94:	2b10      	cmp	r3, #16
  400a96:	d005      	beq.n	400aa4 <SystemCoreClockUpdate+0x78>
  400a98:	2b20      	cmp	r3, #32
  400a9a:	d1d0      	bne.n	400a3e <SystemCoreClockUpdate+0x12>
            SystemCoreClock *= 3U;
  400a9c:	4a22      	ldr	r2, [pc, #136]	; (400b28 <SystemCoreClockUpdate+0xfc>)
  400a9e:	4b20      	ldr	r3, [pc, #128]	; (400b20 <SystemCoreClockUpdate+0xf4>)
  400aa0:	601a      	str	r2, [r3, #0]
          break;
  400aa2:	e7cc      	b.n	400a3e <SystemCoreClockUpdate+0x12>
            SystemCoreClock *= 2U;
  400aa4:	4a22      	ldr	r2, [pc, #136]	; (400b30 <SystemCoreClockUpdate+0x104>)
  400aa6:	4b1e      	ldr	r3, [pc, #120]	; (400b20 <SystemCoreClockUpdate+0xf4>)
  400aa8:	601a      	str	r2, [r3, #0]
          break;
  400aaa:	e7c8      	b.n	400a3e <SystemCoreClockUpdate+0x12>
      if ( PMC->CKGR_MOR & CKGR_MOR_MOSCSEL )
  400aac:	4b1b      	ldr	r3, [pc, #108]	; (400b1c <SystemCoreClockUpdate+0xf0>)
  400aae:	6a1b      	ldr	r3, [r3, #32]
  400ab0:	f013 7f80 	tst.w	r3, #16777216	; 0x1000000
  400ab4:	d016      	beq.n	400ae4 <SystemCoreClockUpdate+0xb8>
        SystemCoreClock = CHIP_FREQ_XTAL_12M ;
  400ab6:	4a1c      	ldr	r2, [pc, #112]	; (400b28 <SystemCoreClockUpdate+0xfc>)
  400ab8:	4b19      	ldr	r3, [pc, #100]	; (400b20 <SystemCoreClockUpdate+0xf4>)
  400aba:	601a      	str	r2, [r3, #0]
      if ( (uint32_t) (PMC->PMC_MCKR & (uint32_t) PMC_MCKR_CSS_Msk) == PMC_MCKR_CSS_PLLA_CLK )
  400abc:	4b17      	ldr	r3, [pc, #92]	; (400b1c <SystemCoreClockUpdate+0xf0>)
  400abe:	6b1b      	ldr	r3, [r3, #48]	; 0x30
  400ac0:	f003 0303 	and.w	r3, r3, #3
  400ac4:	2b02      	cmp	r3, #2
  400ac6:	d1ba      	bne.n	400a3e <SystemCoreClockUpdate+0x12>
        SystemCoreClock *= ((((PMC->CKGR_PLLAR) & CKGR_PLLAR_MULA_Msk) >> CKGR_PLLAR_MULA_Pos) + 1U);
  400ac8:	4a14      	ldr	r2, [pc, #80]	; (400b1c <SystemCoreClockUpdate+0xf0>)
  400aca:	6a91      	ldr	r1, [r2, #40]	; 0x28
        SystemCoreClock /= ((((PMC->CKGR_PLLAR) & CKGR_PLLAR_DIVA_Msk) >> CKGR_PLLAR_DIVA_Pos));
  400acc:	6a92      	ldr	r2, [r2, #40]	; 0x28
  400ace:	4814      	ldr	r0, [pc, #80]	; (400b20 <SystemCoreClockUpdate+0xf4>)
        SystemCoreClock *= ((((PMC->CKGR_PLLAR) & CKGR_PLLAR_MULA_Msk) >> CKGR_PLLAR_MULA_Pos) + 1U);
  400ad0:	f3c1 410a 	ubfx	r1, r1, #16, #11
  400ad4:	6803      	ldr	r3, [r0, #0]
  400ad6:	fb01 3303 	mla	r3, r1, r3, r3
        SystemCoreClock /= ((((PMC->CKGR_PLLAR) & CKGR_PLLAR_DIVA_Msk) >> CKGR_PLLAR_DIVA_Pos));
  400ada:	b2d2      	uxtb	r2, r2
  400adc:	fbb3 f3f2 	udiv	r3, r3, r2
  400ae0:	6003      	str	r3, [r0, #0]
  400ae2:	e7ac      	b.n	400a3e <SystemCoreClockUpdate+0x12>
        SystemCoreClock = CHIP_FREQ_MAINCK_RC_4MHZ;
  400ae4:	4a11      	ldr	r2, [pc, #68]	; (400b2c <SystemCoreClockUpdate+0x100>)
  400ae6:	4b0e      	ldr	r3, [pc, #56]	; (400b20 <SystemCoreClockUpdate+0xf4>)
  400ae8:	601a      	str	r2, [r3, #0]
        switch ( PMC->CKGR_MOR & CKGR_MOR_MOSCRCF_Msk )
  400aea:	4b0c      	ldr	r3, [pc, #48]	; (400b1c <SystemCoreClockUpdate+0xf0>)
  400aec:	6a1b      	ldr	r3, [r3, #32]
  400aee:	f003 0370 	and.w	r3, r3, #112	; 0x70
  400af2:	2b10      	cmp	r3, #16
  400af4:	d005      	beq.n	400b02 <SystemCoreClockUpdate+0xd6>
  400af6:	2b20      	cmp	r3, #32
  400af8:	d1e0      	bne.n	400abc <SystemCoreClockUpdate+0x90>
            SystemCoreClock *= 3U;
  400afa:	4a0b      	ldr	r2, [pc, #44]	; (400b28 <SystemCoreClockUpdate+0xfc>)
  400afc:	4b08      	ldr	r3, [pc, #32]	; (400b20 <SystemCoreClockUpdate+0xf4>)
  400afe:	601a      	str	r2, [r3, #0]
          break;
  400b00:	e7dc      	b.n	400abc <SystemCoreClockUpdate+0x90>
            SystemCoreClock *= 2U;
  400b02:	4a0b      	ldr	r2, [pc, #44]	; (400b30 <SystemCoreClockUpdate+0x104>)
  400b04:	4b06      	ldr	r3, [pc, #24]	; (400b20 <SystemCoreClockUpdate+0xf4>)
  400b06:	601a      	str	r2, [r3, #0]
          break;
  400b08:	e7d8      	b.n	400abc <SystemCoreClockUpdate+0x90>
    SystemCoreClock /= 3U;
  400b0a:	4a05      	ldr	r2, [pc, #20]	; (400b20 <SystemCoreClockUpdate+0xf4>)
  400b0c:	6813      	ldr	r3, [r2, #0]
  400b0e:	4909      	ldr	r1, [pc, #36]	; (400b34 <SystemCoreClockUpdate+0x108>)
  400b10:	fba1 1303 	umull	r1, r3, r1, r3
  400b14:	085b      	lsrs	r3, r3, #1
  400b16:	6013      	str	r3, [r2, #0]
  400b18:	4770      	bx	lr
  400b1a:	bf00      	nop
  400b1c:	400e0600 	.word	0x400e0600
  400b20:	2040000c 	.word	0x2040000c
  400b24:	400e1810 	.word	0x400e1810
  400b28:	00b71b00 	.word	0x00b71b00
  400b2c:	003d0900 	.word	0x003d0900
  400b30:	007a1200 	.word	0x007a1200
  400b34:	aaaaaaab 	.word	0xaaaaaaab

00400b38 <system_init_flash>:
 * Initialize flash.
 */
void system_init_flash( uint32_t ul_clk )
{
  /* Set FWS for embedded Flash access according to operating frequency */
  if ( ul_clk < CHIP_FREQ_FWS_0 )
  400b38:	4b16      	ldr	r3, [pc, #88]	; (400b94 <system_init_flash+0x5c>)
  400b3a:	4298      	cmp	r0, r3
  400b3c:	d913      	bls.n	400b66 <system_init_flash+0x2e>
  {
    EFC->EEFC_FMR = EEFC_FMR_FWS(0)|EEFC_FMR_CLOE;
  }
  else
  {
    if (ul_clk < CHIP_FREQ_FWS_1)
  400b3e:	4b16      	ldr	r3, [pc, #88]	; (400b98 <system_init_flash+0x60>)
  400b40:	4298      	cmp	r0, r3
  400b42:	d915      	bls.n	400b70 <system_init_flash+0x38>
    {
      EFC->EEFC_FMR = EEFC_FMR_FWS(1)|EEFC_FMR_CLOE;
    }
    else
    {
      if (ul_clk < CHIP_FREQ_FWS_2)
  400b44:	4b15      	ldr	r3, [pc, #84]	; (400b9c <system_init_flash+0x64>)
  400b46:	4298      	cmp	r0, r3
  400b48:	d916      	bls.n	400b78 <system_init_flash+0x40>
      {
        EFC->EEFC_FMR = EEFC_FMR_FWS(2)|EEFC_FMR_CLOE;
      }
      else
      {
        if ( ul_clk < CHIP_FREQ_FWS_3 )
  400b4a:	4b15      	ldr	r3, [pc, #84]	; (400ba0 <system_init_flash+0x68>)
  400b4c:	4298      	cmp	r0, r3
  400b4e:	d917      	bls.n	400b80 <system_init_flash+0x48>
        {
          EFC->EEFC_FMR = EEFC_FMR_FWS(3)|EEFC_FMR_CLOE;
        }
        else
        {
          if ( ul_clk < CHIP_FREQ_FWS_4 )
  400b50:	4b14      	ldr	r3, [pc, #80]	; (400ba4 <system_init_flash+0x6c>)
  400b52:	4298      	cmp	r0, r3
  400b54:	d918      	bls.n	400b88 <system_init_flash+0x50>
          {
            EFC->EEFC_FMR = EEFC_FMR_FWS(4)|EEFC_FMR_CLOE;
          }
          else
          {
            if ( ul_clk < CHIP_FREQ_FWS_5 )
  400b56:	4b14      	ldr	r3, [pc, #80]	; (400ba8 <system_init_flash+0x70>)
  400b58:	4298      	cmp	r0, r3
            {
              EFC->EEFC_FMR = EEFC_FMR_FWS(5)|EEFC_FMR_CLOE;
  400b5a:	bf94      	ite	ls
  400b5c:	4a13      	ldrls	r2, [pc, #76]	; (400bac <system_init_flash+0x74>)
            }
            else
            {
              EFC->EEFC_FMR = EEFC_FMR_FWS(6)|EEFC_FMR_CLOE;
  400b5e:	4a14      	ldrhi	r2, [pc, #80]	; (400bb0 <system_init_flash+0x78>)
  400b60:	4b14      	ldr	r3, [pc, #80]	; (400bb4 <system_init_flash+0x7c>)
  400b62:	601a      	str	r2, [r3, #0]
  400b64:	4770      	bx	lr
    EFC->EEFC_FMR = EEFC_FMR_FWS(0)|EEFC_FMR_CLOE;
  400b66:	f04f 6280 	mov.w	r2, #67108864	; 0x4000000
  400b6a:	4b12      	ldr	r3, [pc, #72]	; (400bb4 <system_init_flash+0x7c>)
  400b6c:	601a      	str	r2, [r3, #0]
  400b6e:	4770      	bx	lr
      EFC->EEFC_FMR = EEFC_FMR_FWS(1)|EEFC_FMR_CLOE;
  400b70:	4a11      	ldr	r2, [pc, #68]	; (400bb8 <system_init_flash+0x80>)
  400b72:	4b10      	ldr	r3, [pc, #64]	; (400bb4 <system_init_flash+0x7c>)
  400b74:	601a      	str	r2, [r3, #0]
  400b76:	4770      	bx	lr
        EFC->EEFC_FMR = EEFC_FMR_FWS(2)|EEFC_FMR_CLOE;
  400b78:	4a10      	ldr	r2, [pc, #64]	; (400bbc <system_init_flash+0x84>)
  400b7a:	4b0e      	ldr	r3, [pc, #56]	; (400bb4 <system_init_flash+0x7c>)
  400b7c:	601a      	str	r2, [r3, #0]
  400b7e:	4770      	bx	lr
          EFC->EEFC_FMR = EEFC_FMR_FWS(3)|EEFC_FMR_CLOE;
  400b80:	4a0f      	ldr	r2, [pc, #60]	; (400bc0 <system_init_flash+0x88>)
  400b82:	4b0c      	ldr	r3, [pc, #48]	; (400bb4 <system_init_flash+0x7c>)
  400b84:	601a      	str	r2, [r3, #0]
  400b86:	4770      	bx	lr
            EFC->EEFC_FMR = EEFC_FMR_FWS(4)|EEFC_FMR_CLOE;
  400b88:	f04f 2204 	mov.w	r2, #67109888	; 0x4000400
  400b8c:	4b09      	ldr	r3, [pc, #36]	; (400bb4 <system_init_flash+0x7c>)
  400b8e:	601a      	str	r2, [r3, #0]
  400b90:	4770      	bx	lr
  400b92:	bf00      	nop
  400b94:	015ef3bf 	.word	0x015ef3bf
  400b98:	02bde77f 	.word	0x02bde77f
  400b9c:	041cdb3f 	.word	0x041cdb3f
  400ba0:	057bceff 	.word	0x057bceff
  400ba4:	06dac2bf 	.word	0x06dac2bf
  400ba8:	0839b67f 	.word	0x0839b67f
  400bac:	04000500 	.word	0x04000500
  400bb0:	04000600 	.word	0x04000600
  400bb4:	400e0c00 	.word	0x400e0c00
  400bb8:	04000100 	.word	0x04000100
  400bbc:	04000200 	.word	0x04000200
  400bc0:	04000300 	.word	0x04000300

00400bc4 <_sbrk>:
{
	static unsigned char *heap = NULL;
	unsigned char *prev_heap;
	int ramend = (int)&__ram_end__;

	if (heap == NULL) {
  400bc4:	4b0a      	ldr	r3, [pc, #40]	; (400bf0 <_sbrk+0x2c>)
  400bc6:	681b      	ldr	r3, [r3, #0]
  400bc8:	b153      	cbz	r3, 400be0 <_sbrk+0x1c>
		heap = (unsigned char *)&_end;
	}
	prev_heap = heap;
  400bca:	4b09      	ldr	r3, [pc, #36]	; (400bf0 <_sbrk+0x2c>)
  400bcc:	681b      	ldr	r3, [r3, #0]

	if (((int)prev_heap + incr) > ramend) {
  400bce:	181a      	adds	r2, r3, r0
  400bd0:	4908      	ldr	r1, [pc, #32]	; (400bf4 <_sbrk+0x30>)
  400bd2:	4291      	cmp	r1, r2
  400bd4:	db08      	blt.n	400be8 <_sbrk+0x24>
		return (caddr_t) -1;	
	}

	heap += incr;
  400bd6:	4610      	mov	r0, r2
  400bd8:	4a05      	ldr	r2, [pc, #20]	; (400bf0 <_sbrk+0x2c>)
  400bda:	6010      	str	r0, [r2, #0]

	return (caddr_t) prev_heap;
  400bdc:	4618      	mov	r0, r3
  400bde:	4770      	bx	lr
		heap = (unsigned char *)&_end;
  400be0:	4a05      	ldr	r2, [pc, #20]	; (400bf8 <_sbrk+0x34>)
  400be2:	4b03      	ldr	r3, [pc, #12]	; (400bf0 <_sbrk+0x2c>)
  400be4:	601a      	str	r2, [r3, #0]
  400be6:	e7f0      	b.n	400bca <_sbrk+0x6>
		return (caddr_t) -1;	
  400be8:	f04f 30ff 	mov.w	r0, #4294967295
}
  400bec:	4770      	bx	lr
  400bee:	bf00      	nop
  400bf0:	20400a50 	.word	0x20400a50
  400bf4:	2045fffc 	.word	0x2045fffc
  400bf8:	20402ce8 	.word	0x20402ce8

00400bfc <_close>:
}

extern int _close(int file)
{
	return -1;
}
  400bfc:	f04f 30ff 	mov.w	r0, #4294967295
  400c00:	4770      	bx	lr

00400c02 <_fstat>:

extern int _fstat(int file, struct stat *st)
{
	st->st_mode = S_IFCHR;
  400c02:	f44f 5300 	mov.w	r3, #8192	; 0x2000
  400c06:	604b      	str	r3, [r1, #4]

	return 0;
}
  400c08:	2000      	movs	r0, #0
  400c0a:	4770      	bx	lr

00400c0c <_isatty>:

extern int _isatty(int file)
{
	return 1;
}
  400c0c:	2001      	movs	r0, #1
  400c0e:	4770      	bx	lr

00400c10 <_lseek>:

extern int _lseek(int file, int ptr, int dir)
{
	return 0;
}
  400c10:	2000      	movs	r0, #0
  400c12:	4770      	bx	lr

00400c14 <spi_master_transfer>:
 * \param size Size of the buffer.
 * 
 * \brief after function p_buf will contain the received SPI data  
 */
static void spi_master_transfer(void *p_buf, uint32_t size)
{
  400c14:	e92d 43f0 	stmdb	sp!, {r4, r5, r6, r7, r8, r9, lr}
  400c18:	b083      	sub	sp, #12

	uint8_t *p_buffer;

	p_buffer = p_buf;

	for (i = 0; i < size; i++) {
  400c1a:	b1d9      	cbz	r1, 400c54 <spi_master_transfer+0x40>
  400c1c:	4688      	mov	r8, r1
  400c1e:	4605      	mov	r5, r0
  400c20:	4480      	add	r8, r0
		//if (i != size-1){
			spi_write(SPI_MASTER_BASE, p_buffer[i], 0, 0);
  400c22:	4c0f      	ldr	r4, [pc, #60]	; (400c60 <spi_master_transfer+0x4c>)
  400c24:	f8df 9048 	ldr.w	r9, [pc, #72]	; 400c70 <spi_master_transfer+0x5c>
			spi_write(SPI_MASTER_BASE, p_buffer[i], 0, 1);
		}*/
		
		/* Wait transfer done. */
		while ((spi_read_status(SPI_MASTER_BASE) & SPI_SR_RDRF) == 0);
		spi_read(SPI_MASTER_BASE, &data, &uc_pcs);
  400c28:	4e0e      	ldr	r6, [pc, #56]	; (400c64 <spi_master_transfer+0x50>)
  400c2a:	462f      	mov	r7, r5
			spi_write(SPI_MASTER_BASE, p_buffer[i], 0, 0);
  400c2c:	2300      	movs	r3, #0
  400c2e:	461a      	mov	r2, r3
  400c30:	7829      	ldrb	r1, [r5, #0]
  400c32:	4620      	mov	r0, r4
  400c34:	47c8      	blx	r9
 *
 * \return SPI status register value.
 */
static inline uint32_t spi_read_status(Spi *p_spi)
{
	return p_spi->SPI_SR;
  400c36:	6923      	ldr	r3, [r4, #16]
		while ((spi_read_status(SPI_MASTER_BASE) & SPI_SR_RDRF) == 0);
  400c38:	f013 0f01 	tst.w	r3, #1
  400c3c:	d0fb      	beq.n	400c36 <spi_master_transfer+0x22>
		spi_read(SPI_MASTER_BASE, &data, &uc_pcs);
  400c3e:	f10d 0207 	add.w	r2, sp, #7
  400c42:	4631      	mov	r1, r6
  400c44:	4620      	mov	r0, r4
  400c46:	4b08      	ldr	r3, [pc, #32]	; (400c68 <spi_master_transfer+0x54>)
  400c48:	4798      	blx	r3
		p_buffer[i] = data;
  400c4a:	8833      	ldrh	r3, [r6, #0]
  400c4c:	703b      	strb	r3, [r7, #0]
  400c4e:	3501      	adds	r5, #1
	for (i = 0; i < size; i++) {
  400c50:	4545      	cmp	r5, r8
  400c52:	d1ea      	bne.n	400c2a <spi_master_transfer+0x16>
	}
	delay_us(5);
  400c54:	20fd      	movs	r0, #253	; 0xfd
  400c56:	4b05      	ldr	r3, [pc, #20]	; (400c6c <spi_master_transfer+0x58>)
  400c58:	4798      	blx	r3
}
  400c5a:	b003      	add	sp, #12
  400c5c:	e8bd 83f0 	ldmia.w	sp!, {r4, r5, r6, r7, r8, r9, pc}
  400c60:	40008000 	.word	0x40008000
  400c64:	20400a54 	.word	0x20400a54
  400c68:	004003b7 	.word	0x004003b7
  400c6c:	20400001 	.word	0x20400001
  400c70:	004003e7 	.word	0x004003e7

00400c74 <usart_serial_getchar>:
 * \param p_usart   Base address of the USART instance.
 * \param data   Data to read
 *
 */
static inline void usart_serial_getchar(usart_if p_usart, uint8_t *data)
{
  400c74:	b5f0      	push	{r4, r5, r6, r7, lr}
  400c76:	b083      	sub	sp, #12
  400c78:	4605      	mov	r5, r0
  400c7a:	460c      	mov	r4, r1
	uint32_t val = 0;
  400c7c:	2300      	movs	r3, #0
  400c7e:	9301      	str	r3, [sp, #4]
	if (UART == (Uart*)p_usart) {
		while (uart_read((Uart*)p_usart, data));
	}
#else
# ifdef UART0
	if (UART0 == (Uart*)p_usart) {
  400c80:	4b2a      	ldr	r3, [pc, #168]	; (400d2c <usart_serial_getchar+0xb8>)
  400c82:	4298      	cmp	r0, r3
  400c84:	d013      	beq.n	400cae <usart_serial_getchar+0x3a>
		while (uart_read((Uart*)p_usart, data));
	}
# endif
# ifdef UART1
	if (UART1 == (Uart*)p_usart) {
  400c86:	4b2a      	ldr	r3, [pc, #168]	; (400d30 <usart_serial_getchar+0xbc>)
  400c88:	4298      	cmp	r0, r3
  400c8a:	d018      	beq.n	400cbe <usart_serial_getchar+0x4a>
		while (uart_read((Uart*)p_usart, data));
	}
# endif
# ifdef UART2
	if (UART2 == (Uart*)p_usart) {
  400c8c:	4b29      	ldr	r3, [pc, #164]	; (400d34 <usart_serial_getchar+0xc0>)
  400c8e:	4298      	cmp	r0, r3
  400c90:	d01d      	beq.n	400cce <usart_serial_getchar+0x5a>
		while (uart_read((Uart*)p_usart, data));
	}
# endif
# ifdef UART3
	if (UART3 == (Uart*)p_usart) {
  400c92:	4b29      	ldr	r3, [pc, #164]	; (400d38 <usart_serial_getchar+0xc4>)
  400c94:	429d      	cmp	r5, r3
  400c96:	d022      	beq.n	400cde <usart_serial_getchar+0x6a>
		while (usart_read(p_usart, &val));
		*data = (uint8_t)(val & 0xFF);
	}
#else
# ifdef USART0
	if (USART0 == p_usart) {
  400c98:	4b28      	ldr	r3, [pc, #160]	; (400d3c <usart_serial_getchar+0xc8>)
  400c9a:	429d      	cmp	r5, r3
  400c9c:	d027      	beq.n	400cee <usart_serial_getchar+0x7a>
		while (usart_read(p_usart, &val));
		*data = (uint8_t)(val & 0xFF);
	}
# endif
# ifdef USART1
	if (USART1 == p_usart) {
  400c9e:	4b28      	ldr	r3, [pc, #160]	; (400d40 <usart_serial_getchar+0xcc>)
  400ca0:	429d      	cmp	r5, r3
  400ca2:	d02e      	beq.n	400d02 <usart_serial_getchar+0x8e>
		while (usart_read(p_usart, &val));
		*data = (uint8_t)(val & 0xFF);
	}
# endif
# ifdef USART2
	if (USART2 == p_usart) {
  400ca4:	4b27      	ldr	r3, [pc, #156]	; (400d44 <usart_serial_getchar+0xd0>)
  400ca6:	429d      	cmp	r5, r3
  400ca8:	d035      	beq.n	400d16 <usart_serial_getchar+0xa2>
		*data = (uint8_t)(val & 0xFF);
	}
# endif
#endif /* ifdef USART */

}
  400caa:	b003      	add	sp, #12
  400cac:	bdf0      	pop	{r4, r5, r6, r7, pc}
		while (uart_read((Uart*)p_usart, data));
  400cae:	461f      	mov	r7, r3
  400cb0:	4e25      	ldr	r6, [pc, #148]	; (400d48 <usart_serial_getchar+0xd4>)
  400cb2:	4621      	mov	r1, r4
  400cb4:	4638      	mov	r0, r7
  400cb6:	47b0      	blx	r6
  400cb8:	2800      	cmp	r0, #0
  400cba:	d1fa      	bne.n	400cb2 <usart_serial_getchar+0x3e>
  400cbc:	e7e9      	b.n	400c92 <usart_serial_getchar+0x1e>
		while (uart_read((Uart*)p_usart, data));
  400cbe:	461f      	mov	r7, r3
  400cc0:	4e21      	ldr	r6, [pc, #132]	; (400d48 <usart_serial_getchar+0xd4>)
  400cc2:	4621      	mov	r1, r4
  400cc4:	4638      	mov	r0, r7
  400cc6:	47b0      	blx	r6
  400cc8:	2800      	cmp	r0, #0
  400cca:	d1fa      	bne.n	400cc2 <usart_serial_getchar+0x4e>
  400ccc:	e7e4      	b.n	400c98 <usart_serial_getchar+0x24>
		while (uart_read((Uart*)p_usart, data));
  400cce:	461f      	mov	r7, r3
  400cd0:	4e1d      	ldr	r6, [pc, #116]	; (400d48 <usart_serial_getchar+0xd4>)
  400cd2:	4621      	mov	r1, r4
  400cd4:	4638      	mov	r0, r7
  400cd6:	47b0      	blx	r6
  400cd8:	2800      	cmp	r0, #0
  400cda:	d1fa      	bne.n	400cd2 <usart_serial_getchar+0x5e>
  400cdc:	e7df      	b.n	400c9e <usart_serial_getchar+0x2a>
		while (uart_read((Uart*)p_usart, data));
  400cde:	461f      	mov	r7, r3
  400ce0:	4e19      	ldr	r6, [pc, #100]	; (400d48 <usart_serial_getchar+0xd4>)
  400ce2:	4621      	mov	r1, r4
  400ce4:	4638      	mov	r0, r7
  400ce6:	47b0      	blx	r6
  400ce8:	2800      	cmp	r0, #0
  400cea:	d1fa      	bne.n	400ce2 <usart_serial_getchar+0x6e>
  400cec:	e7da      	b.n	400ca4 <usart_serial_getchar+0x30>
		while (usart_read(p_usart, &val));
  400cee:	461e      	mov	r6, r3
  400cf0:	4d16      	ldr	r5, [pc, #88]	; (400d4c <usart_serial_getchar+0xd8>)
  400cf2:	a901      	add	r1, sp, #4
  400cf4:	4630      	mov	r0, r6
  400cf6:	47a8      	blx	r5
  400cf8:	2800      	cmp	r0, #0
  400cfa:	d1fa      	bne.n	400cf2 <usart_serial_getchar+0x7e>
		*data = (uint8_t)(val & 0xFF);
  400cfc:	9b01      	ldr	r3, [sp, #4]
  400cfe:	7023      	strb	r3, [r4, #0]
  400d00:	e7d3      	b.n	400caa <usart_serial_getchar+0x36>
		while (usart_read(p_usart, &val));
  400d02:	461e      	mov	r6, r3
  400d04:	4d11      	ldr	r5, [pc, #68]	; (400d4c <usart_serial_getchar+0xd8>)
  400d06:	a901      	add	r1, sp, #4
  400d08:	4630      	mov	r0, r6
  400d0a:	47a8      	blx	r5
  400d0c:	2800      	cmp	r0, #0
  400d0e:	d1fa      	bne.n	400d06 <usart_serial_getchar+0x92>
		*data = (uint8_t)(val & 0xFF);
  400d10:	9b01      	ldr	r3, [sp, #4]
  400d12:	7023      	strb	r3, [r4, #0]
  400d14:	e7c9      	b.n	400caa <usart_serial_getchar+0x36>
		while (usart_read(p_usart, &val));
  400d16:	461e      	mov	r6, r3
  400d18:	4d0c      	ldr	r5, [pc, #48]	; (400d4c <usart_serial_getchar+0xd8>)
  400d1a:	a901      	add	r1, sp, #4
  400d1c:	4630      	mov	r0, r6
  400d1e:	47a8      	blx	r5
  400d20:	2800      	cmp	r0, #0
  400d22:	d1fa      	bne.n	400d1a <usart_serial_getchar+0xa6>
		*data = (uint8_t)(val & 0xFF);
  400d24:	9b01      	ldr	r3, [sp, #4]
  400d26:	7023      	strb	r3, [r4, #0]
}
  400d28:	e7bf      	b.n	400caa <usart_serial_getchar+0x36>
  400d2a:	bf00      	nop
  400d2c:	400e0800 	.word	0x400e0800
  400d30:	400e0a00 	.word	0x400e0a00
  400d34:	400e1a00 	.word	0x400e1a00
  400d38:	400e1c00 	.word	0x400e1c00
  400d3c:	40024000 	.word	0x40024000
  400d40:	40028000 	.word	0x40028000
  400d44:	4002c000 	.word	0x4002c000
  400d48:	004004c3 	.word	0x004004c3
  400d4c:	0040030b 	.word	0x0040030b

00400d50 <usart_serial_putchar>:
{
  400d50:	b570      	push	{r4, r5, r6, lr}
  400d52:	460c      	mov	r4, r1
	if (UART0 == (Uart*)p_usart) {
  400d54:	4b2a      	ldr	r3, [pc, #168]	; (400e00 <usart_serial_putchar+0xb0>)
  400d56:	4298      	cmp	r0, r3
  400d58:	d013      	beq.n	400d82 <usart_serial_putchar+0x32>
	if (UART1 == (Uart*)p_usart) {
  400d5a:	4b2a      	ldr	r3, [pc, #168]	; (400e04 <usart_serial_putchar+0xb4>)
  400d5c:	4298      	cmp	r0, r3
  400d5e:	d019      	beq.n	400d94 <usart_serial_putchar+0x44>
	if (UART2 == (Uart*)p_usart) {
  400d60:	4b29      	ldr	r3, [pc, #164]	; (400e08 <usart_serial_putchar+0xb8>)
  400d62:	4298      	cmp	r0, r3
  400d64:	d01f      	beq.n	400da6 <usart_serial_putchar+0x56>
	if (UART3 == (Uart*)p_usart) {
  400d66:	4b29      	ldr	r3, [pc, #164]	; (400e0c <usart_serial_putchar+0xbc>)
  400d68:	4298      	cmp	r0, r3
  400d6a:	d025      	beq.n	400db8 <usart_serial_putchar+0x68>
	if (USART0 == p_usart) {
  400d6c:	4b28      	ldr	r3, [pc, #160]	; (400e10 <usart_serial_putchar+0xc0>)
  400d6e:	4298      	cmp	r0, r3
  400d70:	d02b      	beq.n	400dca <usart_serial_putchar+0x7a>
	if (USART1 == p_usart) {
  400d72:	4b28      	ldr	r3, [pc, #160]	; (400e14 <usart_serial_putchar+0xc4>)
  400d74:	4298      	cmp	r0, r3
  400d76:	d031      	beq.n	400ddc <usart_serial_putchar+0x8c>
	if (USART2 == p_usart) {
  400d78:	4b27      	ldr	r3, [pc, #156]	; (400e18 <usart_serial_putchar+0xc8>)
  400d7a:	4298      	cmp	r0, r3
  400d7c:	d037      	beq.n	400dee <usart_serial_putchar+0x9e>
	return 0;
  400d7e:	2000      	movs	r0, #0
}
  400d80:	bd70      	pop	{r4, r5, r6, pc}
		while (uart_write((Uart*)p_usart, c)!=0);
  400d82:	461e      	mov	r6, r3
  400d84:	4d25      	ldr	r5, [pc, #148]	; (400e1c <usart_serial_putchar+0xcc>)
  400d86:	4621      	mov	r1, r4
  400d88:	4630      	mov	r0, r6
  400d8a:	47a8      	blx	r5
  400d8c:	2800      	cmp	r0, #0
  400d8e:	d1fa      	bne.n	400d86 <usart_serial_putchar+0x36>
		return 1;
  400d90:	2001      	movs	r0, #1
  400d92:	bd70      	pop	{r4, r5, r6, pc}
		while (uart_write((Uart*)p_usart, c)!=0);
  400d94:	461e      	mov	r6, r3
  400d96:	4d21      	ldr	r5, [pc, #132]	; (400e1c <usart_serial_putchar+0xcc>)
  400d98:	4621      	mov	r1, r4
  400d9a:	4630      	mov	r0, r6
  400d9c:	47a8      	blx	r5
  400d9e:	2800      	cmp	r0, #0
  400da0:	d1fa      	bne.n	400d98 <usart_serial_putchar+0x48>
		return 1;
  400da2:	2001      	movs	r0, #1
  400da4:	bd70      	pop	{r4, r5, r6, pc}
		while (uart_write((Uart*)p_usart, c)!=0);
  400da6:	461e      	mov	r6, r3
  400da8:	4d1c      	ldr	r5, [pc, #112]	; (400e1c <usart_serial_putchar+0xcc>)
  400daa:	4621      	mov	r1, r4
  400dac:	4630      	mov	r0, r6
  400dae:	47a8      	blx	r5
  400db0:	2800      	cmp	r0, #0
  400db2:	d1fa      	bne.n	400daa <usart_serial_putchar+0x5a>
		return 1;
  400db4:	2001      	movs	r0, #1
  400db6:	bd70      	pop	{r4, r5, r6, pc}
		while (uart_write((Uart*)p_usart, c)!=0);
  400db8:	461e      	mov	r6, r3
  400dba:	4d18      	ldr	r5, [pc, #96]	; (400e1c <usart_serial_putchar+0xcc>)
  400dbc:	4621      	mov	r1, r4
  400dbe:	4630      	mov	r0, r6
  400dc0:	47a8      	blx	r5
  400dc2:	2800      	cmp	r0, #0
  400dc4:	d1fa      	bne.n	400dbc <usart_serial_putchar+0x6c>
		return 1;
  400dc6:	2001      	movs	r0, #1
  400dc8:	bd70      	pop	{r4, r5, r6, pc}
		while (usart_write(p_usart, c)!=0);
  400dca:	461e      	mov	r6, r3
  400dcc:	4d14      	ldr	r5, [pc, #80]	; (400e20 <usart_serial_putchar+0xd0>)
  400dce:	4621      	mov	r1, r4
  400dd0:	4630      	mov	r0, r6
  400dd2:	47a8      	blx	r5
  400dd4:	2800      	cmp	r0, #0
  400dd6:	d1fa      	bne.n	400dce <usart_serial_putchar+0x7e>
		return 1;
  400dd8:	2001      	movs	r0, #1
  400dda:	bd70      	pop	{r4, r5, r6, pc}
		while (usart_write(p_usart, c)!=0);
  400ddc:	461e      	mov	r6, r3
  400dde:	4d10      	ldr	r5, [pc, #64]	; (400e20 <usart_serial_putchar+0xd0>)
  400de0:	4621      	mov	r1, r4
  400de2:	4630      	mov	r0, r6
  400de4:	47a8      	blx	r5
  400de6:	2800      	cmp	r0, #0
  400de8:	d1fa      	bne.n	400de0 <usart_serial_putchar+0x90>
		return 1;
  400dea:	2001      	movs	r0, #1
  400dec:	bd70      	pop	{r4, r5, r6, pc}
		while (usart_write(p_usart, c)!=0);
  400dee:	461e      	mov	r6, r3
  400df0:	4d0b      	ldr	r5, [pc, #44]	; (400e20 <usart_serial_putchar+0xd0>)
  400df2:	4621      	mov	r1, r4
  400df4:	4630      	mov	r0, r6
  400df6:	47a8      	blx	r5
  400df8:	2800      	cmp	r0, #0
  400dfa:	d1fa      	bne.n	400df2 <usart_serial_putchar+0xa2>
		return 1;
  400dfc:	2001      	movs	r0, #1
  400dfe:	bd70      	pop	{r4, r5, r6, pc}
  400e00:	400e0800 	.word	0x400e0800
  400e04:	400e0a00 	.word	0x400e0a00
  400e08:	400e1a00 	.word	0x400e1a00
  400e0c:	400e1c00 	.word	0x400e1c00
  400e10:	40024000 	.word	0x40024000
  400e14:	40028000 	.word	0x40028000
  400e18:	4002c000 	.word	0x4002c000
  400e1c:	004004b1 	.word	0x004004b1
  400e20:	004002f5 	.word	0x004002f5

00400e24 <nRF24_readRegister>:
 * 
 * \param reg register to read
 * \return data register
 */
uint8_t nRF24_readRegister(uint8_t reg)
{
  400e24:	b500      	push	{lr}
  400e26:	b083      	sub	sp, #12
	uint8_t cmd[2] = {R_REGISTER | (REGISTER_MASK & reg), 0xFF};
  400e28:	f000 001f 	and.w	r0, r0, #31
  400e2c:	f88d 0004 	strb.w	r0, [sp, #4]
  400e30:	23ff      	movs	r3, #255	; 0xff
  400e32:	f88d 3005 	strb.w	r3, [sp, #5]
	
	spi_master_transfer(&cmd, sizeof(cmd));
  400e36:	2102      	movs	r1, #2
  400e38:	a801      	add	r0, sp, #4
  400e3a:	4b03      	ldr	r3, [pc, #12]	; (400e48 <nRF24_readRegister+0x24>)
  400e3c:	4798      	blx	r3
	/** contents of cmd after transfer:
	 * [0] contains STATUS register
	 * [1] contains requested register
	*/
	return cmd[1]; 
}
  400e3e:	f89d 0005 	ldrb.w	r0, [sp, #5]
  400e42:	b003      	add	sp, #12
  400e44:	f85d fb04 	ldr.w	pc, [sp], #4
  400e48:	00400c15 	.word	0x00400c15

00400e4c <nRF24_writeRegister>:
 * \param reg register to write
 * \param value to write
 * \return STATUS register 
 */
uint8_t nRF24_writeRegister(uint8_t reg, uint8_t val)
{
  400e4c:	b500      	push	{lr}
  400e4e:	b083      	sub	sp, #12
	uint8_t p_buf[2];
	
	p_buf[0] = (W_REGISTER | (REGISTER_MASK & reg));
  400e50:	f000 001f 	and.w	r0, r0, #31
  400e54:	f040 0020 	orr.w	r0, r0, #32
  400e58:	f88d 0004 	strb.w	r0, [sp, #4]
	p_buf[1] = val;
  400e5c:	f88d 1005 	strb.w	r1, [sp, #5]
	/** contents of p_buf before transfer
	* [0] write commando to reg
	* [1] data to write
	*/
	
	spi_master_transfer(p_buf, sizeof(p_buf));
  400e60:	2102      	movs	r1, #2
  400e62:	a801      	add	r0, sp, #4
  400e64:	4b03      	ldr	r3, [pc, #12]	; (400e74 <nRF24_writeRegister+0x28>)
  400e66:	4798      	blx	r3
	/** contents of p_buf after transfer
	* [0] Status register
	* [1] unknown data
	*/
	return p_buf[0]; //return STATUS
}
  400e68:	f89d 0004 	ldrb.w	r0, [sp, #4]
  400e6c:	b003      	add	sp, #12
  400e6e:	f85d fb04 	ldr.w	pc, [sp], #4
  400e72:	bf00      	nop
  400e74:	00400c15 	.word	0x00400c15

00400e78 <nRF_writeRegister>:

uint8_t nRF_writeRegister(uint8_t reg, const uint8_t* buf, uint8_t length)
{
  400e78:	b5f8      	push	{r3, r4, r5, r6, r7, lr}
  400e7a:	af00      	add	r7, sp, #0
	uint8_t p_buf[length+1];
  400e7c:	1c56      	adds	r6, r2, #1
  400e7e:	f102 0308 	add.w	r3, r2, #8
  400e82:	f023 0307 	bic.w	r3, r3, #7
  400e86:	ebad 0d03 	sub.w	sp, sp, r3
  400e8a:	466d      	mov	r5, sp
	
	p_buf[0] = (W_REGISTER | (REGISTER_MASK & reg));
  400e8c:	f000 001f 	and.w	r0, r0, #31
  400e90:	f040 0020 	orr.w	r0, r0, #32
  400e94:	f88d 0000 	strb.w	r0, [sp]
	
	for (uint8_t i = 0; i < length; i++)
  400e98:	b152      	cbz	r2, 400eb0 <nRF_writeRegister+0x38>
  400e9a:	1e4b      	subs	r3, r1, #1
  400e9c:	1c68      	adds	r0, r5, #1
  400e9e:	3a01      	subs	r2, #1
  400ea0:	fa51 f482 	uxtab	r4, r1, r2
	{
		p_buf[i+1] = (*buf++);
  400ea4:	f813 2f01 	ldrb.w	r2, [r3, #1]!
  400ea8:	f800 2b01 	strb.w	r2, [r0], #1
	for (uint8_t i = 0; i < length; i++)
  400eac:	42a3      	cmp	r3, r4
  400eae:	d1f9      	bne.n	400ea4 <nRF_writeRegister+0x2c>
		//printf("%d || %02x || %02x\n\r", i, p_buf[i], *buf);
	}
	spi_master_transfer(p_buf, sizeof(p_buf));
  400eb0:	4631      	mov	r1, r6
  400eb2:	4628      	mov	r0, r5
  400eb4:	4b02      	ldr	r3, [pc, #8]	; (400ec0 <nRF_writeRegister+0x48>)
  400eb6:	4798      	blx	r3
	
	return p_buf[0];
}
  400eb8:	7828      	ldrb	r0, [r5, #0]
  400eba:	46bd      	mov	sp, r7
  400ebc:	bdf8      	pop	{r3, r4, r5, r6, r7, pc}
  400ebe:	bf00      	nop
  400ec0:	00400c15 	.word	0x00400c15

00400ec4 <nRF24_FlushRx>:
/**
 * \brief flush the RX buffer of the nRF24L01 transceiver
 * \return STATUS
 */
uint8_t nRF24_FlushRx(void)
{
  400ec4:	b500      	push	{lr}
  400ec6:	b083      	sub	sp, #12
	uint8_t cmd;
	cmd = FLUSH_RX;
  400ec8:	a802      	add	r0, sp, #8
  400eca:	23e2      	movs	r3, #226	; 0xe2
  400ecc:	f800 3d01 	strb.w	r3, [r0, #-1]!
	
	spi_master_transfer(&cmd, sizeof(cmd));
  400ed0:	2101      	movs	r1, #1
  400ed2:	4b03      	ldr	r3, [pc, #12]	; (400ee0 <nRF24_FlushRx+0x1c>)
  400ed4:	4798      	blx	r3
	
	return cmd;
}
  400ed6:	f89d 0007 	ldrb.w	r0, [sp, #7]
  400eda:	b003      	add	sp, #12
  400edc:	f85d fb04 	ldr.w	pc, [sp], #4
  400ee0:	00400c15 	.word	0x00400c15

00400ee4 <nRF24_FlushTx>:
/**
 * \brief flush the TX buffer of the nRF24L01 transceiver
 * \return STATUS
 */
uint8_t nRF24_FlushTx(void)
{
  400ee4:	b500      	push	{lr}
  400ee6:	b083      	sub	sp, #12
	uint8_t cmd;
	cmd = FLUSH_TX;
  400ee8:	a802      	add	r0, sp, #8
  400eea:	23e1      	movs	r3, #225	; 0xe1
  400eec:	f800 3d01 	strb.w	r3, [r0, #-1]!
	
	spi_master_transfer(&cmd, sizeof(cmd));
  400ef0:	2101      	movs	r1, #1
  400ef2:	4b03      	ldr	r3, [pc, #12]	; (400f00 <nRF24_FlushTx+0x1c>)
  400ef4:	4798      	blx	r3
	return cmd;
}
  400ef6:	f89d 0007 	ldrb.w	r0, [sp, #7]
  400efa:	b003      	add	sp, #12
  400efc:	f85d fb04 	ldr.w	pc, [sp], #4
  400f00:	00400c15 	.word	0x00400c15

00400f04 <nRF24_getStatus>:
/**
 * \brief Read the Status register of the nRF24L01 transceiver
 * \return STATUS
 */
uint8_t nRF24_getStatus(void)
{
  400f04:	b500      	push	{lr}
  400f06:	b083      	sub	sp, #12
	uint8_t cmd;
	cmd = RF24_NOP;
  400f08:	a802      	add	r0, sp, #8
  400f0a:	23ff      	movs	r3, #255	; 0xff
  400f0c:	f800 3d01 	strb.w	r3, [r0, #-1]!
	
	spi_master_transfer(&cmd, sizeof(cmd));
  400f10:	2101      	movs	r1, #1
  400f12:	4b03      	ldr	r3, [pc, #12]	; (400f20 <nRF24_getStatus+0x1c>)
  400f14:	4798      	blx	r3
	return cmd;
}
  400f16:	f89d 0007 	ldrb.w	r0, [sp, #7]
  400f1a:	b003      	add	sp, #12
  400f1c:	f85d fb04 	ldr.w	pc, [sp], #4
  400f20:	00400c15 	.word	0x00400c15

00400f24 <nRF24_setDataRate>:

bool nRF24_setDataRate(rf24_datarate_e speed)
{
  400f24:	b538      	push	{r3, r4, r5, lr}
  400f26:	4605      	mov	r5, r0
	bool result = false;
	uint8_t setup = nRF24_readRegister(RF_SETUP);
  400f28:	2006      	movs	r0, #6
  400f2a:	4b0c      	ldr	r3, [pc, #48]	; (400f5c <nRF24_setDataRate+0x38>)
  400f2c:	4798      	blx	r3
	setup &= ~((1<<RF_DR));
  400f2e:	f000 04f7 	and.w	r4, r0, #247	; 0xf7
	
	if (speed == RF24_2MBPS) {
  400f32:	2d01      	cmp	r5, #1
  400f34:	d00b      	beq.n	400f4e <nRF24_setDataRate+0x2a>
		txDelay = 190;
		#else // 16Mhz Arduino
		txDelay = 65;
		#endif
	}
	nRF24_writeRegister(RF_SETUP, setup);
  400f36:	4621      	mov	r1, r4
  400f38:	2006      	movs	r0, #6
  400f3a:	4b09      	ldr	r3, [pc, #36]	; (400f60 <nRF24_setDataRate+0x3c>)
  400f3c:	4798      	blx	r3
	
	if(nRF24_readRegister(RF_SETUP) == setup)
  400f3e:	2006      	movs	r0, #6
  400f40:	4b06      	ldr	r3, [pc, #24]	; (400f5c <nRF24_setDataRate+0x38>)
  400f42:	4798      	blx	r3
	result = true;
	
	return result;
}
  400f44:	4284      	cmp	r4, r0
  400f46:	bf14      	ite	ne
  400f48:	2000      	movne	r0, #0
  400f4a:	2001      	moveq	r0, #1
  400f4c:	bd38      	pop	{r3, r4, r5, pc}
		setup |= (1<<RF_DR);
  400f4e:	f044 0408 	orr.w	r4, r4, #8
		txDelay = 65;
  400f52:	2241      	movs	r2, #65	; 0x41
  400f54:	4b03      	ldr	r3, [pc, #12]	; (400f64 <nRF24_setDataRate+0x40>)
  400f56:	601a      	str	r2, [r3, #0]
  400f58:	e7ed      	b.n	400f36 <nRF24_setDataRate+0x12>
  400f5a:	bf00      	nop
  400f5c:	00400e25 	.word	0x00400e25
  400f60:	00400e4d 	.word	0x00400e4d
  400f64:	20400ab8 	.word	0x20400ab8

00400f68 <nRF24_writePayload>:
	printf("PA Power\t = %s\r\n", rf24_pa_dbm_e_str_P[nRF24_getPALevel()]);
}
#endif
/*nog na te kijken: casting van pointers*/
uint8_t nRF24_writePayload(const void* buf, uint8_t data_len, const uint8_t writeType)
{
  400f68:	b5f8      	push	{r3, r4, r5, r6, r7, lr}
  400f6a:	af00      	add	r7, sp, #0
  400f6c:	4606      	mov	r6, r0
  400f6e:	460c      	mov	r4, r1
	uint8_t s_buff[data_len + 1];
  400f70:	3101      	adds	r1, #1
  400f72:	f104 0308 	add.w	r3, r4, #8
  400f76:	f023 0307 	bic.w	r3, r3, #7
  400f7a:	ebad 0d03 	sub.w	sp, sp, r3
  400f7e:	466d      	mov	r5, sp
	uint8_t* current = (uint8_t*) buf;
	
	s_buff[0] = writeType;
  400f80:	f88d 2000 	strb.w	r2, [sp]
	for (uint8_t i = 1; i< data_len+1; i++)
  400f84:	2901      	cmp	r1, #1
  400f86:	dd0a      	ble.n	400f9e <nRF24_writePayload+0x36>
  400f88:	2201      	movs	r2, #1
  400f8a:	4613      	mov	r3, r2
	{
		s_buff[i] = current[i-1];
  400f8c:	18f0      	adds	r0, r6, r3
  400f8e:	f810 0c01 	ldrb.w	r0, [r0, #-1]
  400f92:	54a8      	strb	r0, [r5, r2]
	for (uint8_t i = 1; i< data_len+1; i++)
  400f94:	3301      	adds	r3, #1
  400f96:	b2db      	uxtb	r3, r3
  400f98:	461a      	mov	r2, r3
  400f9a:	4299      	cmp	r1, r3
  400f9c:	dcf6      	bgt.n	400f8c <nRF24_writePayload+0x24>
	}
	
	spi_master_transfer(s_buff, sizeof(s_buff));
  400f9e:	4628      	mov	r0, r5
  400fa0:	4b08      	ldr	r3, [pc, #32]	; (400fc4 <nRF24_writePayload+0x5c>)
  400fa2:	4798      	blx	r3
	
	for (uint8_t i = 0; i< data_len; i++)
  400fa4:	b154      	cbz	r4, 400fbc <nRF24_writePayload+0x54>
  400fa6:	1c6a      	adds	r2, r5, #1
  400fa8:	1e73      	subs	r3, r6, #1
  400faa:	3c01      	subs	r4, #1
  400fac:	fa56 f684 	uxtab	r6, r6, r4
	{
		current[i] = s_buff[i+1];
  400fb0:	f812 1b01 	ldrb.w	r1, [r2], #1
  400fb4:	f803 1f01 	strb.w	r1, [r3, #1]!
	for (uint8_t i = 0; i< data_len; i++)
  400fb8:	42b3      	cmp	r3, r6
  400fba:	d1f9      	bne.n	400fb0 <nRF24_writePayload+0x48>
	}
	
	return s_buff[0];
}
  400fbc:	7828      	ldrb	r0, [r5, #0]
  400fbe:	46bd      	mov	sp, r7
  400fc0:	bdf8      	pop	{r3, r4, r5, r6, r7, pc}
  400fc2:	bf00      	nop
  400fc4:	00400c15 	.word	0x00400c15

00400fc8 <startFastWrite>:

void startFastWrite(const void* buf, uint8_t len, const bool multicast)
{
  400fc8:	b508      	push	{r3, lr}
	nRF24_writePayload(buf, len, multicast ? W_TX_PAYLOAD_NO_ACK : W_TX_PAYLOAD); // ?: operator a ? b : c // if a, b else c
  400fca:	2a00      	cmp	r2, #0
  400fcc:	bf14      	ite	ne
  400fce:	22b0      	movne	r2, #176	; 0xb0
  400fd0:	22a0      	moveq	r2, #160	; 0xa0
  400fd2:	4b03      	ldr	r3, [pc, #12]	; (400fe0 <startFastWrite+0x18>)
  400fd4:	4798      	blx	r3
		base->PIO_SODR = arch_ioport_pin_to_mask(pin);
  400fd6:	f44f 7200 	mov.w	r2, #512	; 0x200
  400fda:	4b02      	ldr	r3, [pc, #8]	; (400fe4 <startFastWrite+0x1c>)
  400fdc:	631a      	str	r2, [r3, #48]	; 0x30
  400fde:	bd08      	pop	{r3, pc}
  400fe0:	00400f69 	.word	0x00400f69
  400fe4:	400e1200 	.word	0x400e1200

00400fe8 <nRFwrite>:
	ioport_set_pin_level(CE, 1);

}

bool nRFwrite(const void* buf, uint8_t len, const bool multicast)
{
  400fe8:	b510      	push	{r4, lr}
	startFastWrite(buf, len, multicast);
  400fea:	4b0c      	ldr	r3, [pc, #48]	; (40101c <nRFwrite+0x34>)
  400fec:	4798      	blx	r3
	
	while(!(nRF24_getStatus() & ((1<<TX_DS) | (1<<MAX_RT))));
  400fee:	4c0c      	ldr	r4, [pc, #48]	; (401020 <nRFwrite+0x38>)
  400ff0:	47a0      	blx	r4
  400ff2:	f010 0f30 	tst.w	r0, #48	; 0x30
  400ff6:	d0fb      	beq.n	400ff0 <nRFwrite+0x8>
		base->PIO_CODR = arch_ioport_pin_to_mask(pin);
  400ff8:	f44f 7200 	mov.w	r2, #512	; 0x200
  400ffc:	4b09      	ldr	r3, [pc, #36]	; (401024 <nRFwrite+0x3c>)
  400ffe:	635a      	str	r2, [r3, #52]	; 0x34
	ioport_set_pin_level(CE, 0);
	uint8_t status = nRF24_writeRegister(NRF_STATUS, (1<<RX_DR) | (1<<RX_DR) | (1<<MAX_RT));
  401000:	2150      	movs	r1, #80	; 0x50
  401002:	2007      	movs	r0, #7
  401004:	4b08      	ldr	r3, [pc, #32]	; (401028 <nRFwrite+0x40>)
  401006:	4798      	blx	r3
	
	if(status & (1<<MAX_RT)){
  401008:	f010 0f10 	tst.w	r0, #16
  40100c:	d101      	bne.n	401012 <nRFwrite+0x2a>
		nRF24_FlushTx();
		return 0;
	}
	return 1;
  40100e:	2001      	movs	r0, #1
}
  401010:	bd10      	pop	{r4, pc}
		nRF24_FlushTx();
  401012:	4b06      	ldr	r3, [pc, #24]	; (40102c <nRFwrite+0x44>)
  401014:	4798      	blx	r3
		return 0;
  401016:	2000      	movs	r0, #0
  401018:	bd10      	pop	{r4, pc}
  40101a:	bf00      	nop
  40101c:	00400fc9 	.word	0x00400fc9
  401020:	00400f05 	.word	0x00400f05
  401024:	400e1200 	.word	0x400e1200
  401028:	00400e4d 	.word	0x00400e4d
  40102c:	00400ee5 	.word	0x00400ee5

00401030 <nRF24_setAddressWidth>:
	
	return s_buff[0];
}

void nRF24_setAddressWidth(uint8_t width)
{
  401030:	b510      	push	{r4, lr}
	if (width -= 2){
  401032:	3802      	subs	r0, #2
  401034:	f010 00ff 	ands.w	r0, r0, #255	; 0xff
  401038:	d107      	bne.n	40104a <nRF24_setAddressWidth+0x1a>
		nRF24_writeRegister(SETUP_AW, width % 4);
		addr_width = (width % 4) + 2;
		} else {
		nRF24_writeRegister(SETUP_AW, 0);
  40103a:	2100      	movs	r1, #0
  40103c:	2003      	movs	r0, #3
  40103e:	4b08      	ldr	r3, [pc, #32]	; (401060 <nRF24_setAddressWidth+0x30>)
  401040:	4798      	blx	r3
		addr_width = 2;
  401042:	2202      	movs	r2, #2
  401044:	4b07      	ldr	r3, [pc, #28]	; (401064 <nRF24_setAddressWidth+0x34>)
  401046:	701a      	strb	r2, [r3, #0]
  401048:	bd10      	pop	{r4, pc}
		nRF24_writeRegister(SETUP_AW, width % 4);
  40104a:	f000 0403 	and.w	r4, r0, #3
  40104e:	4621      	mov	r1, r4
  401050:	2003      	movs	r0, #3
  401052:	4b03      	ldr	r3, [pc, #12]	; (401060 <nRF24_setAddressWidth+0x30>)
  401054:	4798      	blx	r3
		addr_width = (width % 4) + 2;
  401056:	1ca0      	adds	r0, r4, #2
  401058:	4b02      	ldr	r3, [pc, #8]	; (401064 <nRF24_setAddressWidth+0x34>)
  40105a:	7018      	strb	r0, [r3, #0]
  40105c:	bd10      	pop	{r4, pc}
  40105e:	bf00      	nop
  401060:	00400e4d 	.word	0x00400e4d
  401064:	20400010 	.word	0x20400010

00401068 <nRF24_setCRCLength>:
{
	nRF24_writeRegister(SETUP_RETR, (delay & 0xF) << ARD | (count & 0xF) <<ARC );
}

void nRF24_setCRCLength(rf24_crclength_e length)
{
  401068:	b510      	push	{r4, lr}
  40106a:	4604      	mov	r4, r0
	uint8_t config = nRF24_readRegister(NRF_CONFIG) & ~((1<<CRCO) | (1<<EN_CRC));
  40106c:	2000      	movs	r0, #0
  40106e:	4b07      	ldr	r3, [pc, #28]	; (40108c <nRF24_setCRCLength+0x24>)
  401070:	4798      	blx	r3
  401072:	f000 01f3 	and.w	r1, r0, #243	; 0xf3
	
	if (length == RF24_CRC_DISABLED){
  401076:	b12c      	cbz	r4, 401084 <nRF24_setCRCLength+0x1c>
		// do nothing we turned it off above
	} 
	else if (length == RF24_CRC_8){
  401078:	2c01      	cmp	r4, #1
		config |= (1<<EN_CRC);
  40107a:	bf0c      	ite	eq
  40107c:	f041 0108 	orreq.w	r1, r1, #8
	} 
	else //CRC 16 bit
	{
		config |= (1<<EN_CRC);
		config |= (1<<CRCO);
  401080:	f041 010c 	orrne.w	r1, r1, #12
	}
	nRF24_writeRegister(NRF_CONFIG, config);
  401084:	2000      	movs	r0, #0
  401086:	4b02      	ldr	r3, [pc, #8]	; (401090 <nRF24_setCRCLength+0x28>)
  401088:	4798      	blx	r3
  40108a:	bd10      	pop	{r4, pc}
  40108c:	00400e25 	.word	0x00400e25
  401090:	00400e4d 	.word	0x00400e4d

00401094 <toggle_features>:
}

void toggle_features(void)
{
  401094:	b500      	push	{lr}
  401096:	b083      	sub	sp, #12
	uint8_t config[2] = {ACTIVATE, 0x73};
  401098:	4b05      	ldr	r3, [pc, #20]	; (4010b0 <toggle_features+0x1c>)
  40109a:	881b      	ldrh	r3, [r3, #0]
  40109c:	a802      	add	r0, sp, #8
  40109e:	f820 3d04 	strh.w	r3, [r0, #-4]!
	
	spi_master_transfer(config, sizeof(config));
  4010a2:	2102      	movs	r1, #2
  4010a4:	4b03      	ldr	r3, [pc, #12]	; (4010b4 <toggle_features+0x20>)
  4010a6:	4798      	blx	r3
}
  4010a8:	b003      	add	sp, #12
  4010aa:	f85d fb04 	ldr.w	pc, [sp], #4
  4010ae:	bf00      	nop
  4010b0:	004045b4 	.word	0x004045b4
  4010b4:	00400c15 	.word	0x00400c15

004010b8 <nRF24_setChannel>:

void nRF24_setChannel(uint8_t channel)
{
  4010b8:	b508      	push	{r3, lr}
	const uint8_t max_channel = 125;
	if (channel > max_channel)
  4010ba:	287d      	cmp	r0, #125	; 0x7d
		nRF24_writeRegister(RF_CH, max_channel);
  4010bc:	bf8c      	ite	hi
  4010be:	217d      	movhi	r1, #125	; 0x7d
	else
		nRF24_writeRegister(RF_CH, channel);
  4010c0:	4601      	movls	r1, r0
  4010c2:	2005      	movs	r0, #5
  4010c4:	4b01      	ldr	r3, [pc, #4]	; (4010cc <nRF24_setChannel+0x14>)
  4010c6:	4798      	blx	r3
  4010c8:	bd08      	pop	{r3, pc}
  4010ca:	bf00      	nop
  4010cc:	00400e4d 	.word	0x00400e4d

004010d0 <nRF24_powerUp>:
}

void nRF24_powerUp(void)
{
  4010d0:	b508      	push	{r3, lr}
	uint8_t config = nRF24_readRegister(NRF_CONFIG);
  4010d2:	2000      	movs	r0, #0
  4010d4:	4b07      	ldr	r3, [pc, #28]	; (4010f4 <nRF24_powerUp+0x24>)
  4010d6:	4798      	blx	r3
	
	if (!(config & (1<<PWR_UP))){
  4010d8:	f010 0f02 	tst.w	r0, #2
  4010dc:	d000      	beq.n	4010e0 <nRF24_powerUp+0x10>
  4010de:	bd08      	pop	{r3, pc}
		nRF24_writeRegister(NRF_CONFIG, config | (1<<PWR_UP));
  4010e0:	f040 0102 	orr.w	r1, r0, #2
  4010e4:	b2c9      	uxtb	r1, r1
  4010e6:	2000      	movs	r0, #0
  4010e8:	4b03      	ldr	r3, [pc, #12]	; (4010f8 <nRF24_powerUp+0x28>)
  4010ea:	4798      	blx	r3
		delay_ms(5);
  4010ec:	4803      	ldr	r0, [pc, #12]	; (4010fc <nRF24_powerUp+0x2c>)
  4010ee:	4b04      	ldr	r3, [pc, #16]	; (401100 <nRF24_powerUp+0x30>)
  4010f0:	4798      	blx	r3
	}
}
  4010f2:	e7f4      	b.n	4010de <nRF24_powerUp+0xe>
  4010f4:	00400e25 	.word	0x00400e25
  4010f8:	00400e4d 	.word	0x00400e4d
  4010fc:	0003dbc2 	.word	0x0003dbc2
  401100:	20400001 	.word	0x20400001

00401104 <nRF24_stopListening>:
		nRF24_FlushTx();
	}
}

void nRF24_stopListening(void)
{
  401104:	b538      	push	{r3, r4, r5, lr}
  401106:	f44f 7200 	mov.w	r2, #512	; 0x200
  40110a:	4b21      	ldr	r3, [pc, #132]	; (401190 <nRF24_stopListening+0x8c>)
  40110c:	635a      	str	r2, [r3, #52]	; 0x34
	ioport_set_pin_level(CE, 0);
	
	delay_us(txDelay);
  40110e:	4b21      	ldr	r3, [pc, #132]	; (401194 <nRF24_stopListening+0x90>)
  401110:	6819      	ldr	r1, [r3, #0]
  401112:	2900      	cmp	r1, #0
  401114:	d034      	beq.n	401180 <nRF24_stopListening+0x7c>
  401116:	4a20      	ldr	r2, [pc, #128]	; (401198 <nRF24_stopListening+0x94>)
  401118:	2300      	movs	r3, #0
  40111a:	4c20      	ldr	r4, [pc, #128]	; (40119c <nRF24_stopListening+0x98>)
  40111c:	2500      	movs	r5, #0
  40111e:	4820      	ldr	r0, [pc, #128]	; (4011a0 <nRF24_stopListening+0x9c>)
  401120:	fbe0 4501 	umlal	r4, r5, r0, r1
  401124:	4620      	mov	r0, r4
  401126:	4629      	mov	r1, r5
  401128:	4c1e      	ldr	r4, [pc, #120]	; (4011a4 <nRF24_stopListening+0xa0>)
  40112a:	47a0      	blx	r4
  40112c:	4b1e      	ldr	r3, [pc, #120]	; (4011a8 <nRF24_stopListening+0xa4>)
  40112e:	4798      	blx	r3
	if (nRF24_readRegister(FEATURE) & 1<<(EN_ACK_PAY))
  401130:	201d      	movs	r0, #29
  401132:	4b1e      	ldr	r3, [pc, #120]	; (4011ac <nRF24_stopListening+0xa8>)
  401134:	4798      	blx	r3
  401136:	f010 0f02 	tst.w	r0, #2
  40113a:	d011      	beq.n	401160 <nRF24_stopListening+0x5c>
	{
		delay_us(txDelay);
  40113c:	4b15      	ldr	r3, [pc, #84]	; (401194 <nRF24_stopListening+0x90>)
  40113e:	6819      	ldr	r1, [r3, #0]
  401140:	b311      	cbz	r1, 401188 <nRF24_stopListening+0x84>
  401142:	4a15      	ldr	r2, [pc, #84]	; (401198 <nRF24_stopListening+0x94>)
  401144:	2300      	movs	r3, #0
  401146:	4c15      	ldr	r4, [pc, #84]	; (40119c <nRF24_stopListening+0x98>)
  401148:	2500      	movs	r5, #0
  40114a:	4815      	ldr	r0, [pc, #84]	; (4011a0 <nRF24_stopListening+0x9c>)
  40114c:	fbe0 4501 	umlal	r4, r5, r0, r1
  401150:	4620      	mov	r0, r4
  401152:	4629      	mov	r1, r5
  401154:	4c13      	ldr	r4, [pc, #76]	; (4011a4 <nRF24_stopListening+0xa0>)
  401156:	47a0      	blx	r4
  401158:	4b13      	ldr	r3, [pc, #76]	; (4011a8 <nRF24_stopListening+0xa4>)
  40115a:	4798      	blx	r3
		nRF24_FlushTx();
  40115c:	4b14      	ldr	r3, [pc, #80]	; (4011b0 <nRF24_stopListening+0xac>)
  40115e:	4798      	blx	r3
	}
	nRF24_writeRegister(NRF_CONFIG, (nRF24_readRegister(NRF_CONFIG)) & ~(1<<PRIM_RX));
  401160:	2000      	movs	r0, #0
  401162:	4d12      	ldr	r5, [pc, #72]	; (4011ac <nRF24_stopListening+0xa8>)
  401164:	47a8      	blx	r5
  401166:	f000 01fe 	and.w	r1, r0, #254	; 0xfe
  40116a:	2000      	movs	r0, #0
  40116c:	4c11      	ldr	r4, [pc, #68]	; (4011b4 <nRF24_stopListening+0xb0>)
  40116e:	47a0      	blx	r4
	nRF24_writeRegister(EN_RXADDR, nRF24_readRegister(EN_RXADDR) | (1<< pipe_enable_s[0])); 
  401170:	2002      	movs	r0, #2
  401172:	47a8      	blx	r5
  401174:	f040 0101 	orr.w	r1, r0, #1
  401178:	b2c9      	uxtb	r1, r1
  40117a:	2002      	movs	r0, #2
  40117c:	47a0      	blx	r4
  40117e:	bd38      	pop	{r3, r4, r5, pc}
	delay_us(txDelay);
  401180:	2033      	movs	r0, #51	; 0x33
  401182:	4b09      	ldr	r3, [pc, #36]	; (4011a8 <nRF24_stopListening+0xa4>)
  401184:	4798      	blx	r3
  401186:	e7d3      	b.n	401130 <nRF24_stopListening+0x2c>
		delay_us(txDelay);
  401188:	2033      	movs	r0, #51	; 0x33
  40118a:	4b07      	ldr	r3, [pc, #28]	; (4011a8 <nRF24_stopListening+0xa4>)
  40118c:	4798      	blx	r3
  40118e:	e7e5      	b.n	40115c <nRF24_stopListening+0x58>
  401190:	400e1200 	.word	0x400e1200
  401194:	20400ab8 	.word	0x20400ab8
  401198:	005a83e0 	.word	0x005a83e0
  40119c:	005a83df 	.word	0x005a83df
  4011a0:	11e1a300 	.word	0x11e1a300
  4011a4:	00401595 	.word	0x00401595
  4011a8:	20400001 	.word	0x20400001
  4011ac:	00400e25 	.word	0x00400e25
  4011b0:	00400ee5 	.word	0x00400ee5
  4011b4:	00400e4d 	.word	0x00400e4d

004011b8 <nRF24_begin>:
}

bool nRF24_begin(void)
{
  4011b8:	b538      	push	{r3, r4, r5, lr}
		base->PIO_OER = arch_ioport_pin_to_mask(pin);
  4011ba:	4b1a      	ldr	r3, [pc, #104]	; (401224 <nRF24_begin+0x6c>)
  4011bc:	f44f 7200 	mov.w	r2, #512	; 0x200
  4011c0:	611a      	str	r2, [r3, #16]
	base->PIO_OWER = arch_ioport_pin_to_mask(pin);
  4011c2:	f8c3 20a0 	str.w	r2, [r3, #160]	; 0xa0
		base->PIO_CODR = arch_ioport_pin_to_mask(pin);
  4011c6:	635a      	str	r2, [r3, #52]	; 0x34
	uint8_t setup = 0;
	ioport_set_pin_dir(CE, IOPORT_DIR_OUTPUT);//ce_pin PC9
	ioport_set_pin_level(CE, 0);
	
	nRF24_writeRegister(NRF_CONFIG, 0x0C);
  4011c8:	210c      	movs	r1, #12
  4011ca:	2000      	movs	r0, #0
  4011cc:	4c16      	ldr	r4, [pc, #88]	; (401228 <nRF24_begin+0x70>)
  4011ce:	47a0      	blx	r4
	nRF24_writeRegister(SETUP_RETR, (delay & 0xF) << ARD | (count & 0xF) <<ARC );
  4011d0:	215f      	movs	r1, #95	; 0x5f
  4011d2:	2004      	movs	r0, #4
  4011d4:	47a0      	blx	r4
	nRF24_setRetries(5, 15);
	
	nRF24_setDataRate(RF24_1MBPS);
  4011d6:	2000      	movs	r0, #0
  4011d8:	4b14      	ldr	r3, [pc, #80]	; (40122c <nRF24_begin+0x74>)
  4011da:	4798      	blx	r3
	nRF24_setCRCLength(RF24_CRC_16);
  4011dc:	2002      	movs	r0, #2
  4011de:	4b14      	ldr	r3, [pc, #80]	; (401230 <nRF24_begin+0x78>)
  4011e0:	4798      	blx	r3
	toggle_features();
  4011e2:	4b14      	ldr	r3, [pc, #80]	; (401234 <nRF24_begin+0x7c>)
  4011e4:	4798      	blx	r3
	
	//reset current status
	nRF24_writeRegister(NRF_STATUS, (1<<RX_DR) | (1<<TX_DS) | (1<<MAX_RT));
  4011e6:	2170      	movs	r1, #112	; 0x70
  4011e8:	2007      	movs	r0, #7
  4011ea:	47a0      	blx	r4
	
	nRF24_setChannel(76);
  4011ec:	204c      	movs	r0, #76	; 0x4c
  4011ee:	4b12      	ldr	r3, [pc, #72]	; (401238 <nRF24_begin+0x80>)
  4011f0:	4798      	blx	r3
	nRF24_setAddressWidth(ADDR_5bytes);
  4011f2:	2005      	movs	r0, #5
  4011f4:	4b11      	ldr	r3, [pc, #68]	; (40123c <nRF24_begin+0x84>)
  4011f6:	4798      	blx	r3
	
	nRF24_FlushRx();
  4011f8:	4b11      	ldr	r3, [pc, #68]	; (401240 <nRF24_begin+0x88>)
  4011fa:	4798      	blx	r3
	nRF24_FlushTx();
  4011fc:	4b11      	ldr	r3, [pc, #68]	; (401244 <nRF24_begin+0x8c>)
  4011fe:	4798      	blx	r3
	
	nRF24_powerUp();
  401200:	4b11      	ldr	r3, [pc, #68]	; (401248 <nRF24_begin+0x90>)
  401202:	4798      	blx	r3
	
	nRF24_writeRegister(NRF_CONFIG, (nRF24_readRegister(NRF_CONFIG)) & ~(1<<PRIM_RX));
  401204:	2000      	movs	r0, #0
  401206:	4d11      	ldr	r5, [pc, #68]	; (40124c <nRF24_begin+0x94>)
  401208:	47a8      	blx	r5
  40120a:	f000 01fe 	and.w	r1, r0, #254	; 0xfe
  40120e:	2000      	movs	r0, #0
  401210:	47a0      	blx	r4
	setup = nRF24_readRegister(RF_SETUP);
  401212:	2006      	movs	r0, #6
  401214:	47a8      	blx	r5
	
	return (setup != 0 && setup != 0xFF);
  401216:	3801      	subs	r0, #1
  401218:	b2c0      	uxtb	r0, r0
}
  40121a:	28fd      	cmp	r0, #253	; 0xfd
  40121c:	bf8c      	ite	hi
  40121e:	2000      	movhi	r0, #0
  401220:	2001      	movls	r0, #1
  401222:	bd38      	pop	{r3, r4, r5, pc}
  401224:	400e1200 	.word	0x400e1200
  401228:	00400e4d 	.word	0x00400e4d
  40122c:	00400f25 	.word	0x00400f25
  401230:	00401069 	.word	0x00401069
  401234:	00401095 	.word	0x00401095
  401238:	004010b9 	.word	0x004010b9
  40123c:	00401031 	.word	0x00401031
  401240:	00400ec5 	.word	0x00400ec5
  401244:	00400ee5 	.word	0x00400ee5
  401248:	004010d1 	.word	0x004010d1
  40124c:	00400e25 	.word	0x00400e25

00401250 <nRF24_openWritingPipe>:

void nRF24_openWritingPipe(uint64_t address)
{
  401250:	b570      	push	{r4, r5, r6, lr}
  401252:	b082      	sub	sp, #8
  401254:	ac02      	add	r4, sp, #8
  401256:	e964 0102 	strd	r0, r1, [r4, #-8]!
	nRF_writeRegister(RX_ADDR_P0, (uint8_t *)(&address), addr_width);
  40125a:	4e08      	ldr	r6, [pc, #32]	; (40127c <nRF24_openWritingPipe+0x2c>)
  40125c:	7832      	ldrb	r2, [r6, #0]
  40125e:	4621      	mov	r1, r4
  401260:	200a      	movs	r0, #10
  401262:	4d07      	ldr	r5, [pc, #28]	; (401280 <nRF24_openWritingPipe+0x30>)
  401264:	47a8      	blx	r5
	nRF_writeRegister(TX_ADDR, (uint8_t *)(&address), addr_width);
  401266:	7832      	ldrb	r2, [r6, #0]
  401268:	4621      	mov	r1, r4
  40126a:	2010      	movs	r0, #16
  40126c:	47a8      	blx	r5
	
	nRF24_writeRegister(RX_PW_P0, payload_size);
  40126e:	4b05      	ldr	r3, [pc, #20]	; (401284 <nRF24_openWritingPipe+0x34>)
  401270:	7819      	ldrb	r1, [r3, #0]
  401272:	2011      	movs	r0, #17
  401274:	4b04      	ldr	r3, [pc, #16]	; (401288 <nRF24_openWritingPipe+0x38>)
  401276:	4798      	blx	r3
}
  401278:	b002      	add	sp, #8
  40127a:	bd70      	pop	{r4, r5, r6, pc}
  40127c:	20400010 	.word	0x20400010
  401280:	00400e79 	.word	0x00400e79
  401284:	20400011 	.word	0x20400011
  401288:	00400e4d 	.word	0x00400e4d

0040128c <nRF24_openReadingPipe>:
{
	return payload_size;
}

void nRF24_openReadingPipe(uint8_t pipe, uint64_t address)
{	
  40128c:	b510      	push	{r4, lr}
  40128e:	b082      	sub	sp, #8
  401290:	e9cd 2300 	strd	r2, r3, [sp]
	if (pipe == 0){
  401294:	4604      	mov	r4, r0
  401296:	b1f0      	cbz	r0, 4012d6 <nRF24_openReadingPipe+0x4a>
		memcpy(pipe0_reading_address, &address, addr_width);
	}
	if (pipe <= 5){
  401298:	2805      	cmp	r0, #5
  40129a:	d80d      	bhi.n	4012b8 <nRF24_openReadingPipe+0x2c>
		if (pipe < 2){
  40129c:	2801      	cmp	r0, #1
  40129e:	d920      	bls.n	4012e2 <nRF24_openReadingPipe+0x56>
			nRF_writeRegister(pipe_s[pipe], (const uint8_t *) (&address), addr_width);
		} else {
			nRF_writeRegister(pipe_s[pipe], (const uint8_t *) (&address), 1);
  4012a0:	2201      	movs	r2, #1
  4012a2:	4669      	mov	r1, sp
  4012a4:	4b13      	ldr	r3, [pc, #76]	; (4012f4 <nRF24_openReadingPipe+0x68>)
  4012a6:	5c18      	ldrb	r0, [r3, r0]
  4012a8:	4b13      	ldr	r3, [pc, #76]	; (4012f8 <nRF24_openReadingPipe+0x6c>)
  4012aa:	4798      	blx	r3
		}
		nRF24_writeRegister(pipe_size_s[pipe], payload_size);
  4012ac:	4b13      	ldr	r3, [pc, #76]	; (4012fc <nRF24_openReadingPipe+0x70>)
  4012ae:	7819      	ldrb	r1, [r3, #0]
  4012b0:	4b13      	ldr	r3, [pc, #76]	; (401300 <nRF24_openReadingPipe+0x74>)
  4012b2:	5d18      	ldrb	r0, [r3, r4]
  4012b4:	4b13      	ldr	r3, [pc, #76]	; (401304 <nRF24_openReadingPipe+0x78>)
  4012b6:	4798      	blx	r3
	}
	nRF24_writeRegister(EN_RXADDR, nRF24_readRegister((EN_RXADDR) | (1 << pipe_enable_s[pipe])));
  4012b8:	4b13      	ldr	r3, [pc, #76]	; (401308 <nRF24_openReadingPipe+0x7c>)
  4012ba:	5d1b      	ldrb	r3, [r3, r4]
  4012bc:	2001      	movs	r0, #1
  4012be:	4098      	lsls	r0, r3
  4012c0:	f040 0002 	orr.w	r0, r0, #2
  4012c4:	b2c0      	uxtb	r0, r0
  4012c6:	4b11      	ldr	r3, [pc, #68]	; (40130c <nRF24_openReadingPipe+0x80>)
  4012c8:	4798      	blx	r3
  4012ca:	4601      	mov	r1, r0
  4012cc:	2002      	movs	r0, #2
  4012ce:	4b0d      	ldr	r3, [pc, #52]	; (401304 <nRF24_openReadingPipe+0x78>)
  4012d0:	4798      	blx	r3
}
  4012d2:	b002      	add	sp, #8
  4012d4:	bd10      	pop	{r4, pc}
		memcpy(pipe0_reading_address, &address, addr_width);
  4012d6:	4b0e      	ldr	r3, [pc, #56]	; (401310 <nRF24_openReadingPipe+0x84>)
  4012d8:	781a      	ldrb	r2, [r3, #0]
  4012da:	4669      	mov	r1, sp
  4012dc:	480d      	ldr	r0, [pc, #52]	; (401314 <nRF24_openReadingPipe+0x88>)
  4012de:	4b0e      	ldr	r3, [pc, #56]	; (401318 <nRF24_openReadingPipe+0x8c>)
  4012e0:	4798      	blx	r3
			nRF_writeRegister(pipe_s[pipe], (const uint8_t *) (&address), addr_width);
  4012e2:	4b0b      	ldr	r3, [pc, #44]	; (401310 <nRF24_openReadingPipe+0x84>)
  4012e4:	781a      	ldrb	r2, [r3, #0]
  4012e6:	4669      	mov	r1, sp
  4012e8:	4b02      	ldr	r3, [pc, #8]	; (4012f4 <nRF24_openReadingPipe+0x68>)
  4012ea:	5d18      	ldrb	r0, [r3, r4]
  4012ec:	4b02      	ldr	r3, [pc, #8]	; (4012f8 <nRF24_openReadingPipe+0x6c>)
  4012ee:	4798      	blx	r3
  4012f0:	e7dc      	b.n	4012ac <nRF24_openReadingPipe+0x20>
  4012f2:	bf00      	nop
  4012f4:	0040466c 	.word	0x0040466c
  4012f8:	00400e79 	.word	0x00400e79
  4012fc:	20400011 	.word	0x20400011
  401300:	00404674 	.word	0x00404674
  401304:	00400e4d 	.word	0x00400e4d
  401308:	00404664 	.word	0x00404664
  40130c:	00400e25 	.word	0x00400e25
  401310:	20400010 	.word	0x20400010
  401314:	20400aa4 	.word	0x20400aa4
  401318:	0040191d 	.word	0x0040191d

0040131c <nRF24_setPALevel>:
	}
	return 0;
}

void nRF24_setPALevel(uint8_t level)
{
  40131c:	b510      	push	{r4, lr}
  40131e:	4604      	mov	r4, r0
	uint8_t setup = nRF24_readRegister(RF_SETUP) & 0xF8;
  401320:	2006      	movs	r0, #6
  401322:	4b08      	ldr	r3, [pc, #32]	; (401344 <nRF24_setPALevel+0x28>)
  401324:	4798      	blx	r3
  401326:	f000 01f8 	and.w	r1, r0, #248	; 0xf8
	
	
	if (level > 3) {
  40132a:	2c03      	cmp	r4, #3
  40132c:	d808      	bhi.n	401340 <nRF24_setPALevel+0x24>
		level = (RF_PA_MAX << 1) + 1;
	} else {
		level = (level << 1) + 1;
  40132e:	0064      	lsls	r4, r4, #1
  401330:	3401      	adds	r4, #1
  401332:	f004 04ff 	and.w	r4, r4, #255	; 0xff
	}
	nRF24_writeRegister(RF_SETUP, setup |= level);
  401336:	4321      	orrs	r1, r4
  401338:	2006      	movs	r0, #6
  40133a:	4b03      	ldr	r3, [pc, #12]	; (401348 <nRF24_setPALevel+0x2c>)
  40133c:	4798      	blx	r3
  40133e:	bd10      	pop	{r4, pc}
		level = (RF_PA_MAX << 1) + 1;
  401340:	2407      	movs	r4, #7
  401342:	e7f8      	b.n	401336 <nRF24_setPALevel+0x1a>
  401344:	00400e25 	.word	0x00400e25
  401348:	00400e4d 	.word	0x00400e4d

0040134c <nRF24_write>:
	
	nRF24_writeRegister(NRF_STATUS, (1<<RX_DR) | (1<<MAX_RT) | (1<<TX_DS));	
}

bool nRF24_write(const void* buf, uint8_t len)
{
  40134c:	b508      	push	{r3, lr}
	return nRFwrite(buf, len, 0);
  40134e:	2200      	movs	r2, #0
  401350:	4b01      	ldr	r3, [pc, #4]	; (401358 <nRF24_write+0xc>)
  401352:	4798      	blx	r3
}
  401354:	bd08      	pop	{r3, pc}
  401356:	bf00      	nop
  401358:	00400fe9 	.word	0x00400fe9
  40135c:	00000000 	.word	0x00000000

00401360 <main>:

int main (void)
{
  401360:	e92d 43f0 	stmdb	sp!, {r4, r5, r6, r7, r8, r9, lr}
  401364:	b087      	sub	sp, #28
	
	/* Initialize the SAM system. */
	sysclk_init();
  401366:	4b62      	ldr	r3, [pc, #392]	; (4014f0 <main+0x190>)
  401368:	4798      	blx	r3
	board_init();
  40136a:	4b62      	ldr	r3, [pc, #392]	; (4014f4 <main+0x194>)
  40136c:	4798      	blx	r3
 * \param opt         Options needed to set up RS232 communication (see \ref usart_options_t).
 *
 */
static inline void stdio_serial_init(volatile void *usart, const usart_serial_options_t *opt)
{
	stdio_base = (void *)usart;
  40136e:	4c62      	ldr	r4, [pc, #392]	; (4014f8 <main+0x198>)
  401370:	4b62      	ldr	r3, [pc, #392]	; (4014fc <main+0x19c>)
  401372:	601c      	str	r4, [r3, #0]
	ptr_put = (int (*)(void volatile*,char))&usart_serial_putchar;
  401374:	4a62      	ldr	r2, [pc, #392]	; (401500 <main+0x1a0>)
  401376:	4b63      	ldr	r3, [pc, #396]	; (401504 <main+0x1a4>)
  401378:	601a      	str	r2, [r3, #0]
	ptr_get = (void (*)(void volatile*,char*))&usart_serial_getchar;
  40137a:	4a63      	ldr	r2, [pc, #396]	; (401508 <main+0x1a8>)
  40137c:	4b63      	ldr	r3, [pc, #396]	; (40150c <main+0x1ac>)
  40137e:	601a      	str	r2, [r3, #0]
	usart_settings.baudrate = opt->baudrate;
  401380:	f44f 33e1 	mov.w	r3, #115200	; 0x1c200
  401384:	9300      	str	r3, [sp, #0]
	usart_settings.char_length = opt->charlength;
  401386:	23c0      	movs	r3, #192	; 0xc0
  401388:	9301      	str	r3, [sp, #4]
	usart_settings.parity_type = opt->paritytype;
  40138a:	f44f 6300 	mov.w	r3, #2048	; 0x800
  40138e:	9302      	str	r3, [sp, #8]
	usart_settings.stop_bits= opt->stopbits;
  401390:	2500      	movs	r5, #0
  401392:	9503      	str	r5, [sp, #12]
	usart_settings.channel_mode= US_MR_CHMODE_NORMAL;
  401394:	9504      	str	r5, [sp, #16]
  401396:	200e      	movs	r0, #14
  401398:	4b5d      	ldr	r3, [pc, #372]	; (401510 <main+0x1b0>)
  40139a:	4798      	blx	r3
		usart_init_rs232(p_usart, &usart_settings,
  40139c:	4a5d      	ldr	r2, [pc, #372]	; (401514 <main+0x1b4>)
  40139e:	4669      	mov	r1, sp
  4013a0:	4620      	mov	r0, r4
  4013a2:	4b5d      	ldr	r3, [pc, #372]	; (401518 <main+0x1b8>)
  4013a4:	4798      	blx	r3
		usart_enable_tx(p_usart);
  4013a6:	4620      	mov	r0, r4
  4013a8:	4b5c      	ldr	r3, [pc, #368]	; (40151c <main+0x1bc>)
  4013aa:	4798      	blx	r3
		usart_enable_rx(p_usart);
  4013ac:	4620      	mov	r0, r4
  4013ae:	4b5c      	ldr	r3, [pc, #368]	; (401520 <main+0x1c0>)
  4013b0:	4798      	blx	r3
	fdevopen((int (*)(char, FILE*))(_write),(int (*)(FILE*))(_read));
#  endif
#  if UC3 || SAM
	// For AVR32 and SAM GCC
	// Specify that stdout and stdin should not be buffered.
	setbuf(stdout, NULL);
  4013b2:	4e5c      	ldr	r6, [pc, #368]	; (401524 <main+0x1c4>)
  4013b4:	6833      	ldr	r3, [r6, #0]
  4013b6:	4629      	mov	r1, r5
  4013b8:	6898      	ldr	r0, [r3, #8]
  4013ba:	4c5b      	ldr	r4, [pc, #364]	; (401528 <main+0x1c8>)
  4013bc:	47a0      	blx	r4
	setbuf(stdin, NULL);
  4013be:	6833      	ldr	r3, [r6, #0]
  4013c0:	4629      	mov	r1, r5
  4013c2:	6858      	ldr	r0, [r3, #4]
  4013c4:	47a0      	blx	r4

	/* Initialize the console UART. */
	configure_console();

	/* Output example information. */
	puts(STRING_HEADER);
  4013c6:	4859      	ldr	r0, [pc, #356]	; (40152c <main+0x1cc>)
  4013c8:	4c59      	ldr	r4, [pc, #356]	; (401530 <main+0x1d0>)
  4013ca:	47a0      	blx	r4
    NVIC->ICPR[(((uint32_t)IRQn) >> 5UL)] = (uint32_t)(1UL << (((uint32_t)IRQn) & 0x1FUL));
  4013cc:	4b59      	ldr	r3, [pc, #356]	; (401534 <main+0x1d4>)
  4013ce:	f44f 1200 	mov.w	r2, #2097152	; 0x200000
  4013d2:	f8c3 2180 	str.w	r2, [r3, #384]	; 0x180
    NVIC->ICER[(((uint32_t)IRQn) >> 5UL)] = (uint32_t)(1UL << (((uint32_t)IRQn) & 0x1FUL));
  4013d6:	f8c3 2080 	str.w	r2, [r3, #128]	; 0x80
  __ASM volatile ("dsb 0xF":::"memory");
  4013da:	f3bf 8f4f 	dsb	sy
  __ASM volatile ("isb 0xF":::"memory");
  4013de:	f3bf 8f6f 	isb	sy
    NVIC->IP[((uint32_t)IRQn)]                = (uint8_t)((priority << (8U - __NVIC_PRIO_BITS)) & (uint32_t)0xFFUL);
  4013e2:	f883 5315 	strb.w	r5, [r3, #789]	; 0x315
    NVIC->ISER[(((uint32_t)IRQn) >> 5UL)] = (uint32_t)(1UL << (((uint32_t)IRQn) & 0x1FUL));
  4013e6:	601a      	str	r2, [r3, #0]
	printf("Setting SPI clock #%lu ... \n\r", (unsigned long)gs_ul_spi_clock);
  4013e8:	4953      	ldr	r1, [pc, #332]	; (401538 <main+0x1d8>)
  4013ea:	4854      	ldr	r0, [pc, #336]	; (40153c <main+0x1dc>)
  4013ec:	4b54      	ldr	r3, [pc, #336]	; (401540 <main+0x1e0>)
  4013ee:	4798      	blx	r3
	puts("-I- Initialize SPI as master\r");
  4013f0:	4854      	ldr	r0, [pc, #336]	; (401544 <main+0x1e4>)
  4013f2:	47a0      	blx	r4
	spi_enable_clock(SPI_MASTER_BASE);
  4013f4:	4c54      	ldr	r4, [pc, #336]	; (401548 <main+0x1e8>)
  4013f6:	4620      	mov	r0, r4
  4013f8:	4b54      	ldr	r3, [pc, #336]	; (40154c <main+0x1ec>)
  4013fa:	4798      	blx	r3
	p_spi->SPI_CR = SPI_CR_SPIDIS;
  4013fc:	2702      	movs	r7, #2
  4013fe:	6027      	str	r7, [r4, #0]
	p_spi->SPI_CR = SPI_CR_SWRST;
  401400:	2380      	movs	r3, #128	; 0x80
  401402:	6023      	str	r3, [r4, #0]
	p_spi->SPI_CR = SPI_CR_LASTXFER;
  401404:	f04f 7380 	mov.w	r3, #16777216	; 0x1000000
  401408:	6023      	str	r3, [r4, #0]
	p_spi->SPI_MR |= SPI_MR_MSTR;
  40140a:	6863      	ldr	r3, [r4, #4]
  40140c:	f043 0301 	orr.w	r3, r3, #1
  401410:	6063      	str	r3, [r4, #4]
	p_spi->SPI_MR |= SPI_MR_MODFDIS;
  401412:	6863      	ldr	r3, [r4, #4]
  401414:	f043 0310 	orr.w	r3, r3, #16
  401418:	6063      	str	r3, [r4, #4]
	spi_set_peripheral_chip_select_value(SPI_MASTER_BASE, SPI_CHIP_PCS);
  40141a:	210d      	movs	r1, #13
  40141c:	4620      	mov	r0, r4
  40141e:	4b4c      	ldr	r3, [pc, #304]	; (401550 <main+0x1f0>)
  401420:	4798      	blx	r3
	spi_set_clock_polarity(SPI_MASTER_BASE, SPI_CHIP_SEL, SPI_CLK_POLARITY);
  401422:	462a      	mov	r2, r5
  401424:	2101      	movs	r1, #1
  401426:	4620      	mov	r0, r4
  401428:	4b4a      	ldr	r3, [pc, #296]	; (401554 <main+0x1f4>)
  40142a:	4798      	blx	r3
	spi_set_clock_phase(SPI_MASTER_BASE, SPI_CHIP_SEL, SPI_CLK_PHASE);
  40142c:	2201      	movs	r2, #1
  40142e:	4611      	mov	r1, r2
  401430:	4620      	mov	r0, r4
  401432:	4b49      	ldr	r3, [pc, #292]	; (401558 <main+0x1f8>)
  401434:	4798      	blx	r3
	spi_set_bits_per_transfer(SPI_MASTER_BASE, SPI_CHIP_SEL,
  401436:	462a      	mov	r2, r5
  401438:	2101      	movs	r1, #1
  40143a:	4620      	mov	r0, r4
  40143c:	4b47      	ldr	r3, [pc, #284]	; (40155c <main+0x1fc>)
  40143e:	4798      	blx	r3
	spi_set_baudrate_div(SPI_MASTER_BASE, SPI_CHIP_SEL,
  401440:	221e      	movs	r2, #30
  401442:	2101      	movs	r1, #1
  401444:	4620      	mov	r0, r4
  401446:	4b46      	ldr	r3, [pc, #280]	; (401560 <main+0x200>)
  401448:	4798      	blx	r3
	spi_set_transfer_delay(SPI_MASTER_BASE, SPI_CHIP_SEL, SPI_DLYBS,
  40144a:	2304      	movs	r3, #4
  40144c:	2210      	movs	r2, #16
  40144e:	2101      	movs	r1, #1
  401450:	4620      	mov	r0, r4
  401452:	4e44      	ldr	r6, [pc, #272]	; (401564 <main+0x204>)
  401454:	47b0      	blx	r6
	p_spi->SPI_CR = SPI_CR_SPIEN;
  401456:	2601      	movs	r6, #1
  401458:	6026      	str	r6, [r4, #0]
	/* Insert application code here, after the board has been initialized. */
	
	spi_set_clock_configuration(gs_ul_spi_clock);
		
	nRF24_begin();
  40145a:	4b43      	ldr	r3, [pc, #268]	; (401568 <main+0x208>)
  40145c:	4798      	blx	r3
	nRF24_openReadingPipe(1, listeningPipes[1]);
  40145e:	f20f 0978 	addw	r9, pc, #120	; 0x78
  401462:	e9d9 8900 	ldrd	r8, r9, [r9]
  401466:	4642      	mov	r2, r8
  401468:	464b      	mov	r3, r9
  40146a:	4630      	mov	r0, r6
  40146c:	4c3f      	ldr	r4, [pc, #252]	; (40156c <main+0x20c>)
  40146e:	47a0      	blx	r4
	nRF24_openReadingPipe(2, listeningPipes[2]);
  401470:	a31b      	add	r3, pc, #108	; (adr r3, 4014e0 <main+0x180>)
  401472:	e9d3 2300 	ldrd	r2, r3, [r3]
  401476:	4638      	mov	r0, r7
  401478:	47a0      	blx	r4
	nRF24_openWritingPipe(listeningPipes[localAddr]);
  40147a:	a11b      	add	r1, pc, #108	; (adr r1, 4014e8 <main+0x188>)
  40147c:	e9d1 0100 	ldrd	r0, r1, [r1]
  401480:	4c3b      	ldr	r4, [pc, #236]	; (401570 <main+0x210>)
  401482:	47a0      	blx	r4
	nRF24_setPALevel(RF_PA_MIN);
  401484:	4628      	mov	r0, r5
  401486:	4b3b      	ldr	r3, [pc, #236]	; (401574 <main+0x214>)
  401488:	4798      	blx	r3
	nRF24_stopListening();
  40148a:	4b3b      	ldr	r3, [pc, #236]	; (401578 <main+0x218>)
  40148c:	4798      	blx	r3
#endif
	
//	while(1)
//	{

		nRF24_openWritingPipe(listeningPipes[1]);
  40148e:	4640      	mov	r0, r8
  401490:	4649      	mov	r1, r9
  401492:	47a0      	blx	r4
		
		dataOut.command = 1;
  401494:	4b39      	ldr	r3, [pc, #228]	; (40157c <main+0x21c>)
  401496:	701e      	strb	r6, [r3, #0]
		dataOut.destAddr = 0;
  401498:	605d      	str	r5, [r3, #4]
		dataOut.datavalue = 0;
  40149a:	609d      	str	r5, [r3, #8]
  40149c:	f44f 6480 	mov.w	r4, #1024	; 0x400
		
		for (int i = 0; i< 1024; i++)
		{
			if(!nRF24_write(&dataOut, sizeof(dataOut)))
  4014a0:	461e      	mov	r6, r3
  4014a2:	4d37      	ldr	r5, [pc, #220]	; (401580 <main+0x220>)
			{
				printf("transmission failed \n\r");
  4014a4:	4f37      	ldr	r7, [pc, #220]	; (401584 <main+0x224>)
  4014a6:	e004      	b.n	4014b2 <main+0x152>
			}
			delay_ms(10);
  4014a8:	4837      	ldr	r0, [pc, #220]	; (401588 <main+0x228>)
  4014aa:	4b38      	ldr	r3, [pc, #224]	; (40158c <main+0x22c>)
  4014ac:	4798      	blx	r3
		for (int i = 0; i< 1024; i++)
  4014ae:	3c01      	subs	r4, #1
  4014b0:	d008      	beq.n	4014c4 <main+0x164>
			if(!nRF24_write(&dataOut, sizeof(dataOut)))
  4014b2:	210c      	movs	r1, #12
  4014b4:	4630      	mov	r0, r6
  4014b6:	47a8      	blx	r5
  4014b8:	2800      	cmp	r0, #0
  4014ba:	d1f5      	bne.n	4014a8 <main+0x148>
				printf("transmission failed \n\r");
  4014bc:	4638      	mov	r0, r7
  4014be:	4b20      	ldr	r3, [pc, #128]	; (401540 <main+0x1e0>)
  4014c0:	4798      	blx	r3
  4014c2:	e7f1      	b.n	4014a8 <main+0x148>
		}
		delay_ms(500);
  4014c4:	4832      	ldr	r0, [pc, #200]	; (401590 <main+0x230>)
  4014c6:	4b31      	ldr	r3, [pc, #196]	; (40158c <main+0x22c>)
  4014c8:	4798      	blx	r3
		}
		delay_s(5);
*/
//	}

}
  4014ca:	2000      	movs	r0, #0
  4014cc:	b007      	add	sp, #28
  4014ce:	e8bd 83f0 	ldmia.w	sp!, {r4, r5, r6, r7, r8, r9, pc}
  4014d2:	bf00      	nop
  4014d4:	f3af 8000 	nop.w
  4014d8:	3a3a3ac3 	.word	0x3a3a3ac3
  4014dc:	0000003a 	.word	0x0000003a
  4014e0:	3a3a3ab4 	.word	0x3a3a3ab4
  4014e4:	0000003a 	.word	0x0000003a
  4014e8:	3a3a3ad2 	.word	0x3a3a3ad2
  4014ec:	0000003a 	.word	0x0000003a
  4014f0:	004004d9 	.word	0x004004d9
  4014f4:	00400549 	.word	0x00400549
  4014f8:	40028000 	.word	0x40028000
  4014fc:	20400a94 	.word	0x20400a94
  401500:	00400d51 	.word	0x00400d51
  401504:	20400a90 	.word	0x20400a90
  401508:	00400c75 	.word	0x00400c75
  40150c:	20400a8c 	.word	0x20400a8c
  401510:	00400941 	.word	0x00400941
  401514:	08f0d180 	.word	0x08f0d180
  401518:	00400295 	.word	0x00400295
  40151c:	004002e9 	.word	0x004002e9
  401520:	004002ef 	.word	0x004002ef
  401524:	20400014 	.word	0x20400014
  401528:	00401b99 	.word	0x00401b99
  40152c:	004045b8 	.word	0x004045b8
  401530:	00401b89 	.word	0x00401b89
  401534:	e000e100 	.word	0xe000e100
  401538:	004c4b40 	.word	0x004c4b40
  40153c:	0040460c 	.word	0x0040460c
  401540:	004018f5 	.word	0x004018f5
  401544:	0040462c 	.word	0x0040462c
  401548:	40008000 	.word	0x40008000
  40154c:	00400375 	.word	0x00400375
  401550:	004003a1 	.word	0x004003a1
  401554:	0040041b 	.word	0x0040041b
  401558:	00400439 	.word	0x00400439
  40155c:	00400457 	.word	0x00400457
  401560:	0040046b 	.word	0x0040046b
  401564:	00400493 	.word	0x00400493
  401568:	004011b9 	.word	0x004011b9
  40156c:	0040128d 	.word	0x0040128d
  401570:	00401251 	.word	0x00401251
  401574:	0040131d 	.word	0x0040131d
  401578:	00401105 	.word	0x00401105
  40157c:	20400aac 	.word	0x20400aac
  401580:	0040134d 	.word	0x0040134d
  401584:	0040464c 	.word	0x0040464c
  401588:	0007b784 	.word	0x0007b784
  40158c:	20400001 	.word	0x20400001
  401590:	0181d7b6 	.word	0x0181d7b6

00401594 <__aeabi_uldivmod>:
  401594:	b953      	cbnz	r3, 4015ac <__aeabi_uldivmod+0x18>
  401596:	b94a      	cbnz	r2, 4015ac <__aeabi_uldivmod+0x18>
  401598:	2900      	cmp	r1, #0
  40159a:	bf08      	it	eq
  40159c:	2800      	cmpeq	r0, #0
  40159e:	bf1c      	itt	ne
  4015a0:	f04f 31ff 	movne.w	r1, #4294967295
  4015a4:	f04f 30ff 	movne.w	r0, #4294967295
  4015a8:	f000 b97a 	b.w	4018a0 <__aeabi_idiv0>
  4015ac:	f1ad 0c08 	sub.w	ip, sp, #8
  4015b0:	e96d ce04 	strd	ip, lr, [sp, #-16]!
  4015b4:	f000 f806 	bl	4015c4 <__udivmoddi4>
  4015b8:	f8dd e004 	ldr.w	lr, [sp, #4]
  4015bc:	e9dd 2302 	ldrd	r2, r3, [sp, #8]
  4015c0:	b004      	add	sp, #16
  4015c2:	4770      	bx	lr

004015c4 <__udivmoddi4>:
  4015c4:	e92d 47f0 	stmdb	sp!, {r4, r5, r6, r7, r8, r9, sl, lr}
  4015c8:	468c      	mov	ip, r1
  4015ca:	460d      	mov	r5, r1
  4015cc:	4604      	mov	r4, r0
  4015ce:	9e08      	ldr	r6, [sp, #32]
  4015d0:	2b00      	cmp	r3, #0
  4015d2:	d151      	bne.n	401678 <__udivmoddi4+0xb4>
  4015d4:	428a      	cmp	r2, r1
  4015d6:	4617      	mov	r7, r2
  4015d8:	d96d      	bls.n	4016b6 <__udivmoddi4+0xf2>
  4015da:	fab2 fe82 	clz	lr, r2
  4015de:	f1be 0f00 	cmp.w	lr, #0
  4015e2:	d00b      	beq.n	4015fc <__udivmoddi4+0x38>
  4015e4:	f1ce 0c20 	rsb	ip, lr, #32
  4015e8:	fa01 f50e 	lsl.w	r5, r1, lr
  4015ec:	fa20 fc0c 	lsr.w	ip, r0, ip
  4015f0:	fa02 f70e 	lsl.w	r7, r2, lr
  4015f4:	ea4c 0c05 	orr.w	ip, ip, r5
  4015f8:	fa00 f40e 	lsl.w	r4, r0, lr
  4015fc:	ea4f 4a17 	mov.w	sl, r7, lsr #16
  401600:	0c25      	lsrs	r5, r4, #16
  401602:	fbbc f8fa 	udiv	r8, ip, sl
  401606:	fa1f f987 	uxth.w	r9, r7
  40160a:	fb0a cc18 	mls	ip, sl, r8, ip
  40160e:	ea45 450c 	orr.w	r5, r5, ip, lsl #16
  401612:	fb08 f309 	mul.w	r3, r8, r9
  401616:	42ab      	cmp	r3, r5
  401618:	d90a      	bls.n	401630 <__udivmoddi4+0x6c>
  40161a:	19ed      	adds	r5, r5, r7
  40161c:	f108 32ff 	add.w	r2, r8, #4294967295
  401620:	f080 8123 	bcs.w	40186a <__udivmoddi4+0x2a6>
  401624:	42ab      	cmp	r3, r5
  401626:	f240 8120 	bls.w	40186a <__udivmoddi4+0x2a6>
  40162a:	f1a8 0802 	sub.w	r8, r8, #2
  40162e:	443d      	add	r5, r7
  401630:	1aed      	subs	r5, r5, r3
  401632:	b2a4      	uxth	r4, r4
  401634:	fbb5 f0fa 	udiv	r0, r5, sl
  401638:	fb0a 5510 	mls	r5, sl, r0, r5
  40163c:	ea44 4405 	orr.w	r4, r4, r5, lsl #16
  401640:	fb00 f909 	mul.w	r9, r0, r9
  401644:	45a1      	cmp	r9, r4
  401646:	d909      	bls.n	40165c <__udivmoddi4+0x98>
  401648:	19e4      	adds	r4, r4, r7
  40164a:	f100 33ff 	add.w	r3, r0, #4294967295
  40164e:	f080 810a 	bcs.w	401866 <__udivmoddi4+0x2a2>
  401652:	45a1      	cmp	r9, r4
  401654:	f240 8107 	bls.w	401866 <__udivmoddi4+0x2a2>
  401658:	3802      	subs	r0, #2
  40165a:	443c      	add	r4, r7
  40165c:	eba4 0409 	sub.w	r4, r4, r9
  401660:	ea40 4008 	orr.w	r0, r0, r8, lsl #16
  401664:	2100      	movs	r1, #0
  401666:	2e00      	cmp	r6, #0
  401668:	d061      	beq.n	40172e <__udivmoddi4+0x16a>
  40166a:	fa24 f40e 	lsr.w	r4, r4, lr
  40166e:	2300      	movs	r3, #0
  401670:	6034      	str	r4, [r6, #0]
  401672:	6073      	str	r3, [r6, #4]
  401674:	e8bd 87f0 	ldmia.w	sp!, {r4, r5, r6, r7, r8, r9, sl, pc}
  401678:	428b      	cmp	r3, r1
  40167a:	d907      	bls.n	40168c <__udivmoddi4+0xc8>
  40167c:	2e00      	cmp	r6, #0
  40167e:	d054      	beq.n	40172a <__udivmoddi4+0x166>
  401680:	2100      	movs	r1, #0
  401682:	e886 0021 	stmia.w	r6, {r0, r5}
  401686:	4608      	mov	r0, r1
  401688:	e8bd 87f0 	ldmia.w	sp!, {r4, r5, r6, r7, r8, r9, sl, pc}
  40168c:	fab3 f183 	clz	r1, r3
  401690:	2900      	cmp	r1, #0
  401692:	f040 808e 	bne.w	4017b2 <__udivmoddi4+0x1ee>
  401696:	42ab      	cmp	r3, r5
  401698:	d302      	bcc.n	4016a0 <__udivmoddi4+0xdc>
  40169a:	4282      	cmp	r2, r0
  40169c:	f200 80fa 	bhi.w	401894 <__udivmoddi4+0x2d0>
  4016a0:	1a84      	subs	r4, r0, r2
  4016a2:	eb65 0503 	sbc.w	r5, r5, r3
  4016a6:	2001      	movs	r0, #1
  4016a8:	46ac      	mov	ip, r5
  4016aa:	2e00      	cmp	r6, #0
  4016ac:	d03f      	beq.n	40172e <__udivmoddi4+0x16a>
  4016ae:	e886 1010 	stmia.w	r6, {r4, ip}
  4016b2:	e8bd 87f0 	ldmia.w	sp!, {r4, r5, r6, r7, r8, r9, sl, pc}
  4016b6:	b912      	cbnz	r2, 4016be <__udivmoddi4+0xfa>
  4016b8:	2701      	movs	r7, #1
  4016ba:	fbb7 f7f2 	udiv	r7, r7, r2
  4016be:	fab7 fe87 	clz	lr, r7
  4016c2:	f1be 0f00 	cmp.w	lr, #0
  4016c6:	d134      	bne.n	401732 <__udivmoddi4+0x16e>
  4016c8:	1beb      	subs	r3, r5, r7
  4016ca:	0c3a      	lsrs	r2, r7, #16
  4016cc:	fa1f fc87 	uxth.w	ip, r7
  4016d0:	2101      	movs	r1, #1
  4016d2:	fbb3 f8f2 	udiv	r8, r3, r2
  4016d6:	0c25      	lsrs	r5, r4, #16
  4016d8:	fb02 3318 	mls	r3, r2, r8, r3
  4016dc:	ea45 4503 	orr.w	r5, r5, r3, lsl #16
  4016e0:	fb0c f308 	mul.w	r3, ip, r8
  4016e4:	42ab      	cmp	r3, r5
  4016e6:	d907      	bls.n	4016f8 <__udivmoddi4+0x134>
  4016e8:	19ed      	adds	r5, r5, r7
  4016ea:	f108 30ff 	add.w	r0, r8, #4294967295
  4016ee:	d202      	bcs.n	4016f6 <__udivmoddi4+0x132>
  4016f0:	42ab      	cmp	r3, r5
  4016f2:	f200 80d1 	bhi.w	401898 <__udivmoddi4+0x2d4>
  4016f6:	4680      	mov	r8, r0
  4016f8:	1aed      	subs	r5, r5, r3
  4016fa:	b2a3      	uxth	r3, r4
  4016fc:	fbb5 f0f2 	udiv	r0, r5, r2
  401700:	fb02 5510 	mls	r5, r2, r0, r5
  401704:	ea43 4405 	orr.w	r4, r3, r5, lsl #16
  401708:	fb0c fc00 	mul.w	ip, ip, r0
  40170c:	45a4      	cmp	ip, r4
  40170e:	d907      	bls.n	401720 <__udivmoddi4+0x15c>
  401710:	19e4      	adds	r4, r4, r7
  401712:	f100 33ff 	add.w	r3, r0, #4294967295
  401716:	d202      	bcs.n	40171e <__udivmoddi4+0x15a>
  401718:	45a4      	cmp	ip, r4
  40171a:	f200 80b8 	bhi.w	40188e <__udivmoddi4+0x2ca>
  40171e:	4618      	mov	r0, r3
  401720:	eba4 040c 	sub.w	r4, r4, ip
  401724:	ea40 4008 	orr.w	r0, r0, r8, lsl #16
  401728:	e79d      	b.n	401666 <__udivmoddi4+0xa2>
  40172a:	4631      	mov	r1, r6
  40172c:	4630      	mov	r0, r6
  40172e:	e8bd 87f0 	ldmia.w	sp!, {r4, r5, r6, r7, r8, r9, sl, pc}
  401732:	f1ce 0420 	rsb	r4, lr, #32
  401736:	fa05 f30e 	lsl.w	r3, r5, lr
  40173a:	fa07 f70e 	lsl.w	r7, r7, lr
  40173e:	fa20 f804 	lsr.w	r8, r0, r4
  401742:	0c3a      	lsrs	r2, r7, #16
  401744:	fa25 f404 	lsr.w	r4, r5, r4
  401748:	ea48 0803 	orr.w	r8, r8, r3
  40174c:	fbb4 f1f2 	udiv	r1, r4, r2
  401750:	ea4f 4518 	mov.w	r5, r8, lsr #16
  401754:	fb02 4411 	mls	r4, r2, r1, r4
  401758:	fa1f fc87 	uxth.w	ip, r7
  40175c:	ea45 4504 	orr.w	r5, r5, r4, lsl #16
  401760:	fb01 f30c 	mul.w	r3, r1, ip
  401764:	42ab      	cmp	r3, r5
  401766:	fa00 f40e 	lsl.w	r4, r0, lr
  40176a:	d909      	bls.n	401780 <__udivmoddi4+0x1bc>
  40176c:	19ed      	adds	r5, r5, r7
  40176e:	f101 30ff 	add.w	r0, r1, #4294967295
  401772:	f080 808a 	bcs.w	40188a <__udivmoddi4+0x2c6>
  401776:	42ab      	cmp	r3, r5
  401778:	f240 8087 	bls.w	40188a <__udivmoddi4+0x2c6>
  40177c:	3902      	subs	r1, #2
  40177e:	443d      	add	r5, r7
  401780:	1aeb      	subs	r3, r5, r3
  401782:	fa1f f588 	uxth.w	r5, r8
  401786:	fbb3 f0f2 	udiv	r0, r3, r2
  40178a:	fb02 3310 	mls	r3, r2, r0, r3
  40178e:	ea45 4503 	orr.w	r5, r5, r3, lsl #16
  401792:	fb00 f30c 	mul.w	r3, r0, ip
  401796:	42ab      	cmp	r3, r5
  401798:	d907      	bls.n	4017aa <__udivmoddi4+0x1e6>
  40179a:	19ed      	adds	r5, r5, r7
  40179c:	f100 38ff 	add.w	r8, r0, #4294967295
  4017a0:	d26f      	bcs.n	401882 <__udivmoddi4+0x2be>
  4017a2:	42ab      	cmp	r3, r5
  4017a4:	d96d      	bls.n	401882 <__udivmoddi4+0x2be>
  4017a6:	3802      	subs	r0, #2
  4017a8:	443d      	add	r5, r7
  4017aa:	1aeb      	subs	r3, r5, r3
  4017ac:	ea40 4101 	orr.w	r1, r0, r1, lsl #16
  4017b0:	e78f      	b.n	4016d2 <__udivmoddi4+0x10e>
  4017b2:	f1c1 0720 	rsb	r7, r1, #32
  4017b6:	fa22 f807 	lsr.w	r8, r2, r7
  4017ba:	408b      	lsls	r3, r1
  4017bc:	fa05 f401 	lsl.w	r4, r5, r1
  4017c0:	ea48 0303 	orr.w	r3, r8, r3
  4017c4:	fa20 fe07 	lsr.w	lr, r0, r7
  4017c8:	ea4f 4c13 	mov.w	ip, r3, lsr #16
  4017cc:	40fd      	lsrs	r5, r7
  4017ce:	ea4e 0e04 	orr.w	lr, lr, r4
  4017d2:	fbb5 f9fc 	udiv	r9, r5, ip
  4017d6:	ea4f 441e 	mov.w	r4, lr, lsr #16
  4017da:	fb0c 5519 	mls	r5, ip, r9, r5
  4017de:	fa1f f883 	uxth.w	r8, r3
  4017e2:	ea44 4505 	orr.w	r5, r4, r5, lsl #16
  4017e6:	fb09 f408 	mul.w	r4, r9, r8
  4017ea:	42ac      	cmp	r4, r5
  4017ec:	fa02 f201 	lsl.w	r2, r2, r1
  4017f0:	fa00 fa01 	lsl.w	sl, r0, r1
  4017f4:	d908      	bls.n	401808 <__udivmoddi4+0x244>
  4017f6:	18ed      	adds	r5, r5, r3
  4017f8:	f109 30ff 	add.w	r0, r9, #4294967295
  4017fc:	d243      	bcs.n	401886 <__udivmoddi4+0x2c2>
  4017fe:	42ac      	cmp	r4, r5
  401800:	d941      	bls.n	401886 <__udivmoddi4+0x2c2>
  401802:	f1a9 0902 	sub.w	r9, r9, #2
  401806:	441d      	add	r5, r3
  401808:	1b2d      	subs	r5, r5, r4
  40180a:	fa1f fe8e 	uxth.w	lr, lr
  40180e:	fbb5 f0fc 	udiv	r0, r5, ip
  401812:	fb0c 5510 	mls	r5, ip, r0, r5
  401816:	ea4e 4405 	orr.w	r4, lr, r5, lsl #16
  40181a:	fb00 f808 	mul.w	r8, r0, r8
  40181e:	45a0      	cmp	r8, r4
  401820:	d907      	bls.n	401832 <__udivmoddi4+0x26e>
  401822:	18e4      	adds	r4, r4, r3
  401824:	f100 35ff 	add.w	r5, r0, #4294967295
  401828:	d229      	bcs.n	40187e <__udivmoddi4+0x2ba>
  40182a:	45a0      	cmp	r8, r4
  40182c:	d927      	bls.n	40187e <__udivmoddi4+0x2ba>
  40182e:	3802      	subs	r0, #2
  401830:	441c      	add	r4, r3
  401832:	ea40 4009 	orr.w	r0, r0, r9, lsl #16
  401836:	eba4 0408 	sub.w	r4, r4, r8
  40183a:	fba0 8902 	umull	r8, r9, r0, r2
  40183e:	454c      	cmp	r4, r9
  401840:	46c6      	mov	lr, r8
  401842:	464d      	mov	r5, r9
  401844:	d315      	bcc.n	401872 <__udivmoddi4+0x2ae>
  401846:	d012      	beq.n	40186e <__udivmoddi4+0x2aa>
  401848:	b156      	cbz	r6, 401860 <__udivmoddi4+0x29c>
  40184a:	ebba 030e 	subs.w	r3, sl, lr
  40184e:	eb64 0405 	sbc.w	r4, r4, r5
  401852:	fa04 f707 	lsl.w	r7, r4, r7
  401856:	40cb      	lsrs	r3, r1
  401858:	431f      	orrs	r7, r3
  40185a:	40cc      	lsrs	r4, r1
  40185c:	6037      	str	r7, [r6, #0]
  40185e:	6074      	str	r4, [r6, #4]
  401860:	2100      	movs	r1, #0
  401862:	e8bd 87f0 	ldmia.w	sp!, {r4, r5, r6, r7, r8, r9, sl, pc}
  401866:	4618      	mov	r0, r3
  401868:	e6f8      	b.n	40165c <__udivmoddi4+0x98>
  40186a:	4690      	mov	r8, r2
  40186c:	e6e0      	b.n	401630 <__udivmoddi4+0x6c>
  40186e:	45c2      	cmp	sl, r8
  401870:	d2ea      	bcs.n	401848 <__udivmoddi4+0x284>
  401872:	ebb8 0e02 	subs.w	lr, r8, r2
  401876:	eb69 0503 	sbc.w	r5, r9, r3
  40187a:	3801      	subs	r0, #1
  40187c:	e7e4      	b.n	401848 <__udivmoddi4+0x284>
  40187e:	4628      	mov	r0, r5
  401880:	e7d7      	b.n	401832 <__udivmoddi4+0x26e>
  401882:	4640      	mov	r0, r8
  401884:	e791      	b.n	4017aa <__udivmoddi4+0x1e6>
  401886:	4681      	mov	r9, r0
  401888:	e7be      	b.n	401808 <__udivmoddi4+0x244>
  40188a:	4601      	mov	r1, r0
  40188c:	e778      	b.n	401780 <__udivmoddi4+0x1bc>
  40188e:	3802      	subs	r0, #2
  401890:	443c      	add	r4, r7
  401892:	e745      	b.n	401720 <__udivmoddi4+0x15c>
  401894:	4608      	mov	r0, r1
  401896:	e708      	b.n	4016aa <__udivmoddi4+0xe6>
  401898:	f1a8 0802 	sub.w	r8, r8, #2
  40189c:	443d      	add	r5, r7
  40189e:	e72b      	b.n	4016f8 <__udivmoddi4+0x134>

004018a0 <__aeabi_idiv0>:
  4018a0:	4770      	bx	lr
  4018a2:	bf00      	nop

004018a4 <__libc_init_array>:
  4018a4:	b570      	push	{r4, r5, r6, lr}
  4018a6:	4e0f      	ldr	r6, [pc, #60]	; (4018e4 <__libc_init_array+0x40>)
  4018a8:	4d0f      	ldr	r5, [pc, #60]	; (4018e8 <__libc_init_array+0x44>)
  4018aa:	1b76      	subs	r6, r6, r5
  4018ac:	10b6      	asrs	r6, r6, #2
  4018ae:	bf18      	it	ne
  4018b0:	2400      	movne	r4, #0
  4018b2:	d005      	beq.n	4018c0 <__libc_init_array+0x1c>
  4018b4:	3401      	adds	r4, #1
  4018b6:	f855 3b04 	ldr.w	r3, [r5], #4
  4018ba:	4798      	blx	r3
  4018bc:	42a6      	cmp	r6, r4
  4018be:	d1f9      	bne.n	4018b4 <__libc_init_array+0x10>
  4018c0:	4e0a      	ldr	r6, [pc, #40]	; (4018ec <__libc_init_array+0x48>)
  4018c2:	4d0b      	ldr	r5, [pc, #44]	; (4018f0 <__libc_init_array+0x4c>)
  4018c4:	1b76      	subs	r6, r6, r5
  4018c6:	f002 ff8f 	bl	4047e8 <_init>
  4018ca:	10b6      	asrs	r6, r6, #2
  4018cc:	bf18      	it	ne
  4018ce:	2400      	movne	r4, #0
  4018d0:	d006      	beq.n	4018e0 <__libc_init_array+0x3c>
  4018d2:	3401      	adds	r4, #1
  4018d4:	f855 3b04 	ldr.w	r3, [r5], #4
  4018d8:	4798      	blx	r3
  4018da:	42a6      	cmp	r6, r4
  4018dc:	d1f9      	bne.n	4018d2 <__libc_init_array+0x2e>
  4018de:	bd70      	pop	{r4, r5, r6, pc}
  4018e0:	bd70      	pop	{r4, r5, r6, pc}
  4018e2:	bf00      	nop
  4018e4:	004047f4 	.word	0x004047f4
  4018e8:	004047f4 	.word	0x004047f4
  4018ec:	004047fc 	.word	0x004047fc
  4018f0:	004047f4 	.word	0x004047f4

004018f4 <iprintf>:
  4018f4:	b40f      	push	{r0, r1, r2, r3}
  4018f6:	b500      	push	{lr}
  4018f8:	4907      	ldr	r1, [pc, #28]	; (401918 <iprintf+0x24>)
  4018fa:	b083      	sub	sp, #12
  4018fc:	ab04      	add	r3, sp, #16
  4018fe:	6808      	ldr	r0, [r1, #0]
  401900:	f853 2b04 	ldr.w	r2, [r3], #4
  401904:	6881      	ldr	r1, [r0, #8]
  401906:	9301      	str	r3, [sp, #4]
  401908:	f000 fac8 	bl	401e9c <_vfiprintf_r>
  40190c:	b003      	add	sp, #12
  40190e:	f85d eb04 	ldr.w	lr, [sp], #4
  401912:	b004      	add	sp, #16
  401914:	4770      	bx	lr
  401916:	bf00      	nop
  401918:	20400014 	.word	0x20400014

0040191c <memcpy>:
  40191c:	4684      	mov	ip, r0
  40191e:	ea41 0300 	orr.w	r3, r1, r0
  401922:	f013 0303 	ands.w	r3, r3, #3
  401926:	d16d      	bne.n	401a04 <memcpy+0xe8>
  401928:	3a40      	subs	r2, #64	; 0x40
  40192a:	d341      	bcc.n	4019b0 <memcpy+0x94>
  40192c:	f851 3b04 	ldr.w	r3, [r1], #4
  401930:	f840 3b04 	str.w	r3, [r0], #4
  401934:	f851 3b04 	ldr.w	r3, [r1], #4
  401938:	f840 3b04 	str.w	r3, [r0], #4
  40193c:	f851 3b04 	ldr.w	r3, [r1], #4
  401940:	f840 3b04 	str.w	r3, [r0], #4
  401944:	f851 3b04 	ldr.w	r3, [r1], #4
  401948:	f840 3b04 	str.w	r3, [r0], #4
  40194c:	f851 3b04 	ldr.w	r3, [r1], #4
  401950:	f840 3b04 	str.w	r3, [r0], #4
  401954:	f851 3b04 	ldr.w	r3, [r1], #4
  401958:	f840 3b04 	str.w	r3, [r0], #4
  40195c:	f851 3b04 	ldr.w	r3, [r1], #4
  401960:	f840 3b04 	str.w	r3, [r0], #4
  401964:	f851 3b04 	ldr.w	r3, [r1], #4
  401968:	f840 3b04 	str.w	r3, [r0], #4
  40196c:	f851 3b04 	ldr.w	r3, [r1], #4
  401970:	f840 3b04 	str.w	r3, [r0], #4
  401974:	f851 3b04 	ldr.w	r3, [r1], #4
  401978:	f840 3b04 	str.w	r3, [r0], #4
  40197c:	f851 3b04 	ldr.w	r3, [r1], #4
  401980:	f840 3b04 	str.w	r3, [r0], #4
  401984:	f851 3b04 	ldr.w	r3, [r1], #4
  401988:	f840 3b04 	str.w	r3, [r0], #4
  40198c:	f851 3b04 	ldr.w	r3, [r1], #4
  401990:	f840 3b04 	str.w	r3, [r0], #4
  401994:	f851 3b04 	ldr.w	r3, [r1], #4
  401998:	f840 3b04 	str.w	r3, [r0], #4
  40199c:	f851 3b04 	ldr.w	r3, [r1], #4
  4019a0:	f840 3b04 	str.w	r3, [r0], #4
  4019a4:	f851 3b04 	ldr.w	r3, [r1], #4
  4019a8:	f840 3b04 	str.w	r3, [r0], #4
  4019ac:	3a40      	subs	r2, #64	; 0x40
  4019ae:	d2bd      	bcs.n	40192c <memcpy+0x10>
  4019b0:	3230      	adds	r2, #48	; 0x30
  4019b2:	d311      	bcc.n	4019d8 <memcpy+0xbc>
  4019b4:	f851 3b04 	ldr.w	r3, [r1], #4
  4019b8:	f840 3b04 	str.w	r3, [r0], #4
  4019bc:	f851 3b04 	ldr.w	r3, [r1], #4
  4019c0:	f840 3b04 	str.w	r3, [r0], #4
  4019c4:	f851 3b04 	ldr.w	r3, [r1], #4
  4019c8:	f840 3b04 	str.w	r3, [r0], #4
  4019cc:	f851 3b04 	ldr.w	r3, [r1], #4
  4019d0:	f840 3b04 	str.w	r3, [r0], #4
  4019d4:	3a10      	subs	r2, #16
  4019d6:	d2ed      	bcs.n	4019b4 <memcpy+0x98>
  4019d8:	320c      	adds	r2, #12
  4019da:	d305      	bcc.n	4019e8 <memcpy+0xcc>
  4019dc:	f851 3b04 	ldr.w	r3, [r1], #4
  4019e0:	f840 3b04 	str.w	r3, [r0], #4
  4019e4:	3a04      	subs	r2, #4
  4019e6:	d2f9      	bcs.n	4019dc <memcpy+0xc0>
  4019e8:	3204      	adds	r2, #4
  4019ea:	d008      	beq.n	4019fe <memcpy+0xe2>
  4019ec:	07d2      	lsls	r2, r2, #31
  4019ee:	bf1c      	itt	ne
  4019f0:	f811 3b01 	ldrbne.w	r3, [r1], #1
  4019f4:	f800 3b01 	strbne.w	r3, [r0], #1
  4019f8:	d301      	bcc.n	4019fe <memcpy+0xe2>
  4019fa:	880b      	ldrh	r3, [r1, #0]
  4019fc:	8003      	strh	r3, [r0, #0]
  4019fe:	4660      	mov	r0, ip
  401a00:	4770      	bx	lr
  401a02:	bf00      	nop
  401a04:	2a08      	cmp	r2, #8
  401a06:	d313      	bcc.n	401a30 <memcpy+0x114>
  401a08:	078b      	lsls	r3, r1, #30
  401a0a:	d08d      	beq.n	401928 <memcpy+0xc>
  401a0c:	f010 0303 	ands.w	r3, r0, #3
  401a10:	d08a      	beq.n	401928 <memcpy+0xc>
  401a12:	f1c3 0304 	rsb	r3, r3, #4
  401a16:	1ad2      	subs	r2, r2, r3
  401a18:	07db      	lsls	r3, r3, #31
  401a1a:	bf1c      	itt	ne
  401a1c:	f811 3b01 	ldrbne.w	r3, [r1], #1
  401a20:	f800 3b01 	strbne.w	r3, [r0], #1
  401a24:	d380      	bcc.n	401928 <memcpy+0xc>
  401a26:	f831 3b02 	ldrh.w	r3, [r1], #2
  401a2a:	f820 3b02 	strh.w	r3, [r0], #2
  401a2e:	e77b      	b.n	401928 <memcpy+0xc>
  401a30:	3a04      	subs	r2, #4
  401a32:	d3d9      	bcc.n	4019e8 <memcpy+0xcc>
  401a34:	3a01      	subs	r2, #1
  401a36:	f811 3b01 	ldrb.w	r3, [r1], #1
  401a3a:	f800 3b01 	strb.w	r3, [r0], #1
  401a3e:	d2f9      	bcs.n	401a34 <memcpy+0x118>
  401a40:	780b      	ldrb	r3, [r1, #0]
  401a42:	7003      	strb	r3, [r0, #0]
  401a44:	784b      	ldrb	r3, [r1, #1]
  401a46:	7043      	strb	r3, [r0, #1]
  401a48:	788b      	ldrb	r3, [r1, #2]
  401a4a:	7083      	strb	r3, [r0, #2]
  401a4c:	4660      	mov	r0, ip
  401a4e:	4770      	bx	lr

00401a50 <memset>:
  401a50:	b470      	push	{r4, r5, r6}
  401a52:	0786      	lsls	r6, r0, #30
  401a54:	d046      	beq.n	401ae4 <memset+0x94>
  401a56:	1e54      	subs	r4, r2, #1
  401a58:	2a00      	cmp	r2, #0
  401a5a:	d041      	beq.n	401ae0 <memset+0x90>
  401a5c:	b2ca      	uxtb	r2, r1
  401a5e:	4603      	mov	r3, r0
  401a60:	e002      	b.n	401a68 <memset+0x18>
  401a62:	f114 34ff 	adds.w	r4, r4, #4294967295
  401a66:	d33b      	bcc.n	401ae0 <memset+0x90>
  401a68:	f803 2b01 	strb.w	r2, [r3], #1
  401a6c:	079d      	lsls	r5, r3, #30
  401a6e:	d1f8      	bne.n	401a62 <memset+0x12>
  401a70:	2c03      	cmp	r4, #3
  401a72:	d92e      	bls.n	401ad2 <memset+0x82>
  401a74:	b2cd      	uxtb	r5, r1
  401a76:	ea45 2505 	orr.w	r5, r5, r5, lsl #8
  401a7a:	2c0f      	cmp	r4, #15
  401a7c:	ea45 4505 	orr.w	r5, r5, r5, lsl #16
  401a80:	d919      	bls.n	401ab6 <memset+0x66>
  401a82:	f103 0210 	add.w	r2, r3, #16
  401a86:	4626      	mov	r6, r4
  401a88:	3e10      	subs	r6, #16
  401a8a:	2e0f      	cmp	r6, #15
  401a8c:	f842 5c10 	str.w	r5, [r2, #-16]
  401a90:	f842 5c0c 	str.w	r5, [r2, #-12]
  401a94:	f842 5c08 	str.w	r5, [r2, #-8]
  401a98:	f842 5c04 	str.w	r5, [r2, #-4]
  401a9c:	f102 0210 	add.w	r2, r2, #16
  401aa0:	d8f2      	bhi.n	401a88 <memset+0x38>
  401aa2:	f1a4 0210 	sub.w	r2, r4, #16
  401aa6:	f022 020f 	bic.w	r2, r2, #15
  401aaa:	f004 040f 	and.w	r4, r4, #15
  401aae:	3210      	adds	r2, #16
  401ab0:	2c03      	cmp	r4, #3
  401ab2:	4413      	add	r3, r2
  401ab4:	d90d      	bls.n	401ad2 <memset+0x82>
  401ab6:	461e      	mov	r6, r3
  401ab8:	4622      	mov	r2, r4
  401aba:	3a04      	subs	r2, #4
  401abc:	2a03      	cmp	r2, #3
  401abe:	f846 5b04 	str.w	r5, [r6], #4
  401ac2:	d8fa      	bhi.n	401aba <memset+0x6a>
  401ac4:	1f22      	subs	r2, r4, #4
  401ac6:	f022 0203 	bic.w	r2, r2, #3
  401aca:	3204      	adds	r2, #4
  401acc:	4413      	add	r3, r2
  401ace:	f004 0403 	and.w	r4, r4, #3
  401ad2:	b12c      	cbz	r4, 401ae0 <memset+0x90>
  401ad4:	b2c9      	uxtb	r1, r1
  401ad6:	441c      	add	r4, r3
  401ad8:	f803 1b01 	strb.w	r1, [r3], #1
  401adc:	429c      	cmp	r4, r3
  401ade:	d1fb      	bne.n	401ad8 <memset+0x88>
  401ae0:	bc70      	pop	{r4, r5, r6}
  401ae2:	4770      	bx	lr
  401ae4:	4614      	mov	r4, r2
  401ae6:	4603      	mov	r3, r0
  401ae8:	e7c2      	b.n	401a70 <memset+0x20>
  401aea:	bf00      	nop

00401aec <_puts_r>:
  401aec:	b5f0      	push	{r4, r5, r6, r7, lr}
  401aee:	4605      	mov	r5, r0
  401af0:	b089      	sub	sp, #36	; 0x24
  401af2:	4608      	mov	r0, r1
  401af4:	460c      	mov	r4, r1
  401af6:	f000 f923 	bl	401d40 <strlen>
  401afa:	6bab      	ldr	r3, [r5, #56]	; 0x38
  401afc:	4f21      	ldr	r7, [pc, #132]	; (401b84 <_puts_r+0x98>)
  401afe:	9404      	str	r4, [sp, #16]
  401b00:	2601      	movs	r6, #1
  401b02:	1c44      	adds	r4, r0, #1
  401b04:	a904      	add	r1, sp, #16
  401b06:	2202      	movs	r2, #2
  401b08:	9403      	str	r4, [sp, #12]
  401b0a:	9005      	str	r0, [sp, #20]
  401b0c:	68ac      	ldr	r4, [r5, #8]
  401b0e:	9706      	str	r7, [sp, #24]
  401b10:	9607      	str	r6, [sp, #28]
  401b12:	9101      	str	r1, [sp, #4]
  401b14:	9202      	str	r2, [sp, #8]
  401b16:	b353      	cbz	r3, 401b6e <_puts_r+0x82>
  401b18:	6e63      	ldr	r3, [r4, #100]	; 0x64
  401b1a:	f013 0f01 	tst.w	r3, #1
  401b1e:	f9b4 300c 	ldrsh.w	r3, [r4, #12]
  401b22:	b29a      	uxth	r2, r3
  401b24:	d101      	bne.n	401b2a <_puts_r+0x3e>
  401b26:	0590      	lsls	r0, r2, #22
  401b28:	d525      	bpl.n	401b76 <_puts_r+0x8a>
  401b2a:	0491      	lsls	r1, r2, #18
  401b2c:	d406      	bmi.n	401b3c <_puts_r+0x50>
  401b2e:	6e62      	ldr	r2, [r4, #100]	; 0x64
  401b30:	f443 5300 	orr.w	r3, r3, #8192	; 0x2000
  401b34:	f422 5200 	bic.w	r2, r2, #8192	; 0x2000
  401b38:	81a3      	strh	r3, [r4, #12]
  401b3a:	6662      	str	r2, [r4, #100]	; 0x64
  401b3c:	4628      	mov	r0, r5
  401b3e:	aa01      	add	r2, sp, #4
  401b40:	4621      	mov	r1, r4
  401b42:	f001 fbad 	bl	4032a0 <__sfvwrite_r>
  401b46:	6e63      	ldr	r3, [r4, #100]	; 0x64
  401b48:	2800      	cmp	r0, #0
  401b4a:	bf0c      	ite	eq
  401b4c:	250a      	moveq	r5, #10
  401b4e:	f04f 35ff 	movne.w	r5, #4294967295
  401b52:	07da      	lsls	r2, r3, #31
  401b54:	d402      	bmi.n	401b5c <_puts_r+0x70>
  401b56:	89a3      	ldrh	r3, [r4, #12]
  401b58:	059b      	lsls	r3, r3, #22
  401b5a:	d502      	bpl.n	401b62 <_puts_r+0x76>
  401b5c:	4628      	mov	r0, r5
  401b5e:	b009      	add	sp, #36	; 0x24
  401b60:	bdf0      	pop	{r4, r5, r6, r7, pc}
  401b62:	6da0      	ldr	r0, [r4, #88]	; 0x58
  401b64:	f001 fd52 	bl	40360c <__retarget_lock_release_recursive>
  401b68:	4628      	mov	r0, r5
  401b6a:	b009      	add	sp, #36	; 0x24
  401b6c:	bdf0      	pop	{r4, r5, r6, r7, pc}
  401b6e:	4628      	mov	r0, r5
  401b70:	f001 f98a 	bl	402e88 <__sinit>
  401b74:	e7d0      	b.n	401b18 <_puts_r+0x2c>
  401b76:	6da0      	ldr	r0, [r4, #88]	; 0x58
  401b78:	f001 fd46 	bl	403608 <__retarget_lock_acquire_recursive>
  401b7c:	f9b4 300c 	ldrsh.w	r3, [r4, #12]
  401b80:	b29a      	uxth	r2, r3
  401b82:	e7d2      	b.n	401b2a <_puts_r+0x3e>
  401b84:	00404680 	.word	0x00404680

00401b88 <puts>:
  401b88:	4b02      	ldr	r3, [pc, #8]	; (401b94 <puts+0xc>)
  401b8a:	4601      	mov	r1, r0
  401b8c:	6818      	ldr	r0, [r3, #0]
  401b8e:	f7ff bfad 	b.w	401aec <_puts_r>
  401b92:	bf00      	nop
  401b94:	20400014 	.word	0x20400014

00401b98 <setbuf>:
  401b98:	2900      	cmp	r1, #0
  401b9a:	bf0c      	ite	eq
  401b9c:	2202      	moveq	r2, #2
  401b9e:	2200      	movne	r2, #0
  401ba0:	f44f 6380 	mov.w	r3, #1024	; 0x400
  401ba4:	f000 b800 	b.w	401ba8 <setvbuf>

00401ba8 <setvbuf>:
  401ba8:	e92d 43f0 	stmdb	sp!, {r4, r5, r6, r7, r8, r9, lr}
  401bac:	4c61      	ldr	r4, [pc, #388]	; (401d34 <setvbuf+0x18c>)
  401bae:	6825      	ldr	r5, [r4, #0]
  401bb0:	b083      	sub	sp, #12
  401bb2:	4604      	mov	r4, r0
  401bb4:	460f      	mov	r7, r1
  401bb6:	4690      	mov	r8, r2
  401bb8:	461e      	mov	r6, r3
  401bba:	b115      	cbz	r5, 401bc2 <setvbuf+0x1a>
  401bbc:	6bab      	ldr	r3, [r5, #56]	; 0x38
  401bbe:	2b00      	cmp	r3, #0
  401bc0:	d064      	beq.n	401c8c <setvbuf+0xe4>
  401bc2:	f1b8 0f02 	cmp.w	r8, #2
  401bc6:	d006      	beq.n	401bd6 <setvbuf+0x2e>
  401bc8:	f1b8 0f01 	cmp.w	r8, #1
  401bcc:	f200 809f 	bhi.w	401d0e <setvbuf+0x166>
  401bd0:	2e00      	cmp	r6, #0
  401bd2:	f2c0 809c 	blt.w	401d0e <setvbuf+0x166>
  401bd6:	6e63      	ldr	r3, [r4, #100]	; 0x64
  401bd8:	07d8      	lsls	r0, r3, #31
  401bda:	d534      	bpl.n	401c46 <setvbuf+0x9e>
  401bdc:	4621      	mov	r1, r4
  401bde:	4628      	mov	r0, r5
  401be0:	f001 f8fa 	bl	402dd8 <_fflush_r>
  401be4:	6b21      	ldr	r1, [r4, #48]	; 0x30
  401be6:	b141      	cbz	r1, 401bfa <setvbuf+0x52>
  401be8:	f104 0340 	add.w	r3, r4, #64	; 0x40
  401bec:	4299      	cmp	r1, r3
  401bee:	d002      	beq.n	401bf6 <setvbuf+0x4e>
  401bf0:	4628      	mov	r0, r5
  401bf2:	f001 fa6f 	bl	4030d4 <_free_r>
  401bf6:	2300      	movs	r3, #0
  401bf8:	6323      	str	r3, [r4, #48]	; 0x30
  401bfa:	f9b4 300c 	ldrsh.w	r3, [r4, #12]
  401bfe:	2200      	movs	r2, #0
  401c00:	61a2      	str	r2, [r4, #24]
  401c02:	6062      	str	r2, [r4, #4]
  401c04:	061a      	lsls	r2, r3, #24
  401c06:	d43a      	bmi.n	401c7e <setvbuf+0xd6>
  401c08:	f423 634a 	bic.w	r3, r3, #3232	; 0xca0
  401c0c:	f023 0303 	bic.w	r3, r3, #3
  401c10:	f1b8 0f02 	cmp.w	r8, #2
  401c14:	81a3      	strh	r3, [r4, #12]
  401c16:	d01d      	beq.n	401c54 <setvbuf+0xac>
  401c18:	ab01      	add	r3, sp, #4
  401c1a:	466a      	mov	r2, sp
  401c1c:	4621      	mov	r1, r4
  401c1e:	4628      	mov	r0, r5
  401c20:	f001 fcf6 	bl	403610 <__swhatbuf_r>
  401c24:	89a3      	ldrh	r3, [r4, #12]
  401c26:	4318      	orrs	r0, r3
  401c28:	81a0      	strh	r0, [r4, #12]
  401c2a:	2e00      	cmp	r6, #0
  401c2c:	d132      	bne.n	401c94 <setvbuf+0xec>
  401c2e:	9e00      	ldr	r6, [sp, #0]
  401c30:	4630      	mov	r0, r6
  401c32:	f001 fd65 	bl	403700 <malloc>
  401c36:	4607      	mov	r7, r0
  401c38:	2800      	cmp	r0, #0
  401c3a:	d06b      	beq.n	401d14 <setvbuf+0x16c>
  401c3c:	89a3      	ldrh	r3, [r4, #12]
  401c3e:	f043 0380 	orr.w	r3, r3, #128	; 0x80
  401c42:	81a3      	strh	r3, [r4, #12]
  401c44:	e028      	b.n	401c98 <setvbuf+0xf0>
  401c46:	89a3      	ldrh	r3, [r4, #12]
  401c48:	0599      	lsls	r1, r3, #22
  401c4a:	d4c7      	bmi.n	401bdc <setvbuf+0x34>
  401c4c:	6da0      	ldr	r0, [r4, #88]	; 0x58
  401c4e:	f001 fcdb 	bl	403608 <__retarget_lock_acquire_recursive>
  401c52:	e7c3      	b.n	401bdc <setvbuf+0x34>
  401c54:	2500      	movs	r5, #0
  401c56:	6e61      	ldr	r1, [r4, #100]	; 0x64
  401c58:	2600      	movs	r6, #0
  401c5a:	f104 0243 	add.w	r2, r4, #67	; 0x43
  401c5e:	f043 0302 	orr.w	r3, r3, #2
  401c62:	2001      	movs	r0, #1
  401c64:	60a6      	str	r6, [r4, #8]
  401c66:	07ce      	lsls	r6, r1, #31
  401c68:	81a3      	strh	r3, [r4, #12]
  401c6a:	6022      	str	r2, [r4, #0]
  401c6c:	6122      	str	r2, [r4, #16]
  401c6e:	6160      	str	r0, [r4, #20]
  401c70:	d401      	bmi.n	401c76 <setvbuf+0xce>
  401c72:	0598      	lsls	r0, r3, #22
  401c74:	d53e      	bpl.n	401cf4 <setvbuf+0x14c>
  401c76:	4628      	mov	r0, r5
  401c78:	b003      	add	sp, #12
  401c7a:	e8bd 83f0 	ldmia.w	sp!, {r4, r5, r6, r7, r8, r9, pc}
  401c7e:	6921      	ldr	r1, [r4, #16]
  401c80:	4628      	mov	r0, r5
  401c82:	f001 fa27 	bl	4030d4 <_free_r>
  401c86:	f9b4 300c 	ldrsh.w	r3, [r4, #12]
  401c8a:	e7bd      	b.n	401c08 <setvbuf+0x60>
  401c8c:	4628      	mov	r0, r5
  401c8e:	f001 f8fb 	bl	402e88 <__sinit>
  401c92:	e796      	b.n	401bc2 <setvbuf+0x1a>
  401c94:	2f00      	cmp	r7, #0
  401c96:	d0cb      	beq.n	401c30 <setvbuf+0x88>
  401c98:	6bab      	ldr	r3, [r5, #56]	; 0x38
  401c9a:	2b00      	cmp	r3, #0
  401c9c:	d033      	beq.n	401d06 <setvbuf+0x15e>
  401c9e:	9b00      	ldr	r3, [sp, #0]
  401ca0:	f9b4 200c 	ldrsh.w	r2, [r4, #12]
  401ca4:	6027      	str	r7, [r4, #0]
  401ca6:	429e      	cmp	r6, r3
  401ca8:	bf1c      	itt	ne
  401caa:	f442 6200 	orrne.w	r2, r2, #2048	; 0x800
  401cae:	81a2      	strhne	r2, [r4, #12]
  401cb0:	f1b8 0f01 	cmp.w	r8, #1
  401cb4:	bf04      	itt	eq
  401cb6:	f042 0201 	orreq.w	r2, r2, #1
  401cba:	81a2      	strheq	r2, [r4, #12]
  401cbc:	b292      	uxth	r2, r2
  401cbe:	f012 0308 	ands.w	r3, r2, #8
  401cc2:	6127      	str	r7, [r4, #16]
  401cc4:	6166      	str	r6, [r4, #20]
  401cc6:	d00e      	beq.n	401ce6 <setvbuf+0x13e>
  401cc8:	07d1      	lsls	r1, r2, #31
  401cca:	d51a      	bpl.n	401d02 <setvbuf+0x15a>
  401ccc:	6e65      	ldr	r5, [r4, #100]	; 0x64
  401cce:	4276      	negs	r6, r6
  401cd0:	2300      	movs	r3, #0
  401cd2:	f015 0501 	ands.w	r5, r5, #1
  401cd6:	61a6      	str	r6, [r4, #24]
  401cd8:	60a3      	str	r3, [r4, #8]
  401cda:	d009      	beq.n	401cf0 <setvbuf+0x148>
  401cdc:	2500      	movs	r5, #0
  401cde:	4628      	mov	r0, r5
  401ce0:	b003      	add	sp, #12
  401ce2:	e8bd 83f0 	ldmia.w	sp!, {r4, r5, r6, r7, r8, r9, pc}
  401ce6:	60a3      	str	r3, [r4, #8]
  401ce8:	6e65      	ldr	r5, [r4, #100]	; 0x64
  401cea:	f015 0501 	ands.w	r5, r5, #1
  401cee:	d1f5      	bne.n	401cdc <setvbuf+0x134>
  401cf0:	0593      	lsls	r3, r2, #22
  401cf2:	d4c0      	bmi.n	401c76 <setvbuf+0xce>
  401cf4:	6da0      	ldr	r0, [r4, #88]	; 0x58
  401cf6:	f001 fc89 	bl	40360c <__retarget_lock_release_recursive>
  401cfa:	4628      	mov	r0, r5
  401cfc:	b003      	add	sp, #12
  401cfe:	e8bd 83f0 	ldmia.w	sp!, {r4, r5, r6, r7, r8, r9, pc}
  401d02:	60a6      	str	r6, [r4, #8]
  401d04:	e7f0      	b.n	401ce8 <setvbuf+0x140>
  401d06:	4628      	mov	r0, r5
  401d08:	f001 f8be 	bl	402e88 <__sinit>
  401d0c:	e7c7      	b.n	401c9e <setvbuf+0xf6>
  401d0e:	f04f 35ff 	mov.w	r5, #4294967295
  401d12:	e7b0      	b.n	401c76 <setvbuf+0xce>
  401d14:	f8dd 9000 	ldr.w	r9, [sp]
  401d18:	45b1      	cmp	r9, r6
  401d1a:	d004      	beq.n	401d26 <setvbuf+0x17e>
  401d1c:	4648      	mov	r0, r9
  401d1e:	f001 fcef 	bl	403700 <malloc>
  401d22:	4607      	mov	r7, r0
  401d24:	b920      	cbnz	r0, 401d30 <setvbuf+0x188>
  401d26:	f9b4 300c 	ldrsh.w	r3, [r4, #12]
  401d2a:	f04f 35ff 	mov.w	r5, #4294967295
  401d2e:	e792      	b.n	401c56 <setvbuf+0xae>
  401d30:	464e      	mov	r6, r9
  401d32:	e783      	b.n	401c3c <setvbuf+0x94>
  401d34:	20400014 	.word	0x20400014
	...

00401d40 <strlen>:
  401d40:	f890 f000 	pld	[r0]
  401d44:	e96d 4502 	strd	r4, r5, [sp, #-8]!
  401d48:	f020 0107 	bic.w	r1, r0, #7
  401d4c:	f06f 0c00 	mvn.w	ip, #0
  401d50:	f010 0407 	ands.w	r4, r0, #7
  401d54:	f891 f020 	pld	[r1, #32]
  401d58:	f040 8049 	bne.w	401dee <strlen+0xae>
  401d5c:	f04f 0400 	mov.w	r4, #0
  401d60:	f06f 0007 	mvn.w	r0, #7
  401d64:	e9d1 2300 	ldrd	r2, r3, [r1]
  401d68:	f891 f040 	pld	[r1, #64]	; 0x40
  401d6c:	f100 0008 	add.w	r0, r0, #8
  401d70:	fa82 f24c 	uadd8	r2, r2, ip
  401d74:	faa4 f28c 	sel	r2, r4, ip
  401d78:	fa83 f34c 	uadd8	r3, r3, ip
  401d7c:	faa2 f38c 	sel	r3, r2, ip
  401d80:	bb4b      	cbnz	r3, 401dd6 <strlen+0x96>
  401d82:	e9d1 2302 	ldrd	r2, r3, [r1, #8]
  401d86:	fa82 f24c 	uadd8	r2, r2, ip
  401d8a:	f100 0008 	add.w	r0, r0, #8
  401d8e:	faa4 f28c 	sel	r2, r4, ip
  401d92:	fa83 f34c 	uadd8	r3, r3, ip
  401d96:	faa2 f38c 	sel	r3, r2, ip
  401d9a:	b9e3      	cbnz	r3, 401dd6 <strlen+0x96>
  401d9c:	e9d1 2304 	ldrd	r2, r3, [r1, #16]
  401da0:	fa82 f24c 	uadd8	r2, r2, ip
  401da4:	f100 0008 	add.w	r0, r0, #8
  401da8:	faa4 f28c 	sel	r2, r4, ip
  401dac:	fa83 f34c 	uadd8	r3, r3, ip
  401db0:	faa2 f38c 	sel	r3, r2, ip
  401db4:	b97b      	cbnz	r3, 401dd6 <strlen+0x96>
  401db6:	e9d1 2306 	ldrd	r2, r3, [r1, #24]
  401dba:	f101 0120 	add.w	r1, r1, #32
  401dbe:	fa82 f24c 	uadd8	r2, r2, ip
  401dc2:	f100 0008 	add.w	r0, r0, #8
  401dc6:	faa4 f28c 	sel	r2, r4, ip
  401dca:	fa83 f34c 	uadd8	r3, r3, ip
  401dce:	faa2 f38c 	sel	r3, r2, ip
  401dd2:	2b00      	cmp	r3, #0
  401dd4:	d0c6      	beq.n	401d64 <strlen+0x24>
  401dd6:	2a00      	cmp	r2, #0
  401dd8:	bf04      	itt	eq
  401dda:	3004      	addeq	r0, #4
  401ddc:	461a      	moveq	r2, r3
  401dde:	ba12      	rev	r2, r2
  401de0:	fab2 f282 	clz	r2, r2
  401de4:	e8fd 4502 	ldrd	r4, r5, [sp], #8
  401de8:	eb00 00d2 	add.w	r0, r0, r2, lsr #3
  401dec:	4770      	bx	lr
  401dee:	e9d1 2300 	ldrd	r2, r3, [r1]
  401df2:	f004 0503 	and.w	r5, r4, #3
  401df6:	f1c4 0000 	rsb	r0, r4, #0
  401dfa:	ea4f 05c5 	mov.w	r5, r5, lsl #3
  401dfe:	f014 0f04 	tst.w	r4, #4
  401e02:	f891 f040 	pld	[r1, #64]	; 0x40
  401e06:	fa0c f505 	lsl.w	r5, ip, r5
  401e0a:	ea62 0205 	orn	r2, r2, r5
  401e0e:	bf1c      	itt	ne
  401e10:	ea63 0305 	ornne	r3, r3, r5
  401e14:	4662      	movne	r2, ip
  401e16:	f04f 0400 	mov.w	r4, #0
  401e1a:	e7a9      	b.n	401d70 <strlen+0x30>

00401e1c <__sprint_r.part.0>:
  401e1c:	e92d 4ff8 	stmdb	sp!, {r3, r4, r5, r6, r7, r8, r9, sl, fp, lr}
  401e20:	6e4b      	ldr	r3, [r1, #100]	; 0x64
  401e22:	049c      	lsls	r4, r3, #18
  401e24:	4693      	mov	fp, r2
  401e26:	d52f      	bpl.n	401e88 <__sprint_r.part.0+0x6c>
  401e28:	6893      	ldr	r3, [r2, #8]
  401e2a:	6812      	ldr	r2, [r2, #0]
  401e2c:	b353      	cbz	r3, 401e84 <__sprint_r.part.0+0x68>
  401e2e:	460e      	mov	r6, r1
  401e30:	4607      	mov	r7, r0
  401e32:	f102 0908 	add.w	r9, r2, #8
  401e36:	e919 0420 	ldmdb	r9, {r5, sl}
  401e3a:	ea5f 089a 	movs.w	r8, sl, lsr #2
  401e3e:	d017      	beq.n	401e70 <__sprint_r.part.0+0x54>
  401e40:	3d04      	subs	r5, #4
  401e42:	2400      	movs	r4, #0
  401e44:	e001      	b.n	401e4a <__sprint_r.part.0+0x2e>
  401e46:	45a0      	cmp	r8, r4
  401e48:	d010      	beq.n	401e6c <__sprint_r.part.0+0x50>
  401e4a:	4632      	mov	r2, r6
  401e4c:	f855 1f04 	ldr.w	r1, [r5, #4]!
  401e50:	4638      	mov	r0, r7
  401e52:	f001 f8bb 	bl	402fcc <_fputwc_r>
  401e56:	1c43      	adds	r3, r0, #1
  401e58:	f104 0401 	add.w	r4, r4, #1
  401e5c:	d1f3      	bne.n	401e46 <__sprint_r.part.0+0x2a>
  401e5e:	2300      	movs	r3, #0
  401e60:	f8cb 3008 	str.w	r3, [fp, #8]
  401e64:	f8cb 3004 	str.w	r3, [fp, #4]
  401e68:	e8bd 8ff8 	ldmia.w	sp!, {r3, r4, r5, r6, r7, r8, r9, sl, fp, pc}
  401e6c:	f8db 3008 	ldr.w	r3, [fp, #8]
  401e70:	f02a 0a03 	bic.w	sl, sl, #3
  401e74:	eba3 030a 	sub.w	r3, r3, sl
  401e78:	f8cb 3008 	str.w	r3, [fp, #8]
  401e7c:	f109 0908 	add.w	r9, r9, #8
  401e80:	2b00      	cmp	r3, #0
  401e82:	d1d8      	bne.n	401e36 <__sprint_r.part.0+0x1a>
  401e84:	2000      	movs	r0, #0
  401e86:	e7ea      	b.n	401e5e <__sprint_r.part.0+0x42>
  401e88:	f001 fa0a 	bl	4032a0 <__sfvwrite_r>
  401e8c:	2300      	movs	r3, #0
  401e8e:	f8cb 3008 	str.w	r3, [fp, #8]
  401e92:	f8cb 3004 	str.w	r3, [fp, #4]
  401e96:	e8bd 8ff8 	ldmia.w	sp!, {r3, r4, r5, r6, r7, r8, r9, sl, fp, pc}
  401e9a:	bf00      	nop

00401e9c <_vfiprintf_r>:
  401e9c:	e92d 4ff0 	stmdb	sp!, {r4, r5, r6, r7, r8, r9, sl, fp, lr}
  401ea0:	b0ad      	sub	sp, #180	; 0xb4
  401ea2:	461d      	mov	r5, r3
  401ea4:	468b      	mov	fp, r1
  401ea6:	4690      	mov	r8, r2
  401ea8:	9307      	str	r3, [sp, #28]
  401eaa:	9006      	str	r0, [sp, #24]
  401eac:	b118      	cbz	r0, 401eb6 <_vfiprintf_r+0x1a>
  401eae:	6b83      	ldr	r3, [r0, #56]	; 0x38
  401eb0:	2b00      	cmp	r3, #0
  401eb2:	f000 80f3 	beq.w	40209c <_vfiprintf_r+0x200>
  401eb6:	f8db 3064 	ldr.w	r3, [fp, #100]	; 0x64
  401eba:	f9bb 000c 	ldrsh.w	r0, [fp, #12]
  401ebe:	07df      	lsls	r7, r3, #31
  401ec0:	b281      	uxth	r1, r0
  401ec2:	d402      	bmi.n	401eca <_vfiprintf_r+0x2e>
  401ec4:	058e      	lsls	r6, r1, #22
  401ec6:	f140 80fc 	bpl.w	4020c2 <_vfiprintf_r+0x226>
  401eca:	048c      	lsls	r4, r1, #18
  401ecc:	d40a      	bmi.n	401ee4 <_vfiprintf_r+0x48>
  401ece:	f8db 3064 	ldr.w	r3, [fp, #100]	; 0x64
  401ed2:	f440 5100 	orr.w	r1, r0, #8192	; 0x2000
  401ed6:	f423 5300 	bic.w	r3, r3, #8192	; 0x2000
  401eda:	f8ab 100c 	strh.w	r1, [fp, #12]
  401ede:	f8cb 3064 	str.w	r3, [fp, #100]	; 0x64
  401ee2:	b289      	uxth	r1, r1
  401ee4:	0708      	lsls	r0, r1, #28
  401ee6:	f140 80b3 	bpl.w	402050 <_vfiprintf_r+0x1b4>
  401eea:	f8db 3010 	ldr.w	r3, [fp, #16]
  401eee:	2b00      	cmp	r3, #0
  401ef0:	f000 80ae 	beq.w	402050 <_vfiprintf_r+0x1b4>
  401ef4:	f001 031a 	and.w	r3, r1, #26
  401ef8:	2b0a      	cmp	r3, #10
  401efa:	f000 80b5 	beq.w	402068 <_vfiprintf_r+0x1cc>
  401efe:	2300      	movs	r3, #0
  401f00:	f10d 0970 	add.w	r9, sp, #112	; 0x70
  401f04:	930b      	str	r3, [sp, #44]	; 0x2c
  401f06:	9311      	str	r3, [sp, #68]	; 0x44
  401f08:	9310      	str	r3, [sp, #64]	; 0x40
  401f0a:	9303      	str	r3, [sp, #12]
  401f0c:	f8cd 903c 	str.w	r9, [sp, #60]	; 0x3c
  401f10:	46ca      	mov	sl, r9
  401f12:	f8cd b010 	str.w	fp, [sp, #16]
  401f16:	f898 3000 	ldrb.w	r3, [r8]
  401f1a:	4644      	mov	r4, r8
  401f1c:	b1fb      	cbz	r3, 401f5e <_vfiprintf_r+0xc2>
  401f1e:	2b25      	cmp	r3, #37	; 0x25
  401f20:	d102      	bne.n	401f28 <_vfiprintf_r+0x8c>
  401f22:	e01c      	b.n	401f5e <_vfiprintf_r+0xc2>
  401f24:	2b25      	cmp	r3, #37	; 0x25
  401f26:	d003      	beq.n	401f30 <_vfiprintf_r+0x94>
  401f28:	f814 3f01 	ldrb.w	r3, [r4, #1]!
  401f2c:	2b00      	cmp	r3, #0
  401f2e:	d1f9      	bne.n	401f24 <_vfiprintf_r+0x88>
  401f30:	eba4 0508 	sub.w	r5, r4, r8
  401f34:	b19d      	cbz	r5, 401f5e <_vfiprintf_r+0xc2>
  401f36:	9b10      	ldr	r3, [sp, #64]	; 0x40
  401f38:	9a11      	ldr	r2, [sp, #68]	; 0x44
  401f3a:	f8ca 8000 	str.w	r8, [sl]
  401f3e:	3301      	adds	r3, #1
  401f40:	442a      	add	r2, r5
  401f42:	2b07      	cmp	r3, #7
  401f44:	f8ca 5004 	str.w	r5, [sl, #4]
  401f48:	9211      	str	r2, [sp, #68]	; 0x44
  401f4a:	9310      	str	r3, [sp, #64]	; 0x40
  401f4c:	dd7a      	ble.n	402044 <_vfiprintf_r+0x1a8>
  401f4e:	2a00      	cmp	r2, #0
  401f50:	f040 84b0 	bne.w	4028b4 <_vfiprintf_r+0xa18>
  401f54:	9b03      	ldr	r3, [sp, #12]
  401f56:	9210      	str	r2, [sp, #64]	; 0x40
  401f58:	442b      	add	r3, r5
  401f5a:	46ca      	mov	sl, r9
  401f5c:	9303      	str	r3, [sp, #12]
  401f5e:	7823      	ldrb	r3, [r4, #0]
  401f60:	2b00      	cmp	r3, #0
  401f62:	f000 83e0 	beq.w	402726 <_vfiprintf_r+0x88a>
  401f66:	2000      	movs	r0, #0
  401f68:	f04f 0300 	mov.w	r3, #0
  401f6c:	f88d 3037 	strb.w	r3, [sp, #55]	; 0x37
  401f70:	f104 0801 	add.w	r8, r4, #1
  401f74:	7862      	ldrb	r2, [r4, #1]
  401f76:	4605      	mov	r5, r0
  401f78:	4606      	mov	r6, r0
  401f7a:	4603      	mov	r3, r0
  401f7c:	f04f 34ff 	mov.w	r4, #4294967295
  401f80:	f108 0801 	add.w	r8, r8, #1
  401f84:	f1a2 0120 	sub.w	r1, r2, #32
  401f88:	2958      	cmp	r1, #88	; 0x58
  401f8a:	f200 82de 	bhi.w	40254a <_vfiprintf_r+0x6ae>
  401f8e:	e8df f011 	tbh	[pc, r1, lsl #1]
  401f92:	0221      	.short	0x0221
  401f94:	02dc02dc 	.word	0x02dc02dc
  401f98:	02dc0229 	.word	0x02dc0229
  401f9c:	02dc02dc 	.word	0x02dc02dc
  401fa0:	02dc02dc 	.word	0x02dc02dc
  401fa4:	028902dc 	.word	0x028902dc
  401fa8:	02dc0295 	.word	0x02dc0295
  401fac:	02bd00a2 	.word	0x02bd00a2
  401fb0:	019f02dc 	.word	0x019f02dc
  401fb4:	01a401a4 	.word	0x01a401a4
  401fb8:	01a401a4 	.word	0x01a401a4
  401fbc:	01a401a4 	.word	0x01a401a4
  401fc0:	01a401a4 	.word	0x01a401a4
  401fc4:	02dc01a4 	.word	0x02dc01a4
  401fc8:	02dc02dc 	.word	0x02dc02dc
  401fcc:	02dc02dc 	.word	0x02dc02dc
  401fd0:	02dc02dc 	.word	0x02dc02dc
  401fd4:	02dc02dc 	.word	0x02dc02dc
  401fd8:	01b202dc 	.word	0x01b202dc
  401fdc:	02dc02dc 	.word	0x02dc02dc
  401fe0:	02dc02dc 	.word	0x02dc02dc
  401fe4:	02dc02dc 	.word	0x02dc02dc
  401fe8:	02dc02dc 	.word	0x02dc02dc
  401fec:	02dc02dc 	.word	0x02dc02dc
  401ff0:	02dc0197 	.word	0x02dc0197
  401ff4:	02dc02dc 	.word	0x02dc02dc
  401ff8:	02dc02dc 	.word	0x02dc02dc
  401ffc:	02dc019b 	.word	0x02dc019b
  402000:	025302dc 	.word	0x025302dc
  402004:	02dc02dc 	.word	0x02dc02dc
  402008:	02dc02dc 	.word	0x02dc02dc
  40200c:	02dc02dc 	.word	0x02dc02dc
  402010:	02dc02dc 	.word	0x02dc02dc
  402014:	02dc02dc 	.word	0x02dc02dc
  402018:	021b025a 	.word	0x021b025a
  40201c:	02dc02dc 	.word	0x02dc02dc
  402020:	026e02dc 	.word	0x026e02dc
  402024:	02dc021b 	.word	0x02dc021b
  402028:	027302dc 	.word	0x027302dc
  40202c:	01f502dc 	.word	0x01f502dc
  402030:	02090182 	.word	0x02090182
  402034:	02dc02d7 	.word	0x02dc02d7
  402038:	02dc029a 	.word	0x02dc029a
  40203c:	02dc00a7 	.word	0x02dc00a7
  402040:	022e02dc 	.word	0x022e02dc
  402044:	f10a 0a08 	add.w	sl, sl, #8
  402048:	9b03      	ldr	r3, [sp, #12]
  40204a:	442b      	add	r3, r5
  40204c:	9303      	str	r3, [sp, #12]
  40204e:	e786      	b.n	401f5e <_vfiprintf_r+0xc2>
  402050:	4659      	mov	r1, fp
  402052:	9806      	ldr	r0, [sp, #24]
  402054:	f000 fdac 	bl	402bb0 <__swsetup_r>
  402058:	bb18      	cbnz	r0, 4020a2 <_vfiprintf_r+0x206>
  40205a:	f8bb 100c 	ldrh.w	r1, [fp, #12]
  40205e:	f001 031a 	and.w	r3, r1, #26
  402062:	2b0a      	cmp	r3, #10
  402064:	f47f af4b 	bne.w	401efe <_vfiprintf_r+0x62>
  402068:	f9bb 300e 	ldrsh.w	r3, [fp, #14]
  40206c:	2b00      	cmp	r3, #0
  40206e:	f6ff af46 	blt.w	401efe <_vfiprintf_r+0x62>
  402072:	f8db 3064 	ldr.w	r3, [fp, #100]	; 0x64
  402076:	07db      	lsls	r3, r3, #31
  402078:	d405      	bmi.n	402086 <_vfiprintf_r+0x1ea>
  40207a:	058f      	lsls	r7, r1, #22
  40207c:	d403      	bmi.n	402086 <_vfiprintf_r+0x1ea>
  40207e:	f8db 0058 	ldr.w	r0, [fp, #88]	; 0x58
  402082:	f001 fac3 	bl	40360c <__retarget_lock_release_recursive>
  402086:	462b      	mov	r3, r5
  402088:	4642      	mov	r2, r8
  40208a:	4659      	mov	r1, fp
  40208c:	9806      	ldr	r0, [sp, #24]
  40208e:	f000 fd4d 	bl	402b2c <__sbprintf>
  402092:	9003      	str	r0, [sp, #12]
  402094:	9803      	ldr	r0, [sp, #12]
  402096:	b02d      	add	sp, #180	; 0xb4
  402098:	e8bd 8ff0 	ldmia.w	sp!, {r4, r5, r6, r7, r8, r9, sl, fp, pc}
  40209c:	f000 fef4 	bl	402e88 <__sinit>
  4020a0:	e709      	b.n	401eb6 <_vfiprintf_r+0x1a>
  4020a2:	f8db 3064 	ldr.w	r3, [fp, #100]	; 0x64
  4020a6:	07d9      	lsls	r1, r3, #31
  4020a8:	d404      	bmi.n	4020b4 <_vfiprintf_r+0x218>
  4020aa:	f8bb 300c 	ldrh.w	r3, [fp, #12]
  4020ae:	059a      	lsls	r2, r3, #22
  4020b0:	f140 84aa 	bpl.w	402a08 <_vfiprintf_r+0xb6c>
  4020b4:	f04f 33ff 	mov.w	r3, #4294967295
  4020b8:	9303      	str	r3, [sp, #12]
  4020ba:	9803      	ldr	r0, [sp, #12]
  4020bc:	b02d      	add	sp, #180	; 0xb4
  4020be:	e8bd 8ff0 	ldmia.w	sp!, {r4, r5, r6, r7, r8, r9, sl, fp, pc}
  4020c2:	f8db 0058 	ldr.w	r0, [fp, #88]	; 0x58
  4020c6:	f001 fa9f 	bl	403608 <__retarget_lock_acquire_recursive>
  4020ca:	f9bb 000c 	ldrsh.w	r0, [fp, #12]
  4020ce:	b281      	uxth	r1, r0
  4020d0:	e6fb      	b.n	401eca <_vfiprintf_r+0x2e>
  4020d2:	4276      	negs	r6, r6
  4020d4:	9207      	str	r2, [sp, #28]
  4020d6:	f043 0304 	orr.w	r3, r3, #4
  4020da:	f898 2000 	ldrb.w	r2, [r8]
  4020de:	e74f      	b.n	401f80 <_vfiprintf_r+0xe4>
  4020e0:	9608      	str	r6, [sp, #32]
  4020e2:	069e      	lsls	r6, r3, #26
  4020e4:	f100 8450 	bmi.w	402988 <_vfiprintf_r+0xaec>
  4020e8:	9907      	ldr	r1, [sp, #28]
  4020ea:	06dd      	lsls	r5, r3, #27
  4020ec:	460a      	mov	r2, r1
  4020ee:	f100 83ef 	bmi.w	4028d0 <_vfiprintf_r+0xa34>
  4020f2:	0658      	lsls	r0, r3, #25
  4020f4:	f140 83ec 	bpl.w	4028d0 <_vfiprintf_r+0xa34>
  4020f8:	880e      	ldrh	r6, [r1, #0]
  4020fa:	3104      	adds	r1, #4
  4020fc:	2700      	movs	r7, #0
  4020fe:	2201      	movs	r2, #1
  402100:	9107      	str	r1, [sp, #28]
  402102:	f04f 0100 	mov.w	r1, #0
  402106:	f88d 1037 	strb.w	r1, [sp, #55]	; 0x37
  40210a:	2500      	movs	r5, #0
  40210c:	1c61      	adds	r1, r4, #1
  40210e:	f000 8116 	beq.w	40233e <_vfiprintf_r+0x4a2>
  402112:	f023 0180 	bic.w	r1, r3, #128	; 0x80
  402116:	9102      	str	r1, [sp, #8]
  402118:	ea56 0107 	orrs.w	r1, r6, r7
  40211c:	f040 8114 	bne.w	402348 <_vfiprintf_r+0x4ac>
  402120:	2c00      	cmp	r4, #0
  402122:	f040 835c 	bne.w	4027de <_vfiprintf_r+0x942>
  402126:	2a00      	cmp	r2, #0
  402128:	f040 83b7 	bne.w	40289a <_vfiprintf_r+0x9fe>
  40212c:	f013 0301 	ands.w	r3, r3, #1
  402130:	9305      	str	r3, [sp, #20]
  402132:	f000 8457 	beq.w	4029e4 <_vfiprintf_r+0xb48>
  402136:	f10d 0bb0 	add.w	fp, sp, #176	; 0xb0
  40213a:	2330      	movs	r3, #48	; 0x30
  40213c:	f80b 3d41 	strb.w	r3, [fp, #-65]!
  402140:	9b05      	ldr	r3, [sp, #20]
  402142:	42a3      	cmp	r3, r4
  402144:	bfb8      	it	lt
  402146:	4623      	movlt	r3, r4
  402148:	9301      	str	r3, [sp, #4]
  40214a:	b10d      	cbz	r5, 402150 <_vfiprintf_r+0x2b4>
  40214c:	3301      	adds	r3, #1
  40214e:	9301      	str	r3, [sp, #4]
  402150:	9b02      	ldr	r3, [sp, #8]
  402152:	f013 0302 	ands.w	r3, r3, #2
  402156:	9309      	str	r3, [sp, #36]	; 0x24
  402158:	d002      	beq.n	402160 <_vfiprintf_r+0x2c4>
  40215a:	9b01      	ldr	r3, [sp, #4]
  40215c:	3302      	adds	r3, #2
  40215e:	9301      	str	r3, [sp, #4]
  402160:	9b02      	ldr	r3, [sp, #8]
  402162:	f013 0384 	ands.w	r3, r3, #132	; 0x84
  402166:	930a      	str	r3, [sp, #40]	; 0x28
  402168:	f040 8217 	bne.w	40259a <_vfiprintf_r+0x6fe>
  40216c:	9b08      	ldr	r3, [sp, #32]
  40216e:	9a01      	ldr	r2, [sp, #4]
  402170:	1a9d      	subs	r5, r3, r2
  402172:	2d00      	cmp	r5, #0
  402174:	f340 8211 	ble.w	40259a <_vfiprintf_r+0x6fe>
  402178:	2d10      	cmp	r5, #16
  40217a:	f340 8490 	ble.w	402a9e <_vfiprintf_r+0xc02>
  40217e:	9b10      	ldr	r3, [sp, #64]	; 0x40
  402180:	9a11      	ldr	r2, [sp, #68]	; 0x44
  402182:	4ec4      	ldr	r6, [pc, #784]	; (402494 <_vfiprintf_r+0x5f8>)
  402184:	46d6      	mov	lr, sl
  402186:	2710      	movs	r7, #16
  402188:	46a2      	mov	sl, r4
  40218a:	4619      	mov	r1, r3
  40218c:	9c06      	ldr	r4, [sp, #24]
  40218e:	e007      	b.n	4021a0 <_vfiprintf_r+0x304>
  402190:	f101 0c02 	add.w	ip, r1, #2
  402194:	f10e 0e08 	add.w	lr, lr, #8
  402198:	4601      	mov	r1, r0
  40219a:	3d10      	subs	r5, #16
  40219c:	2d10      	cmp	r5, #16
  40219e:	dd11      	ble.n	4021c4 <_vfiprintf_r+0x328>
  4021a0:	1c48      	adds	r0, r1, #1
  4021a2:	3210      	adds	r2, #16
  4021a4:	2807      	cmp	r0, #7
  4021a6:	9211      	str	r2, [sp, #68]	; 0x44
  4021a8:	e88e 00c0 	stmia.w	lr, {r6, r7}
  4021ac:	9010      	str	r0, [sp, #64]	; 0x40
  4021ae:	ddef      	ble.n	402190 <_vfiprintf_r+0x2f4>
  4021b0:	2a00      	cmp	r2, #0
  4021b2:	f040 81e4 	bne.w	40257e <_vfiprintf_r+0x6e2>
  4021b6:	3d10      	subs	r5, #16
  4021b8:	2d10      	cmp	r5, #16
  4021ba:	4611      	mov	r1, r2
  4021bc:	f04f 0c01 	mov.w	ip, #1
  4021c0:	46ce      	mov	lr, r9
  4021c2:	dced      	bgt.n	4021a0 <_vfiprintf_r+0x304>
  4021c4:	4654      	mov	r4, sl
  4021c6:	4661      	mov	r1, ip
  4021c8:	46f2      	mov	sl, lr
  4021ca:	442a      	add	r2, r5
  4021cc:	2907      	cmp	r1, #7
  4021ce:	9211      	str	r2, [sp, #68]	; 0x44
  4021d0:	f8ca 6000 	str.w	r6, [sl]
  4021d4:	f8ca 5004 	str.w	r5, [sl, #4]
  4021d8:	9110      	str	r1, [sp, #64]	; 0x40
  4021da:	f300 82ec 	bgt.w	4027b6 <_vfiprintf_r+0x91a>
  4021de:	f89d 5037 	ldrb.w	r5, [sp, #55]	; 0x37
  4021e2:	f10a 0a08 	add.w	sl, sl, #8
  4021e6:	1c48      	adds	r0, r1, #1
  4021e8:	2d00      	cmp	r5, #0
  4021ea:	f040 81de 	bne.w	4025aa <_vfiprintf_r+0x70e>
  4021ee:	9b09      	ldr	r3, [sp, #36]	; 0x24
  4021f0:	2b00      	cmp	r3, #0
  4021f2:	f000 81f8 	beq.w	4025e6 <_vfiprintf_r+0x74a>
  4021f6:	3202      	adds	r2, #2
  4021f8:	a90e      	add	r1, sp, #56	; 0x38
  4021fa:	2302      	movs	r3, #2
  4021fc:	2807      	cmp	r0, #7
  4021fe:	9211      	str	r2, [sp, #68]	; 0x44
  402200:	9010      	str	r0, [sp, #64]	; 0x40
  402202:	e88a 000a 	stmia.w	sl, {r1, r3}
  402206:	f340 81ea 	ble.w	4025de <_vfiprintf_r+0x742>
  40220a:	2a00      	cmp	r2, #0
  40220c:	f040 838c 	bne.w	402928 <_vfiprintf_r+0xa8c>
  402210:	9b0a      	ldr	r3, [sp, #40]	; 0x28
  402212:	2b80      	cmp	r3, #128	; 0x80
  402214:	f04f 0001 	mov.w	r0, #1
  402218:	4611      	mov	r1, r2
  40221a:	46ca      	mov	sl, r9
  40221c:	f040 81e7 	bne.w	4025ee <_vfiprintf_r+0x752>
  402220:	9b08      	ldr	r3, [sp, #32]
  402222:	9d01      	ldr	r5, [sp, #4]
  402224:	1b5e      	subs	r6, r3, r5
  402226:	2e00      	cmp	r6, #0
  402228:	f340 81e1 	ble.w	4025ee <_vfiprintf_r+0x752>
  40222c:	2e10      	cmp	r6, #16
  40222e:	4d9a      	ldr	r5, [pc, #616]	; (402498 <_vfiprintf_r+0x5fc>)
  402230:	f340 8450 	ble.w	402ad4 <_vfiprintf_r+0xc38>
  402234:	46d4      	mov	ip, sl
  402236:	2710      	movs	r7, #16
  402238:	46a2      	mov	sl, r4
  40223a:	9c06      	ldr	r4, [sp, #24]
  40223c:	e007      	b.n	40224e <_vfiprintf_r+0x3b2>
  40223e:	f101 0e02 	add.w	lr, r1, #2
  402242:	f10c 0c08 	add.w	ip, ip, #8
  402246:	4601      	mov	r1, r0
  402248:	3e10      	subs	r6, #16
  40224a:	2e10      	cmp	r6, #16
  40224c:	dd11      	ble.n	402272 <_vfiprintf_r+0x3d6>
  40224e:	1c48      	adds	r0, r1, #1
  402250:	3210      	adds	r2, #16
  402252:	2807      	cmp	r0, #7
  402254:	9211      	str	r2, [sp, #68]	; 0x44
  402256:	e88c 00a0 	stmia.w	ip, {r5, r7}
  40225a:	9010      	str	r0, [sp, #64]	; 0x40
  40225c:	ddef      	ble.n	40223e <_vfiprintf_r+0x3a2>
  40225e:	2a00      	cmp	r2, #0
  402260:	f040 829d 	bne.w	40279e <_vfiprintf_r+0x902>
  402264:	3e10      	subs	r6, #16
  402266:	2e10      	cmp	r6, #16
  402268:	f04f 0e01 	mov.w	lr, #1
  40226c:	4611      	mov	r1, r2
  40226e:	46cc      	mov	ip, r9
  402270:	dced      	bgt.n	40224e <_vfiprintf_r+0x3b2>
  402272:	4654      	mov	r4, sl
  402274:	46e2      	mov	sl, ip
  402276:	4432      	add	r2, r6
  402278:	f1be 0f07 	cmp.w	lr, #7
  40227c:	9211      	str	r2, [sp, #68]	; 0x44
  40227e:	e88a 0060 	stmia.w	sl, {r5, r6}
  402282:	f8cd e040 	str.w	lr, [sp, #64]	; 0x40
  402286:	f300 8369 	bgt.w	40295c <_vfiprintf_r+0xac0>
  40228a:	f10a 0a08 	add.w	sl, sl, #8
  40228e:	f10e 0001 	add.w	r0, lr, #1
  402292:	4671      	mov	r1, lr
  402294:	e1ab      	b.n	4025ee <_vfiprintf_r+0x752>
  402296:	9608      	str	r6, [sp, #32]
  402298:	f013 0220 	ands.w	r2, r3, #32
  40229c:	f040 838c 	bne.w	4029b8 <_vfiprintf_r+0xb1c>
  4022a0:	f013 0110 	ands.w	r1, r3, #16
  4022a4:	f040 831a 	bne.w	4028dc <_vfiprintf_r+0xa40>
  4022a8:	f013 0240 	ands.w	r2, r3, #64	; 0x40
  4022ac:	f000 8316 	beq.w	4028dc <_vfiprintf_r+0xa40>
  4022b0:	9807      	ldr	r0, [sp, #28]
  4022b2:	460a      	mov	r2, r1
  4022b4:	4601      	mov	r1, r0
  4022b6:	3104      	adds	r1, #4
  4022b8:	8806      	ldrh	r6, [r0, #0]
  4022ba:	9107      	str	r1, [sp, #28]
  4022bc:	2700      	movs	r7, #0
  4022be:	e720      	b.n	402102 <_vfiprintf_r+0x266>
  4022c0:	9608      	str	r6, [sp, #32]
  4022c2:	f043 0310 	orr.w	r3, r3, #16
  4022c6:	e7e7      	b.n	402298 <_vfiprintf_r+0x3fc>
  4022c8:	9608      	str	r6, [sp, #32]
  4022ca:	f043 0310 	orr.w	r3, r3, #16
  4022ce:	e708      	b.n	4020e2 <_vfiprintf_r+0x246>
  4022d0:	f043 0380 	orr.w	r3, r3, #128	; 0x80
  4022d4:	f898 2000 	ldrb.w	r2, [r8]
  4022d8:	e652      	b.n	401f80 <_vfiprintf_r+0xe4>
  4022da:	f1a2 0130 	sub.w	r1, r2, #48	; 0x30
  4022de:	2600      	movs	r6, #0
  4022e0:	f818 2b01 	ldrb.w	r2, [r8], #1
  4022e4:	eb06 0686 	add.w	r6, r6, r6, lsl #2
  4022e8:	eb01 0646 	add.w	r6, r1, r6, lsl #1
  4022ec:	f1a2 0130 	sub.w	r1, r2, #48	; 0x30
  4022f0:	2909      	cmp	r1, #9
  4022f2:	d9f5      	bls.n	4022e0 <_vfiprintf_r+0x444>
  4022f4:	e646      	b.n	401f84 <_vfiprintf_r+0xe8>
  4022f6:	9608      	str	r6, [sp, #32]
  4022f8:	2800      	cmp	r0, #0
  4022fa:	f040 8408 	bne.w	402b0e <_vfiprintf_r+0xc72>
  4022fe:	f043 0310 	orr.w	r3, r3, #16
  402302:	069e      	lsls	r6, r3, #26
  402304:	f100 834c 	bmi.w	4029a0 <_vfiprintf_r+0xb04>
  402308:	06dd      	lsls	r5, r3, #27
  40230a:	f100 82f3 	bmi.w	4028f4 <_vfiprintf_r+0xa58>
  40230e:	0658      	lsls	r0, r3, #25
  402310:	f140 82f0 	bpl.w	4028f4 <_vfiprintf_r+0xa58>
  402314:	9d07      	ldr	r5, [sp, #28]
  402316:	f9b5 6000 	ldrsh.w	r6, [r5]
  40231a:	462a      	mov	r2, r5
  40231c:	17f7      	asrs	r7, r6, #31
  40231e:	3204      	adds	r2, #4
  402320:	4630      	mov	r0, r6
  402322:	4639      	mov	r1, r7
  402324:	9207      	str	r2, [sp, #28]
  402326:	2800      	cmp	r0, #0
  402328:	f171 0200 	sbcs.w	r2, r1, #0
  40232c:	f2c0 835d 	blt.w	4029ea <_vfiprintf_r+0xb4e>
  402330:	1c61      	adds	r1, r4, #1
  402332:	f89d 5037 	ldrb.w	r5, [sp, #55]	; 0x37
  402336:	f04f 0201 	mov.w	r2, #1
  40233a:	f47f aeea 	bne.w	402112 <_vfiprintf_r+0x276>
  40233e:	ea56 0107 	orrs.w	r1, r6, r7
  402342:	f000 824d 	beq.w	4027e0 <_vfiprintf_r+0x944>
  402346:	9302      	str	r3, [sp, #8]
  402348:	2a01      	cmp	r2, #1
  40234a:	f000 828c 	beq.w	402866 <_vfiprintf_r+0x9ca>
  40234e:	2a02      	cmp	r2, #2
  402350:	f040 825c 	bne.w	40280c <_vfiprintf_r+0x970>
  402354:	980b      	ldr	r0, [sp, #44]	; 0x2c
  402356:	46cb      	mov	fp, r9
  402358:	0933      	lsrs	r3, r6, #4
  40235a:	f006 010f 	and.w	r1, r6, #15
  40235e:	ea43 7307 	orr.w	r3, r3, r7, lsl #28
  402362:	093a      	lsrs	r2, r7, #4
  402364:	461e      	mov	r6, r3
  402366:	4617      	mov	r7, r2
  402368:	5c43      	ldrb	r3, [r0, r1]
  40236a:	f80b 3d01 	strb.w	r3, [fp, #-1]!
  40236e:	ea56 0307 	orrs.w	r3, r6, r7
  402372:	d1f1      	bne.n	402358 <_vfiprintf_r+0x4bc>
  402374:	eba9 030b 	sub.w	r3, r9, fp
  402378:	9305      	str	r3, [sp, #20]
  40237a:	e6e1      	b.n	402140 <_vfiprintf_r+0x2a4>
  40237c:	2800      	cmp	r0, #0
  40237e:	f040 83c0 	bne.w	402b02 <_vfiprintf_r+0xc66>
  402382:	0699      	lsls	r1, r3, #26
  402384:	f100 8367 	bmi.w	402a56 <_vfiprintf_r+0xbba>
  402388:	06da      	lsls	r2, r3, #27
  40238a:	f100 80f1 	bmi.w	402570 <_vfiprintf_r+0x6d4>
  40238e:	065b      	lsls	r3, r3, #25
  402390:	f140 80ee 	bpl.w	402570 <_vfiprintf_r+0x6d4>
  402394:	9a07      	ldr	r2, [sp, #28]
  402396:	6813      	ldr	r3, [r2, #0]
  402398:	3204      	adds	r2, #4
  40239a:	9207      	str	r2, [sp, #28]
  40239c:	f8bd 200c 	ldrh.w	r2, [sp, #12]
  4023a0:	801a      	strh	r2, [r3, #0]
  4023a2:	e5b8      	b.n	401f16 <_vfiprintf_r+0x7a>
  4023a4:	9807      	ldr	r0, [sp, #28]
  4023a6:	4a3d      	ldr	r2, [pc, #244]	; (40249c <_vfiprintf_r+0x600>)
  4023a8:	9608      	str	r6, [sp, #32]
  4023aa:	920b      	str	r2, [sp, #44]	; 0x2c
  4023ac:	6806      	ldr	r6, [r0, #0]
  4023ae:	2278      	movs	r2, #120	; 0x78
  4023b0:	2130      	movs	r1, #48	; 0x30
  4023b2:	3004      	adds	r0, #4
  4023b4:	f88d 2039 	strb.w	r2, [sp, #57]	; 0x39
  4023b8:	f043 0302 	orr.w	r3, r3, #2
  4023bc:	9007      	str	r0, [sp, #28]
  4023be:	2700      	movs	r7, #0
  4023c0:	f88d 1038 	strb.w	r1, [sp, #56]	; 0x38
  4023c4:	2202      	movs	r2, #2
  4023c6:	e69c      	b.n	402102 <_vfiprintf_r+0x266>
  4023c8:	9608      	str	r6, [sp, #32]
  4023ca:	2800      	cmp	r0, #0
  4023cc:	d099      	beq.n	402302 <_vfiprintf_r+0x466>
  4023ce:	f88d 5037 	strb.w	r5, [sp, #55]	; 0x37
  4023d2:	e796      	b.n	402302 <_vfiprintf_r+0x466>
  4023d4:	f898 2000 	ldrb.w	r2, [r8]
  4023d8:	2d00      	cmp	r5, #0
  4023da:	f47f add1 	bne.w	401f80 <_vfiprintf_r+0xe4>
  4023de:	2001      	movs	r0, #1
  4023e0:	2520      	movs	r5, #32
  4023e2:	e5cd      	b.n	401f80 <_vfiprintf_r+0xe4>
  4023e4:	f043 0301 	orr.w	r3, r3, #1
  4023e8:	f898 2000 	ldrb.w	r2, [r8]
  4023ec:	e5c8      	b.n	401f80 <_vfiprintf_r+0xe4>
  4023ee:	9608      	str	r6, [sp, #32]
  4023f0:	2800      	cmp	r0, #0
  4023f2:	f040 8393 	bne.w	402b1c <_vfiprintf_r+0xc80>
  4023f6:	4929      	ldr	r1, [pc, #164]	; (40249c <_vfiprintf_r+0x600>)
  4023f8:	910b      	str	r1, [sp, #44]	; 0x2c
  4023fa:	069f      	lsls	r7, r3, #26
  4023fc:	f100 82e8 	bmi.w	4029d0 <_vfiprintf_r+0xb34>
  402400:	9807      	ldr	r0, [sp, #28]
  402402:	06de      	lsls	r6, r3, #27
  402404:	4601      	mov	r1, r0
  402406:	f100 8270 	bmi.w	4028ea <_vfiprintf_r+0xa4e>
  40240a:	065d      	lsls	r5, r3, #25
  40240c:	f140 826d 	bpl.w	4028ea <_vfiprintf_r+0xa4e>
  402410:	3104      	adds	r1, #4
  402412:	8806      	ldrh	r6, [r0, #0]
  402414:	9107      	str	r1, [sp, #28]
  402416:	2700      	movs	r7, #0
  402418:	07d8      	lsls	r0, r3, #31
  40241a:	f140 8222 	bpl.w	402862 <_vfiprintf_r+0x9c6>
  40241e:	ea56 0107 	orrs.w	r1, r6, r7
  402422:	f000 821e 	beq.w	402862 <_vfiprintf_r+0x9c6>
  402426:	2130      	movs	r1, #48	; 0x30
  402428:	f88d 2039 	strb.w	r2, [sp, #57]	; 0x39
  40242c:	f043 0302 	orr.w	r3, r3, #2
  402430:	f88d 1038 	strb.w	r1, [sp, #56]	; 0x38
  402434:	2202      	movs	r2, #2
  402436:	e664      	b.n	402102 <_vfiprintf_r+0x266>
  402438:	9608      	str	r6, [sp, #32]
  40243a:	2800      	cmp	r0, #0
  40243c:	f040 836b 	bne.w	402b16 <_vfiprintf_r+0xc7a>
  402440:	4917      	ldr	r1, [pc, #92]	; (4024a0 <_vfiprintf_r+0x604>)
  402442:	910b      	str	r1, [sp, #44]	; 0x2c
  402444:	e7d9      	b.n	4023fa <_vfiprintf_r+0x55e>
  402446:	9907      	ldr	r1, [sp, #28]
  402448:	9608      	str	r6, [sp, #32]
  40244a:	680a      	ldr	r2, [r1, #0]
  40244c:	f88d 2048 	strb.w	r2, [sp, #72]	; 0x48
  402450:	f04f 0000 	mov.w	r0, #0
  402454:	460a      	mov	r2, r1
  402456:	f88d 0037 	strb.w	r0, [sp, #55]	; 0x37
  40245a:	3204      	adds	r2, #4
  40245c:	2001      	movs	r0, #1
  40245e:	9001      	str	r0, [sp, #4]
  402460:	9207      	str	r2, [sp, #28]
  402462:	9005      	str	r0, [sp, #20]
  402464:	f10d 0b48 	add.w	fp, sp, #72	; 0x48
  402468:	9302      	str	r3, [sp, #8]
  40246a:	2400      	movs	r4, #0
  40246c:	e670      	b.n	402150 <_vfiprintf_r+0x2b4>
  40246e:	f043 0340 	orr.w	r3, r3, #64	; 0x40
  402472:	f898 2000 	ldrb.w	r2, [r8]
  402476:	e583      	b.n	401f80 <_vfiprintf_r+0xe4>
  402478:	f898 2000 	ldrb.w	r2, [r8]
  40247c:	2a6c      	cmp	r2, #108	; 0x6c
  40247e:	bf03      	ittte	eq
  402480:	f898 2001 	ldrbeq.w	r2, [r8, #1]
  402484:	f043 0320 	orreq.w	r3, r3, #32
  402488:	f108 0801 	addeq.w	r8, r8, #1
  40248c:	f043 0310 	orrne.w	r3, r3, #16
  402490:	e576      	b.n	401f80 <_vfiprintf_r+0xe4>
  402492:	bf00      	nop
  402494:	004046b4 	.word	0x004046b4
  402498:	004046c4 	.word	0x004046c4
  40249c:	00404698 	.word	0x00404698
  4024a0:	00404684 	.word	0x00404684
  4024a4:	9907      	ldr	r1, [sp, #28]
  4024a6:	680e      	ldr	r6, [r1, #0]
  4024a8:	460a      	mov	r2, r1
  4024aa:	2e00      	cmp	r6, #0
  4024ac:	f102 0204 	add.w	r2, r2, #4
  4024b0:	f6ff ae0f 	blt.w	4020d2 <_vfiprintf_r+0x236>
  4024b4:	9207      	str	r2, [sp, #28]
  4024b6:	f898 2000 	ldrb.w	r2, [r8]
  4024ba:	e561      	b.n	401f80 <_vfiprintf_r+0xe4>
  4024bc:	f898 2000 	ldrb.w	r2, [r8]
  4024c0:	2001      	movs	r0, #1
  4024c2:	252b      	movs	r5, #43	; 0x2b
  4024c4:	e55c      	b.n	401f80 <_vfiprintf_r+0xe4>
  4024c6:	9907      	ldr	r1, [sp, #28]
  4024c8:	9608      	str	r6, [sp, #32]
  4024ca:	f8d1 b000 	ldr.w	fp, [r1]
  4024ce:	f04f 0200 	mov.w	r2, #0
  4024d2:	f88d 2037 	strb.w	r2, [sp, #55]	; 0x37
  4024d6:	1d0e      	adds	r6, r1, #4
  4024d8:	f1bb 0f00 	cmp.w	fp, #0
  4024dc:	f000 82e5 	beq.w	402aaa <_vfiprintf_r+0xc0e>
  4024e0:	1c67      	adds	r7, r4, #1
  4024e2:	f000 82c4 	beq.w	402a6e <_vfiprintf_r+0xbd2>
  4024e6:	4622      	mov	r2, r4
  4024e8:	2100      	movs	r1, #0
  4024ea:	4658      	mov	r0, fp
  4024ec:	9301      	str	r3, [sp, #4]
  4024ee:	f001 fbd7 	bl	403ca0 <memchr>
  4024f2:	9b01      	ldr	r3, [sp, #4]
  4024f4:	2800      	cmp	r0, #0
  4024f6:	f000 82e5 	beq.w	402ac4 <_vfiprintf_r+0xc28>
  4024fa:	eba0 020b 	sub.w	r2, r0, fp
  4024fe:	9205      	str	r2, [sp, #20]
  402500:	9607      	str	r6, [sp, #28]
  402502:	9302      	str	r3, [sp, #8]
  402504:	f89d 5037 	ldrb.w	r5, [sp, #55]	; 0x37
  402508:	2400      	movs	r4, #0
  40250a:	e619      	b.n	402140 <_vfiprintf_r+0x2a4>
  40250c:	f898 2000 	ldrb.w	r2, [r8]
  402510:	2a2a      	cmp	r2, #42	; 0x2a
  402512:	f108 0701 	add.w	r7, r8, #1
  402516:	f000 82e9 	beq.w	402aec <_vfiprintf_r+0xc50>
  40251a:	f1a2 0130 	sub.w	r1, r2, #48	; 0x30
  40251e:	2909      	cmp	r1, #9
  402520:	46b8      	mov	r8, r7
  402522:	f04f 0400 	mov.w	r4, #0
  402526:	f63f ad2d 	bhi.w	401f84 <_vfiprintf_r+0xe8>
  40252a:	f818 2b01 	ldrb.w	r2, [r8], #1
  40252e:	eb04 0484 	add.w	r4, r4, r4, lsl #2
  402532:	eb01 0444 	add.w	r4, r1, r4, lsl #1
  402536:	f1a2 0130 	sub.w	r1, r2, #48	; 0x30
  40253a:	2909      	cmp	r1, #9
  40253c:	d9f5      	bls.n	40252a <_vfiprintf_r+0x68e>
  40253e:	e521      	b.n	401f84 <_vfiprintf_r+0xe8>
  402540:	f043 0320 	orr.w	r3, r3, #32
  402544:	f898 2000 	ldrb.w	r2, [r8]
  402548:	e51a      	b.n	401f80 <_vfiprintf_r+0xe4>
  40254a:	9608      	str	r6, [sp, #32]
  40254c:	2800      	cmp	r0, #0
  40254e:	f040 82db 	bne.w	402b08 <_vfiprintf_r+0xc6c>
  402552:	2a00      	cmp	r2, #0
  402554:	f000 80e7 	beq.w	402726 <_vfiprintf_r+0x88a>
  402558:	2101      	movs	r1, #1
  40255a:	f88d 2048 	strb.w	r2, [sp, #72]	; 0x48
  40255e:	f04f 0200 	mov.w	r2, #0
  402562:	9101      	str	r1, [sp, #4]
  402564:	f88d 2037 	strb.w	r2, [sp, #55]	; 0x37
  402568:	9105      	str	r1, [sp, #20]
  40256a:	f10d 0b48 	add.w	fp, sp, #72	; 0x48
  40256e:	e77b      	b.n	402468 <_vfiprintf_r+0x5cc>
  402570:	9a07      	ldr	r2, [sp, #28]
  402572:	6813      	ldr	r3, [r2, #0]
  402574:	3204      	adds	r2, #4
  402576:	9207      	str	r2, [sp, #28]
  402578:	9a03      	ldr	r2, [sp, #12]
  40257a:	601a      	str	r2, [r3, #0]
  40257c:	e4cb      	b.n	401f16 <_vfiprintf_r+0x7a>
  40257e:	aa0f      	add	r2, sp, #60	; 0x3c
  402580:	9904      	ldr	r1, [sp, #16]
  402582:	4620      	mov	r0, r4
  402584:	f7ff fc4a 	bl	401e1c <__sprint_r.part.0>
  402588:	2800      	cmp	r0, #0
  40258a:	f040 8139 	bne.w	402800 <_vfiprintf_r+0x964>
  40258e:	9910      	ldr	r1, [sp, #64]	; 0x40
  402590:	9a11      	ldr	r2, [sp, #68]	; 0x44
  402592:	f101 0c01 	add.w	ip, r1, #1
  402596:	46ce      	mov	lr, r9
  402598:	e5ff      	b.n	40219a <_vfiprintf_r+0x2fe>
  40259a:	9910      	ldr	r1, [sp, #64]	; 0x40
  40259c:	9a11      	ldr	r2, [sp, #68]	; 0x44
  40259e:	1c48      	adds	r0, r1, #1
  4025a0:	f89d 5037 	ldrb.w	r5, [sp, #55]	; 0x37
  4025a4:	2d00      	cmp	r5, #0
  4025a6:	f43f ae22 	beq.w	4021ee <_vfiprintf_r+0x352>
  4025aa:	3201      	adds	r2, #1
  4025ac:	f10d 0537 	add.w	r5, sp, #55	; 0x37
  4025b0:	2101      	movs	r1, #1
  4025b2:	2807      	cmp	r0, #7
  4025b4:	9211      	str	r2, [sp, #68]	; 0x44
  4025b6:	9010      	str	r0, [sp, #64]	; 0x40
  4025b8:	f8ca 5000 	str.w	r5, [sl]
  4025bc:	f8ca 1004 	str.w	r1, [sl, #4]
  4025c0:	f340 8108 	ble.w	4027d4 <_vfiprintf_r+0x938>
  4025c4:	2a00      	cmp	r2, #0
  4025c6:	f040 81bc 	bne.w	402942 <_vfiprintf_r+0xaa6>
  4025ca:	9b09      	ldr	r3, [sp, #36]	; 0x24
  4025cc:	2b00      	cmp	r3, #0
  4025ce:	f43f ae1f 	beq.w	402210 <_vfiprintf_r+0x374>
  4025d2:	ab0e      	add	r3, sp, #56	; 0x38
  4025d4:	2202      	movs	r2, #2
  4025d6:	4608      	mov	r0, r1
  4025d8:	931c      	str	r3, [sp, #112]	; 0x70
  4025da:	921d      	str	r2, [sp, #116]	; 0x74
  4025dc:	46ca      	mov	sl, r9
  4025de:	4601      	mov	r1, r0
  4025e0:	f10a 0a08 	add.w	sl, sl, #8
  4025e4:	3001      	adds	r0, #1
  4025e6:	9b0a      	ldr	r3, [sp, #40]	; 0x28
  4025e8:	2b80      	cmp	r3, #128	; 0x80
  4025ea:	f43f ae19 	beq.w	402220 <_vfiprintf_r+0x384>
  4025ee:	9b05      	ldr	r3, [sp, #20]
  4025f0:	1ae4      	subs	r4, r4, r3
  4025f2:	2c00      	cmp	r4, #0
  4025f4:	dd2e      	ble.n	402654 <_vfiprintf_r+0x7b8>
  4025f6:	2c10      	cmp	r4, #16
  4025f8:	4db3      	ldr	r5, [pc, #716]	; (4028c8 <_vfiprintf_r+0xa2c>)
  4025fa:	dd1e      	ble.n	40263a <_vfiprintf_r+0x79e>
  4025fc:	46d6      	mov	lr, sl
  4025fe:	2610      	movs	r6, #16
  402600:	9f06      	ldr	r7, [sp, #24]
  402602:	f8dd a010 	ldr.w	sl, [sp, #16]
  402606:	e006      	b.n	402616 <_vfiprintf_r+0x77a>
  402608:	1c88      	adds	r0, r1, #2
  40260a:	f10e 0e08 	add.w	lr, lr, #8
  40260e:	4619      	mov	r1, r3
  402610:	3c10      	subs	r4, #16
  402612:	2c10      	cmp	r4, #16
  402614:	dd10      	ble.n	402638 <_vfiprintf_r+0x79c>
  402616:	1c4b      	adds	r3, r1, #1
  402618:	3210      	adds	r2, #16
  40261a:	2b07      	cmp	r3, #7
  40261c:	9211      	str	r2, [sp, #68]	; 0x44
  40261e:	e88e 0060 	stmia.w	lr, {r5, r6}
  402622:	9310      	str	r3, [sp, #64]	; 0x40
  402624:	ddf0      	ble.n	402608 <_vfiprintf_r+0x76c>
  402626:	2a00      	cmp	r2, #0
  402628:	d165      	bne.n	4026f6 <_vfiprintf_r+0x85a>
  40262a:	3c10      	subs	r4, #16
  40262c:	2c10      	cmp	r4, #16
  40262e:	f04f 0001 	mov.w	r0, #1
  402632:	4611      	mov	r1, r2
  402634:	46ce      	mov	lr, r9
  402636:	dcee      	bgt.n	402616 <_vfiprintf_r+0x77a>
  402638:	46f2      	mov	sl, lr
  40263a:	4422      	add	r2, r4
  40263c:	2807      	cmp	r0, #7
  40263e:	9211      	str	r2, [sp, #68]	; 0x44
  402640:	f8ca 5000 	str.w	r5, [sl]
  402644:	f8ca 4004 	str.w	r4, [sl, #4]
  402648:	9010      	str	r0, [sp, #64]	; 0x40
  40264a:	f300 8085 	bgt.w	402758 <_vfiprintf_r+0x8bc>
  40264e:	f10a 0a08 	add.w	sl, sl, #8
  402652:	3001      	adds	r0, #1
  402654:	9905      	ldr	r1, [sp, #20]
  402656:	f8ca b000 	str.w	fp, [sl]
  40265a:	440a      	add	r2, r1
  40265c:	2807      	cmp	r0, #7
  40265e:	9211      	str	r2, [sp, #68]	; 0x44
  402660:	f8ca 1004 	str.w	r1, [sl, #4]
  402664:	9010      	str	r0, [sp, #64]	; 0x40
  402666:	f340 8082 	ble.w	40276e <_vfiprintf_r+0x8d2>
  40266a:	2a00      	cmp	r2, #0
  40266c:	f040 8118 	bne.w	4028a0 <_vfiprintf_r+0xa04>
  402670:	9b02      	ldr	r3, [sp, #8]
  402672:	9210      	str	r2, [sp, #64]	; 0x40
  402674:	0758      	lsls	r0, r3, #29
  402676:	d535      	bpl.n	4026e4 <_vfiprintf_r+0x848>
  402678:	9b08      	ldr	r3, [sp, #32]
  40267a:	9901      	ldr	r1, [sp, #4]
  40267c:	1a5c      	subs	r4, r3, r1
  40267e:	2c00      	cmp	r4, #0
  402680:	f340 80e7 	ble.w	402852 <_vfiprintf_r+0x9b6>
  402684:	46ca      	mov	sl, r9
  402686:	2c10      	cmp	r4, #16
  402688:	f340 8218 	ble.w	402abc <_vfiprintf_r+0xc20>
  40268c:	9910      	ldr	r1, [sp, #64]	; 0x40
  40268e:	4e8f      	ldr	r6, [pc, #572]	; (4028cc <_vfiprintf_r+0xa30>)
  402690:	9f06      	ldr	r7, [sp, #24]
  402692:	f8dd b010 	ldr.w	fp, [sp, #16]
  402696:	2510      	movs	r5, #16
  402698:	e006      	b.n	4026a8 <_vfiprintf_r+0x80c>
  40269a:	1c88      	adds	r0, r1, #2
  40269c:	f10a 0a08 	add.w	sl, sl, #8
  4026a0:	4619      	mov	r1, r3
  4026a2:	3c10      	subs	r4, #16
  4026a4:	2c10      	cmp	r4, #16
  4026a6:	dd11      	ble.n	4026cc <_vfiprintf_r+0x830>
  4026a8:	1c4b      	adds	r3, r1, #1
  4026aa:	3210      	adds	r2, #16
  4026ac:	2b07      	cmp	r3, #7
  4026ae:	9211      	str	r2, [sp, #68]	; 0x44
  4026b0:	f8ca 6000 	str.w	r6, [sl]
  4026b4:	f8ca 5004 	str.w	r5, [sl, #4]
  4026b8:	9310      	str	r3, [sp, #64]	; 0x40
  4026ba:	ddee      	ble.n	40269a <_vfiprintf_r+0x7fe>
  4026bc:	bb42      	cbnz	r2, 402710 <_vfiprintf_r+0x874>
  4026be:	3c10      	subs	r4, #16
  4026c0:	2c10      	cmp	r4, #16
  4026c2:	f04f 0001 	mov.w	r0, #1
  4026c6:	4611      	mov	r1, r2
  4026c8:	46ca      	mov	sl, r9
  4026ca:	dced      	bgt.n	4026a8 <_vfiprintf_r+0x80c>
  4026cc:	4422      	add	r2, r4
  4026ce:	2807      	cmp	r0, #7
  4026d0:	9211      	str	r2, [sp, #68]	; 0x44
  4026d2:	f8ca 6000 	str.w	r6, [sl]
  4026d6:	f8ca 4004 	str.w	r4, [sl, #4]
  4026da:	9010      	str	r0, [sp, #64]	; 0x40
  4026dc:	dd51      	ble.n	402782 <_vfiprintf_r+0x8e6>
  4026de:	2a00      	cmp	r2, #0
  4026e0:	f040 819b 	bne.w	402a1a <_vfiprintf_r+0xb7e>
  4026e4:	9b03      	ldr	r3, [sp, #12]
  4026e6:	9a08      	ldr	r2, [sp, #32]
  4026e8:	9901      	ldr	r1, [sp, #4]
  4026ea:	428a      	cmp	r2, r1
  4026ec:	bfac      	ite	ge
  4026ee:	189b      	addge	r3, r3, r2
  4026f0:	185b      	addlt	r3, r3, r1
  4026f2:	9303      	str	r3, [sp, #12]
  4026f4:	e04e      	b.n	402794 <_vfiprintf_r+0x8f8>
  4026f6:	aa0f      	add	r2, sp, #60	; 0x3c
  4026f8:	4651      	mov	r1, sl
  4026fa:	4638      	mov	r0, r7
  4026fc:	f7ff fb8e 	bl	401e1c <__sprint_r.part.0>
  402700:	2800      	cmp	r0, #0
  402702:	f040 813f 	bne.w	402984 <_vfiprintf_r+0xae8>
  402706:	9910      	ldr	r1, [sp, #64]	; 0x40
  402708:	9a11      	ldr	r2, [sp, #68]	; 0x44
  40270a:	1c48      	adds	r0, r1, #1
  40270c:	46ce      	mov	lr, r9
  40270e:	e77f      	b.n	402610 <_vfiprintf_r+0x774>
  402710:	aa0f      	add	r2, sp, #60	; 0x3c
  402712:	4659      	mov	r1, fp
  402714:	4638      	mov	r0, r7
  402716:	f7ff fb81 	bl	401e1c <__sprint_r.part.0>
  40271a:	b960      	cbnz	r0, 402736 <_vfiprintf_r+0x89a>
  40271c:	9910      	ldr	r1, [sp, #64]	; 0x40
  40271e:	9a11      	ldr	r2, [sp, #68]	; 0x44
  402720:	1c48      	adds	r0, r1, #1
  402722:	46ca      	mov	sl, r9
  402724:	e7bd      	b.n	4026a2 <_vfiprintf_r+0x806>
  402726:	9b11      	ldr	r3, [sp, #68]	; 0x44
  402728:	f8dd b010 	ldr.w	fp, [sp, #16]
  40272c:	2b00      	cmp	r3, #0
  40272e:	f040 81d4 	bne.w	402ada <_vfiprintf_r+0xc3e>
  402732:	2300      	movs	r3, #0
  402734:	9310      	str	r3, [sp, #64]	; 0x40
  402736:	f8db 3064 	ldr.w	r3, [fp, #100]	; 0x64
  40273a:	f013 0f01 	tst.w	r3, #1
  40273e:	f8bb 300c 	ldrh.w	r3, [fp, #12]
  402742:	d102      	bne.n	40274a <_vfiprintf_r+0x8ae>
  402744:	059a      	lsls	r2, r3, #22
  402746:	f140 80de 	bpl.w	402906 <_vfiprintf_r+0xa6a>
  40274a:	065b      	lsls	r3, r3, #25
  40274c:	f53f acb2 	bmi.w	4020b4 <_vfiprintf_r+0x218>
  402750:	9803      	ldr	r0, [sp, #12]
  402752:	b02d      	add	sp, #180	; 0xb4
  402754:	e8bd 8ff0 	ldmia.w	sp!, {r4, r5, r6, r7, r8, r9, sl, fp, pc}
  402758:	2a00      	cmp	r2, #0
  40275a:	f040 8106 	bne.w	40296a <_vfiprintf_r+0xace>
  40275e:	9a05      	ldr	r2, [sp, #20]
  402760:	921d      	str	r2, [sp, #116]	; 0x74
  402762:	2301      	movs	r3, #1
  402764:	9211      	str	r2, [sp, #68]	; 0x44
  402766:	f8cd b070 	str.w	fp, [sp, #112]	; 0x70
  40276a:	9310      	str	r3, [sp, #64]	; 0x40
  40276c:	46ca      	mov	sl, r9
  40276e:	f10a 0a08 	add.w	sl, sl, #8
  402772:	9b02      	ldr	r3, [sp, #8]
  402774:	0759      	lsls	r1, r3, #29
  402776:	d504      	bpl.n	402782 <_vfiprintf_r+0x8e6>
  402778:	9b08      	ldr	r3, [sp, #32]
  40277a:	9901      	ldr	r1, [sp, #4]
  40277c:	1a5c      	subs	r4, r3, r1
  40277e:	2c00      	cmp	r4, #0
  402780:	dc81      	bgt.n	402686 <_vfiprintf_r+0x7ea>
  402782:	9b03      	ldr	r3, [sp, #12]
  402784:	9908      	ldr	r1, [sp, #32]
  402786:	9801      	ldr	r0, [sp, #4]
  402788:	4281      	cmp	r1, r0
  40278a:	bfac      	ite	ge
  40278c:	185b      	addge	r3, r3, r1
  40278e:	181b      	addlt	r3, r3, r0
  402790:	9303      	str	r3, [sp, #12]
  402792:	bb72      	cbnz	r2, 4027f2 <_vfiprintf_r+0x956>
  402794:	2300      	movs	r3, #0
  402796:	9310      	str	r3, [sp, #64]	; 0x40
  402798:	46ca      	mov	sl, r9
  40279a:	f7ff bbbc 	b.w	401f16 <_vfiprintf_r+0x7a>
  40279e:	aa0f      	add	r2, sp, #60	; 0x3c
  4027a0:	9904      	ldr	r1, [sp, #16]
  4027a2:	4620      	mov	r0, r4
  4027a4:	f7ff fb3a 	bl	401e1c <__sprint_r.part.0>
  4027a8:	bb50      	cbnz	r0, 402800 <_vfiprintf_r+0x964>
  4027aa:	9910      	ldr	r1, [sp, #64]	; 0x40
  4027ac:	9a11      	ldr	r2, [sp, #68]	; 0x44
  4027ae:	f101 0e01 	add.w	lr, r1, #1
  4027b2:	46cc      	mov	ip, r9
  4027b4:	e548      	b.n	402248 <_vfiprintf_r+0x3ac>
  4027b6:	2a00      	cmp	r2, #0
  4027b8:	f040 8140 	bne.w	402a3c <_vfiprintf_r+0xba0>
  4027bc:	f89d 1037 	ldrb.w	r1, [sp, #55]	; 0x37
  4027c0:	2900      	cmp	r1, #0
  4027c2:	f000 811b 	beq.w	4029fc <_vfiprintf_r+0xb60>
  4027c6:	2201      	movs	r2, #1
  4027c8:	f10d 0137 	add.w	r1, sp, #55	; 0x37
  4027cc:	4610      	mov	r0, r2
  4027ce:	921d      	str	r2, [sp, #116]	; 0x74
  4027d0:	911c      	str	r1, [sp, #112]	; 0x70
  4027d2:	46ca      	mov	sl, r9
  4027d4:	4601      	mov	r1, r0
  4027d6:	f10a 0a08 	add.w	sl, sl, #8
  4027da:	3001      	adds	r0, #1
  4027dc:	e507      	b.n	4021ee <_vfiprintf_r+0x352>
  4027de:	9b02      	ldr	r3, [sp, #8]
  4027e0:	2a01      	cmp	r2, #1
  4027e2:	f000 8098 	beq.w	402916 <_vfiprintf_r+0xa7a>
  4027e6:	2a02      	cmp	r2, #2
  4027e8:	d10d      	bne.n	402806 <_vfiprintf_r+0x96a>
  4027ea:	9302      	str	r3, [sp, #8]
  4027ec:	2600      	movs	r6, #0
  4027ee:	2700      	movs	r7, #0
  4027f0:	e5b0      	b.n	402354 <_vfiprintf_r+0x4b8>
  4027f2:	aa0f      	add	r2, sp, #60	; 0x3c
  4027f4:	9904      	ldr	r1, [sp, #16]
  4027f6:	9806      	ldr	r0, [sp, #24]
  4027f8:	f7ff fb10 	bl	401e1c <__sprint_r.part.0>
  4027fc:	2800      	cmp	r0, #0
  4027fe:	d0c9      	beq.n	402794 <_vfiprintf_r+0x8f8>
  402800:	f8dd b010 	ldr.w	fp, [sp, #16]
  402804:	e797      	b.n	402736 <_vfiprintf_r+0x89a>
  402806:	9302      	str	r3, [sp, #8]
  402808:	2600      	movs	r6, #0
  40280a:	2700      	movs	r7, #0
  40280c:	4649      	mov	r1, r9
  40280e:	e000      	b.n	402812 <_vfiprintf_r+0x976>
  402810:	4659      	mov	r1, fp
  402812:	08f2      	lsrs	r2, r6, #3
  402814:	ea42 7247 	orr.w	r2, r2, r7, lsl #29
  402818:	08f8      	lsrs	r0, r7, #3
  40281a:	f006 0307 	and.w	r3, r6, #7
  40281e:	4607      	mov	r7, r0
  402820:	4616      	mov	r6, r2
  402822:	3330      	adds	r3, #48	; 0x30
  402824:	ea56 0207 	orrs.w	r2, r6, r7
  402828:	f801 3c01 	strb.w	r3, [r1, #-1]
  40282c:	f101 3bff 	add.w	fp, r1, #4294967295
  402830:	d1ee      	bne.n	402810 <_vfiprintf_r+0x974>
  402832:	9a02      	ldr	r2, [sp, #8]
  402834:	07d6      	lsls	r6, r2, #31
  402836:	f57f ad9d 	bpl.w	402374 <_vfiprintf_r+0x4d8>
  40283a:	2b30      	cmp	r3, #48	; 0x30
  40283c:	f43f ad9a 	beq.w	402374 <_vfiprintf_r+0x4d8>
  402840:	3902      	subs	r1, #2
  402842:	2330      	movs	r3, #48	; 0x30
  402844:	f80b 3c01 	strb.w	r3, [fp, #-1]
  402848:	eba9 0301 	sub.w	r3, r9, r1
  40284c:	9305      	str	r3, [sp, #20]
  40284e:	468b      	mov	fp, r1
  402850:	e476      	b.n	402140 <_vfiprintf_r+0x2a4>
  402852:	9b03      	ldr	r3, [sp, #12]
  402854:	9a08      	ldr	r2, [sp, #32]
  402856:	428a      	cmp	r2, r1
  402858:	bfac      	ite	ge
  40285a:	189b      	addge	r3, r3, r2
  40285c:	185b      	addlt	r3, r3, r1
  40285e:	9303      	str	r3, [sp, #12]
  402860:	e798      	b.n	402794 <_vfiprintf_r+0x8f8>
  402862:	2202      	movs	r2, #2
  402864:	e44d      	b.n	402102 <_vfiprintf_r+0x266>
  402866:	2f00      	cmp	r7, #0
  402868:	bf08      	it	eq
  40286a:	2e0a      	cmpeq	r6, #10
  40286c:	d352      	bcc.n	402914 <_vfiprintf_r+0xa78>
  40286e:	46cb      	mov	fp, r9
  402870:	4630      	mov	r0, r6
  402872:	4639      	mov	r1, r7
  402874:	220a      	movs	r2, #10
  402876:	2300      	movs	r3, #0
  402878:	f7fe fe8c 	bl	401594 <__aeabi_uldivmod>
  40287c:	3230      	adds	r2, #48	; 0x30
  40287e:	f80b 2d01 	strb.w	r2, [fp, #-1]!
  402882:	4630      	mov	r0, r6
  402884:	4639      	mov	r1, r7
  402886:	2300      	movs	r3, #0
  402888:	220a      	movs	r2, #10
  40288a:	f7fe fe83 	bl	401594 <__aeabi_uldivmod>
  40288e:	4606      	mov	r6, r0
  402890:	460f      	mov	r7, r1
  402892:	ea56 0307 	orrs.w	r3, r6, r7
  402896:	d1eb      	bne.n	402870 <_vfiprintf_r+0x9d4>
  402898:	e56c      	b.n	402374 <_vfiprintf_r+0x4d8>
  40289a:	9405      	str	r4, [sp, #20]
  40289c:	46cb      	mov	fp, r9
  40289e:	e44f      	b.n	402140 <_vfiprintf_r+0x2a4>
  4028a0:	aa0f      	add	r2, sp, #60	; 0x3c
  4028a2:	9904      	ldr	r1, [sp, #16]
  4028a4:	9806      	ldr	r0, [sp, #24]
  4028a6:	f7ff fab9 	bl	401e1c <__sprint_r.part.0>
  4028aa:	2800      	cmp	r0, #0
  4028ac:	d1a8      	bne.n	402800 <_vfiprintf_r+0x964>
  4028ae:	9a11      	ldr	r2, [sp, #68]	; 0x44
  4028b0:	46ca      	mov	sl, r9
  4028b2:	e75e      	b.n	402772 <_vfiprintf_r+0x8d6>
  4028b4:	aa0f      	add	r2, sp, #60	; 0x3c
  4028b6:	9904      	ldr	r1, [sp, #16]
  4028b8:	9806      	ldr	r0, [sp, #24]
  4028ba:	f7ff faaf 	bl	401e1c <__sprint_r.part.0>
  4028be:	2800      	cmp	r0, #0
  4028c0:	d19e      	bne.n	402800 <_vfiprintf_r+0x964>
  4028c2:	46ca      	mov	sl, r9
  4028c4:	f7ff bbc0 	b.w	402048 <_vfiprintf_r+0x1ac>
  4028c8:	004046c4 	.word	0x004046c4
  4028cc:	004046b4 	.word	0x004046b4
  4028d0:	3104      	adds	r1, #4
  4028d2:	6816      	ldr	r6, [r2, #0]
  4028d4:	9107      	str	r1, [sp, #28]
  4028d6:	2201      	movs	r2, #1
  4028d8:	2700      	movs	r7, #0
  4028da:	e412      	b.n	402102 <_vfiprintf_r+0x266>
  4028dc:	9807      	ldr	r0, [sp, #28]
  4028de:	4601      	mov	r1, r0
  4028e0:	3104      	adds	r1, #4
  4028e2:	6806      	ldr	r6, [r0, #0]
  4028e4:	9107      	str	r1, [sp, #28]
  4028e6:	2700      	movs	r7, #0
  4028e8:	e40b      	b.n	402102 <_vfiprintf_r+0x266>
  4028ea:	680e      	ldr	r6, [r1, #0]
  4028ec:	3104      	adds	r1, #4
  4028ee:	9107      	str	r1, [sp, #28]
  4028f0:	2700      	movs	r7, #0
  4028f2:	e591      	b.n	402418 <_vfiprintf_r+0x57c>
  4028f4:	9907      	ldr	r1, [sp, #28]
  4028f6:	680e      	ldr	r6, [r1, #0]
  4028f8:	460a      	mov	r2, r1
  4028fa:	17f7      	asrs	r7, r6, #31
  4028fc:	3204      	adds	r2, #4
  4028fe:	9207      	str	r2, [sp, #28]
  402900:	4630      	mov	r0, r6
  402902:	4639      	mov	r1, r7
  402904:	e50f      	b.n	402326 <_vfiprintf_r+0x48a>
  402906:	f8db 0058 	ldr.w	r0, [fp, #88]	; 0x58
  40290a:	f000 fe7f 	bl	40360c <__retarget_lock_release_recursive>
  40290e:	f8bb 300c 	ldrh.w	r3, [fp, #12]
  402912:	e71a      	b.n	40274a <_vfiprintf_r+0x8ae>
  402914:	9b02      	ldr	r3, [sp, #8]
  402916:	9302      	str	r3, [sp, #8]
  402918:	f10d 0bb0 	add.w	fp, sp, #176	; 0xb0
  40291c:	3630      	adds	r6, #48	; 0x30
  40291e:	2301      	movs	r3, #1
  402920:	f80b 6d41 	strb.w	r6, [fp, #-65]!
  402924:	9305      	str	r3, [sp, #20]
  402926:	e40b      	b.n	402140 <_vfiprintf_r+0x2a4>
  402928:	aa0f      	add	r2, sp, #60	; 0x3c
  40292a:	9904      	ldr	r1, [sp, #16]
  40292c:	9806      	ldr	r0, [sp, #24]
  40292e:	f7ff fa75 	bl	401e1c <__sprint_r.part.0>
  402932:	2800      	cmp	r0, #0
  402934:	f47f af64 	bne.w	402800 <_vfiprintf_r+0x964>
  402938:	9910      	ldr	r1, [sp, #64]	; 0x40
  40293a:	9a11      	ldr	r2, [sp, #68]	; 0x44
  40293c:	1c48      	adds	r0, r1, #1
  40293e:	46ca      	mov	sl, r9
  402940:	e651      	b.n	4025e6 <_vfiprintf_r+0x74a>
  402942:	aa0f      	add	r2, sp, #60	; 0x3c
  402944:	9904      	ldr	r1, [sp, #16]
  402946:	9806      	ldr	r0, [sp, #24]
  402948:	f7ff fa68 	bl	401e1c <__sprint_r.part.0>
  40294c:	2800      	cmp	r0, #0
  40294e:	f47f af57 	bne.w	402800 <_vfiprintf_r+0x964>
  402952:	9910      	ldr	r1, [sp, #64]	; 0x40
  402954:	9a11      	ldr	r2, [sp, #68]	; 0x44
  402956:	1c48      	adds	r0, r1, #1
  402958:	46ca      	mov	sl, r9
  40295a:	e448      	b.n	4021ee <_vfiprintf_r+0x352>
  40295c:	2a00      	cmp	r2, #0
  40295e:	f040 8091 	bne.w	402a84 <_vfiprintf_r+0xbe8>
  402962:	2001      	movs	r0, #1
  402964:	4611      	mov	r1, r2
  402966:	46ca      	mov	sl, r9
  402968:	e641      	b.n	4025ee <_vfiprintf_r+0x752>
  40296a:	aa0f      	add	r2, sp, #60	; 0x3c
  40296c:	9904      	ldr	r1, [sp, #16]
  40296e:	9806      	ldr	r0, [sp, #24]
  402970:	f7ff fa54 	bl	401e1c <__sprint_r.part.0>
  402974:	2800      	cmp	r0, #0
  402976:	f47f af43 	bne.w	402800 <_vfiprintf_r+0x964>
  40297a:	9810      	ldr	r0, [sp, #64]	; 0x40
  40297c:	9a11      	ldr	r2, [sp, #68]	; 0x44
  40297e:	3001      	adds	r0, #1
  402980:	46ca      	mov	sl, r9
  402982:	e667      	b.n	402654 <_vfiprintf_r+0x7b8>
  402984:	46d3      	mov	fp, sl
  402986:	e6d6      	b.n	402736 <_vfiprintf_r+0x89a>
  402988:	9e07      	ldr	r6, [sp, #28]
  40298a:	3607      	adds	r6, #7
  40298c:	f026 0207 	bic.w	r2, r6, #7
  402990:	f102 0108 	add.w	r1, r2, #8
  402994:	e9d2 6700 	ldrd	r6, r7, [r2]
  402998:	9107      	str	r1, [sp, #28]
  40299a:	2201      	movs	r2, #1
  40299c:	f7ff bbb1 	b.w	402102 <_vfiprintf_r+0x266>
  4029a0:	9e07      	ldr	r6, [sp, #28]
  4029a2:	3607      	adds	r6, #7
  4029a4:	f026 0607 	bic.w	r6, r6, #7
  4029a8:	e9d6 0100 	ldrd	r0, r1, [r6]
  4029ac:	f106 0208 	add.w	r2, r6, #8
  4029b0:	9207      	str	r2, [sp, #28]
  4029b2:	4606      	mov	r6, r0
  4029b4:	460f      	mov	r7, r1
  4029b6:	e4b6      	b.n	402326 <_vfiprintf_r+0x48a>
  4029b8:	9e07      	ldr	r6, [sp, #28]
  4029ba:	3607      	adds	r6, #7
  4029bc:	f026 0207 	bic.w	r2, r6, #7
  4029c0:	f102 0108 	add.w	r1, r2, #8
  4029c4:	e9d2 6700 	ldrd	r6, r7, [r2]
  4029c8:	9107      	str	r1, [sp, #28]
  4029ca:	2200      	movs	r2, #0
  4029cc:	f7ff bb99 	b.w	402102 <_vfiprintf_r+0x266>
  4029d0:	9e07      	ldr	r6, [sp, #28]
  4029d2:	3607      	adds	r6, #7
  4029d4:	f026 0107 	bic.w	r1, r6, #7
  4029d8:	f101 0008 	add.w	r0, r1, #8
  4029dc:	9007      	str	r0, [sp, #28]
  4029de:	e9d1 6700 	ldrd	r6, r7, [r1]
  4029e2:	e519      	b.n	402418 <_vfiprintf_r+0x57c>
  4029e4:	46cb      	mov	fp, r9
  4029e6:	f7ff bbab 	b.w	402140 <_vfiprintf_r+0x2a4>
  4029ea:	252d      	movs	r5, #45	; 0x2d
  4029ec:	4276      	negs	r6, r6
  4029ee:	eb67 0747 	sbc.w	r7, r7, r7, lsl #1
  4029f2:	f88d 5037 	strb.w	r5, [sp, #55]	; 0x37
  4029f6:	2201      	movs	r2, #1
  4029f8:	f7ff bb88 	b.w	40210c <_vfiprintf_r+0x270>
  4029fc:	9b09      	ldr	r3, [sp, #36]	; 0x24
  4029fe:	b9b3      	cbnz	r3, 402a2e <_vfiprintf_r+0xb92>
  402a00:	4611      	mov	r1, r2
  402a02:	2001      	movs	r0, #1
  402a04:	46ca      	mov	sl, r9
  402a06:	e5f2      	b.n	4025ee <_vfiprintf_r+0x752>
  402a08:	f8db 0058 	ldr.w	r0, [fp, #88]	; 0x58
  402a0c:	f000 fdfe 	bl	40360c <__retarget_lock_release_recursive>
  402a10:	f04f 33ff 	mov.w	r3, #4294967295
  402a14:	9303      	str	r3, [sp, #12]
  402a16:	f7ff bb50 	b.w	4020ba <_vfiprintf_r+0x21e>
  402a1a:	aa0f      	add	r2, sp, #60	; 0x3c
  402a1c:	9904      	ldr	r1, [sp, #16]
  402a1e:	9806      	ldr	r0, [sp, #24]
  402a20:	f7ff f9fc 	bl	401e1c <__sprint_r.part.0>
  402a24:	2800      	cmp	r0, #0
  402a26:	f47f aeeb 	bne.w	402800 <_vfiprintf_r+0x964>
  402a2a:	9a11      	ldr	r2, [sp, #68]	; 0x44
  402a2c:	e6a9      	b.n	402782 <_vfiprintf_r+0x8e6>
  402a2e:	ab0e      	add	r3, sp, #56	; 0x38
  402a30:	2202      	movs	r2, #2
  402a32:	931c      	str	r3, [sp, #112]	; 0x70
  402a34:	921d      	str	r2, [sp, #116]	; 0x74
  402a36:	2001      	movs	r0, #1
  402a38:	46ca      	mov	sl, r9
  402a3a:	e5d0      	b.n	4025de <_vfiprintf_r+0x742>
  402a3c:	aa0f      	add	r2, sp, #60	; 0x3c
  402a3e:	9904      	ldr	r1, [sp, #16]
  402a40:	9806      	ldr	r0, [sp, #24]
  402a42:	f7ff f9eb 	bl	401e1c <__sprint_r.part.0>
  402a46:	2800      	cmp	r0, #0
  402a48:	f47f aeda 	bne.w	402800 <_vfiprintf_r+0x964>
  402a4c:	9910      	ldr	r1, [sp, #64]	; 0x40
  402a4e:	9a11      	ldr	r2, [sp, #68]	; 0x44
  402a50:	1c48      	adds	r0, r1, #1
  402a52:	46ca      	mov	sl, r9
  402a54:	e5a4      	b.n	4025a0 <_vfiprintf_r+0x704>
  402a56:	9a07      	ldr	r2, [sp, #28]
  402a58:	9903      	ldr	r1, [sp, #12]
  402a5a:	6813      	ldr	r3, [r2, #0]
  402a5c:	17cd      	asrs	r5, r1, #31
  402a5e:	4608      	mov	r0, r1
  402a60:	3204      	adds	r2, #4
  402a62:	4629      	mov	r1, r5
  402a64:	9207      	str	r2, [sp, #28]
  402a66:	e9c3 0100 	strd	r0, r1, [r3]
  402a6a:	f7ff ba54 	b.w	401f16 <_vfiprintf_r+0x7a>
  402a6e:	4658      	mov	r0, fp
  402a70:	9607      	str	r6, [sp, #28]
  402a72:	9302      	str	r3, [sp, #8]
  402a74:	f7ff f964 	bl	401d40 <strlen>
  402a78:	2400      	movs	r4, #0
  402a7a:	9005      	str	r0, [sp, #20]
  402a7c:	f89d 5037 	ldrb.w	r5, [sp, #55]	; 0x37
  402a80:	f7ff bb5e 	b.w	402140 <_vfiprintf_r+0x2a4>
  402a84:	aa0f      	add	r2, sp, #60	; 0x3c
  402a86:	9904      	ldr	r1, [sp, #16]
  402a88:	9806      	ldr	r0, [sp, #24]
  402a8a:	f7ff f9c7 	bl	401e1c <__sprint_r.part.0>
  402a8e:	2800      	cmp	r0, #0
  402a90:	f47f aeb6 	bne.w	402800 <_vfiprintf_r+0x964>
  402a94:	9910      	ldr	r1, [sp, #64]	; 0x40
  402a96:	9a11      	ldr	r2, [sp, #68]	; 0x44
  402a98:	1c48      	adds	r0, r1, #1
  402a9a:	46ca      	mov	sl, r9
  402a9c:	e5a7      	b.n	4025ee <_vfiprintf_r+0x752>
  402a9e:	9910      	ldr	r1, [sp, #64]	; 0x40
  402aa0:	9a11      	ldr	r2, [sp, #68]	; 0x44
  402aa2:	4e20      	ldr	r6, [pc, #128]	; (402b24 <_vfiprintf_r+0xc88>)
  402aa4:	3101      	adds	r1, #1
  402aa6:	f7ff bb90 	b.w	4021ca <_vfiprintf_r+0x32e>
  402aaa:	2c06      	cmp	r4, #6
  402aac:	bf28      	it	cs
  402aae:	2406      	movcs	r4, #6
  402ab0:	9405      	str	r4, [sp, #20]
  402ab2:	9607      	str	r6, [sp, #28]
  402ab4:	9401      	str	r4, [sp, #4]
  402ab6:	f8df b070 	ldr.w	fp, [pc, #112]	; 402b28 <_vfiprintf_r+0xc8c>
  402aba:	e4d5      	b.n	402468 <_vfiprintf_r+0x5cc>
  402abc:	9810      	ldr	r0, [sp, #64]	; 0x40
  402abe:	4e19      	ldr	r6, [pc, #100]	; (402b24 <_vfiprintf_r+0xc88>)
  402ac0:	3001      	adds	r0, #1
  402ac2:	e603      	b.n	4026cc <_vfiprintf_r+0x830>
  402ac4:	9405      	str	r4, [sp, #20]
  402ac6:	f89d 5037 	ldrb.w	r5, [sp, #55]	; 0x37
  402aca:	9607      	str	r6, [sp, #28]
  402acc:	9302      	str	r3, [sp, #8]
  402ace:	4604      	mov	r4, r0
  402ad0:	f7ff bb36 	b.w	402140 <_vfiprintf_r+0x2a4>
  402ad4:	4686      	mov	lr, r0
  402ad6:	f7ff bbce 	b.w	402276 <_vfiprintf_r+0x3da>
  402ada:	9806      	ldr	r0, [sp, #24]
  402adc:	aa0f      	add	r2, sp, #60	; 0x3c
  402ade:	4659      	mov	r1, fp
  402ae0:	f7ff f99c 	bl	401e1c <__sprint_r.part.0>
  402ae4:	2800      	cmp	r0, #0
  402ae6:	f43f ae24 	beq.w	402732 <_vfiprintf_r+0x896>
  402aea:	e624      	b.n	402736 <_vfiprintf_r+0x89a>
  402aec:	9907      	ldr	r1, [sp, #28]
  402aee:	f898 2001 	ldrb.w	r2, [r8, #1]
  402af2:	680c      	ldr	r4, [r1, #0]
  402af4:	3104      	adds	r1, #4
  402af6:	ea44 74e4 	orr.w	r4, r4, r4, asr #31
  402afa:	46b8      	mov	r8, r7
  402afc:	9107      	str	r1, [sp, #28]
  402afe:	f7ff ba3f 	b.w	401f80 <_vfiprintf_r+0xe4>
  402b02:	f88d 5037 	strb.w	r5, [sp, #55]	; 0x37
  402b06:	e43c      	b.n	402382 <_vfiprintf_r+0x4e6>
  402b08:	f88d 5037 	strb.w	r5, [sp, #55]	; 0x37
  402b0c:	e521      	b.n	402552 <_vfiprintf_r+0x6b6>
  402b0e:	f88d 5037 	strb.w	r5, [sp, #55]	; 0x37
  402b12:	f7ff bbf4 	b.w	4022fe <_vfiprintf_r+0x462>
  402b16:	f88d 5037 	strb.w	r5, [sp, #55]	; 0x37
  402b1a:	e491      	b.n	402440 <_vfiprintf_r+0x5a4>
  402b1c:	f88d 5037 	strb.w	r5, [sp, #55]	; 0x37
  402b20:	e469      	b.n	4023f6 <_vfiprintf_r+0x55a>
  402b22:	bf00      	nop
  402b24:	004046b4 	.word	0x004046b4
  402b28:	004046ac 	.word	0x004046ac

00402b2c <__sbprintf>:
  402b2c:	e92d 41f0 	stmdb	sp!, {r4, r5, r6, r7, r8, lr}
  402b30:	460c      	mov	r4, r1
  402b32:	f5ad 6d8d 	sub.w	sp, sp, #1128	; 0x468
  402b36:	8989      	ldrh	r1, [r1, #12]
  402b38:	6e66      	ldr	r6, [r4, #100]	; 0x64
  402b3a:	89e5      	ldrh	r5, [r4, #14]
  402b3c:	9619      	str	r6, [sp, #100]	; 0x64
  402b3e:	f021 0102 	bic.w	r1, r1, #2
  402b42:	4606      	mov	r6, r0
  402b44:	69e0      	ldr	r0, [r4, #28]
  402b46:	f8ad 100c 	strh.w	r1, [sp, #12]
  402b4a:	4617      	mov	r7, r2
  402b4c:	f44f 6180 	mov.w	r1, #1024	; 0x400
  402b50:	6a62      	ldr	r2, [r4, #36]	; 0x24
  402b52:	f8ad 500e 	strh.w	r5, [sp, #14]
  402b56:	4698      	mov	r8, r3
  402b58:	ad1a      	add	r5, sp, #104	; 0x68
  402b5a:	2300      	movs	r3, #0
  402b5c:	9007      	str	r0, [sp, #28]
  402b5e:	a816      	add	r0, sp, #88	; 0x58
  402b60:	9209      	str	r2, [sp, #36]	; 0x24
  402b62:	9306      	str	r3, [sp, #24]
  402b64:	9500      	str	r5, [sp, #0]
  402b66:	9504      	str	r5, [sp, #16]
  402b68:	9102      	str	r1, [sp, #8]
  402b6a:	9105      	str	r1, [sp, #20]
  402b6c:	f000 fd48 	bl	403600 <__retarget_lock_init_recursive>
  402b70:	4643      	mov	r3, r8
  402b72:	463a      	mov	r2, r7
  402b74:	4669      	mov	r1, sp
  402b76:	4630      	mov	r0, r6
  402b78:	f7ff f990 	bl	401e9c <_vfiprintf_r>
  402b7c:	1e05      	subs	r5, r0, #0
  402b7e:	db07      	blt.n	402b90 <__sbprintf+0x64>
  402b80:	4630      	mov	r0, r6
  402b82:	4669      	mov	r1, sp
  402b84:	f000 f928 	bl	402dd8 <_fflush_r>
  402b88:	2800      	cmp	r0, #0
  402b8a:	bf18      	it	ne
  402b8c:	f04f 35ff 	movne.w	r5, #4294967295
  402b90:	f8bd 300c 	ldrh.w	r3, [sp, #12]
  402b94:	065b      	lsls	r3, r3, #25
  402b96:	d503      	bpl.n	402ba0 <__sbprintf+0x74>
  402b98:	89a3      	ldrh	r3, [r4, #12]
  402b9a:	f043 0340 	orr.w	r3, r3, #64	; 0x40
  402b9e:	81a3      	strh	r3, [r4, #12]
  402ba0:	9816      	ldr	r0, [sp, #88]	; 0x58
  402ba2:	f000 fd2f 	bl	403604 <__retarget_lock_close_recursive>
  402ba6:	4628      	mov	r0, r5
  402ba8:	f50d 6d8d 	add.w	sp, sp, #1128	; 0x468
  402bac:	e8bd 81f0 	ldmia.w	sp!, {r4, r5, r6, r7, r8, pc}

00402bb0 <__swsetup_r>:
  402bb0:	b538      	push	{r3, r4, r5, lr}
  402bb2:	4b30      	ldr	r3, [pc, #192]	; (402c74 <__swsetup_r+0xc4>)
  402bb4:	681b      	ldr	r3, [r3, #0]
  402bb6:	4605      	mov	r5, r0
  402bb8:	460c      	mov	r4, r1
  402bba:	b113      	cbz	r3, 402bc2 <__swsetup_r+0x12>
  402bbc:	6b9a      	ldr	r2, [r3, #56]	; 0x38
  402bbe:	2a00      	cmp	r2, #0
  402bc0:	d038      	beq.n	402c34 <__swsetup_r+0x84>
  402bc2:	f9b4 200c 	ldrsh.w	r2, [r4, #12]
  402bc6:	b293      	uxth	r3, r2
  402bc8:	0718      	lsls	r0, r3, #28
  402bca:	d50c      	bpl.n	402be6 <__swsetup_r+0x36>
  402bcc:	6920      	ldr	r0, [r4, #16]
  402bce:	b1a8      	cbz	r0, 402bfc <__swsetup_r+0x4c>
  402bd0:	f013 0201 	ands.w	r2, r3, #1
  402bd4:	d01e      	beq.n	402c14 <__swsetup_r+0x64>
  402bd6:	6963      	ldr	r3, [r4, #20]
  402bd8:	2200      	movs	r2, #0
  402bda:	425b      	negs	r3, r3
  402bdc:	61a3      	str	r3, [r4, #24]
  402bde:	60a2      	str	r2, [r4, #8]
  402be0:	b1f0      	cbz	r0, 402c20 <__swsetup_r+0x70>
  402be2:	2000      	movs	r0, #0
  402be4:	bd38      	pop	{r3, r4, r5, pc}
  402be6:	06d9      	lsls	r1, r3, #27
  402be8:	d53c      	bpl.n	402c64 <__swsetup_r+0xb4>
  402bea:	0758      	lsls	r0, r3, #29
  402bec:	d426      	bmi.n	402c3c <__swsetup_r+0x8c>
  402bee:	6920      	ldr	r0, [r4, #16]
  402bf0:	f042 0308 	orr.w	r3, r2, #8
  402bf4:	81a3      	strh	r3, [r4, #12]
  402bf6:	b29b      	uxth	r3, r3
  402bf8:	2800      	cmp	r0, #0
  402bfa:	d1e9      	bne.n	402bd0 <__swsetup_r+0x20>
  402bfc:	f403 7220 	and.w	r2, r3, #640	; 0x280
  402c00:	f5b2 7f00 	cmp.w	r2, #512	; 0x200
  402c04:	d0e4      	beq.n	402bd0 <__swsetup_r+0x20>
  402c06:	4628      	mov	r0, r5
  402c08:	4621      	mov	r1, r4
  402c0a:	f000 fd2f 	bl	40366c <__smakebuf_r>
  402c0e:	89a3      	ldrh	r3, [r4, #12]
  402c10:	6920      	ldr	r0, [r4, #16]
  402c12:	e7dd      	b.n	402bd0 <__swsetup_r+0x20>
  402c14:	0799      	lsls	r1, r3, #30
  402c16:	bf58      	it	pl
  402c18:	6962      	ldrpl	r2, [r4, #20]
  402c1a:	60a2      	str	r2, [r4, #8]
  402c1c:	2800      	cmp	r0, #0
  402c1e:	d1e0      	bne.n	402be2 <__swsetup_r+0x32>
  402c20:	f9b4 300c 	ldrsh.w	r3, [r4, #12]
  402c24:	061a      	lsls	r2, r3, #24
  402c26:	d5dd      	bpl.n	402be4 <__swsetup_r+0x34>
  402c28:	f043 0340 	orr.w	r3, r3, #64	; 0x40
  402c2c:	81a3      	strh	r3, [r4, #12]
  402c2e:	f04f 30ff 	mov.w	r0, #4294967295
  402c32:	bd38      	pop	{r3, r4, r5, pc}
  402c34:	4618      	mov	r0, r3
  402c36:	f000 f927 	bl	402e88 <__sinit>
  402c3a:	e7c2      	b.n	402bc2 <__swsetup_r+0x12>
  402c3c:	6b21      	ldr	r1, [r4, #48]	; 0x30
  402c3e:	b151      	cbz	r1, 402c56 <__swsetup_r+0xa6>
  402c40:	f104 0340 	add.w	r3, r4, #64	; 0x40
  402c44:	4299      	cmp	r1, r3
  402c46:	d004      	beq.n	402c52 <__swsetup_r+0xa2>
  402c48:	4628      	mov	r0, r5
  402c4a:	f000 fa43 	bl	4030d4 <_free_r>
  402c4e:	f9b4 200c 	ldrsh.w	r2, [r4, #12]
  402c52:	2300      	movs	r3, #0
  402c54:	6323      	str	r3, [r4, #48]	; 0x30
  402c56:	2300      	movs	r3, #0
  402c58:	6920      	ldr	r0, [r4, #16]
  402c5a:	6063      	str	r3, [r4, #4]
  402c5c:	f022 0224 	bic.w	r2, r2, #36	; 0x24
  402c60:	6020      	str	r0, [r4, #0]
  402c62:	e7c5      	b.n	402bf0 <__swsetup_r+0x40>
  402c64:	f042 0240 	orr.w	r2, r2, #64	; 0x40
  402c68:	2309      	movs	r3, #9
  402c6a:	602b      	str	r3, [r5, #0]
  402c6c:	f04f 30ff 	mov.w	r0, #4294967295
  402c70:	81a2      	strh	r2, [r4, #12]
  402c72:	bd38      	pop	{r3, r4, r5, pc}
  402c74:	20400014 	.word	0x20400014

00402c78 <register_fini>:
  402c78:	4b02      	ldr	r3, [pc, #8]	; (402c84 <register_fini+0xc>)
  402c7a:	b113      	cbz	r3, 402c82 <register_fini+0xa>
  402c7c:	4802      	ldr	r0, [pc, #8]	; (402c88 <register_fini+0x10>)
  402c7e:	f000 b805 	b.w	402c8c <atexit>
  402c82:	4770      	bx	lr
  402c84:	00000000 	.word	0x00000000
  402c88:	00402ef9 	.word	0x00402ef9

00402c8c <atexit>:
  402c8c:	2300      	movs	r3, #0
  402c8e:	4601      	mov	r1, r0
  402c90:	461a      	mov	r2, r3
  402c92:	4618      	mov	r0, r3
  402c94:	f001 bb66 	b.w	404364 <__register_exitproc>

00402c98 <__sflush_r>:
  402c98:	f9b1 300c 	ldrsh.w	r3, [r1, #12]
  402c9c:	b29a      	uxth	r2, r3
  402c9e:	e92d 41f0 	stmdb	sp!, {r4, r5, r6, r7, r8, lr}
  402ca2:	460d      	mov	r5, r1
  402ca4:	0711      	lsls	r1, r2, #28
  402ca6:	4680      	mov	r8, r0
  402ca8:	d43a      	bmi.n	402d20 <__sflush_r+0x88>
  402caa:	686a      	ldr	r2, [r5, #4]
  402cac:	f443 6300 	orr.w	r3, r3, #2048	; 0x800
  402cb0:	2a00      	cmp	r2, #0
  402cb2:	81ab      	strh	r3, [r5, #12]
  402cb4:	dd6f      	ble.n	402d96 <__sflush_r+0xfe>
  402cb6:	6aac      	ldr	r4, [r5, #40]	; 0x28
  402cb8:	2c00      	cmp	r4, #0
  402cba:	d049      	beq.n	402d50 <__sflush_r+0xb8>
  402cbc:	2200      	movs	r2, #0
  402cbe:	b29b      	uxth	r3, r3
  402cc0:	f8d8 6000 	ldr.w	r6, [r8]
  402cc4:	f8c8 2000 	str.w	r2, [r8]
  402cc8:	f413 5280 	ands.w	r2, r3, #4096	; 0x1000
  402ccc:	d067      	beq.n	402d9e <__sflush_r+0x106>
  402cce:	6d2a      	ldr	r2, [r5, #80]	; 0x50
  402cd0:	075f      	lsls	r7, r3, #29
  402cd2:	d505      	bpl.n	402ce0 <__sflush_r+0x48>
  402cd4:	6869      	ldr	r1, [r5, #4]
  402cd6:	6b2b      	ldr	r3, [r5, #48]	; 0x30
  402cd8:	1a52      	subs	r2, r2, r1
  402cda:	b10b      	cbz	r3, 402ce0 <__sflush_r+0x48>
  402cdc:	6beb      	ldr	r3, [r5, #60]	; 0x3c
  402cde:	1ad2      	subs	r2, r2, r3
  402ce0:	2300      	movs	r3, #0
  402ce2:	69e9      	ldr	r1, [r5, #28]
  402ce4:	4640      	mov	r0, r8
  402ce6:	47a0      	blx	r4
  402ce8:	1c44      	adds	r4, r0, #1
  402cea:	d03c      	beq.n	402d66 <__sflush_r+0xce>
  402cec:	f9b5 300c 	ldrsh.w	r3, [r5, #12]
  402cf0:	692a      	ldr	r2, [r5, #16]
  402cf2:	602a      	str	r2, [r5, #0]
  402cf4:	f423 6300 	bic.w	r3, r3, #2048	; 0x800
  402cf8:	2200      	movs	r2, #0
  402cfa:	81ab      	strh	r3, [r5, #12]
  402cfc:	04db      	lsls	r3, r3, #19
  402cfe:	606a      	str	r2, [r5, #4]
  402d00:	d447      	bmi.n	402d92 <__sflush_r+0xfa>
  402d02:	6b29      	ldr	r1, [r5, #48]	; 0x30
  402d04:	f8c8 6000 	str.w	r6, [r8]
  402d08:	b311      	cbz	r1, 402d50 <__sflush_r+0xb8>
  402d0a:	f105 0340 	add.w	r3, r5, #64	; 0x40
  402d0e:	4299      	cmp	r1, r3
  402d10:	d002      	beq.n	402d18 <__sflush_r+0x80>
  402d12:	4640      	mov	r0, r8
  402d14:	f000 f9de 	bl	4030d4 <_free_r>
  402d18:	2000      	movs	r0, #0
  402d1a:	6328      	str	r0, [r5, #48]	; 0x30
  402d1c:	e8bd 81f0 	ldmia.w	sp!, {r4, r5, r6, r7, r8, pc}
  402d20:	692e      	ldr	r6, [r5, #16]
  402d22:	b1ae      	cbz	r6, 402d50 <__sflush_r+0xb8>
  402d24:	682c      	ldr	r4, [r5, #0]
  402d26:	602e      	str	r6, [r5, #0]
  402d28:	0791      	lsls	r1, r2, #30
  402d2a:	bf0c      	ite	eq
  402d2c:	696b      	ldreq	r3, [r5, #20]
  402d2e:	2300      	movne	r3, #0
  402d30:	1ba4      	subs	r4, r4, r6
  402d32:	60ab      	str	r3, [r5, #8]
  402d34:	e00a      	b.n	402d4c <__sflush_r+0xb4>
  402d36:	4623      	mov	r3, r4
  402d38:	4632      	mov	r2, r6
  402d3a:	6a6f      	ldr	r7, [r5, #36]	; 0x24
  402d3c:	69e9      	ldr	r1, [r5, #28]
  402d3e:	4640      	mov	r0, r8
  402d40:	47b8      	blx	r7
  402d42:	2800      	cmp	r0, #0
  402d44:	eba4 0400 	sub.w	r4, r4, r0
  402d48:	4406      	add	r6, r0
  402d4a:	dd04      	ble.n	402d56 <__sflush_r+0xbe>
  402d4c:	2c00      	cmp	r4, #0
  402d4e:	dcf2      	bgt.n	402d36 <__sflush_r+0x9e>
  402d50:	2000      	movs	r0, #0
  402d52:	e8bd 81f0 	ldmia.w	sp!, {r4, r5, r6, r7, r8, pc}
  402d56:	89ab      	ldrh	r3, [r5, #12]
  402d58:	f043 0340 	orr.w	r3, r3, #64	; 0x40
  402d5c:	81ab      	strh	r3, [r5, #12]
  402d5e:	f04f 30ff 	mov.w	r0, #4294967295
  402d62:	e8bd 81f0 	ldmia.w	sp!, {r4, r5, r6, r7, r8, pc}
  402d66:	f8d8 4000 	ldr.w	r4, [r8]
  402d6a:	2c1d      	cmp	r4, #29
  402d6c:	d8f3      	bhi.n	402d56 <__sflush_r+0xbe>
  402d6e:	4b19      	ldr	r3, [pc, #100]	; (402dd4 <__sflush_r+0x13c>)
  402d70:	40e3      	lsrs	r3, r4
  402d72:	43db      	mvns	r3, r3
  402d74:	f013 0301 	ands.w	r3, r3, #1
  402d78:	d1ed      	bne.n	402d56 <__sflush_r+0xbe>
  402d7a:	f9b5 200c 	ldrsh.w	r2, [r5, #12]
  402d7e:	606b      	str	r3, [r5, #4]
  402d80:	f422 6300 	bic.w	r3, r2, #2048	; 0x800
  402d84:	6929      	ldr	r1, [r5, #16]
  402d86:	81ab      	strh	r3, [r5, #12]
  402d88:	04da      	lsls	r2, r3, #19
  402d8a:	6029      	str	r1, [r5, #0]
  402d8c:	d5b9      	bpl.n	402d02 <__sflush_r+0x6a>
  402d8e:	2c00      	cmp	r4, #0
  402d90:	d1b7      	bne.n	402d02 <__sflush_r+0x6a>
  402d92:	6528      	str	r0, [r5, #80]	; 0x50
  402d94:	e7b5      	b.n	402d02 <__sflush_r+0x6a>
  402d96:	6bea      	ldr	r2, [r5, #60]	; 0x3c
  402d98:	2a00      	cmp	r2, #0
  402d9a:	dc8c      	bgt.n	402cb6 <__sflush_r+0x1e>
  402d9c:	e7d8      	b.n	402d50 <__sflush_r+0xb8>
  402d9e:	2301      	movs	r3, #1
  402da0:	69e9      	ldr	r1, [r5, #28]
  402da2:	4640      	mov	r0, r8
  402da4:	47a0      	blx	r4
  402da6:	1c43      	adds	r3, r0, #1
  402da8:	4602      	mov	r2, r0
  402daa:	d002      	beq.n	402db2 <__sflush_r+0x11a>
  402dac:	89ab      	ldrh	r3, [r5, #12]
  402dae:	6aac      	ldr	r4, [r5, #40]	; 0x28
  402db0:	e78e      	b.n	402cd0 <__sflush_r+0x38>
  402db2:	f8d8 3000 	ldr.w	r3, [r8]
  402db6:	2b00      	cmp	r3, #0
  402db8:	d0f8      	beq.n	402dac <__sflush_r+0x114>
  402dba:	2b1d      	cmp	r3, #29
  402dbc:	d001      	beq.n	402dc2 <__sflush_r+0x12a>
  402dbe:	2b16      	cmp	r3, #22
  402dc0:	d102      	bne.n	402dc8 <__sflush_r+0x130>
  402dc2:	f8c8 6000 	str.w	r6, [r8]
  402dc6:	e7c3      	b.n	402d50 <__sflush_r+0xb8>
  402dc8:	89ab      	ldrh	r3, [r5, #12]
  402dca:	f043 0340 	orr.w	r3, r3, #64	; 0x40
  402dce:	81ab      	strh	r3, [r5, #12]
  402dd0:	e8bd 81f0 	ldmia.w	sp!, {r4, r5, r6, r7, r8, pc}
  402dd4:	20400001 	.word	0x20400001

00402dd8 <_fflush_r>:
  402dd8:	b538      	push	{r3, r4, r5, lr}
  402dda:	460d      	mov	r5, r1
  402ddc:	4604      	mov	r4, r0
  402dde:	b108      	cbz	r0, 402de4 <_fflush_r+0xc>
  402de0:	6b83      	ldr	r3, [r0, #56]	; 0x38
  402de2:	b1bb      	cbz	r3, 402e14 <_fflush_r+0x3c>
  402de4:	f9b5 000c 	ldrsh.w	r0, [r5, #12]
  402de8:	b188      	cbz	r0, 402e0e <_fflush_r+0x36>
  402dea:	6e6b      	ldr	r3, [r5, #100]	; 0x64
  402dec:	07db      	lsls	r3, r3, #31
  402dee:	d401      	bmi.n	402df4 <_fflush_r+0x1c>
  402df0:	0581      	lsls	r1, r0, #22
  402df2:	d517      	bpl.n	402e24 <_fflush_r+0x4c>
  402df4:	4620      	mov	r0, r4
  402df6:	4629      	mov	r1, r5
  402df8:	f7ff ff4e 	bl	402c98 <__sflush_r>
  402dfc:	6e6b      	ldr	r3, [r5, #100]	; 0x64
  402dfe:	07da      	lsls	r2, r3, #31
  402e00:	4604      	mov	r4, r0
  402e02:	d402      	bmi.n	402e0a <_fflush_r+0x32>
  402e04:	89ab      	ldrh	r3, [r5, #12]
  402e06:	059b      	lsls	r3, r3, #22
  402e08:	d507      	bpl.n	402e1a <_fflush_r+0x42>
  402e0a:	4620      	mov	r0, r4
  402e0c:	bd38      	pop	{r3, r4, r5, pc}
  402e0e:	4604      	mov	r4, r0
  402e10:	4620      	mov	r0, r4
  402e12:	bd38      	pop	{r3, r4, r5, pc}
  402e14:	f000 f838 	bl	402e88 <__sinit>
  402e18:	e7e4      	b.n	402de4 <_fflush_r+0xc>
  402e1a:	6da8      	ldr	r0, [r5, #88]	; 0x58
  402e1c:	f000 fbf6 	bl	40360c <__retarget_lock_release_recursive>
  402e20:	4620      	mov	r0, r4
  402e22:	bd38      	pop	{r3, r4, r5, pc}
  402e24:	6da8      	ldr	r0, [r5, #88]	; 0x58
  402e26:	f000 fbef 	bl	403608 <__retarget_lock_acquire_recursive>
  402e2a:	e7e3      	b.n	402df4 <_fflush_r+0x1c>

00402e2c <_cleanup_r>:
  402e2c:	4901      	ldr	r1, [pc, #4]	; (402e34 <_cleanup_r+0x8>)
  402e2e:	f000 bbaf 	b.w	403590 <_fwalk_reent>
  402e32:	bf00      	nop
  402e34:	0040444d 	.word	0x0040444d

00402e38 <std.isra.0>:
  402e38:	b510      	push	{r4, lr}
  402e3a:	2300      	movs	r3, #0
  402e3c:	4604      	mov	r4, r0
  402e3e:	8181      	strh	r1, [r0, #12]
  402e40:	81c2      	strh	r2, [r0, #14]
  402e42:	6003      	str	r3, [r0, #0]
  402e44:	6043      	str	r3, [r0, #4]
  402e46:	6083      	str	r3, [r0, #8]
  402e48:	6643      	str	r3, [r0, #100]	; 0x64
  402e4a:	6103      	str	r3, [r0, #16]
  402e4c:	6143      	str	r3, [r0, #20]
  402e4e:	6183      	str	r3, [r0, #24]
  402e50:	4619      	mov	r1, r3
  402e52:	2208      	movs	r2, #8
  402e54:	305c      	adds	r0, #92	; 0x5c
  402e56:	f7fe fdfb 	bl	401a50 <memset>
  402e5a:	4807      	ldr	r0, [pc, #28]	; (402e78 <std.isra.0+0x40>)
  402e5c:	4907      	ldr	r1, [pc, #28]	; (402e7c <std.isra.0+0x44>)
  402e5e:	4a08      	ldr	r2, [pc, #32]	; (402e80 <std.isra.0+0x48>)
  402e60:	4b08      	ldr	r3, [pc, #32]	; (402e84 <std.isra.0+0x4c>)
  402e62:	6220      	str	r0, [r4, #32]
  402e64:	61e4      	str	r4, [r4, #28]
  402e66:	6261      	str	r1, [r4, #36]	; 0x24
  402e68:	62a2      	str	r2, [r4, #40]	; 0x28
  402e6a:	62e3      	str	r3, [r4, #44]	; 0x2c
  402e6c:	f104 0058 	add.w	r0, r4, #88	; 0x58
  402e70:	e8bd 4010 	ldmia.w	sp!, {r4, lr}
  402e74:	f000 bbc4 	b.w	403600 <__retarget_lock_init_recursive>
  402e78:	00404191 	.word	0x00404191
  402e7c:	004041b5 	.word	0x004041b5
  402e80:	004041f1 	.word	0x004041f1
  402e84:	00404211 	.word	0x00404211

00402e88 <__sinit>:
  402e88:	b510      	push	{r4, lr}
  402e8a:	4604      	mov	r4, r0
  402e8c:	4812      	ldr	r0, [pc, #72]	; (402ed8 <__sinit+0x50>)
  402e8e:	f000 fbbb 	bl	403608 <__retarget_lock_acquire_recursive>
  402e92:	6ba2      	ldr	r2, [r4, #56]	; 0x38
  402e94:	b9d2      	cbnz	r2, 402ecc <__sinit+0x44>
  402e96:	f504 733b 	add.w	r3, r4, #748	; 0x2ec
  402e9a:	4810      	ldr	r0, [pc, #64]	; (402edc <__sinit+0x54>)
  402e9c:	f8c4 32e8 	str.w	r3, [r4, #744]	; 0x2e8
  402ea0:	2103      	movs	r1, #3
  402ea2:	f8c4 22e0 	str.w	r2, [r4, #736]	; 0x2e0
  402ea6:	63e0      	str	r0, [r4, #60]	; 0x3c
  402ea8:	f8c4 12e4 	str.w	r1, [r4, #740]	; 0x2e4
  402eac:	6860      	ldr	r0, [r4, #4]
  402eae:	2104      	movs	r1, #4
  402eb0:	f7ff ffc2 	bl	402e38 <std.isra.0>
  402eb4:	2201      	movs	r2, #1
  402eb6:	2109      	movs	r1, #9
  402eb8:	68a0      	ldr	r0, [r4, #8]
  402eba:	f7ff ffbd 	bl	402e38 <std.isra.0>
  402ebe:	2202      	movs	r2, #2
  402ec0:	2112      	movs	r1, #18
  402ec2:	68e0      	ldr	r0, [r4, #12]
  402ec4:	f7ff ffb8 	bl	402e38 <std.isra.0>
  402ec8:	2301      	movs	r3, #1
  402eca:	63a3      	str	r3, [r4, #56]	; 0x38
  402ecc:	4802      	ldr	r0, [pc, #8]	; (402ed8 <__sinit+0x50>)
  402ece:	e8bd 4010 	ldmia.w	sp!, {r4, lr}
  402ed2:	f000 bb9b 	b.w	40360c <__retarget_lock_release_recursive>
  402ed6:	bf00      	nop
  402ed8:	20400ac8 	.word	0x20400ac8
  402edc:	00402e2d 	.word	0x00402e2d

00402ee0 <__sfp_lock_acquire>:
  402ee0:	4801      	ldr	r0, [pc, #4]	; (402ee8 <__sfp_lock_acquire+0x8>)
  402ee2:	f000 bb91 	b.w	403608 <__retarget_lock_acquire_recursive>
  402ee6:	bf00      	nop
  402ee8:	20400adc 	.word	0x20400adc

00402eec <__sfp_lock_release>:
  402eec:	4801      	ldr	r0, [pc, #4]	; (402ef4 <__sfp_lock_release+0x8>)
  402eee:	f000 bb8d 	b.w	40360c <__retarget_lock_release_recursive>
  402ef2:	bf00      	nop
  402ef4:	20400adc 	.word	0x20400adc

00402ef8 <__libc_fini_array>:
  402ef8:	b538      	push	{r3, r4, r5, lr}
  402efa:	4c0a      	ldr	r4, [pc, #40]	; (402f24 <__libc_fini_array+0x2c>)
  402efc:	4d0a      	ldr	r5, [pc, #40]	; (402f28 <__libc_fini_array+0x30>)
  402efe:	1b64      	subs	r4, r4, r5
  402f00:	10a4      	asrs	r4, r4, #2
  402f02:	d00a      	beq.n	402f1a <__libc_fini_array+0x22>
  402f04:	f104 4380 	add.w	r3, r4, #1073741824	; 0x40000000
  402f08:	3b01      	subs	r3, #1
  402f0a:	eb05 0583 	add.w	r5, r5, r3, lsl #2
  402f0e:	3c01      	subs	r4, #1
  402f10:	f855 3904 	ldr.w	r3, [r5], #-4
  402f14:	4798      	blx	r3
  402f16:	2c00      	cmp	r4, #0
  402f18:	d1f9      	bne.n	402f0e <__libc_fini_array+0x16>
  402f1a:	e8bd 4038 	ldmia.w	sp!, {r3, r4, r5, lr}
  402f1e:	f001 bc6d 	b.w	4047fc <_fini>
  402f22:	bf00      	nop
  402f24:	0040480c 	.word	0x0040480c
  402f28:	00404808 	.word	0x00404808

00402f2c <__fputwc>:
  402f2c:	e92d 47f0 	stmdb	sp!, {r4, r5, r6, r7, r8, r9, sl, lr}
  402f30:	b082      	sub	sp, #8
  402f32:	4680      	mov	r8, r0
  402f34:	4689      	mov	r9, r1
  402f36:	4614      	mov	r4, r2
  402f38:	f000 fb54 	bl	4035e4 <__locale_mb_cur_max>
  402f3c:	2801      	cmp	r0, #1
  402f3e:	d036      	beq.n	402fae <__fputwc+0x82>
  402f40:	464a      	mov	r2, r9
  402f42:	f104 035c 	add.w	r3, r4, #92	; 0x5c
  402f46:	a901      	add	r1, sp, #4
  402f48:	4640      	mov	r0, r8
  402f4a:	f001 f9bd 	bl	4042c8 <_wcrtomb_r>
  402f4e:	1c42      	adds	r2, r0, #1
  402f50:	4606      	mov	r6, r0
  402f52:	d025      	beq.n	402fa0 <__fputwc+0x74>
  402f54:	b3a8      	cbz	r0, 402fc2 <__fputwc+0x96>
  402f56:	f89d e004 	ldrb.w	lr, [sp, #4]
  402f5a:	2500      	movs	r5, #0
  402f5c:	f10d 0a04 	add.w	sl, sp, #4
  402f60:	e009      	b.n	402f76 <__fputwc+0x4a>
  402f62:	6823      	ldr	r3, [r4, #0]
  402f64:	1c5a      	adds	r2, r3, #1
  402f66:	6022      	str	r2, [r4, #0]
  402f68:	f883 e000 	strb.w	lr, [r3]
  402f6c:	3501      	adds	r5, #1
  402f6e:	42b5      	cmp	r5, r6
  402f70:	d227      	bcs.n	402fc2 <__fputwc+0x96>
  402f72:	f815 e00a 	ldrb.w	lr, [r5, sl]
  402f76:	68a3      	ldr	r3, [r4, #8]
  402f78:	3b01      	subs	r3, #1
  402f7a:	2b00      	cmp	r3, #0
  402f7c:	60a3      	str	r3, [r4, #8]
  402f7e:	daf0      	bge.n	402f62 <__fputwc+0x36>
  402f80:	69a7      	ldr	r7, [r4, #24]
  402f82:	42bb      	cmp	r3, r7
  402f84:	4671      	mov	r1, lr
  402f86:	4622      	mov	r2, r4
  402f88:	4640      	mov	r0, r8
  402f8a:	db02      	blt.n	402f92 <__fputwc+0x66>
  402f8c:	f1be 0f0a 	cmp.w	lr, #10
  402f90:	d1e7      	bne.n	402f62 <__fputwc+0x36>
  402f92:	f001 f941 	bl	404218 <__swbuf_r>
  402f96:	1c43      	adds	r3, r0, #1
  402f98:	d1e8      	bne.n	402f6c <__fputwc+0x40>
  402f9a:	b002      	add	sp, #8
  402f9c:	e8bd 87f0 	ldmia.w	sp!, {r4, r5, r6, r7, r8, r9, sl, pc}
  402fa0:	89a3      	ldrh	r3, [r4, #12]
  402fa2:	f043 0340 	orr.w	r3, r3, #64	; 0x40
  402fa6:	81a3      	strh	r3, [r4, #12]
  402fa8:	b002      	add	sp, #8
  402faa:	e8bd 87f0 	ldmia.w	sp!, {r4, r5, r6, r7, r8, r9, sl, pc}
  402fae:	f109 33ff 	add.w	r3, r9, #4294967295
  402fb2:	2bfe      	cmp	r3, #254	; 0xfe
  402fb4:	d8c4      	bhi.n	402f40 <__fputwc+0x14>
  402fb6:	fa5f fe89 	uxtb.w	lr, r9
  402fba:	4606      	mov	r6, r0
  402fbc:	f88d e004 	strb.w	lr, [sp, #4]
  402fc0:	e7cb      	b.n	402f5a <__fputwc+0x2e>
  402fc2:	4648      	mov	r0, r9
  402fc4:	b002      	add	sp, #8
  402fc6:	e8bd 87f0 	ldmia.w	sp!, {r4, r5, r6, r7, r8, r9, sl, pc}
  402fca:	bf00      	nop

00402fcc <_fputwc_r>:
  402fcc:	b530      	push	{r4, r5, lr}
  402fce:	6e53      	ldr	r3, [r2, #100]	; 0x64
  402fd0:	f013 0f01 	tst.w	r3, #1
  402fd4:	f9b2 300c 	ldrsh.w	r3, [r2, #12]
  402fd8:	4614      	mov	r4, r2
  402fda:	b083      	sub	sp, #12
  402fdc:	4605      	mov	r5, r0
  402fde:	b29a      	uxth	r2, r3
  402fe0:	d101      	bne.n	402fe6 <_fputwc_r+0x1a>
  402fe2:	0590      	lsls	r0, r2, #22
  402fe4:	d51c      	bpl.n	403020 <_fputwc_r+0x54>
  402fe6:	0490      	lsls	r0, r2, #18
  402fe8:	d406      	bmi.n	402ff8 <_fputwc_r+0x2c>
  402fea:	6e62      	ldr	r2, [r4, #100]	; 0x64
  402fec:	f443 5300 	orr.w	r3, r3, #8192	; 0x2000
  402ff0:	f442 5200 	orr.w	r2, r2, #8192	; 0x2000
  402ff4:	81a3      	strh	r3, [r4, #12]
  402ff6:	6662      	str	r2, [r4, #100]	; 0x64
  402ff8:	4628      	mov	r0, r5
  402ffa:	4622      	mov	r2, r4
  402ffc:	f7ff ff96 	bl	402f2c <__fputwc>
  403000:	6e63      	ldr	r3, [r4, #100]	; 0x64
  403002:	07da      	lsls	r2, r3, #31
  403004:	4605      	mov	r5, r0
  403006:	d402      	bmi.n	40300e <_fputwc_r+0x42>
  403008:	89a3      	ldrh	r3, [r4, #12]
  40300a:	059b      	lsls	r3, r3, #22
  40300c:	d502      	bpl.n	403014 <_fputwc_r+0x48>
  40300e:	4628      	mov	r0, r5
  403010:	b003      	add	sp, #12
  403012:	bd30      	pop	{r4, r5, pc}
  403014:	6da0      	ldr	r0, [r4, #88]	; 0x58
  403016:	f000 faf9 	bl	40360c <__retarget_lock_release_recursive>
  40301a:	4628      	mov	r0, r5
  40301c:	b003      	add	sp, #12
  40301e:	bd30      	pop	{r4, r5, pc}
  403020:	6da0      	ldr	r0, [r4, #88]	; 0x58
  403022:	9101      	str	r1, [sp, #4]
  403024:	f000 faf0 	bl	403608 <__retarget_lock_acquire_recursive>
  403028:	f9b4 300c 	ldrsh.w	r3, [r4, #12]
  40302c:	9901      	ldr	r1, [sp, #4]
  40302e:	b29a      	uxth	r2, r3
  403030:	e7d9      	b.n	402fe6 <_fputwc_r+0x1a>
  403032:	bf00      	nop

00403034 <_malloc_trim_r>:
  403034:	b5f8      	push	{r3, r4, r5, r6, r7, lr}
  403036:	4f24      	ldr	r7, [pc, #144]	; (4030c8 <_malloc_trim_r+0x94>)
  403038:	460c      	mov	r4, r1
  40303a:	4606      	mov	r6, r0
  40303c:	f000 fee4 	bl	403e08 <__malloc_lock>
  403040:	68bb      	ldr	r3, [r7, #8]
  403042:	685d      	ldr	r5, [r3, #4]
  403044:	f5c4 617e 	rsb	r1, r4, #4064	; 0xfe0
  403048:	310f      	adds	r1, #15
  40304a:	f025 0503 	bic.w	r5, r5, #3
  40304e:	4429      	add	r1, r5
  403050:	f421 617f 	bic.w	r1, r1, #4080	; 0xff0
  403054:	f021 010f 	bic.w	r1, r1, #15
  403058:	f5a1 5480 	sub.w	r4, r1, #4096	; 0x1000
  40305c:	f5b4 5f80 	cmp.w	r4, #4096	; 0x1000
  403060:	db07      	blt.n	403072 <_malloc_trim_r+0x3e>
  403062:	2100      	movs	r1, #0
  403064:	4630      	mov	r0, r6
  403066:	f001 f881 	bl	40416c <_sbrk_r>
  40306a:	68bb      	ldr	r3, [r7, #8]
  40306c:	442b      	add	r3, r5
  40306e:	4298      	cmp	r0, r3
  403070:	d004      	beq.n	40307c <_malloc_trim_r+0x48>
  403072:	4630      	mov	r0, r6
  403074:	f000 fece 	bl	403e14 <__malloc_unlock>
  403078:	2000      	movs	r0, #0
  40307a:	bdf8      	pop	{r3, r4, r5, r6, r7, pc}
  40307c:	4261      	negs	r1, r4
  40307e:	4630      	mov	r0, r6
  403080:	f001 f874 	bl	40416c <_sbrk_r>
  403084:	3001      	adds	r0, #1
  403086:	d00d      	beq.n	4030a4 <_malloc_trim_r+0x70>
  403088:	4b10      	ldr	r3, [pc, #64]	; (4030cc <_malloc_trim_r+0x98>)
  40308a:	68ba      	ldr	r2, [r7, #8]
  40308c:	6819      	ldr	r1, [r3, #0]
  40308e:	1b2d      	subs	r5, r5, r4
  403090:	f045 0501 	orr.w	r5, r5, #1
  403094:	4630      	mov	r0, r6
  403096:	1b09      	subs	r1, r1, r4
  403098:	6055      	str	r5, [r2, #4]
  40309a:	6019      	str	r1, [r3, #0]
  40309c:	f000 feba 	bl	403e14 <__malloc_unlock>
  4030a0:	2001      	movs	r0, #1
  4030a2:	bdf8      	pop	{r3, r4, r5, r6, r7, pc}
  4030a4:	2100      	movs	r1, #0
  4030a6:	4630      	mov	r0, r6
  4030a8:	f001 f860 	bl	40416c <_sbrk_r>
  4030ac:	68ba      	ldr	r2, [r7, #8]
  4030ae:	1a83      	subs	r3, r0, r2
  4030b0:	2b0f      	cmp	r3, #15
  4030b2:	ddde      	ble.n	403072 <_malloc_trim_r+0x3e>
  4030b4:	4c06      	ldr	r4, [pc, #24]	; (4030d0 <_malloc_trim_r+0x9c>)
  4030b6:	4905      	ldr	r1, [pc, #20]	; (4030cc <_malloc_trim_r+0x98>)
  4030b8:	6824      	ldr	r4, [r4, #0]
  4030ba:	f043 0301 	orr.w	r3, r3, #1
  4030be:	1b00      	subs	r0, r0, r4
  4030c0:	6053      	str	r3, [r2, #4]
  4030c2:	6008      	str	r0, [r1, #0]
  4030c4:	e7d5      	b.n	403072 <_malloc_trim_r+0x3e>
  4030c6:	bf00      	nop
  4030c8:	204005b0 	.word	0x204005b0
  4030cc:	20400a58 	.word	0x20400a58
  4030d0:	204009b8 	.word	0x204009b8

004030d4 <_free_r>:
  4030d4:	2900      	cmp	r1, #0
  4030d6:	d044      	beq.n	403162 <_free_r+0x8e>
  4030d8:	e92d 41f0 	stmdb	sp!, {r4, r5, r6, r7, r8, lr}
  4030dc:	460d      	mov	r5, r1
  4030de:	4680      	mov	r8, r0
  4030e0:	f000 fe92 	bl	403e08 <__malloc_lock>
  4030e4:	f855 7c04 	ldr.w	r7, [r5, #-4]
  4030e8:	4969      	ldr	r1, [pc, #420]	; (403290 <_free_r+0x1bc>)
  4030ea:	f027 0301 	bic.w	r3, r7, #1
  4030ee:	f1a5 0408 	sub.w	r4, r5, #8
  4030f2:	18e2      	adds	r2, r4, r3
  4030f4:	688e      	ldr	r6, [r1, #8]
  4030f6:	6850      	ldr	r0, [r2, #4]
  4030f8:	42b2      	cmp	r2, r6
  4030fa:	f020 0003 	bic.w	r0, r0, #3
  4030fe:	d05e      	beq.n	4031be <_free_r+0xea>
  403100:	07fe      	lsls	r6, r7, #31
  403102:	6050      	str	r0, [r2, #4]
  403104:	d40b      	bmi.n	40311e <_free_r+0x4a>
  403106:	f855 7c08 	ldr.w	r7, [r5, #-8]
  40310a:	1be4      	subs	r4, r4, r7
  40310c:	f101 0e08 	add.w	lr, r1, #8
  403110:	68a5      	ldr	r5, [r4, #8]
  403112:	4575      	cmp	r5, lr
  403114:	443b      	add	r3, r7
  403116:	d06d      	beq.n	4031f4 <_free_r+0x120>
  403118:	68e7      	ldr	r7, [r4, #12]
  40311a:	60ef      	str	r7, [r5, #12]
  40311c:	60bd      	str	r5, [r7, #8]
  40311e:	1815      	adds	r5, r2, r0
  403120:	686d      	ldr	r5, [r5, #4]
  403122:	07ed      	lsls	r5, r5, #31
  403124:	d53e      	bpl.n	4031a4 <_free_r+0xd0>
  403126:	f043 0201 	orr.w	r2, r3, #1
  40312a:	6062      	str	r2, [r4, #4]
  40312c:	50e3      	str	r3, [r4, r3]
  40312e:	f5b3 7f00 	cmp.w	r3, #512	; 0x200
  403132:	d217      	bcs.n	403164 <_free_r+0x90>
  403134:	08db      	lsrs	r3, r3, #3
  403136:	1c58      	adds	r0, r3, #1
  403138:	109a      	asrs	r2, r3, #2
  40313a:	684d      	ldr	r5, [r1, #4]
  40313c:	f851 7030 	ldr.w	r7, [r1, r0, lsl #3]
  403140:	60a7      	str	r7, [r4, #8]
  403142:	2301      	movs	r3, #1
  403144:	4093      	lsls	r3, r2
  403146:	eb01 02c0 	add.w	r2, r1, r0, lsl #3
  40314a:	432b      	orrs	r3, r5
  40314c:	3a08      	subs	r2, #8
  40314e:	60e2      	str	r2, [r4, #12]
  403150:	604b      	str	r3, [r1, #4]
  403152:	f841 4030 	str.w	r4, [r1, r0, lsl #3]
  403156:	60fc      	str	r4, [r7, #12]
  403158:	4640      	mov	r0, r8
  40315a:	e8bd 41f0 	ldmia.w	sp!, {r4, r5, r6, r7, r8, lr}
  40315e:	f000 be59 	b.w	403e14 <__malloc_unlock>
  403162:	4770      	bx	lr
  403164:	0a5a      	lsrs	r2, r3, #9
  403166:	2a04      	cmp	r2, #4
  403168:	d852      	bhi.n	403210 <_free_r+0x13c>
  40316a:	099a      	lsrs	r2, r3, #6
  40316c:	f102 0739 	add.w	r7, r2, #57	; 0x39
  403170:	00ff      	lsls	r7, r7, #3
  403172:	f102 0538 	add.w	r5, r2, #56	; 0x38
  403176:	19c8      	adds	r0, r1, r7
  403178:	59ca      	ldr	r2, [r1, r7]
  40317a:	3808      	subs	r0, #8
  40317c:	4290      	cmp	r0, r2
  40317e:	d04f      	beq.n	403220 <_free_r+0x14c>
  403180:	6851      	ldr	r1, [r2, #4]
  403182:	f021 0103 	bic.w	r1, r1, #3
  403186:	428b      	cmp	r3, r1
  403188:	d232      	bcs.n	4031f0 <_free_r+0x11c>
  40318a:	6892      	ldr	r2, [r2, #8]
  40318c:	4290      	cmp	r0, r2
  40318e:	d1f7      	bne.n	403180 <_free_r+0xac>
  403190:	68c3      	ldr	r3, [r0, #12]
  403192:	60a0      	str	r0, [r4, #8]
  403194:	60e3      	str	r3, [r4, #12]
  403196:	609c      	str	r4, [r3, #8]
  403198:	60c4      	str	r4, [r0, #12]
  40319a:	4640      	mov	r0, r8
  40319c:	e8bd 41f0 	ldmia.w	sp!, {r4, r5, r6, r7, r8, lr}
  4031a0:	f000 be38 	b.w	403e14 <__malloc_unlock>
  4031a4:	6895      	ldr	r5, [r2, #8]
  4031a6:	4f3b      	ldr	r7, [pc, #236]	; (403294 <_free_r+0x1c0>)
  4031a8:	42bd      	cmp	r5, r7
  4031aa:	4403      	add	r3, r0
  4031ac:	d040      	beq.n	403230 <_free_r+0x15c>
  4031ae:	68d0      	ldr	r0, [r2, #12]
  4031b0:	60e8      	str	r0, [r5, #12]
  4031b2:	f043 0201 	orr.w	r2, r3, #1
  4031b6:	6085      	str	r5, [r0, #8]
  4031b8:	6062      	str	r2, [r4, #4]
  4031ba:	50e3      	str	r3, [r4, r3]
  4031bc:	e7b7      	b.n	40312e <_free_r+0x5a>
  4031be:	07ff      	lsls	r7, r7, #31
  4031c0:	4403      	add	r3, r0
  4031c2:	d407      	bmi.n	4031d4 <_free_r+0x100>
  4031c4:	f855 2c08 	ldr.w	r2, [r5, #-8]
  4031c8:	1aa4      	subs	r4, r4, r2
  4031ca:	4413      	add	r3, r2
  4031cc:	68a0      	ldr	r0, [r4, #8]
  4031ce:	68e2      	ldr	r2, [r4, #12]
  4031d0:	60c2      	str	r2, [r0, #12]
  4031d2:	6090      	str	r0, [r2, #8]
  4031d4:	4a30      	ldr	r2, [pc, #192]	; (403298 <_free_r+0x1c4>)
  4031d6:	6812      	ldr	r2, [r2, #0]
  4031d8:	f043 0001 	orr.w	r0, r3, #1
  4031dc:	4293      	cmp	r3, r2
  4031de:	6060      	str	r0, [r4, #4]
  4031e0:	608c      	str	r4, [r1, #8]
  4031e2:	d3b9      	bcc.n	403158 <_free_r+0x84>
  4031e4:	4b2d      	ldr	r3, [pc, #180]	; (40329c <_free_r+0x1c8>)
  4031e6:	4640      	mov	r0, r8
  4031e8:	6819      	ldr	r1, [r3, #0]
  4031ea:	f7ff ff23 	bl	403034 <_malloc_trim_r>
  4031ee:	e7b3      	b.n	403158 <_free_r+0x84>
  4031f0:	4610      	mov	r0, r2
  4031f2:	e7cd      	b.n	403190 <_free_r+0xbc>
  4031f4:	1811      	adds	r1, r2, r0
  4031f6:	6849      	ldr	r1, [r1, #4]
  4031f8:	07c9      	lsls	r1, r1, #31
  4031fa:	d444      	bmi.n	403286 <_free_r+0x1b2>
  4031fc:	6891      	ldr	r1, [r2, #8]
  4031fe:	68d2      	ldr	r2, [r2, #12]
  403200:	60ca      	str	r2, [r1, #12]
  403202:	4403      	add	r3, r0
  403204:	f043 0001 	orr.w	r0, r3, #1
  403208:	6091      	str	r1, [r2, #8]
  40320a:	6060      	str	r0, [r4, #4]
  40320c:	50e3      	str	r3, [r4, r3]
  40320e:	e7a3      	b.n	403158 <_free_r+0x84>
  403210:	2a14      	cmp	r2, #20
  403212:	d816      	bhi.n	403242 <_free_r+0x16e>
  403214:	f102 075c 	add.w	r7, r2, #92	; 0x5c
  403218:	00ff      	lsls	r7, r7, #3
  40321a:	f102 055b 	add.w	r5, r2, #91	; 0x5b
  40321e:	e7aa      	b.n	403176 <_free_r+0xa2>
  403220:	10aa      	asrs	r2, r5, #2
  403222:	2301      	movs	r3, #1
  403224:	684d      	ldr	r5, [r1, #4]
  403226:	4093      	lsls	r3, r2
  403228:	432b      	orrs	r3, r5
  40322a:	604b      	str	r3, [r1, #4]
  40322c:	4603      	mov	r3, r0
  40322e:	e7b0      	b.n	403192 <_free_r+0xbe>
  403230:	f043 0201 	orr.w	r2, r3, #1
  403234:	614c      	str	r4, [r1, #20]
  403236:	610c      	str	r4, [r1, #16]
  403238:	60e5      	str	r5, [r4, #12]
  40323a:	60a5      	str	r5, [r4, #8]
  40323c:	6062      	str	r2, [r4, #4]
  40323e:	50e3      	str	r3, [r4, r3]
  403240:	e78a      	b.n	403158 <_free_r+0x84>
  403242:	2a54      	cmp	r2, #84	; 0x54
  403244:	d806      	bhi.n	403254 <_free_r+0x180>
  403246:	0b1a      	lsrs	r2, r3, #12
  403248:	f102 076f 	add.w	r7, r2, #111	; 0x6f
  40324c:	00ff      	lsls	r7, r7, #3
  40324e:	f102 056e 	add.w	r5, r2, #110	; 0x6e
  403252:	e790      	b.n	403176 <_free_r+0xa2>
  403254:	f5b2 7faa 	cmp.w	r2, #340	; 0x154
  403258:	d806      	bhi.n	403268 <_free_r+0x194>
  40325a:	0bda      	lsrs	r2, r3, #15
  40325c:	f102 0778 	add.w	r7, r2, #120	; 0x78
  403260:	00ff      	lsls	r7, r7, #3
  403262:	f102 0577 	add.w	r5, r2, #119	; 0x77
  403266:	e786      	b.n	403176 <_free_r+0xa2>
  403268:	f240 5054 	movw	r0, #1364	; 0x554
  40326c:	4282      	cmp	r2, r0
  40326e:	d806      	bhi.n	40327e <_free_r+0x1aa>
  403270:	0c9a      	lsrs	r2, r3, #18
  403272:	f102 077d 	add.w	r7, r2, #125	; 0x7d
  403276:	00ff      	lsls	r7, r7, #3
  403278:	f102 057c 	add.w	r5, r2, #124	; 0x7c
  40327c:	e77b      	b.n	403176 <_free_r+0xa2>
  40327e:	f44f 777e 	mov.w	r7, #1016	; 0x3f8
  403282:	257e      	movs	r5, #126	; 0x7e
  403284:	e777      	b.n	403176 <_free_r+0xa2>
  403286:	f043 0101 	orr.w	r1, r3, #1
  40328a:	6061      	str	r1, [r4, #4]
  40328c:	6013      	str	r3, [r2, #0]
  40328e:	e763      	b.n	403158 <_free_r+0x84>
  403290:	204005b0 	.word	0x204005b0
  403294:	204005b8 	.word	0x204005b8
  403298:	204009bc 	.word	0x204009bc
  40329c:	20400a88 	.word	0x20400a88

004032a0 <__sfvwrite_r>:
  4032a0:	6893      	ldr	r3, [r2, #8]
  4032a2:	2b00      	cmp	r3, #0
  4032a4:	d073      	beq.n	40338e <__sfvwrite_r+0xee>
  4032a6:	e92d 4ff0 	stmdb	sp!, {r4, r5, r6, r7, r8, r9, sl, fp, lr}
  4032aa:	898b      	ldrh	r3, [r1, #12]
  4032ac:	b083      	sub	sp, #12
  4032ae:	460c      	mov	r4, r1
  4032b0:	0719      	lsls	r1, r3, #28
  4032b2:	9000      	str	r0, [sp, #0]
  4032b4:	4616      	mov	r6, r2
  4032b6:	d526      	bpl.n	403306 <__sfvwrite_r+0x66>
  4032b8:	6922      	ldr	r2, [r4, #16]
  4032ba:	b322      	cbz	r2, 403306 <__sfvwrite_r+0x66>
  4032bc:	f013 0002 	ands.w	r0, r3, #2
  4032c0:	6835      	ldr	r5, [r6, #0]
  4032c2:	d02c      	beq.n	40331e <__sfvwrite_r+0x7e>
  4032c4:	f04f 0900 	mov.w	r9, #0
  4032c8:	4fb0      	ldr	r7, [pc, #704]	; (40358c <__sfvwrite_r+0x2ec>)
  4032ca:	46c8      	mov	r8, r9
  4032cc:	46b2      	mov	sl, r6
  4032ce:	45b8      	cmp	r8, r7
  4032d0:	4643      	mov	r3, r8
  4032d2:	464a      	mov	r2, r9
  4032d4:	bf28      	it	cs
  4032d6:	463b      	movcs	r3, r7
  4032d8:	9800      	ldr	r0, [sp, #0]
  4032da:	f1b8 0f00 	cmp.w	r8, #0
  4032de:	d050      	beq.n	403382 <__sfvwrite_r+0xe2>
  4032e0:	69e1      	ldr	r1, [r4, #28]
  4032e2:	6a66      	ldr	r6, [r4, #36]	; 0x24
  4032e4:	47b0      	blx	r6
  4032e6:	2800      	cmp	r0, #0
  4032e8:	dd58      	ble.n	40339c <__sfvwrite_r+0xfc>
  4032ea:	f8da 3008 	ldr.w	r3, [sl, #8]
  4032ee:	1a1b      	subs	r3, r3, r0
  4032f0:	4481      	add	r9, r0
  4032f2:	eba8 0800 	sub.w	r8, r8, r0
  4032f6:	f8ca 3008 	str.w	r3, [sl, #8]
  4032fa:	2b00      	cmp	r3, #0
  4032fc:	d1e7      	bne.n	4032ce <__sfvwrite_r+0x2e>
  4032fe:	2000      	movs	r0, #0
  403300:	b003      	add	sp, #12
  403302:	e8bd 8ff0 	ldmia.w	sp!, {r4, r5, r6, r7, r8, r9, sl, fp, pc}
  403306:	4621      	mov	r1, r4
  403308:	9800      	ldr	r0, [sp, #0]
  40330a:	f7ff fc51 	bl	402bb0 <__swsetup_r>
  40330e:	2800      	cmp	r0, #0
  403310:	f040 8133 	bne.w	40357a <__sfvwrite_r+0x2da>
  403314:	89a3      	ldrh	r3, [r4, #12]
  403316:	6835      	ldr	r5, [r6, #0]
  403318:	f013 0002 	ands.w	r0, r3, #2
  40331c:	d1d2      	bne.n	4032c4 <__sfvwrite_r+0x24>
  40331e:	f013 0901 	ands.w	r9, r3, #1
  403322:	d145      	bne.n	4033b0 <__sfvwrite_r+0x110>
  403324:	464f      	mov	r7, r9
  403326:	9601      	str	r6, [sp, #4]
  403328:	b337      	cbz	r7, 403378 <__sfvwrite_r+0xd8>
  40332a:	059a      	lsls	r2, r3, #22
  40332c:	f8d4 8008 	ldr.w	r8, [r4, #8]
  403330:	f140 8083 	bpl.w	40343a <__sfvwrite_r+0x19a>
  403334:	4547      	cmp	r7, r8
  403336:	46c3      	mov	fp, r8
  403338:	f0c0 80ab 	bcc.w	403492 <__sfvwrite_r+0x1f2>
  40333c:	f413 6f90 	tst.w	r3, #1152	; 0x480
  403340:	f040 80ac 	bne.w	40349c <__sfvwrite_r+0x1fc>
  403344:	6820      	ldr	r0, [r4, #0]
  403346:	46ba      	mov	sl, r7
  403348:	465a      	mov	r2, fp
  40334a:	4649      	mov	r1, r9
  40334c:	f000 fcf8 	bl	403d40 <memmove>
  403350:	68a2      	ldr	r2, [r4, #8]
  403352:	6823      	ldr	r3, [r4, #0]
  403354:	eba2 0208 	sub.w	r2, r2, r8
  403358:	445b      	add	r3, fp
  40335a:	60a2      	str	r2, [r4, #8]
  40335c:	6023      	str	r3, [r4, #0]
  40335e:	9a01      	ldr	r2, [sp, #4]
  403360:	6893      	ldr	r3, [r2, #8]
  403362:	eba3 030a 	sub.w	r3, r3, sl
  403366:	44d1      	add	r9, sl
  403368:	eba7 070a 	sub.w	r7, r7, sl
  40336c:	6093      	str	r3, [r2, #8]
  40336e:	2b00      	cmp	r3, #0
  403370:	d0c5      	beq.n	4032fe <__sfvwrite_r+0x5e>
  403372:	89a3      	ldrh	r3, [r4, #12]
  403374:	2f00      	cmp	r7, #0
  403376:	d1d8      	bne.n	40332a <__sfvwrite_r+0x8a>
  403378:	f8d5 9000 	ldr.w	r9, [r5]
  40337c:	686f      	ldr	r7, [r5, #4]
  40337e:	3508      	adds	r5, #8
  403380:	e7d2      	b.n	403328 <__sfvwrite_r+0x88>
  403382:	f8d5 9000 	ldr.w	r9, [r5]
  403386:	f8d5 8004 	ldr.w	r8, [r5, #4]
  40338a:	3508      	adds	r5, #8
  40338c:	e79f      	b.n	4032ce <__sfvwrite_r+0x2e>
  40338e:	2000      	movs	r0, #0
  403390:	4770      	bx	lr
  403392:	4621      	mov	r1, r4
  403394:	9800      	ldr	r0, [sp, #0]
  403396:	f7ff fd1f 	bl	402dd8 <_fflush_r>
  40339a:	b370      	cbz	r0, 4033fa <__sfvwrite_r+0x15a>
  40339c:	f9b4 300c 	ldrsh.w	r3, [r4, #12]
  4033a0:	f043 0340 	orr.w	r3, r3, #64	; 0x40
  4033a4:	f04f 30ff 	mov.w	r0, #4294967295
  4033a8:	81a3      	strh	r3, [r4, #12]
  4033aa:	b003      	add	sp, #12
  4033ac:	e8bd 8ff0 	ldmia.w	sp!, {r4, r5, r6, r7, r8, r9, sl, fp, pc}
  4033b0:	4681      	mov	r9, r0
  4033b2:	4633      	mov	r3, r6
  4033b4:	464e      	mov	r6, r9
  4033b6:	46a8      	mov	r8, r5
  4033b8:	469a      	mov	sl, r3
  4033ba:	464d      	mov	r5, r9
  4033bc:	b34e      	cbz	r6, 403412 <__sfvwrite_r+0x172>
  4033be:	b380      	cbz	r0, 403422 <__sfvwrite_r+0x182>
  4033c0:	6820      	ldr	r0, [r4, #0]
  4033c2:	6923      	ldr	r3, [r4, #16]
  4033c4:	6962      	ldr	r2, [r4, #20]
  4033c6:	45b1      	cmp	r9, r6
  4033c8:	46cb      	mov	fp, r9
  4033ca:	bf28      	it	cs
  4033cc:	46b3      	movcs	fp, r6
  4033ce:	4298      	cmp	r0, r3
  4033d0:	465f      	mov	r7, fp
  4033d2:	d904      	bls.n	4033de <__sfvwrite_r+0x13e>
  4033d4:	68a3      	ldr	r3, [r4, #8]
  4033d6:	4413      	add	r3, r2
  4033d8:	459b      	cmp	fp, r3
  4033da:	f300 80a6 	bgt.w	40352a <__sfvwrite_r+0x28a>
  4033de:	4593      	cmp	fp, r2
  4033e0:	db4b      	blt.n	40347a <__sfvwrite_r+0x1da>
  4033e2:	4613      	mov	r3, r2
  4033e4:	6a67      	ldr	r7, [r4, #36]	; 0x24
  4033e6:	69e1      	ldr	r1, [r4, #28]
  4033e8:	9800      	ldr	r0, [sp, #0]
  4033ea:	462a      	mov	r2, r5
  4033ec:	47b8      	blx	r7
  4033ee:	1e07      	subs	r7, r0, #0
  4033f0:	ddd4      	ble.n	40339c <__sfvwrite_r+0xfc>
  4033f2:	ebb9 0907 	subs.w	r9, r9, r7
  4033f6:	d0cc      	beq.n	403392 <__sfvwrite_r+0xf2>
  4033f8:	2001      	movs	r0, #1
  4033fa:	f8da 3008 	ldr.w	r3, [sl, #8]
  4033fe:	1bdb      	subs	r3, r3, r7
  403400:	443d      	add	r5, r7
  403402:	1bf6      	subs	r6, r6, r7
  403404:	f8ca 3008 	str.w	r3, [sl, #8]
  403408:	2b00      	cmp	r3, #0
  40340a:	f43f af78 	beq.w	4032fe <__sfvwrite_r+0x5e>
  40340e:	2e00      	cmp	r6, #0
  403410:	d1d5      	bne.n	4033be <__sfvwrite_r+0x11e>
  403412:	f108 0308 	add.w	r3, r8, #8
  403416:	e913 0060 	ldmdb	r3, {r5, r6}
  40341a:	4698      	mov	r8, r3
  40341c:	3308      	adds	r3, #8
  40341e:	2e00      	cmp	r6, #0
  403420:	d0f9      	beq.n	403416 <__sfvwrite_r+0x176>
  403422:	4632      	mov	r2, r6
  403424:	210a      	movs	r1, #10
  403426:	4628      	mov	r0, r5
  403428:	f000 fc3a 	bl	403ca0 <memchr>
  40342c:	2800      	cmp	r0, #0
  40342e:	f000 80a1 	beq.w	403574 <__sfvwrite_r+0x2d4>
  403432:	3001      	adds	r0, #1
  403434:	eba0 0905 	sub.w	r9, r0, r5
  403438:	e7c2      	b.n	4033c0 <__sfvwrite_r+0x120>
  40343a:	6820      	ldr	r0, [r4, #0]
  40343c:	6923      	ldr	r3, [r4, #16]
  40343e:	4298      	cmp	r0, r3
  403440:	d802      	bhi.n	403448 <__sfvwrite_r+0x1a8>
  403442:	6963      	ldr	r3, [r4, #20]
  403444:	429f      	cmp	r7, r3
  403446:	d25d      	bcs.n	403504 <__sfvwrite_r+0x264>
  403448:	45b8      	cmp	r8, r7
  40344a:	bf28      	it	cs
  40344c:	46b8      	movcs	r8, r7
  40344e:	4642      	mov	r2, r8
  403450:	4649      	mov	r1, r9
  403452:	f000 fc75 	bl	403d40 <memmove>
  403456:	68a3      	ldr	r3, [r4, #8]
  403458:	6822      	ldr	r2, [r4, #0]
  40345a:	eba3 0308 	sub.w	r3, r3, r8
  40345e:	4442      	add	r2, r8
  403460:	60a3      	str	r3, [r4, #8]
  403462:	6022      	str	r2, [r4, #0]
  403464:	b10b      	cbz	r3, 40346a <__sfvwrite_r+0x1ca>
  403466:	46c2      	mov	sl, r8
  403468:	e779      	b.n	40335e <__sfvwrite_r+0xbe>
  40346a:	4621      	mov	r1, r4
  40346c:	9800      	ldr	r0, [sp, #0]
  40346e:	f7ff fcb3 	bl	402dd8 <_fflush_r>
  403472:	2800      	cmp	r0, #0
  403474:	d192      	bne.n	40339c <__sfvwrite_r+0xfc>
  403476:	46c2      	mov	sl, r8
  403478:	e771      	b.n	40335e <__sfvwrite_r+0xbe>
  40347a:	465a      	mov	r2, fp
  40347c:	4629      	mov	r1, r5
  40347e:	f000 fc5f 	bl	403d40 <memmove>
  403482:	68a2      	ldr	r2, [r4, #8]
  403484:	6823      	ldr	r3, [r4, #0]
  403486:	eba2 020b 	sub.w	r2, r2, fp
  40348a:	445b      	add	r3, fp
  40348c:	60a2      	str	r2, [r4, #8]
  40348e:	6023      	str	r3, [r4, #0]
  403490:	e7af      	b.n	4033f2 <__sfvwrite_r+0x152>
  403492:	6820      	ldr	r0, [r4, #0]
  403494:	46b8      	mov	r8, r7
  403496:	46ba      	mov	sl, r7
  403498:	46bb      	mov	fp, r7
  40349a:	e755      	b.n	403348 <__sfvwrite_r+0xa8>
  40349c:	6962      	ldr	r2, [r4, #20]
  40349e:	6820      	ldr	r0, [r4, #0]
  4034a0:	6921      	ldr	r1, [r4, #16]
  4034a2:	eb02 0842 	add.w	r8, r2, r2, lsl #1
  4034a6:	eba0 0a01 	sub.w	sl, r0, r1
  4034aa:	eb08 78d8 	add.w	r8, r8, r8, lsr #31
  4034ae:	f10a 0001 	add.w	r0, sl, #1
  4034b2:	ea4f 0868 	mov.w	r8, r8, asr #1
  4034b6:	4438      	add	r0, r7
  4034b8:	4540      	cmp	r0, r8
  4034ba:	4642      	mov	r2, r8
  4034bc:	bf84      	itt	hi
  4034be:	4680      	movhi	r8, r0
  4034c0:	4642      	movhi	r2, r8
  4034c2:	055b      	lsls	r3, r3, #21
  4034c4:	d544      	bpl.n	403550 <__sfvwrite_r+0x2b0>
  4034c6:	4611      	mov	r1, r2
  4034c8:	9800      	ldr	r0, [sp, #0]
  4034ca:	f000 f921 	bl	403710 <_malloc_r>
  4034ce:	4683      	mov	fp, r0
  4034d0:	2800      	cmp	r0, #0
  4034d2:	d055      	beq.n	403580 <__sfvwrite_r+0x2e0>
  4034d4:	4652      	mov	r2, sl
  4034d6:	6921      	ldr	r1, [r4, #16]
  4034d8:	f7fe fa20 	bl	40191c <memcpy>
  4034dc:	89a3      	ldrh	r3, [r4, #12]
  4034de:	f423 6390 	bic.w	r3, r3, #1152	; 0x480
  4034e2:	f043 0380 	orr.w	r3, r3, #128	; 0x80
  4034e6:	81a3      	strh	r3, [r4, #12]
  4034e8:	eb0b 000a 	add.w	r0, fp, sl
  4034ec:	eba8 030a 	sub.w	r3, r8, sl
  4034f0:	f8c4 b010 	str.w	fp, [r4, #16]
  4034f4:	f8c4 8014 	str.w	r8, [r4, #20]
  4034f8:	6020      	str	r0, [r4, #0]
  4034fa:	60a3      	str	r3, [r4, #8]
  4034fc:	46b8      	mov	r8, r7
  4034fe:	46ba      	mov	sl, r7
  403500:	46bb      	mov	fp, r7
  403502:	e721      	b.n	403348 <__sfvwrite_r+0xa8>
  403504:	f06f 4100 	mvn.w	r1, #2147483648	; 0x80000000
  403508:	42b9      	cmp	r1, r7
  40350a:	bf28      	it	cs
  40350c:	4639      	movcs	r1, r7
  40350e:	464a      	mov	r2, r9
  403510:	fb91 f1f3 	sdiv	r1, r1, r3
  403514:	9800      	ldr	r0, [sp, #0]
  403516:	6a66      	ldr	r6, [r4, #36]	; 0x24
  403518:	fb03 f301 	mul.w	r3, r3, r1
  40351c:	69e1      	ldr	r1, [r4, #28]
  40351e:	47b0      	blx	r6
  403520:	f1b0 0a00 	subs.w	sl, r0, #0
  403524:	f73f af1b 	bgt.w	40335e <__sfvwrite_r+0xbe>
  403528:	e738      	b.n	40339c <__sfvwrite_r+0xfc>
  40352a:	461a      	mov	r2, r3
  40352c:	4629      	mov	r1, r5
  40352e:	9301      	str	r3, [sp, #4]
  403530:	f000 fc06 	bl	403d40 <memmove>
  403534:	6822      	ldr	r2, [r4, #0]
  403536:	9b01      	ldr	r3, [sp, #4]
  403538:	9800      	ldr	r0, [sp, #0]
  40353a:	441a      	add	r2, r3
  40353c:	6022      	str	r2, [r4, #0]
  40353e:	4621      	mov	r1, r4
  403540:	f7ff fc4a 	bl	402dd8 <_fflush_r>
  403544:	9b01      	ldr	r3, [sp, #4]
  403546:	2800      	cmp	r0, #0
  403548:	f47f af28 	bne.w	40339c <__sfvwrite_r+0xfc>
  40354c:	461f      	mov	r7, r3
  40354e:	e750      	b.n	4033f2 <__sfvwrite_r+0x152>
  403550:	9800      	ldr	r0, [sp, #0]
  403552:	f000 fc65 	bl	403e20 <_realloc_r>
  403556:	4683      	mov	fp, r0
  403558:	2800      	cmp	r0, #0
  40355a:	d1c5      	bne.n	4034e8 <__sfvwrite_r+0x248>
  40355c:	9d00      	ldr	r5, [sp, #0]
  40355e:	6921      	ldr	r1, [r4, #16]
  403560:	4628      	mov	r0, r5
  403562:	f7ff fdb7 	bl	4030d4 <_free_r>
  403566:	f9b4 300c 	ldrsh.w	r3, [r4, #12]
  40356a:	220c      	movs	r2, #12
  40356c:	f023 0380 	bic.w	r3, r3, #128	; 0x80
  403570:	602a      	str	r2, [r5, #0]
  403572:	e715      	b.n	4033a0 <__sfvwrite_r+0x100>
  403574:	f106 0901 	add.w	r9, r6, #1
  403578:	e722      	b.n	4033c0 <__sfvwrite_r+0x120>
  40357a:	f04f 30ff 	mov.w	r0, #4294967295
  40357e:	e6bf      	b.n	403300 <__sfvwrite_r+0x60>
  403580:	9a00      	ldr	r2, [sp, #0]
  403582:	230c      	movs	r3, #12
  403584:	6013      	str	r3, [r2, #0]
  403586:	f9b4 300c 	ldrsh.w	r3, [r4, #12]
  40358a:	e709      	b.n	4033a0 <__sfvwrite_r+0x100>
  40358c:	7ffffc00 	.word	0x7ffffc00

00403590 <_fwalk_reent>:
  403590:	e92d 43f8 	stmdb	sp!, {r3, r4, r5, r6, r7, r8, r9, lr}
  403594:	f510 7738 	adds.w	r7, r0, #736	; 0x2e0
  403598:	d01f      	beq.n	4035da <_fwalk_reent+0x4a>
  40359a:	4688      	mov	r8, r1
  40359c:	4606      	mov	r6, r0
  40359e:	f04f 0900 	mov.w	r9, #0
  4035a2:	687d      	ldr	r5, [r7, #4]
  4035a4:	68bc      	ldr	r4, [r7, #8]
  4035a6:	3d01      	subs	r5, #1
  4035a8:	d411      	bmi.n	4035ce <_fwalk_reent+0x3e>
  4035aa:	89a3      	ldrh	r3, [r4, #12]
  4035ac:	2b01      	cmp	r3, #1
  4035ae:	f105 35ff 	add.w	r5, r5, #4294967295
  4035b2:	d908      	bls.n	4035c6 <_fwalk_reent+0x36>
  4035b4:	f9b4 300e 	ldrsh.w	r3, [r4, #14]
  4035b8:	3301      	adds	r3, #1
  4035ba:	4621      	mov	r1, r4
  4035bc:	4630      	mov	r0, r6
  4035be:	d002      	beq.n	4035c6 <_fwalk_reent+0x36>
  4035c0:	47c0      	blx	r8
  4035c2:	ea49 0900 	orr.w	r9, r9, r0
  4035c6:	1c6b      	adds	r3, r5, #1
  4035c8:	f104 0468 	add.w	r4, r4, #104	; 0x68
  4035cc:	d1ed      	bne.n	4035aa <_fwalk_reent+0x1a>
  4035ce:	683f      	ldr	r7, [r7, #0]
  4035d0:	2f00      	cmp	r7, #0
  4035d2:	d1e6      	bne.n	4035a2 <_fwalk_reent+0x12>
  4035d4:	4648      	mov	r0, r9
  4035d6:	e8bd 83f8 	ldmia.w	sp!, {r3, r4, r5, r6, r7, r8, r9, pc}
  4035da:	46b9      	mov	r9, r7
  4035dc:	4648      	mov	r0, r9
  4035de:	e8bd 83f8 	ldmia.w	sp!, {r3, r4, r5, r6, r7, r8, r9, pc}
  4035e2:	bf00      	nop

004035e4 <__locale_mb_cur_max>:
  4035e4:	4b04      	ldr	r3, [pc, #16]	; (4035f8 <__locale_mb_cur_max+0x14>)
  4035e6:	4a05      	ldr	r2, [pc, #20]	; (4035fc <__locale_mb_cur_max+0x18>)
  4035e8:	681b      	ldr	r3, [r3, #0]
  4035ea:	6b5b      	ldr	r3, [r3, #52]	; 0x34
  4035ec:	2b00      	cmp	r3, #0
  4035ee:	bf08      	it	eq
  4035f0:	4613      	moveq	r3, r2
  4035f2:	f893 0128 	ldrb.w	r0, [r3, #296]	; 0x128
  4035f6:	4770      	bx	lr
  4035f8:	20400014 	.word	0x20400014
  4035fc:	20400444 	.word	0x20400444

00403600 <__retarget_lock_init_recursive>:
  403600:	4770      	bx	lr
  403602:	bf00      	nop

00403604 <__retarget_lock_close_recursive>:
  403604:	4770      	bx	lr
  403606:	bf00      	nop

00403608 <__retarget_lock_acquire_recursive>:
  403608:	4770      	bx	lr
  40360a:	bf00      	nop

0040360c <__retarget_lock_release_recursive>:
  40360c:	4770      	bx	lr
  40360e:	bf00      	nop

00403610 <__swhatbuf_r>:
  403610:	b570      	push	{r4, r5, r6, lr}
  403612:	460c      	mov	r4, r1
  403614:	f9b1 100e 	ldrsh.w	r1, [r1, #14]
  403618:	2900      	cmp	r1, #0
  40361a:	b090      	sub	sp, #64	; 0x40
  40361c:	4615      	mov	r5, r2
  40361e:	461e      	mov	r6, r3
  403620:	db14      	blt.n	40364c <__swhatbuf_r+0x3c>
  403622:	aa01      	add	r2, sp, #4
  403624:	f000 ff74 	bl	404510 <_fstat_r>
  403628:	2800      	cmp	r0, #0
  40362a:	db0f      	blt.n	40364c <__swhatbuf_r+0x3c>
  40362c:	9a02      	ldr	r2, [sp, #8]
  40362e:	f402 4270 	and.w	r2, r2, #61440	; 0xf000
  403632:	f5a2 5200 	sub.w	r2, r2, #8192	; 0x2000
  403636:	fab2 f282 	clz	r2, r2
  40363a:	0952      	lsrs	r2, r2, #5
  40363c:	f44f 6380 	mov.w	r3, #1024	; 0x400
  403640:	f44f 6000 	mov.w	r0, #2048	; 0x800
  403644:	6032      	str	r2, [r6, #0]
  403646:	602b      	str	r3, [r5, #0]
  403648:	b010      	add	sp, #64	; 0x40
  40364a:	bd70      	pop	{r4, r5, r6, pc}
  40364c:	89a2      	ldrh	r2, [r4, #12]
  40364e:	2300      	movs	r3, #0
  403650:	f012 0080 	ands.w	r0, r2, #128	; 0x80
  403654:	6033      	str	r3, [r6, #0]
  403656:	d004      	beq.n	403662 <__swhatbuf_r+0x52>
  403658:	2240      	movs	r2, #64	; 0x40
  40365a:	4618      	mov	r0, r3
  40365c:	602a      	str	r2, [r5, #0]
  40365e:	b010      	add	sp, #64	; 0x40
  403660:	bd70      	pop	{r4, r5, r6, pc}
  403662:	f44f 6380 	mov.w	r3, #1024	; 0x400
  403666:	602b      	str	r3, [r5, #0]
  403668:	b010      	add	sp, #64	; 0x40
  40366a:	bd70      	pop	{r4, r5, r6, pc}

0040366c <__smakebuf_r>:
  40366c:	898a      	ldrh	r2, [r1, #12]
  40366e:	0792      	lsls	r2, r2, #30
  403670:	460b      	mov	r3, r1
  403672:	d506      	bpl.n	403682 <__smakebuf_r+0x16>
  403674:	f101 0243 	add.w	r2, r1, #67	; 0x43
  403678:	2101      	movs	r1, #1
  40367a:	601a      	str	r2, [r3, #0]
  40367c:	611a      	str	r2, [r3, #16]
  40367e:	6159      	str	r1, [r3, #20]
  403680:	4770      	bx	lr
  403682:	b5f0      	push	{r4, r5, r6, r7, lr}
  403684:	b083      	sub	sp, #12
  403686:	ab01      	add	r3, sp, #4
  403688:	466a      	mov	r2, sp
  40368a:	460c      	mov	r4, r1
  40368c:	4606      	mov	r6, r0
  40368e:	f7ff ffbf 	bl	403610 <__swhatbuf_r>
  403692:	9900      	ldr	r1, [sp, #0]
  403694:	4605      	mov	r5, r0
  403696:	4630      	mov	r0, r6
  403698:	f000 f83a 	bl	403710 <_malloc_r>
  40369c:	f9b4 300c 	ldrsh.w	r3, [r4, #12]
  4036a0:	b1d8      	cbz	r0, 4036da <__smakebuf_r+0x6e>
  4036a2:	9a01      	ldr	r2, [sp, #4]
  4036a4:	4f15      	ldr	r7, [pc, #84]	; (4036fc <__smakebuf_r+0x90>)
  4036a6:	9900      	ldr	r1, [sp, #0]
  4036a8:	63f7      	str	r7, [r6, #60]	; 0x3c
  4036aa:	f043 0380 	orr.w	r3, r3, #128	; 0x80
  4036ae:	81a3      	strh	r3, [r4, #12]
  4036b0:	6020      	str	r0, [r4, #0]
  4036b2:	6120      	str	r0, [r4, #16]
  4036b4:	6161      	str	r1, [r4, #20]
  4036b6:	b91a      	cbnz	r2, 4036c0 <__smakebuf_r+0x54>
  4036b8:	432b      	orrs	r3, r5
  4036ba:	81a3      	strh	r3, [r4, #12]
  4036bc:	b003      	add	sp, #12
  4036be:	bdf0      	pop	{r4, r5, r6, r7, pc}
  4036c0:	4630      	mov	r0, r6
  4036c2:	f9b4 100e 	ldrsh.w	r1, [r4, #14]
  4036c6:	f000 ff37 	bl	404538 <_isatty_r>
  4036ca:	b1a0      	cbz	r0, 4036f6 <__smakebuf_r+0x8a>
  4036cc:	89a3      	ldrh	r3, [r4, #12]
  4036ce:	f023 0303 	bic.w	r3, r3, #3
  4036d2:	f043 0301 	orr.w	r3, r3, #1
  4036d6:	b21b      	sxth	r3, r3
  4036d8:	e7ee      	b.n	4036b8 <__smakebuf_r+0x4c>
  4036da:	059a      	lsls	r2, r3, #22
  4036dc:	d4ee      	bmi.n	4036bc <__smakebuf_r+0x50>
  4036de:	f023 0303 	bic.w	r3, r3, #3
  4036e2:	f104 0243 	add.w	r2, r4, #67	; 0x43
  4036e6:	f043 0302 	orr.w	r3, r3, #2
  4036ea:	2101      	movs	r1, #1
  4036ec:	81a3      	strh	r3, [r4, #12]
  4036ee:	6022      	str	r2, [r4, #0]
  4036f0:	6122      	str	r2, [r4, #16]
  4036f2:	6161      	str	r1, [r4, #20]
  4036f4:	e7e2      	b.n	4036bc <__smakebuf_r+0x50>
  4036f6:	f9b4 300c 	ldrsh.w	r3, [r4, #12]
  4036fa:	e7dd      	b.n	4036b8 <__smakebuf_r+0x4c>
  4036fc:	00402e2d 	.word	0x00402e2d

00403700 <malloc>:
  403700:	4b02      	ldr	r3, [pc, #8]	; (40370c <malloc+0xc>)
  403702:	4601      	mov	r1, r0
  403704:	6818      	ldr	r0, [r3, #0]
  403706:	f000 b803 	b.w	403710 <_malloc_r>
  40370a:	bf00      	nop
  40370c:	20400014 	.word	0x20400014

00403710 <_malloc_r>:
  403710:	e92d 4ff0 	stmdb	sp!, {r4, r5, r6, r7, r8, r9, sl, fp, lr}
  403714:	f101 060b 	add.w	r6, r1, #11
  403718:	2e16      	cmp	r6, #22
  40371a:	b083      	sub	sp, #12
  40371c:	4605      	mov	r5, r0
  40371e:	f240 809e 	bls.w	40385e <_malloc_r+0x14e>
  403722:	f036 0607 	bics.w	r6, r6, #7
  403726:	f100 80bd 	bmi.w	4038a4 <_malloc_r+0x194>
  40372a:	42b1      	cmp	r1, r6
  40372c:	f200 80ba 	bhi.w	4038a4 <_malloc_r+0x194>
  403730:	f000 fb6a 	bl	403e08 <__malloc_lock>
  403734:	f5b6 7ffc 	cmp.w	r6, #504	; 0x1f8
  403738:	f0c0 8293 	bcc.w	403c62 <_malloc_r+0x552>
  40373c:	0a73      	lsrs	r3, r6, #9
  40373e:	f000 80b8 	beq.w	4038b2 <_malloc_r+0x1a2>
  403742:	2b04      	cmp	r3, #4
  403744:	f200 8179 	bhi.w	403a3a <_malloc_r+0x32a>
  403748:	09b3      	lsrs	r3, r6, #6
  40374a:	f103 0039 	add.w	r0, r3, #57	; 0x39
  40374e:	f103 0e38 	add.w	lr, r3, #56	; 0x38
  403752:	00c3      	lsls	r3, r0, #3
  403754:	4fbf      	ldr	r7, [pc, #764]	; (403a54 <_malloc_r+0x344>)
  403756:	443b      	add	r3, r7
  403758:	f1a3 0108 	sub.w	r1, r3, #8
  40375c:	685c      	ldr	r4, [r3, #4]
  40375e:	42a1      	cmp	r1, r4
  403760:	d106      	bne.n	403770 <_malloc_r+0x60>
  403762:	e00c      	b.n	40377e <_malloc_r+0x6e>
  403764:	2a00      	cmp	r2, #0
  403766:	f280 80aa 	bge.w	4038be <_malloc_r+0x1ae>
  40376a:	68e4      	ldr	r4, [r4, #12]
  40376c:	42a1      	cmp	r1, r4
  40376e:	d006      	beq.n	40377e <_malloc_r+0x6e>
  403770:	6863      	ldr	r3, [r4, #4]
  403772:	f023 0303 	bic.w	r3, r3, #3
  403776:	1b9a      	subs	r2, r3, r6
  403778:	2a0f      	cmp	r2, #15
  40377a:	ddf3      	ble.n	403764 <_malloc_r+0x54>
  40377c:	4670      	mov	r0, lr
  40377e:	693c      	ldr	r4, [r7, #16]
  403780:	f8df e2e4 	ldr.w	lr, [pc, #740]	; 403a68 <_malloc_r+0x358>
  403784:	4574      	cmp	r4, lr
  403786:	f000 81ab 	beq.w	403ae0 <_malloc_r+0x3d0>
  40378a:	6863      	ldr	r3, [r4, #4]
  40378c:	f023 0303 	bic.w	r3, r3, #3
  403790:	1b9a      	subs	r2, r3, r6
  403792:	2a0f      	cmp	r2, #15
  403794:	f300 8190 	bgt.w	403ab8 <_malloc_r+0x3a8>
  403798:	2a00      	cmp	r2, #0
  40379a:	f8c7 e014 	str.w	lr, [r7, #20]
  40379e:	f8c7 e010 	str.w	lr, [r7, #16]
  4037a2:	f280 809d 	bge.w	4038e0 <_malloc_r+0x1d0>
  4037a6:	f5b3 7f00 	cmp.w	r3, #512	; 0x200
  4037aa:	f080 8161 	bcs.w	403a70 <_malloc_r+0x360>
  4037ae:	08db      	lsrs	r3, r3, #3
  4037b0:	f103 0c01 	add.w	ip, r3, #1
  4037b4:	1099      	asrs	r1, r3, #2
  4037b6:	687a      	ldr	r2, [r7, #4]
  4037b8:	f857 803c 	ldr.w	r8, [r7, ip, lsl #3]
  4037bc:	f8c4 8008 	str.w	r8, [r4, #8]
  4037c0:	2301      	movs	r3, #1
  4037c2:	408b      	lsls	r3, r1
  4037c4:	eb07 01cc 	add.w	r1, r7, ip, lsl #3
  4037c8:	4313      	orrs	r3, r2
  4037ca:	3908      	subs	r1, #8
  4037cc:	60e1      	str	r1, [r4, #12]
  4037ce:	607b      	str	r3, [r7, #4]
  4037d0:	f847 403c 	str.w	r4, [r7, ip, lsl #3]
  4037d4:	f8c8 400c 	str.w	r4, [r8, #12]
  4037d8:	1082      	asrs	r2, r0, #2
  4037da:	2401      	movs	r4, #1
  4037dc:	4094      	lsls	r4, r2
  4037de:	429c      	cmp	r4, r3
  4037e0:	f200 808b 	bhi.w	4038fa <_malloc_r+0x1ea>
  4037e4:	421c      	tst	r4, r3
  4037e6:	d106      	bne.n	4037f6 <_malloc_r+0xe6>
  4037e8:	f020 0003 	bic.w	r0, r0, #3
  4037ec:	0064      	lsls	r4, r4, #1
  4037ee:	421c      	tst	r4, r3
  4037f0:	f100 0004 	add.w	r0, r0, #4
  4037f4:	d0fa      	beq.n	4037ec <_malloc_r+0xdc>
  4037f6:	eb07 09c0 	add.w	r9, r7, r0, lsl #3
  4037fa:	46cc      	mov	ip, r9
  4037fc:	4680      	mov	r8, r0
  4037fe:	f8dc 300c 	ldr.w	r3, [ip, #12]
  403802:	459c      	cmp	ip, r3
  403804:	d107      	bne.n	403816 <_malloc_r+0x106>
  403806:	e16d      	b.n	403ae4 <_malloc_r+0x3d4>
  403808:	2a00      	cmp	r2, #0
  40380a:	f280 817b 	bge.w	403b04 <_malloc_r+0x3f4>
  40380e:	68db      	ldr	r3, [r3, #12]
  403810:	459c      	cmp	ip, r3
  403812:	f000 8167 	beq.w	403ae4 <_malloc_r+0x3d4>
  403816:	6859      	ldr	r1, [r3, #4]
  403818:	f021 0103 	bic.w	r1, r1, #3
  40381c:	1b8a      	subs	r2, r1, r6
  40381e:	2a0f      	cmp	r2, #15
  403820:	ddf2      	ble.n	403808 <_malloc_r+0xf8>
  403822:	f8d3 c00c 	ldr.w	ip, [r3, #12]
  403826:	f8d3 8008 	ldr.w	r8, [r3, #8]
  40382a:	9300      	str	r3, [sp, #0]
  40382c:	199c      	adds	r4, r3, r6
  40382e:	4628      	mov	r0, r5
  403830:	f046 0601 	orr.w	r6, r6, #1
  403834:	f042 0501 	orr.w	r5, r2, #1
  403838:	605e      	str	r6, [r3, #4]
  40383a:	f8c8 c00c 	str.w	ip, [r8, #12]
  40383e:	f8cc 8008 	str.w	r8, [ip, #8]
  403842:	617c      	str	r4, [r7, #20]
  403844:	613c      	str	r4, [r7, #16]
  403846:	f8c4 e00c 	str.w	lr, [r4, #12]
  40384a:	f8c4 e008 	str.w	lr, [r4, #8]
  40384e:	6065      	str	r5, [r4, #4]
  403850:	505a      	str	r2, [r3, r1]
  403852:	f000 fadf 	bl	403e14 <__malloc_unlock>
  403856:	9b00      	ldr	r3, [sp, #0]
  403858:	f103 0408 	add.w	r4, r3, #8
  40385c:	e01e      	b.n	40389c <_malloc_r+0x18c>
  40385e:	2910      	cmp	r1, #16
  403860:	d820      	bhi.n	4038a4 <_malloc_r+0x194>
  403862:	f000 fad1 	bl	403e08 <__malloc_lock>
  403866:	2610      	movs	r6, #16
  403868:	2318      	movs	r3, #24
  40386a:	2002      	movs	r0, #2
  40386c:	4f79      	ldr	r7, [pc, #484]	; (403a54 <_malloc_r+0x344>)
  40386e:	443b      	add	r3, r7
  403870:	f1a3 0208 	sub.w	r2, r3, #8
  403874:	685c      	ldr	r4, [r3, #4]
  403876:	4294      	cmp	r4, r2
  403878:	f000 813d 	beq.w	403af6 <_malloc_r+0x3e6>
  40387c:	6863      	ldr	r3, [r4, #4]
  40387e:	68e1      	ldr	r1, [r4, #12]
  403880:	68a6      	ldr	r6, [r4, #8]
  403882:	f023 0303 	bic.w	r3, r3, #3
  403886:	4423      	add	r3, r4
  403888:	4628      	mov	r0, r5
  40388a:	685a      	ldr	r2, [r3, #4]
  40388c:	60f1      	str	r1, [r6, #12]
  40388e:	f042 0201 	orr.w	r2, r2, #1
  403892:	608e      	str	r6, [r1, #8]
  403894:	605a      	str	r2, [r3, #4]
  403896:	f000 fabd 	bl	403e14 <__malloc_unlock>
  40389a:	3408      	adds	r4, #8
  40389c:	4620      	mov	r0, r4
  40389e:	b003      	add	sp, #12
  4038a0:	e8bd 8ff0 	ldmia.w	sp!, {r4, r5, r6, r7, r8, r9, sl, fp, pc}
  4038a4:	2400      	movs	r4, #0
  4038a6:	230c      	movs	r3, #12
  4038a8:	4620      	mov	r0, r4
  4038aa:	602b      	str	r3, [r5, #0]
  4038ac:	b003      	add	sp, #12
  4038ae:	e8bd 8ff0 	ldmia.w	sp!, {r4, r5, r6, r7, r8, r9, sl, fp, pc}
  4038b2:	2040      	movs	r0, #64	; 0x40
  4038b4:	f44f 7300 	mov.w	r3, #512	; 0x200
  4038b8:	f04f 0e3f 	mov.w	lr, #63	; 0x3f
  4038bc:	e74a      	b.n	403754 <_malloc_r+0x44>
  4038be:	4423      	add	r3, r4
  4038c0:	68e1      	ldr	r1, [r4, #12]
  4038c2:	685a      	ldr	r2, [r3, #4]
  4038c4:	68a6      	ldr	r6, [r4, #8]
  4038c6:	f042 0201 	orr.w	r2, r2, #1
  4038ca:	60f1      	str	r1, [r6, #12]
  4038cc:	4628      	mov	r0, r5
  4038ce:	608e      	str	r6, [r1, #8]
  4038d0:	605a      	str	r2, [r3, #4]
  4038d2:	f000 fa9f 	bl	403e14 <__malloc_unlock>
  4038d6:	3408      	adds	r4, #8
  4038d8:	4620      	mov	r0, r4
  4038da:	b003      	add	sp, #12
  4038dc:	e8bd 8ff0 	ldmia.w	sp!, {r4, r5, r6, r7, r8, r9, sl, fp, pc}
  4038e0:	4423      	add	r3, r4
  4038e2:	4628      	mov	r0, r5
  4038e4:	685a      	ldr	r2, [r3, #4]
  4038e6:	f042 0201 	orr.w	r2, r2, #1
  4038ea:	605a      	str	r2, [r3, #4]
  4038ec:	f000 fa92 	bl	403e14 <__malloc_unlock>
  4038f0:	3408      	adds	r4, #8
  4038f2:	4620      	mov	r0, r4
  4038f4:	b003      	add	sp, #12
  4038f6:	e8bd 8ff0 	ldmia.w	sp!, {r4, r5, r6, r7, r8, r9, sl, fp, pc}
  4038fa:	68bc      	ldr	r4, [r7, #8]
  4038fc:	6863      	ldr	r3, [r4, #4]
  4038fe:	f023 0803 	bic.w	r8, r3, #3
  403902:	45b0      	cmp	r8, r6
  403904:	d304      	bcc.n	403910 <_malloc_r+0x200>
  403906:	eba8 0306 	sub.w	r3, r8, r6
  40390a:	2b0f      	cmp	r3, #15
  40390c:	f300 8085 	bgt.w	403a1a <_malloc_r+0x30a>
  403910:	f8df 9158 	ldr.w	r9, [pc, #344]	; 403a6c <_malloc_r+0x35c>
  403914:	4b50      	ldr	r3, [pc, #320]	; (403a58 <_malloc_r+0x348>)
  403916:	f8d9 2000 	ldr.w	r2, [r9]
  40391a:	681b      	ldr	r3, [r3, #0]
  40391c:	3201      	adds	r2, #1
  40391e:	4433      	add	r3, r6
  403920:	eb04 0a08 	add.w	sl, r4, r8
  403924:	f000 8155 	beq.w	403bd2 <_malloc_r+0x4c2>
  403928:	f503 5380 	add.w	r3, r3, #4096	; 0x1000
  40392c:	330f      	adds	r3, #15
  40392e:	f423 6b7f 	bic.w	fp, r3, #4080	; 0xff0
  403932:	f02b 0b0f 	bic.w	fp, fp, #15
  403936:	4659      	mov	r1, fp
  403938:	4628      	mov	r0, r5
  40393a:	f000 fc17 	bl	40416c <_sbrk_r>
  40393e:	1c41      	adds	r1, r0, #1
  403940:	4602      	mov	r2, r0
  403942:	f000 80fc 	beq.w	403b3e <_malloc_r+0x42e>
  403946:	4582      	cmp	sl, r0
  403948:	f200 80f7 	bhi.w	403b3a <_malloc_r+0x42a>
  40394c:	4b43      	ldr	r3, [pc, #268]	; (403a5c <_malloc_r+0x34c>)
  40394e:	6819      	ldr	r1, [r3, #0]
  403950:	4459      	add	r1, fp
  403952:	6019      	str	r1, [r3, #0]
  403954:	f000 814d 	beq.w	403bf2 <_malloc_r+0x4e2>
  403958:	f8d9 0000 	ldr.w	r0, [r9]
  40395c:	3001      	adds	r0, #1
  40395e:	bf1b      	ittet	ne
  403960:	eba2 0a0a 	subne.w	sl, r2, sl
  403964:	4451      	addne	r1, sl
  403966:	f8c9 2000 	streq.w	r2, [r9]
  40396a:	6019      	strne	r1, [r3, #0]
  40396c:	f012 0107 	ands.w	r1, r2, #7
  403970:	f000 8115 	beq.w	403b9e <_malloc_r+0x48e>
  403974:	f1c1 0008 	rsb	r0, r1, #8
  403978:	f5c1 5180 	rsb	r1, r1, #4096	; 0x1000
  40397c:	4402      	add	r2, r0
  40397e:	3108      	adds	r1, #8
  403980:	eb02 090b 	add.w	r9, r2, fp
  403984:	f3c9 090b 	ubfx	r9, r9, #0, #12
  403988:	eba1 0909 	sub.w	r9, r1, r9
  40398c:	4649      	mov	r1, r9
  40398e:	4628      	mov	r0, r5
  403990:	9301      	str	r3, [sp, #4]
  403992:	9200      	str	r2, [sp, #0]
  403994:	f000 fbea 	bl	40416c <_sbrk_r>
  403998:	1c43      	adds	r3, r0, #1
  40399a:	e89d 000c 	ldmia.w	sp, {r2, r3}
  40399e:	f000 8143 	beq.w	403c28 <_malloc_r+0x518>
  4039a2:	1a80      	subs	r0, r0, r2
  4039a4:	4448      	add	r0, r9
  4039a6:	f040 0001 	orr.w	r0, r0, #1
  4039aa:	6819      	ldr	r1, [r3, #0]
  4039ac:	60ba      	str	r2, [r7, #8]
  4039ae:	4449      	add	r1, r9
  4039b0:	42bc      	cmp	r4, r7
  4039b2:	6050      	str	r0, [r2, #4]
  4039b4:	6019      	str	r1, [r3, #0]
  4039b6:	d017      	beq.n	4039e8 <_malloc_r+0x2d8>
  4039b8:	f1b8 0f0f 	cmp.w	r8, #15
  4039bc:	f240 80fb 	bls.w	403bb6 <_malloc_r+0x4a6>
  4039c0:	6860      	ldr	r0, [r4, #4]
  4039c2:	f1a8 020c 	sub.w	r2, r8, #12
  4039c6:	f022 0207 	bic.w	r2, r2, #7
  4039ca:	eb04 0e02 	add.w	lr, r4, r2
  4039ce:	f000 0001 	and.w	r0, r0, #1
  4039d2:	f04f 0c05 	mov.w	ip, #5
  4039d6:	4310      	orrs	r0, r2
  4039d8:	2a0f      	cmp	r2, #15
  4039da:	6060      	str	r0, [r4, #4]
  4039dc:	f8ce c004 	str.w	ip, [lr, #4]
  4039e0:	f8ce c008 	str.w	ip, [lr, #8]
  4039e4:	f200 8117 	bhi.w	403c16 <_malloc_r+0x506>
  4039e8:	4b1d      	ldr	r3, [pc, #116]	; (403a60 <_malloc_r+0x350>)
  4039ea:	68bc      	ldr	r4, [r7, #8]
  4039ec:	681a      	ldr	r2, [r3, #0]
  4039ee:	4291      	cmp	r1, r2
  4039f0:	bf88      	it	hi
  4039f2:	6019      	strhi	r1, [r3, #0]
  4039f4:	4b1b      	ldr	r3, [pc, #108]	; (403a64 <_malloc_r+0x354>)
  4039f6:	681a      	ldr	r2, [r3, #0]
  4039f8:	4291      	cmp	r1, r2
  4039fa:	6862      	ldr	r2, [r4, #4]
  4039fc:	bf88      	it	hi
  4039fe:	6019      	strhi	r1, [r3, #0]
  403a00:	f022 0203 	bic.w	r2, r2, #3
  403a04:	4296      	cmp	r6, r2
  403a06:	eba2 0306 	sub.w	r3, r2, r6
  403a0a:	d801      	bhi.n	403a10 <_malloc_r+0x300>
  403a0c:	2b0f      	cmp	r3, #15
  403a0e:	dc04      	bgt.n	403a1a <_malloc_r+0x30a>
  403a10:	4628      	mov	r0, r5
  403a12:	f000 f9ff 	bl	403e14 <__malloc_unlock>
  403a16:	2400      	movs	r4, #0
  403a18:	e740      	b.n	40389c <_malloc_r+0x18c>
  403a1a:	19a2      	adds	r2, r4, r6
  403a1c:	f043 0301 	orr.w	r3, r3, #1
  403a20:	f046 0601 	orr.w	r6, r6, #1
  403a24:	6066      	str	r6, [r4, #4]
  403a26:	4628      	mov	r0, r5
  403a28:	60ba      	str	r2, [r7, #8]
  403a2a:	6053      	str	r3, [r2, #4]
  403a2c:	f000 f9f2 	bl	403e14 <__malloc_unlock>
  403a30:	3408      	adds	r4, #8
  403a32:	4620      	mov	r0, r4
  403a34:	b003      	add	sp, #12
  403a36:	e8bd 8ff0 	ldmia.w	sp!, {r4, r5, r6, r7, r8, r9, sl, fp, pc}
  403a3a:	2b14      	cmp	r3, #20
  403a3c:	d971      	bls.n	403b22 <_malloc_r+0x412>
  403a3e:	2b54      	cmp	r3, #84	; 0x54
  403a40:	f200 80a3 	bhi.w	403b8a <_malloc_r+0x47a>
  403a44:	0b33      	lsrs	r3, r6, #12
  403a46:	f103 006f 	add.w	r0, r3, #111	; 0x6f
  403a4a:	f103 0e6e 	add.w	lr, r3, #110	; 0x6e
  403a4e:	00c3      	lsls	r3, r0, #3
  403a50:	e680      	b.n	403754 <_malloc_r+0x44>
  403a52:	bf00      	nop
  403a54:	204005b0 	.word	0x204005b0
  403a58:	20400a88 	.word	0x20400a88
  403a5c:	20400a58 	.word	0x20400a58
  403a60:	20400a80 	.word	0x20400a80
  403a64:	20400a84 	.word	0x20400a84
  403a68:	204005b8 	.word	0x204005b8
  403a6c:	204009b8 	.word	0x204009b8
  403a70:	0a5a      	lsrs	r2, r3, #9
  403a72:	2a04      	cmp	r2, #4
  403a74:	d95b      	bls.n	403b2e <_malloc_r+0x41e>
  403a76:	2a14      	cmp	r2, #20
  403a78:	f200 80ae 	bhi.w	403bd8 <_malloc_r+0x4c8>
  403a7c:	f102 015c 	add.w	r1, r2, #92	; 0x5c
  403a80:	00c9      	lsls	r1, r1, #3
  403a82:	325b      	adds	r2, #91	; 0x5b
  403a84:	eb07 0c01 	add.w	ip, r7, r1
  403a88:	5879      	ldr	r1, [r7, r1]
  403a8a:	f1ac 0c08 	sub.w	ip, ip, #8
  403a8e:	458c      	cmp	ip, r1
  403a90:	f000 8088 	beq.w	403ba4 <_malloc_r+0x494>
  403a94:	684a      	ldr	r2, [r1, #4]
  403a96:	f022 0203 	bic.w	r2, r2, #3
  403a9a:	4293      	cmp	r3, r2
  403a9c:	d273      	bcs.n	403b86 <_malloc_r+0x476>
  403a9e:	6889      	ldr	r1, [r1, #8]
  403aa0:	458c      	cmp	ip, r1
  403aa2:	d1f7      	bne.n	403a94 <_malloc_r+0x384>
  403aa4:	f8dc 200c 	ldr.w	r2, [ip, #12]
  403aa8:	687b      	ldr	r3, [r7, #4]
  403aaa:	60e2      	str	r2, [r4, #12]
  403aac:	f8c4 c008 	str.w	ip, [r4, #8]
  403ab0:	6094      	str	r4, [r2, #8]
  403ab2:	f8cc 400c 	str.w	r4, [ip, #12]
  403ab6:	e68f      	b.n	4037d8 <_malloc_r+0xc8>
  403ab8:	19a1      	adds	r1, r4, r6
  403aba:	f046 0c01 	orr.w	ip, r6, #1
  403abe:	f042 0601 	orr.w	r6, r2, #1
  403ac2:	f8c4 c004 	str.w	ip, [r4, #4]
  403ac6:	4628      	mov	r0, r5
  403ac8:	6179      	str	r1, [r7, #20]
  403aca:	6139      	str	r1, [r7, #16]
  403acc:	f8c1 e00c 	str.w	lr, [r1, #12]
  403ad0:	f8c1 e008 	str.w	lr, [r1, #8]
  403ad4:	604e      	str	r6, [r1, #4]
  403ad6:	50e2      	str	r2, [r4, r3]
  403ad8:	f000 f99c 	bl	403e14 <__malloc_unlock>
  403adc:	3408      	adds	r4, #8
  403ade:	e6dd      	b.n	40389c <_malloc_r+0x18c>
  403ae0:	687b      	ldr	r3, [r7, #4]
  403ae2:	e679      	b.n	4037d8 <_malloc_r+0xc8>
  403ae4:	f108 0801 	add.w	r8, r8, #1
  403ae8:	f018 0f03 	tst.w	r8, #3
  403aec:	f10c 0c08 	add.w	ip, ip, #8
  403af0:	f47f ae85 	bne.w	4037fe <_malloc_r+0xee>
  403af4:	e02d      	b.n	403b52 <_malloc_r+0x442>
  403af6:	68dc      	ldr	r4, [r3, #12]
  403af8:	42a3      	cmp	r3, r4
  403afa:	bf08      	it	eq
  403afc:	3002      	addeq	r0, #2
  403afe:	f43f ae3e 	beq.w	40377e <_malloc_r+0x6e>
  403b02:	e6bb      	b.n	40387c <_malloc_r+0x16c>
  403b04:	4419      	add	r1, r3
  403b06:	461c      	mov	r4, r3
  403b08:	684a      	ldr	r2, [r1, #4]
  403b0a:	68db      	ldr	r3, [r3, #12]
  403b0c:	f854 6f08 	ldr.w	r6, [r4, #8]!
  403b10:	f042 0201 	orr.w	r2, r2, #1
  403b14:	604a      	str	r2, [r1, #4]
  403b16:	4628      	mov	r0, r5
  403b18:	60f3      	str	r3, [r6, #12]
  403b1a:	609e      	str	r6, [r3, #8]
  403b1c:	f000 f97a 	bl	403e14 <__malloc_unlock>
  403b20:	e6bc      	b.n	40389c <_malloc_r+0x18c>
  403b22:	f103 005c 	add.w	r0, r3, #92	; 0x5c
  403b26:	f103 0e5b 	add.w	lr, r3, #91	; 0x5b
  403b2a:	00c3      	lsls	r3, r0, #3
  403b2c:	e612      	b.n	403754 <_malloc_r+0x44>
  403b2e:	099a      	lsrs	r2, r3, #6
  403b30:	f102 0139 	add.w	r1, r2, #57	; 0x39
  403b34:	00c9      	lsls	r1, r1, #3
  403b36:	3238      	adds	r2, #56	; 0x38
  403b38:	e7a4      	b.n	403a84 <_malloc_r+0x374>
  403b3a:	42bc      	cmp	r4, r7
  403b3c:	d054      	beq.n	403be8 <_malloc_r+0x4d8>
  403b3e:	68bc      	ldr	r4, [r7, #8]
  403b40:	6862      	ldr	r2, [r4, #4]
  403b42:	f022 0203 	bic.w	r2, r2, #3
  403b46:	e75d      	b.n	403a04 <_malloc_r+0x2f4>
  403b48:	f859 3908 	ldr.w	r3, [r9], #-8
  403b4c:	4599      	cmp	r9, r3
  403b4e:	f040 8086 	bne.w	403c5e <_malloc_r+0x54e>
  403b52:	f010 0f03 	tst.w	r0, #3
  403b56:	f100 30ff 	add.w	r0, r0, #4294967295
  403b5a:	d1f5      	bne.n	403b48 <_malloc_r+0x438>
  403b5c:	687b      	ldr	r3, [r7, #4]
  403b5e:	ea23 0304 	bic.w	r3, r3, r4
  403b62:	607b      	str	r3, [r7, #4]
  403b64:	0064      	lsls	r4, r4, #1
  403b66:	429c      	cmp	r4, r3
  403b68:	f63f aec7 	bhi.w	4038fa <_malloc_r+0x1ea>
  403b6c:	2c00      	cmp	r4, #0
  403b6e:	f43f aec4 	beq.w	4038fa <_malloc_r+0x1ea>
  403b72:	421c      	tst	r4, r3
  403b74:	4640      	mov	r0, r8
  403b76:	f47f ae3e 	bne.w	4037f6 <_malloc_r+0xe6>
  403b7a:	0064      	lsls	r4, r4, #1
  403b7c:	421c      	tst	r4, r3
  403b7e:	f100 0004 	add.w	r0, r0, #4
  403b82:	d0fa      	beq.n	403b7a <_malloc_r+0x46a>
  403b84:	e637      	b.n	4037f6 <_malloc_r+0xe6>
  403b86:	468c      	mov	ip, r1
  403b88:	e78c      	b.n	403aa4 <_malloc_r+0x394>
  403b8a:	f5b3 7faa 	cmp.w	r3, #340	; 0x154
  403b8e:	d815      	bhi.n	403bbc <_malloc_r+0x4ac>
  403b90:	0bf3      	lsrs	r3, r6, #15
  403b92:	f103 0078 	add.w	r0, r3, #120	; 0x78
  403b96:	f103 0e77 	add.w	lr, r3, #119	; 0x77
  403b9a:	00c3      	lsls	r3, r0, #3
  403b9c:	e5da      	b.n	403754 <_malloc_r+0x44>
  403b9e:	f44f 5180 	mov.w	r1, #4096	; 0x1000
  403ba2:	e6ed      	b.n	403980 <_malloc_r+0x270>
  403ba4:	687b      	ldr	r3, [r7, #4]
  403ba6:	1092      	asrs	r2, r2, #2
  403ba8:	2101      	movs	r1, #1
  403baa:	fa01 f202 	lsl.w	r2, r1, r2
  403bae:	4313      	orrs	r3, r2
  403bb0:	607b      	str	r3, [r7, #4]
  403bb2:	4662      	mov	r2, ip
  403bb4:	e779      	b.n	403aaa <_malloc_r+0x39a>
  403bb6:	2301      	movs	r3, #1
  403bb8:	6053      	str	r3, [r2, #4]
  403bba:	e729      	b.n	403a10 <_malloc_r+0x300>
  403bbc:	f240 5254 	movw	r2, #1364	; 0x554
  403bc0:	4293      	cmp	r3, r2
  403bc2:	d822      	bhi.n	403c0a <_malloc_r+0x4fa>
  403bc4:	0cb3      	lsrs	r3, r6, #18
  403bc6:	f103 007d 	add.w	r0, r3, #125	; 0x7d
  403bca:	f103 0e7c 	add.w	lr, r3, #124	; 0x7c
  403bce:	00c3      	lsls	r3, r0, #3
  403bd0:	e5c0      	b.n	403754 <_malloc_r+0x44>
  403bd2:	f103 0b10 	add.w	fp, r3, #16
  403bd6:	e6ae      	b.n	403936 <_malloc_r+0x226>
  403bd8:	2a54      	cmp	r2, #84	; 0x54
  403bda:	d829      	bhi.n	403c30 <_malloc_r+0x520>
  403bdc:	0b1a      	lsrs	r2, r3, #12
  403bde:	f102 016f 	add.w	r1, r2, #111	; 0x6f
  403be2:	00c9      	lsls	r1, r1, #3
  403be4:	326e      	adds	r2, #110	; 0x6e
  403be6:	e74d      	b.n	403a84 <_malloc_r+0x374>
  403be8:	4b20      	ldr	r3, [pc, #128]	; (403c6c <_malloc_r+0x55c>)
  403bea:	6819      	ldr	r1, [r3, #0]
  403bec:	4459      	add	r1, fp
  403bee:	6019      	str	r1, [r3, #0]
  403bf0:	e6b2      	b.n	403958 <_malloc_r+0x248>
  403bf2:	f3ca 000b 	ubfx	r0, sl, #0, #12
  403bf6:	2800      	cmp	r0, #0
  403bf8:	f47f aeae 	bne.w	403958 <_malloc_r+0x248>
  403bfc:	eb08 030b 	add.w	r3, r8, fp
  403c00:	68ba      	ldr	r2, [r7, #8]
  403c02:	f043 0301 	orr.w	r3, r3, #1
  403c06:	6053      	str	r3, [r2, #4]
  403c08:	e6ee      	b.n	4039e8 <_malloc_r+0x2d8>
  403c0a:	207f      	movs	r0, #127	; 0x7f
  403c0c:	f44f 737e 	mov.w	r3, #1016	; 0x3f8
  403c10:	f04f 0e7e 	mov.w	lr, #126	; 0x7e
  403c14:	e59e      	b.n	403754 <_malloc_r+0x44>
  403c16:	f104 0108 	add.w	r1, r4, #8
  403c1a:	4628      	mov	r0, r5
  403c1c:	9300      	str	r3, [sp, #0]
  403c1e:	f7ff fa59 	bl	4030d4 <_free_r>
  403c22:	9b00      	ldr	r3, [sp, #0]
  403c24:	6819      	ldr	r1, [r3, #0]
  403c26:	e6df      	b.n	4039e8 <_malloc_r+0x2d8>
  403c28:	2001      	movs	r0, #1
  403c2a:	f04f 0900 	mov.w	r9, #0
  403c2e:	e6bc      	b.n	4039aa <_malloc_r+0x29a>
  403c30:	f5b2 7faa 	cmp.w	r2, #340	; 0x154
  403c34:	d805      	bhi.n	403c42 <_malloc_r+0x532>
  403c36:	0bda      	lsrs	r2, r3, #15
  403c38:	f102 0178 	add.w	r1, r2, #120	; 0x78
  403c3c:	00c9      	lsls	r1, r1, #3
  403c3e:	3277      	adds	r2, #119	; 0x77
  403c40:	e720      	b.n	403a84 <_malloc_r+0x374>
  403c42:	f240 5154 	movw	r1, #1364	; 0x554
  403c46:	428a      	cmp	r2, r1
  403c48:	d805      	bhi.n	403c56 <_malloc_r+0x546>
  403c4a:	0c9a      	lsrs	r2, r3, #18
  403c4c:	f102 017d 	add.w	r1, r2, #125	; 0x7d
  403c50:	00c9      	lsls	r1, r1, #3
  403c52:	327c      	adds	r2, #124	; 0x7c
  403c54:	e716      	b.n	403a84 <_malloc_r+0x374>
  403c56:	f44f 717e 	mov.w	r1, #1016	; 0x3f8
  403c5a:	227e      	movs	r2, #126	; 0x7e
  403c5c:	e712      	b.n	403a84 <_malloc_r+0x374>
  403c5e:	687b      	ldr	r3, [r7, #4]
  403c60:	e780      	b.n	403b64 <_malloc_r+0x454>
  403c62:	08f0      	lsrs	r0, r6, #3
  403c64:	f106 0308 	add.w	r3, r6, #8
  403c68:	e600      	b.n	40386c <_malloc_r+0x15c>
  403c6a:	bf00      	nop
  403c6c:	20400a58 	.word	0x20400a58

00403c70 <__ascii_mbtowc>:
  403c70:	b082      	sub	sp, #8
  403c72:	b149      	cbz	r1, 403c88 <__ascii_mbtowc+0x18>
  403c74:	b15a      	cbz	r2, 403c8e <__ascii_mbtowc+0x1e>
  403c76:	b16b      	cbz	r3, 403c94 <__ascii_mbtowc+0x24>
  403c78:	7813      	ldrb	r3, [r2, #0]
  403c7a:	600b      	str	r3, [r1, #0]
  403c7c:	7812      	ldrb	r2, [r2, #0]
  403c7e:	1c10      	adds	r0, r2, #0
  403c80:	bf18      	it	ne
  403c82:	2001      	movne	r0, #1
  403c84:	b002      	add	sp, #8
  403c86:	4770      	bx	lr
  403c88:	a901      	add	r1, sp, #4
  403c8a:	2a00      	cmp	r2, #0
  403c8c:	d1f3      	bne.n	403c76 <__ascii_mbtowc+0x6>
  403c8e:	4610      	mov	r0, r2
  403c90:	b002      	add	sp, #8
  403c92:	4770      	bx	lr
  403c94:	f06f 0001 	mvn.w	r0, #1
  403c98:	e7f4      	b.n	403c84 <__ascii_mbtowc+0x14>
  403c9a:	bf00      	nop
  403c9c:	0000      	movs	r0, r0
	...

00403ca0 <memchr>:
  403ca0:	f001 01ff 	and.w	r1, r1, #255	; 0xff
  403ca4:	2a10      	cmp	r2, #16
  403ca6:	db2b      	blt.n	403d00 <memchr+0x60>
  403ca8:	f010 0f07 	tst.w	r0, #7
  403cac:	d008      	beq.n	403cc0 <memchr+0x20>
  403cae:	f810 3b01 	ldrb.w	r3, [r0], #1
  403cb2:	3a01      	subs	r2, #1
  403cb4:	428b      	cmp	r3, r1
  403cb6:	d02d      	beq.n	403d14 <memchr+0x74>
  403cb8:	f010 0f07 	tst.w	r0, #7
  403cbc:	b342      	cbz	r2, 403d10 <memchr+0x70>
  403cbe:	d1f6      	bne.n	403cae <memchr+0xe>
  403cc0:	b4f0      	push	{r4, r5, r6, r7}
  403cc2:	ea41 2101 	orr.w	r1, r1, r1, lsl #8
  403cc6:	ea41 4101 	orr.w	r1, r1, r1, lsl #16
  403cca:	f022 0407 	bic.w	r4, r2, #7
  403cce:	f07f 0700 	mvns.w	r7, #0
  403cd2:	2300      	movs	r3, #0
  403cd4:	e8f0 5602 	ldrd	r5, r6, [r0], #8
  403cd8:	3c08      	subs	r4, #8
  403cda:	ea85 0501 	eor.w	r5, r5, r1
  403cde:	ea86 0601 	eor.w	r6, r6, r1
  403ce2:	fa85 f547 	uadd8	r5, r5, r7
  403ce6:	faa3 f587 	sel	r5, r3, r7
  403cea:	fa86 f647 	uadd8	r6, r6, r7
  403cee:	faa5 f687 	sel	r6, r5, r7
  403cf2:	b98e      	cbnz	r6, 403d18 <memchr+0x78>
  403cf4:	d1ee      	bne.n	403cd4 <memchr+0x34>
  403cf6:	bcf0      	pop	{r4, r5, r6, r7}
  403cf8:	f001 01ff 	and.w	r1, r1, #255	; 0xff
  403cfc:	f002 0207 	and.w	r2, r2, #7
  403d00:	b132      	cbz	r2, 403d10 <memchr+0x70>
  403d02:	f810 3b01 	ldrb.w	r3, [r0], #1
  403d06:	3a01      	subs	r2, #1
  403d08:	ea83 0301 	eor.w	r3, r3, r1
  403d0c:	b113      	cbz	r3, 403d14 <memchr+0x74>
  403d0e:	d1f8      	bne.n	403d02 <memchr+0x62>
  403d10:	2000      	movs	r0, #0
  403d12:	4770      	bx	lr
  403d14:	3801      	subs	r0, #1
  403d16:	4770      	bx	lr
  403d18:	2d00      	cmp	r5, #0
  403d1a:	bf06      	itte	eq
  403d1c:	4635      	moveq	r5, r6
  403d1e:	3803      	subeq	r0, #3
  403d20:	3807      	subne	r0, #7
  403d22:	f015 0f01 	tst.w	r5, #1
  403d26:	d107      	bne.n	403d38 <memchr+0x98>
  403d28:	3001      	adds	r0, #1
  403d2a:	f415 7f80 	tst.w	r5, #256	; 0x100
  403d2e:	bf02      	ittt	eq
  403d30:	3001      	addeq	r0, #1
  403d32:	f415 3fc0 	tsteq.w	r5, #98304	; 0x18000
  403d36:	3001      	addeq	r0, #1
  403d38:	bcf0      	pop	{r4, r5, r6, r7}
  403d3a:	3801      	subs	r0, #1
  403d3c:	4770      	bx	lr
  403d3e:	bf00      	nop

00403d40 <memmove>:
  403d40:	4288      	cmp	r0, r1
  403d42:	b5f0      	push	{r4, r5, r6, r7, lr}
  403d44:	d90d      	bls.n	403d62 <memmove+0x22>
  403d46:	188b      	adds	r3, r1, r2
  403d48:	4298      	cmp	r0, r3
  403d4a:	d20a      	bcs.n	403d62 <memmove+0x22>
  403d4c:	1884      	adds	r4, r0, r2
  403d4e:	2a00      	cmp	r2, #0
  403d50:	d051      	beq.n	403df6 <memmove+0xb6>
  403d52:	4622      	mov	r2, r4
  403d54:	f813 4d01 	ldrb.w	r4, [r3, #-1]!
  403d58:	f802 4d01 	strb.w	r4, [r2, #-1]!
  403d5c:	4299      	cmp	r1, r3
  403d5e:	d1f9      	bne.n	403d54 <memmove+0x14>
  403d60:	bdf0      	pop	{r4, r5, r6, r7, pc}
  403d62:	2a0f      	cmp	r2, #15
  403d64:	d948      	bls.n	403df8 <memmove+0xb8>
  403d66:	ea41 0300 	orr.w	r3, r1, r0
  403d6a:	079b      	lsls	r3, r3, #30
  403d6c:	d146      	bne.n	403dfc <memmove+0xbc>
  403d6e:	f100 0410 	add.w	r4, r0, #16
  403d72:	f101 0310 	add.w	r3, r1, #16
  403d76:	4615      	mov	r5, r2
  403d78:	f853 6c10 	ldr.w	r6, [r3, #-16]
  403d7c:	f844 6c10 	str.w	r6, [r4, #-16]
  403d80:	f853 6c0c 	ldr.w	r6, [r3, #-12]
  403d84:	f844 6c0c 	str.w	r6, [r4, #-12]
  403d88:	f853 6c08 	ldr.w	r6, [r3, #-8]
  403d8c:	f844 6c08 	str.w	r6, [r4, #-8]
  403d90:	3d10      	subs	r5, #16
  403d92:	f853 6c04 	ldr.w	r6, [r3, #-4]
  403d96:	f844 6c04 	str.w	r6, [r4, #-4]
  403d9a:	2d0f      	cmp	r5, #15
  403d9c:	f103 0310 	add.w	r3, r3, #16
  403da0:	f104 0410 	add.w	r4, r4, #16
  403da4:	d8e8      	bhi.n	403d78 <memmove+0x38>
  403da6:	f1a2 0310 	sub.w	r3, r2, #16
  403daa:	f023 030f 	bic.w	r3, r3, #15
  403dae:	f002 0e0f 	and.w	lr, r2, #15
  403db2:	3310      	adds	r3, #16
  403db4:	f1be 0f03 	cmp.w	lr, #3
  403db8:	4419      	add	r1, r3
  403dba:	4403      	add	r3, r0
  403dbc:	d921      	bls.n	403e02 <memmove+0xc2>
  403dbe:	1f1e      	subs	r6, r3, #4
  403dc0:	460d      	mov	r5, r1
  403dc2:	4674      	mov	r4, lr
  403dc4:	3c04      	subs	r4, #4
  403dc6:	f855 7b04 	ldr.w	r7, [r5], #4
  403dca:	f846 7f04 	str.w	r7, [r6, #4]!
  403dce:	2c03      	cmp	r4, #3
  403dd0:	d8f8      	bhi.n	403dc4 <memmove+0x84>
  403dd2:	f1ae 0404 	sub.w	r4, lr, #4
  403dd6:	f024 0403 	bic.w	r4, r4, #3
  403dda:	3404      	adds	r4, #4
  403ddc:	4421      	add	r1, r4
  403dde:	4423      	add	r3, r4
  403de0:	f002 0203 	and.w	r2, r2, #3
  403de4:	b162      	cbz	r2, 403e00 <memmove+0xc0>
  403de6:	3b01      	subs	r3, #1
  403de8:	440a      	add	r2, r1
  403dea:	f811 4b01 	ldrb.w	r4, [r1], #1
  403dee:	f803 4f01 	strb.w	r4, [r3, #1]!
  403df2:	428a      	cmp	r2, r1
  403df4:	d1f9      	bne.n	403dea <memmove+0xaa>
  403df6:	bdf0      	pop	{r4, r5, r6, r7, pc}
  403df8:	4603      	mov	r3, r0
  403dfa:	e7f3      	b.n	403de4 <memmove+0xa4>
  403dfc:	4603      	mov	r3, r0
  403dfe:	e7f2      	b.n	403de6 <memmove+0xa6>
  403e00:	bdf0      	pop	{r4, r5, r6, r7, pc}
  403e02:	4672      	mov	r2, lr
  403e04:	e7ee      	b.n	403de4 <memmove+0xa4>
  403e06:	bf00      	nop

00403e08 <__malloc_lock>:
  403e08:	4801      	ldr	r0, [pc, #4]	; (403e10 <__malloc_lock+0x8>)
  403e0a:	f7ff bbfd 	b.w	403608 <__retarget_lock_acquire_recursive>
  403e0e:	bf00      	nop
  403e10:	20400acc 	.word	0x20400acc

00403e14 <__malloc_unlock>:
  403e14:	4801      	ldr	r0, [pc, #4]	; (403e1c <__malloc_unlock+0x8>)
  403e16:	f7ff bbf9 	b.w	40360c <__retarget_lock_release_recursive>
  403e1a:	bf00      	nop
  403e1c:	20400acc 	.word	0x20400acc

00403e20 <_realloc_r>:
  403e20:	2900      	cmp	r1, #0
  403e22:	f000 8095 	beq.w	403f50 <_realloc_r+0x130>
  403e26:	e92d 4ff0 	stmdb	sp!, {r4, r5, r6, r7, r8, r9, sl, fp, lr}
  403e2a:	460d      	mov	r5, r1
  403e2c:	4616      	mov	r6, r2
  403e2e:	b083      	sub	sp, #12
  403e30:	4680      	mov	r8, r0
  403e32:	f106 070b 	add.w	r7, r6, #11
  403e36:	f7ff ffe7 	bl	403e08 <__malloc_lock>
  403e3a:	f855 ec04 	ldr.w	lr, [r5, #-4]
  403e3e:	2f16      	cmp	r7, #22
  403e40:	f02e 0403 	bic.w	r4, lr, #3
  403e44:	f1a5 0908 	sub.w	r9, r5, #8
  403e48:	d83c      	bhi.n	403ec4 <_realloc_r+0xa4>
  403e4a:	2210      	movs	r2, #16
  403e4c:	4617      	mov	r7, r2
  403e4e:	42be      	cmp	r6, r7
  403e50:	d83d      	bhi.n	403ece <_realloc_r+0xae>
  403e52:	4294      	cmp	r4, r2
  403e54:	da43      	bge.n	403ede <_realloc_r+0xbe>
  403e56:	4bc4      	ldr	r3, [pc, #784]	; (404168 <_realloc_r+0x348>)
  403e58:	6899      	ldr	r1, [r3, #8]
  403e5a:	eb09 0004 	add.w	r0, r9, r4
  403e5e:	4288      	cmp	r0, r1
  403e60:	f000 80b4 	beq.w	403fcc <_realloc_r+0x1ac>
  403e64:	6843      	ldr	r3, [r0, #4]
  403e66:	f023 0101 	bic.w	r1, r3, #1
  403e6a:	4401      	add	r1, r0
  403e6c:	6849      	ldr	r1, [r1, #4]
  403e6e:	07c9      	lsls	r1, r1, #31
  403e70:	d54c      	bpl.n	403f0c <_realloc_r+0xec>
  403e72:	f01e 0f01 	tst.w	lr, #1
  403e76:	f000 809b 	beq.w	403fb0 <_realloc_r+0x190>
  403e7a:	4631      	mov	r1, r6
  403e7c:	4640      	mov	r0, r8
  403e7e:	f7ff fc47 	bl	403710 <_malloc_r>
  403e82:	4606      	mov	r6, r0
  403e84:	2800      	cmp	r0, #0
  403e86:	d03a      	beq.n	403efe <_realloc_r+0xde>
  403e88:	f855 3c04 	ldr.w	r3, [r5, #-4]
  403e8c:	f023 0301 	bic.w	r3, r3, #1
  403e90:	444b      	add	r3, r9
  403e92:	f1a0 0208 	sub.w	r2, r0, #8
  403e96:	429a      	cmp	r2, r3
  403e98:	f000 8121 	beq.w	4040de <_realloc_r+0x2be>
  403e9c:	1f22      	subs	r2, r4, #4
  403e9e:	2a24      	cmp	r2, #36	; 0x24
  403ea0:	f200 8107 	bhi.w	4040b2 <_realloc_r+0x292>
  403ea4:	2a13      	cmp	r2, #19
  403ea6:	f200 80db 	bhi.w	404060 <_realloc_r+0x240>
  403eaa:	4603      	mov	r3, r0
  403eac:	462a      	mov	r2, r5
  403eae:	6811      	ldr	r1, [r2, #0]
  403eb0:	6019      	str	r1, [r3, #0]
  403eb2:	6851      	ldr	r1, [r2, #4]
  403eb4:	6059      	str	r1, [r3, #4]
  403eb6:	6892      	ldr	r2, [r2, #8]
  403eb8:	609a      	str	r2, [r3, #8]
  403eba:	4629      	mov	r1, r5
  403ebc:	4640      	mov	r0, r8
  403ebe:	f7ff f909 	bl	4030d4 <_free_r>
  403ec2:	e01c      	b.n	403efe <_realloc_r+0xde>
  403ec4:	f027 0707 	bic.w	r7, r7, #7
  403ec8:	2f00      	cmp	r7, #0
  403eca:	463a      	mov	r2, r7
  403ecc:	dabf      	bge.n	403e4e <_realloc_r+0x2e>
  403ece:	2600      	movs	r6, #0
  403ed0:	230c      	movs	r3, #12
  403ed2:	4630      	mov	r0, r6
  403ed4:	f8c8 3000 	str.w	r3, [r8]
  403ed8:	b003      	add	sp, #12
  403eda:	e8bd 8ff0 	ldmia.w	sp!, {r4, r5, r6, r7, r8, r9, sl, fp, pc}
  403ede:	462e      	mov	r6, r5
  403ee0:	1be3      	subs	r3, r4, r7
  403ee2:	2b0f      	cmp	r3, #15
  403ee4:	d81e      	bhi.n	403f24 <_realloc_r+0x104>
  403ee6:	f8d9 3004 	ldr.w	r3, [r9, #4]
  403eea:	f003 0301 	and.w	r3, r3, #1
  403eee:	4323      	orrs	r3, r4
  403ef0:	444c      	add	r4, r9
  403ef2:	f8c9 3004 	str.w	r3, [r9, #4]
  403ef6:	6863      	ldr	r3, [r4, #4]
  403ef8:	f043 0301 	orr.w	r3, r3, #1
  403efc:	6063      	str	r3, [r4, #4]
  403efe:	4640      	mov	r0, r8
  403f00:	f7ff ff88 	bl	403e14 <__malloc_unlock>
  403f04:	4630      	mov	r0, r6
  403f06:	b003      	add	sp, #12
  403f08:	e8bd 8ff0 	ldmia.w	sp!, {r4, r5, r6, r7, r8, r9, sl, fp, pc}
  403f0c:	f023 0303 	bic.w	r3, r3, #3
  403f10:	18e1      	adds	r1, r4, r3
  403f12:	4291      	cmp	r1, r2
  403f14:	db1f      	blt.n	403f56 <_realloc_r+0x136>
  403f16:	68c3      	ldr	r3, [r0, #12]
  403f18:	6882      	ldr	r2, [r0, #8]
  403f1a:	462e      	mov	r6, r5
  403f1c:	60d3      	str	r3, [r2, #12]
  403f1e:	460c      	mov	r4, r1
  403f20:	609a      	str	r2, [r3, #8]
  403f22:	e7dd      	b.n	403ee0 <_realloc_r+0xc0>
  403f24:	f8d9 2004 	ldr.w	r2, [r9, #4]
  403f28:	eb09 0107 	add.w	r1, r9, r7
  403f2c:	f002 0201 	and.w	r2, r2, #1
  403f30:	444c      	add	r4, r9
  403f32:	f043 0301 	orr.w	r3, r3, #1
  403f36:	4317      	orrs	r7, r2
  403f38:	f8c9 7004 	str.w	r7, [r9, #4]
  403f3c:	604b      	str	r3, [r1, #4]
  403f3e:	6863      	ldr	r3, [r4, #4]
  403f40:	f043 0301 	orr.w	r3, r3, #1
  403f44:	3108      	adds	r1, #8
  403f46:	6063      	str	r3, [r4, #4]
  403f48:	4640      	mov	r0, r8
  403f4a:	f7ff f8c3 	bl	4030d4 <_free_r>
  403f4e:	e7d6      	b.n	403efe <_realloc_r+0xde>
  403f50:	4611      	mov	r1, r2
  403f52:	f7ff bbdd 	b.w	403710 <_malloc_r>
  403f56:	f01e 0f01 	tst.w	lr, #1
  403f5a:	d18e      	bne.n	403e7a <_realloc_r+0x5a>
  403f5c:	f855 1c08 	ldr.w	r1, [r5, #-8]
  403f60:	eba9 0a01 	sub.w	sl, r9, r1
  403f64:	f8da 1004 	ldr.w	r1, [sl, #4]
  403f68:	f021 0103 	bic.w	r1, r1, #3
  403f6c:	440b      	add	r3, r1
  403f6e:	4423      	add	r3, r4
  403f70:	4293      	cmp	r3, r2
  403f72:	db25      	blt.n	403fc0 <_realloc_r+0x1a0>
  403f74:	68c2      	ldr	r2, [r0, #12]
  403f76:	6881      	ldr	r1, [r0, #8]
  403f78:	4656      	mov	r6, sl
  403f7a:	60ca      	str	r2, [r1, #12]
  403f7c:	6091      	str	r1, [r2, #8]
  403f7e:	f8da 100c 	ldr.w	r1, [sl, #12]
  403f82:	f856 0f08 	ldr.w	r0, [r6, #8]!
  403f86:	1f22      	subs	r2, r4, #4
  403f88:	2a24      	cmp	r2, #36	; 0x24
  403f8a:	60c1      	str	r1, [r0, #12]
  403f8c:	6088      	str	r0, [r1, #8]
  403f8e:	f200 8094 	bhi.w	4040ba <_realloc_r+0x29a>
  403f92:	2a13      	cmp	r2, #19
  403f94:	d96f      	bls.n	404076 <_realloc_r+0x256>
  403f96:	6829      	ldr	r1, [r5, #0]
  403f98:	f8ca 1008 	str.w	r1, [sl, #8]
  403f9c:	6869      	ldr	r1, [r5, #4]
  403f9e:	f8ca 100c 	str.w	r1, [sl, #12]
  403fa2:	2a1b      	cmp	r2, #27
  403fa4:	f200 80a2 	bhi.w	4040ec <_realloc_r+0x2cc>
  403fa8:	3508      	adds	r5, #8
  403faa:	f10a 0210 	add.w	r2, sl, #16
  403fae:	e063      	b.n	404078 <_realloc_r+0x258>
  403fb0:	f855 3c08 	ldr.w	r3, [r5, #-8]
  403fb4:	eba9 0a03 	sub.w	sl, r9, r3
  403fb8:	f8da 1004 	ldr.w	r1, [sl, #4]
  403fbc:	f021 0103 	bic.w	r1, r1, #3
  403fc0:	1863      	adds	r3, r4, r1
  403fc2:	4293      	cmp	r3, r2
  403fc4:	f6ff af59 	blt.w	403e7a <_realloc_r+0x5a>
  403fc8:	4656      	mov	r6, sl
  403fca:	e7d8      	b.n	403f7e <_realloc_r+0x15e>
  403fcc:	6841      	ldr	r1, [r0, #4]
  403fce:	f021 0b03 	bic.w	fp, r1, #3
  403fd2:	44a3      	add	fp, r4
  403fd4:	f107 0010 	add.w	r0, r7, #16
  403fd8:	4583      	cmp	fp, r0
  403fda:	da56      	bge.n	40408a <_realloc_r+0x26a>
  403fdc:	f01e 0f01 	tst.w	lr, #1
  403fe0:	f47f af4b 	bne.w	403e7a <_realloc_r+0x5a>
  403fe4:	f855 1c08 	ldr.w	r1, [r5, #-8]
  403fe8:	eba9 0a01 	sub.w	sl, r9, r1
  403fec:	f8da 1004 	ldr.w	r1, [sl, #4]
  403ff0:	f021 0103 	bic.w	r1, r1, #3
  403ff4:	448b      	add	fp, r1
  403ff6:	4558      	cmp	r0, fp
  403ff8:	dce2      	bgt.n	403fc0 <_realloc_r+0x1a0>
  403ffa:	4656      	mov	r6, sl
  403ffc:	f8da 100c 	ldr.w	r1, [sl, #12]
  404000:	f856 0f08 	ldr.w	r0, [r6, #8]!
  404004:	1f22      	subs	r2, r4, #4
  404006:	2a24      	cmp	r2, #36	; 0x24
  404008:	60c1      	str	r1, [r0, #12]
  40400a:	6088      	str	r0, [r1, #8]
  40400c:	f200 808f 	bhi.w	40412e <_realloc_r+0x30e>
  404010:	2a13      	cmp	r2, #19
  404012:	f240 808a 	bls.w	40412a <_realloc_r+0x30a>
  404016:	6829      	ldr	r1, [r5, #0]
  404018:	f8ca 1008 	str.w	r1, [sl, #8]
  40401c:	6869      	ldr	r1, [r5, #4]
  40401e:	f8ca 100c 	str.w	r1, [sl, #12]
  404022:	2a1b      	cmp	r2, #27
  404024:	f200 808a 	bhi.w	40413c <_realloc_r+0x31c>
  404028:	3508      	adds	r5, #8
  40402a:	f10a 0210 	add.w	r2, sl, #16
  40402e:	6829      	ldr	r1, [r5, #0]
  404030:	6011      	str	r1, [r2, #0]
  404032:	6869      	ldr	r1, [r5, #4]
  404034:	6051      	str	r1, [r2, #4]
  404036:	68a9      	ldr	r1, [r5, #8]
  404038:	6091      	str	r1, [r2, #8]
  40403a:	eb0a 0107 	add.w	r1, sl, r7
  40403e:	ebab 0207 	sub.w	r2, fp, r7
  404042:	f042 0201 	orr.w	r2, r2, #1
  404046:	6099      	str	r1, [r3, #8]
  404048:	604a      	str	r2, [r1, #4]
  40404a:	f8da 3004 	ldr.w	r3, [sl, #4]
  40404e:	f003 0301 	and.w	r3, r3, #1
  404052:	431f      	orrs	r7, r3
  404054:	4640      	mov	r0, r8
  404056:	f8ca 7004 	str.w	r7, [sl, #4]
  40405a:	f7ff fedb 	bl	403e14 <__malloc_unlock>
  40405e:	e751      	b.n	403f04 <_realloc_r+0xe4>
  404060:	682b      	ldr	r3, [r5, #0]
  404062:	6003      	str	r3, [r0, #0]
  404064:	686b      	ldr	r3, [r5, #4]
  404066:	6043      	str	r3, [r0, #4]
  404068:	2a1b      	cmp	r2, #27
  40406a:	d82d      	bhi.n	4040c8 <_realloc_r+0x2a8>
  40406c:	f100 0308 	add.w	r3, r0, #8
  404070:	f105 0208 	add.w	r2, r5, #8
  404074:	e71b      	b.n	403eae <_realloc_r+0x8e>
  404076:	4632      	mov	r2, r6
  404078:	6829      	ldr	r1, [r5, #0]
  40407a:	6011      	str	r1, [r2, #0]
  40407c:	6869      	ldr	r1, [r5, #4]
  40407e:	6051      	str	r1, [r2, #4]
  404080:	68a9      	ldr	r1, [r5, #8]
  404082:	6091      	str	r1, [r2, #8]
  404084:	461c      	mov	r4, r3
  404086:	46d1      	mov	r9, sl
  404088:	e72a      	b.n	403ee0 <_realloc_r+0xc0>
  40408a:	eb09 0107 	add.w	r1, r9, r7
  40408e:	ebab 0b07 	sub.w	fp, fp, r7
  404092:	f04b 0201 	orr.w	r2, fp, #1
  404096:	6099      	str	r1, [r3, #8]
  404098:	604a      	str	r2, [r1, #4]
  40409a:	f855 3c04 	ldr.w	r3, [r5, #-4]
  40409e:	f003 0301 	and.w	r3, r3, #1
  4040a2:	431f      	orrs	r7, r3
  4040a4:	4640      	mov	r0, r8
  4040a6:	f845 7c04 	str.w	r7, [r5, #-4]
  4040aa:	f7ff feb3 	bl	403e14 <__malloc_unlock>
  4040ae:	462e      	mov	r6, r5
  4040b0:	e728      	b.n	403f04 <_realloc_r+0xe4>
  4040b2:	4629      	mov	r1, r5
  4040b4:	f7ff fe44 	bl	403d40 <memmove>
  4040b8:	e6ff      	b.n	403eba <_realloc_r+0x9a>
  4040ba:	4629      	mov	r1, r5
  4040bc:	4630      	mov	r0, r6
  4040be:	461c      	mov	r4, r3
  4040c0:	46d1      	mov	r9, sl
  4040c2:	f7ff fe3d 	bl	403d40 <memmove>
  4040c6:	e70b      	b.n	403ee0 <_realloc_r+0xc0>
  4040c8:	68ab      	ldr	r3, [r5, #8]
  4040ca:	6083      	str	r3, [r0, #8]
  4040cc:	68eb      	ldr	r3, [r5, #12]
  4040ce:	60c3      	str	r3, [r0, #12]
  4040d0:	2a24      	cmp	r2, #36	; 0x24
  4040d2:	d017      	beq.n	404104 <_realloc_r+0x2e4>
  4040d4:	f100 0310 	add.w	r3, r0, #16
  4040d8:	f105 0210 	add.w	r2, r5, #16
  4040dc:	e6e7      	b.n	403eae <_realloc_r+0x8e>
  4040de:	f850 3c04 	ldr.w	r3, [r0, #-4]
  4040e2:	f023 0303 	bic.w	r3, r3, #3
  4040e6:	441c      	add	r4, r3
  4040e8:	462e      	mov	r6, r5
  4040ea:	e6f9      	b.n	403ee0 <_realloc_r+0xc0>
  4040ec:	68a9      	ldr	r1, [r5, #8]
  4040ee:	f8ca 1010 	str.w	r1, [sl, #16]
  4040f2:	68e9      	ldr	r1, [r5, #12]
  4040f4:	f8ca 1014 	str.w	r1, [sl, #20]
  4040f8:	2a24      	cmp	r2, #36	; 0x24
  4040fa:	d00c      	beq.n	404116 <_realloc_r+0x2f6>
  4040fc:	3510      	adds	r5, #16
  4040fe:	f10a 0218 	add.w	r2, sl, #24
  404102:	e7b9      	b.n	404078 <_realloc_r+0x258>
  404104:	692b      	ldr	r3, [r5, #16]
  404106:	6103      	str	r3, [r0, #16]
  404108:	696b      	ldr	r3, [r5, #20]
  40410a:	6143      	str	r3, [r0, #20]
  40410c:	f105 0218 	add.w	r2, r5, #24
  404110:	f100 0318 	add.w	r3, r0, #24
  404114:	e6cb      	b.n	403eae <_realloc_r+0x8e>
  404116:	692a      	ldr	r2, [r5, #16]
  404118:	f8ca 2018 	str.w	r2, [sl, #24]
  40411c:	696a      	ldr	r2, [r5, #20]
  40411e:	f8ca 201c 	str.w	r2, [sl, #28]
  404122:	3518      	adds	r5, #24
  404124:	f10a 0220 	add.w	r2, sl, #32
  404128:	e7a6      	b.n	404078 <_realloc_r+0x258>
  40412a:	4632      	mov	r2, r6
  40412c:	e77f      	b.n	40402e <_realloc_r+0x20e>
  40412e:	4629      	mov	r1, r5
  404130:	4630      	mov	r0, r6
  404132:	9301      	str	r3, [sp, #4]
  404134:	f7ff fe04 	bl	403d40 <memmove>
  404138:	9b01      	ldr	r3, [sp, #4]
  40413a:	e77e      	b.n	40403a <_realloc_r+0x21a>
  40413c:	68a9      	ldr	r1, [r5, #8]
  40413e:	f8ca 1010 	str.w	r1, [sl, #16]
  404142:	68e9      	ldr	r1, [r5, #12]
  404144:	f8ca 1014 	str.w	r1, [sl, #20]
  404148:	2a24      	cmp	r2, #36	; 0x24
  40414a:	d003      	beq.n	404154 <_realloc_r+0x334>
  40414c:	3510      	adds	r5, #16
  40414e:	f10a 0218 	add.w	r2, sl, #24
  404152:	e76c      	b.n	40402e <_realloc_r+0x20e>
  404154:	692a      	ldr	r2, [r5, #16]
  404156:	f8ca 2018 	str.w	r2, [sl, #24]
  40415a:	696a      	ldr	r2, [r5, #20]
  40415c:	f8ca 201c 	str.w	r2, [sl, #28]
  404160:	3518      	adds	r5, #24
  404162:	f10a 0220 	add.w	r2, sl, #32
  404166:	e762      	b.n	40402e <_realloc_r+0x20e>
  404168:	204005b0 	.word	0x204005b0

0040416c <_sbrk_r>:
  40416c:	b538      	push	{r3, r4, r5, lr}
  40416e:	4c07      	ldr	r4, [pc, #28]	; (40418c <_sbrk_r+0x20>)
  404170:	2300      	movs	r3, #0
  404172:	4605      	mov	r5, r0
  404174:	4608      	mov	r0, r1
  404176:	6023      	str	r3, [r4, #0]
  404178:	f7fc fd24 	bl	400bc4 <_sbrk>
  40417c:	1c43      	adds	r3, r0, #1
  40417e:	d000      	beq.n	404182 <_sbrk_r+0x16>
  404180:	bd38      	pop	{r3, r4, r5, pc}
  404182:	6823      	ldr	r3, [r4, #0]
  404184:	2b00      	cmp	r3, #0
  404186:	d0fb      	beq.n	404180 <_sbrk_r+0x14>
  404188:	602b      	str	r3, [r5, #0]
  40418a:	bd38      	pop	{r3, r4, r5, pc}
  40418c:	20400ae0 	.word	0x20400ae0

00404190 <__sread>:
  404190:	b510      	push	{r4, lr}
  404192:	460c      	mov	r4, r1
  404194:	f9b1 100e 	ldrsh.w	r1, [r1, #14]
  404198:	f000 f9f6 	bl	404588 <_read_r>
  40419c:	2800      	cmp	r0, #0
  40419e:	db03      	blt.n	4041a8 <__sread+0x18>
  4041a0:	6d23      	ldr	r3, [r4, #80]	; 0x50
  4041a2:	4403      	add	r3, r0
  4041a4:	6523      	str	r3, [r4, #80]	; 0x50
  4041a6:	bd10      	pop	{r4, pc}
  4041a8:	89a3      	ldrh	r3, [r4, #12]
  4041aa:	f423 5380 	bic.w	r3, r3, #4096	; 0x1000
  4041ae:	81a3      	strh	r3, [r4, #12]
  4041b0:	bd10      	pop	{r4, pc}
  4041b2:	bf00      	nop

004041b4 <__swrite>:
  4041b4:	e92d 41f0 	stmdb	sp!, {r4, r5, r6, r7, r8, lr}
  4041b8:	4616      	mov	r6, r2
  4041ba:	f9b1 200c 	ldrsh.w	r2, [r1, #12]
  4041be:	461f      	mov	r7, r3
  4041c0:	05d3      	lsls	r3, r2, #23
  4041c2:	460c      	mov	r4, r1
  4041c4:	4605      	mov	r5, r0
  4041c6:	d507      	bpl.n	4041d8 <__swrite+0x24>
  4041c8:	2200      	movs	r2, #0
  4041ca:	2302      	movs	r3, #2
  4041cc:	f9b1 100e 	ldrsh.w	r1, [r1, #14]
  4041d0:	f000 f9c4 	bl	40455c <_lseek_r>
  4041d4:	f9b4 200c 	ldrsh.w	r2, [r4, #12]
  4041d8:	f9b4 100e 	ldrsh.w	r1, [r4, #14]
  4041dc:	f422 5280 	bic.w	r2, r2, #4096	; 0x1000
  4041e0:	81a2      	strh	r2, [r4, #12]
  4041e2:	463b      	mov	r3, r7
  4041e4:	4632      	mov	r2, r6
  4041e6:	4628      	mov	r0, r5
  4041e8:	e8bd 41f0 	ldmia.w	sp!, {r4, r5, r6, r7, r8, lr}
  4041ec:	f000 b8a4 	b.w	404338 <_write_r>

004041f0 <__sseek>:
  4041f0:	b510      	push	{r4, lr}
  4041f2:	460c      	mov	r4, r1
  4041f4:	f9b1 100e 	ldrsh.w	r1, [r1, #14]
  4041f8:	f000 f9b0 	bl	40455c <_lseek_r>
  4041fc:	89a3      	ldrh	r3, [r4, #12]
  4041fe:	1c42      	adds	r2, r0, #1
  404200:	bf0e      	itee	eq
  404202:	f423 5380 	biceq.w	r3, r3, #4096	; 0x1000
  404206:	f443 5380 	orrne.w	r3, r3, #4096	; 0x1000
  40420a:	6520      	strne	r0, [r4, #80]	; 0x50
  40420c:	81a3      	strh	r3, [r4, #12]
  40420e:	bd10      	pop	{r4, pc}

00404210 <__sclose>:
  404210:	f9b1 100e 	ldrsh.w	r1, [r1, #14]
  404214:	f000 b908 	b.w	404428 <_close_r>

00404218 <__swbuf_r>:
  404218:	b5f8      	push	{r3, r4, r5, r6, r7, lr}
  40421a:	460d      	mov	r5, r1
  40421c:	4614      	mov	r4, r2
  40421e:	4606      	mov	r6, r0
  404220:	b110      	cbz	r0, 404228 <__swbuf_r+0x10>
  404222:	6b83      	ldr	r3, [r0, #56]	; 0x38
  404224:	2b00      	cmp	r3, #0
  404226:	d04b      	beq.n	4042c0 <__swbuf_r+0xa8>
  404228:	f9b4 200c 	ldrsh.w	r2, [r4, #12]
  40422c:	69a3      	ldr	r3, [r4, #24]
  40422e:	60a3      	str	r3, [r4, #8]
  404230:	b291      	uxth	r1, r2
  404232:	0708      	lsls	r0, r1, #28
  404234:	d539      	bpl.n	4042aa <__swbuf_r+0x92>
  404236:	6923      	ldr	r3, [r4, #16]
  404238:	2b00      	cmp	r3, #0
  40423a:	d036      	beq.n	4042aa <__swbuf_r+0x92>
  40423c:	b2ed      	uxtb	r5, r5
  40423e:	0489      	lsls	r1, r1, #18
  404240:	462f      	mov	r7, r5
  404242:	d515      	bpl.n	404270 <__swbuf_r+0x58>
  404244:	6822      	ldr	r2, [r4, #0]
  404246:	6961      	ldr	r1, [r4, #20]
  404248:	1ad3      	subs	r3, r2, r3
  40424a:	428b      	cmp	r3, r1
  40424c:	da1c      	bge.n	404288 <__swbuf_r+0x70>
  40424e:	3301      	adds	r3, #1
  404250:	68a1      	ldr	r1, [r4, #8]
  404252:	1c50      	adds	r0, r2, #1
  404254:	3901      	subs	r1, #1
  404256:	60a1      	str	r1, [r4, #8]
  404258:	6020      	str	r0, [r4, #0]
  40425a:	7015      	strb	r5, [r2, #0]
  40425c:	6962      	ldr	r2, [r4, #20]
  40425e:	429a      	cmp	r2, r3
  404260:	d01a      	beq.n	404298 <__swbuf_r+0x80>
  404262:	89a3      	ldrh	r3, [r4, #12]
  404264:	07db      	lsls	r3, r3, #31
  404266:	d501      	bpl.n	40426c <__swbuf_r+0x54>
  404268:	2d0a      	cmp	r5, #10
  40426a:	d015      	beq.n	404298 <__swbuf_r+0x80>
  40426c:	4638      	mov	r0, r7
  40426e:	bdf8      	pop	{r3, r4, r5, r6, r7, pc}
  404270:	6e61      	ldr	r1, [r4, #100]	; 0x64
  404272:	f442 5200 	orr.w	r2, r2, #8192	; 0x2000
  404276:	f421 5100 	bic.w	r1, r1, #8192	; 0x2000
  40427a:	81a2      	strh	r2, [r4, #12]
  40427c:	6822      	ldr	r2, [r4, #0]
  40427e:	6661      	str	r1, [r4, #100]	; 0x64
  404280:	6961      	ldr	r1, [r4, #20]
  404282:	1ad3      	subs	r3, r2, r3
  404284:	428b      	cmp	r3, r1
  404286:	dbe2      	blt.n	40424e <__swbuf_r+0x36>
  404288:	4621      	mov	r1, r4
  40428a:	4630      	mov	r0, r6
  40428c:	f7fe fda4 	bl	402dd8 <_fflush_r>
  404290:	b940      	cbnz	r0, 4042a4 <__swbuf_r+0x8c>
  404292:	6822      	ldr	r2, [r4, #0]
  404294:	2301      	movs	r3, #1
  404296:	e7db      	b.n	404250 <__swbuf_r+0x38>
  404298:	4621      	mov	r1, r4
  40429a:	4630      	mov	r0, r6
  40429c:	f7fe fd9c 	bl	402dd8 <_fflush_r>
  4042a0:	2800      	cmp	r0, #0
  4042a2:	d0e3      	beq.n	40426c <__swbuf_r+0x54>
  4042a4:	f04f 37ff 	mov.w	r7, #4294967295
  4042a8:	e7e0      	b.n	40426c <__swbuf_r+0x54>
  4042aa:	4621      	mov	r1, r4
  4042ac:	4630      	mov	r0, r6
  4042ae:	f7fe fc7f 	bl	402bb0 <__swsetup_r>
  4042b2:	2800      	cmp	r0, #0
  4042b4:	d1f6      	bne.n	4042a4 <__swbuf_r+0x8c>
  4042b6:	f9b4 200c 	ldrsh.w	r2, [r4, #12]
  4042ba:	6923      	ldr	r3, [r4, #16]
  4042bc:	b291      	uxth	r1, r2
  4042be:	e7bd      	b.n	40423c <__swbuf_r+0x24>
  4042c0:	f7fe fde2 	bl	402e88 <__sinit>
  4042c4:	e7b0      	b.n	404228 <__swbuf_r+0x10>
  4042c6:	bf00      	nop

004042c8 <_wcrtomb_r>:
  4042c8:	b5f0      	push	{r4, r5, r6, r7, lr}
  4042ca:	4606      	mov	r6, r0
  4042cc:	b085      	sub	sp, #20
  4042ce:	461f      	mov	r7, r3
  4042d0:	b189      	cbz	r1, 4042f6 <_wcrtomb_r+0x2e>
  4042d2:	4c10      	ldr	r4, [pc, #64]	; (404314 <_wcrtomb_r+0x4c>)
  4042d4:	4d10      	ldr	r5, [pc, #64]	; (404318 <_wcrtomb_r+0x50>)
  4042d6:	6824      	ldr	r4, [r4, #0]
  4042d8:	6b64      	ldr	r4, [r4, #52]	; 0x34
  4042da:	2c00      	cmp	r4, #0
  4042dc:	bf08      	it	eq
  4042de:	462c      	moveq	r4, r5
  4042e0:	f8d4 40e0 	ldr.w	r4, [r4, #224]	; 0xe0
  4042e4:	47a0      	blx	r4
  4042e6:	1c43      	adds	r3, r0, #1
  4042e8:	d103      	bne.n	4042f2 <_wcrtomb_r+0x2a>
  4042ea:	2200      	movs	r2, #0
  4042ec:	238a      	movs	r3, #138	; 0x8a
  4042ee:	603a      	str	r2, [r7, #0]
  4042f0:	6033      	str	r3, [r6, #0]
  4042f2:	b005      	add	sp, #20
  4042f4:	bdf0      	pop	{r4, r5, r6, r7, pc}
  4042f6:	460c      	mov	r4, r1
  4042f8:	4906      	ldr	r1, [pc, #24]	; (404314 <_wcrtomb_r+0x4c>)
  4042fa:	4a07      	ldr	r2, [pc, #28]	; (404318 <_wcrtomb_r+0x50>)
  4042fc:	6809      	ldr	r1, [r1, #0]
  4042fe:	6b49      	ldr	r1, [r1, #52]	; 0x34
  404300:	2900      	cmp	r1, #0
  404302:	bf08      	it	eq
  404304:	4611      	moveq	r1, r2
  404306:	4622      	mov	r2, r4
  404308:	f8d1 40e0 	ldr.w	r4, [r1, #224]	; 0xe0
  40430c:	a901      	add	r1, sp, #4
  40430e:	47a0      	blx	r4
  404310:	e7e9      	b.n	4042e6 <_wcrtomb_r+0x1e>
  404312:	bf00      	nop
  404314:	20400014 	.word	0x20400014
  404318:	20400444 	.word	0x20400444

0040431c <__ascii_wctomb>:
  40431c:	b121      	cbz	r1, 404328 <__ascii_wctomb+0xc>
  40431e:	2aff      	cmp	r2, #255	; 0xff
  404320:	d804      	bhi.n	40432c <__ascii_wctomb+0x10>
  404322:	700a      	strb	r2, [r1, #0]
  404324:	2001      	movs	r0, #1
  404326:	4770      	bx	lr
  404328:	4608      	mov	r0, r1
  40432a:	4770      	bx	lr
  40432c:	238a      	movs	r3, #138	; 0x8a
  40432e:	6003      	str	r3, [r0, #0]
  404330:	f04f 30ff 	mov.w	r0, #4294967295
  404334:	4770      	bx	lr
  404336:	bf00      	nop

00404338 <_write_r>:
  404338:	b570      	push	{r4, r5, r6, lr}
  40433a:	460d      	mov	r5, r1
  40433c:	4c08      	ldr	r4, [pc, #32]	; (404360 <_write_r+0x28>)
  40433e:	4611      	mov	r1, r2
  404340:	4606      	mov	r6, r0
  404342:	461a      	mov	r2, r3
  404344:	4628      	mov	r0, r5
  404346:	2300      	movs	r3, #0
  404348:	6023      	str	r3, [r4, #0]
  40434a:	f7fb ffeb 	bl	400324 <_write>
  40434e:	1c43      	adds	r3, r0, #1
  404350:	d000      	beq.n	404354 <_write_r+0x1c>
  404352:	bd70      	pop	{r4, r5, r6, pc}
  404354:	6823      	ldr	r3, [r4, #0]
  404356:	2b00      	cmp	r3, #0
  404358:	d0fb      	beq.n	404352 <_write_r+0x1a>
  40435a:	6033      	str	r3, [r6, #0]
  40435c:	bd70      	pop	{r4, r5, r6, pc}
  40435e:	bf00      	nop
  404360:	20400ae0 	.word	0x20400ae0

00404364 <__register_exitproc>:
  404364:	e92d 43f8 	stmdb	sp!, {r3, r4, r5, r6, r7, r8, r9, lr}
  404368:	4d2c      	ldr	r5, [pc, #176]	; (40441c <__register_exitproc+0xb8>)
  40436a:	4606      	mov	r6, r0
  40436c:	6828      	ldr	r0, [r5, #0]
  40436e:	4698      	mov	r8, r3
  404370:	460f      	mov	r7, r1
  404372:	4691      	mov	r9, r2
  404374:	f7ff f948 	bl	403608 <__retarget_lock_acquire_recursive>
  404378:	4b29      	ldr	r3, [pc, #164]	; (404420 <__register_exitproc+0xbc>)
  40437a:	681c      	ldr	r4, [r3, #0]
  40437c:	f8d4 3148 	ldr.w	r3, [r4, #328]	; 0x148
  404380:	2b00      	cmp	r3, #0
  404382:	d03e      	beq.n	404402 <__register_exitproc+0x9e>
  404384:	685a      	ldr	r2, [r3, #4]
  404386:	2a1f      	cmp	r2, #31
  404388:	dc1c      	bgt.n	4043c4 <__register_exitproc+0x60>
  40438a:	f102 0e01 	add.w	lr, r2, #1
  40438e:	b176      	cbz	r6, 4043ae <__register_exitproc+0x4a>
  404390:	eb03 0182 	add.w	r1, r3, r2, lsl #2
  404394:	2401      	movs	r4, #1
  404396:	f8c1 9088 	str.w	r9, [r1, #136]	; 0x88
  40439a:	f8d3 0188 	ldr.w	r0, [r3, #392]	; 0x188
  40439e:	4094      	lsls	r4, r2
  4043a0:	4320      	orrs	r0, r4
  4043a2:	2e02      	cmp	r6, #2
  4043a4:	f8c3 0188 	str.w	r0, [r3, #392]	; 0x188
  4043a8:	f8c1 8108 	str.w	r8, [r1, #264]	; 0x108
  4043ac:	d023      	beq.n	4043f6 <__register_exitproc+0x92>
  4043ae:	3202      	adds	r2, #2
  4043b0:	f8c3 e004 	str.w	lr, [r3, #4]
  4043b4:	6828      	ldr	r0, [r5, #0]
  4043b6:	f843 7022 	str.w	r7, [r3, r2, lsl #2]
  4043ba:	f7ff f927 	bl	40360c <__retarget_lock_release_recursive>
  4043be:	2000      	movs	r0, #0
  4043c0:	e8bd 83f8 	ldmia.w	sp!, {r3, r4, r5, r6, r7, r8, r9, pc}
  4043c4:	4b17      	ldr	r3, [pc, #92]	; (404424 <__register_exitproc+0xc0>)
  4043c6:	b30b      	cbz	r3, 40440c <__register_exitproc+0xa8>
  4043c8:	f44f 70c8 	mov.w	r0, #400	; 0x190
  4043cc:	f7ff f998 	bl	403700 <malloc>
  4043d0:	4603      	mov	r3, r0
  4043d2:	b1d8      	cbz	r0, 40440c <__register_exitproc+0xa8>
  4043d4:	f8d4 2148 	ldr.w	r2, [r4, #328]	; 0x148
  4043d8:	6002      	str	r2, [r0, #0]
  4043da:	2100      	movs	r1, #0
  4043dc:	6041      	str	r1, [r0, #4]
  4043de:	460a      	mov	r2, r1
  4043e0:	f8c4 0148 	str.w	r0, [r4, #328]	; 0x148
  4043e4:	f04f 0e01 	mov.w	lr, #1
  4043e8:	f8c0 1188 	str.w	r1, [r0, #392]	; 0x188
  4043ec:	f8c0 118c 	str.w	r1, [r0, #396]	; 0x18c
  4043f0:	2e00      	cmp	r6, #0
  4043f2:	d0dc      	beq.n	4043ae <__register_exitproc+0x4a>
  4043f4:	e7cc      	b.n	404390 <__register_exitproc+0x2c>
  4043f6:	f8d3 118c 	ldr.w	r1, [r3, #396]	; 0x18c
  4043fa:	430c      	orrs	r4, r1
  4043fc:	f8c3 418c 	str.w	r4, [r3, #396]	; 0x18c
  404400:	e7d5      	b.n	4043ae <__register_exitproc+0x4a>
  404402:	f504 73a6 	add.w	r3, r4, #332	; 0x14c
  404406:	f8c4 3148 	str.w	r3, [r4, #328]	; 0x148
  40440a:	e7bb      	b.n	404384 <__register_exitproc+0x20>
  40440c:	6828      	ldr	r0, [r5, #0]
  40440e:	f7ff f8fd 	bl	40360c <__retarget_lock_release_recursive>
  404412:	f04f 30ff 	mov.w	r0, #4294967295
  404416:	e8bd 83f8 	ldmia.w	sp!, {r3, r4, r5, r6, r7, r8, r9, pc}
  40441a:	bf00      	nop
  40441c:	20400440 	.word	0x20400440
  404420:	0040467c 	.word	0x0040467c
  404424:	00403701 	.word	0x00403701

00404428 <_close_r>:
  404428:	b538      	push	{r3, r4, r5, lr}
  40442a:	4c07      	ldr	r4, [pc, #28]	; (404448 <_close_r+0x20>)
  40442c:	2300      	movs	r3, #0
  40442e:	4605      	mov	r5, r0
  404430:	4608      	mov	r0, r1
  404432:	6023      	str	r3, [r4, #0]
  404434:	f7fc fbe2 	bl	400bfc <_close>
  404438:	1c43      	adds	r3, r0, #1
  40443a:	d000      	beq.n	40443e <_close_r+0x16>
  40443c:	bd38      	pop	{r3, r4, r5, pc}
  40443e:	6823      	ldr	r3, [r4, #0]
  404440:	2b00      	cmp	r3, #0
  404442:	d0fb      	beq.n	40443c <_close_r+0x14>
  404444:	602b      	str	r3, [r5, #0]
  404446:	bd38      	pop	{r3, r4, r5, pc}
  404448:	20400ae0 	.word	0x20400ae0

0040444c <_fclose_r>:
  40444c:	b570      	push	{r4, r5, r6, lr}
  40444e:	b159      	cbz	r1, 404468 <_fclose_r+0x1c>
  404450:	4605      	mov	r5, r0
  404452:	460c      	mov	r4, r1
  404454:	b110      	cbz	r0, 40445c <_fclose_r+0x10>
  404456:	6b83      	ldr	r3, [r0, #56]	; 0x38
  404458:	2b00      	cmp	r3, #0
  40445a:	d03c      	beq.n	4044d6 <_fclose_r+0x8a>
  40445c:	6e63      	ldr	r3, [r4, #100]	; 0x64
  40445e:	07d8      	lsls	r0, r3, #31
  404460:	d505      	bpl.n	40446e <_fclose_r+0x22>
  404462:	f9b4 300c 	ldrsh.w	r3, [r4, #12]
  404466:	b92b      	cbnz	r3, 404474 <_fclose_r+0x28>
  404468:	2600      	movs	r6, #0
  40446a:	4630      	mov	r0, r6
  40446c:	bd70      	pop	{r4, r5, r6, pc}
  40446e:	89a3      	ldrh	r3, [r4, #12]
  404470:	0599      	lsls	r1, r3, #22
  404472:	d53c      	bpl.n	4044ee <_fclose_r+0xa2>
  404474:	4621      	mov	r1, r4
  404476:	4628      	mov	r0, r5
  404478:	f7fe fc0e 	bl	402c98 <__sflush_r>
  40447c:	6ae3      	ldr	r3, [r4, #44]	; 0x2c
  40447e:	4606      	mov	r6, r0
  404480:	b133      	cbz	r3, 404490 <_fclose_r+0x44>
  404482:	69e1      	ldr	r1, [r4, #28]
  404484:	4628      	mov	r0, r5
  404486:	4798      	blx	r3
  404488:	2800      	cmp	r0, #0
  40448a:	bfb8      	it	lt
  40448c:	f04f 36ff 	movlt.w	r6, #4294967295
  404490:	89a3      	ldrh	r3, [r4, #12]
  404492:	061a      	lsls	r2, r3, #24
  404494:	d422      	bmi.n	4044dc <_fclose_r+0x90>
  404496:	6b21      	ldr	r1, [r4, #48]	; 0x30
  404498:	b141      	cbz	r1, 4044ac <_fclose_r+0x60>
  40449a:	f104 0340 	add.w	r3, r4, #64	; 0x40
  40449e:	4299      	cmp	r1, r3
  4044a0:	d002      	beq.n	4044a8 <_fclose_r+0x5c>
  4044a2:	4628      	mov	r0, r5
  4044a4:	f7fe fe16 	bl	4030d4 <_free_r>
  4044a8:	2300      	movs	r3, #0
  4044aa:	6323      	str	r3, [r4, #48]	; 0x30
  4044ac:	6c61      	ldr	r1, [r4, #68]	; 0x44
  4044ae:	b121      	cbz	r1, 4044ba <_fclose_r+0x6e>
  4044b0:	4628      	mov	r0, r5
  4044b2:	f7fe fe0f 	bl	4030d4 <_free_r>
  4044b6:	2300      	movs	r3, #0
  4044b8:	6463      	str	r3, [r4, #68]	; 0x44
  4044ba:	f7fe fd11 	bl	402ee0 <__sfp_lock_acquire>
  4044be:	6e63      	ldr	r3, [r4, #100]	; 0x64
  4044c0:	2200      	movs	r2, #0
  4044c2:	07db      	lsls	r3, r3, #31
  4044c4:	81a2      	strh	r2, [r4, #12]
  4044c6:	d50e      	bpl.n	4044e6 <_fclose_r+0x9a>
  4044c8:	6da0      	ldr	r0, [r4, #88]	; 0x58
  4044ca:	f7ff f89b 	bl	403604 <__retarget_lock_close_recursive>
  4044ce:	f7fe fd0d 	bl	402eec <__sfp_lock_release>
  4044d2:	4630      	mov	r0, r6
  4044d4:	bd70      	pop	{r4, r5, r6, pc}
  4044d6:	f7fe fcd7 	bl	402e88 <__sinit>
  4044da:	e7bf      	b.n	40445c <_fclose_r+0x10>
  4044dc:	6921      	ldr	r1, [r4, #16]
  4044de:	4628      	mov	r0, r5
  4044e0:	f7fe fdf8 	bl	4030d4 <_free_r>
  4044e4:	e7d7      	b.n	404496 <_fclose_r+0x4a>
  4044e6:	6da0      	ldr	r0, [r4, #88]	; 0x58
  4044e8:	f7ff f890 	bl	40360c <__retarget_lock_release_recursive>
  4044ec:	e7ec      	b.n	4044c8 <_fclose_r+0x7c>
  4044ee:	6da0      	ldr	r0, [r4, #88]	; 0x58
  4044f0:	f7ff f88a 	bl	403608 <__retarget_lock_acquire_recursive>
  4044f4:	f9b4 300c 	ldrsh.w	r3, [r4, #12]
  4044f8:	2b00      	cmp	r3, #0
  4044fa:	d1bb      	bne.n	404474 <_fclose_r+0x28>
  4044fc:	6e66      	ldr	r6, [r4, #100]	; 0x64
  4044fe:	f016 0601 	ands.w	r6, r6, #1
  404502:	d1b1      	bne.n	404468 <_fclose_r+0x1c>
  404504:	6da0      	ldr	r0, [r4, #88]	; 0x58
  404506:	f7ff f881 	bl	40360c <__retarget_lock_release_recursive>
  40450a:	4630      	mov	r0, r6
  40450c:	bd70      	pop	{r4, r5, r6, pc}
  40450e:	bf00      	nop

00404510 <_fstat_r>:
  404510:	b538      	push	{r3, r4, r5, lr}
  404512:	460b      	mov	r3, r1
  404514:	4c07      	ldr	r4, [pc, #28]	; (404534 <_fstat_r+0x24>)
  404516:	4605      	mov	r5, r0
  404518:	4611      	mov	r1, r2
  40451a:	4618      	mov	r0, r3
  40451c:	2300      	movs	r3, #0
  40451e:	6023      	str	r3, [r4, #0]
  404520:	f7fc fb6f 	bl	400c02 <_fstat>
  404524:	1c43      	adds	r3, r0, #1
  404526:	d000      	beq.n	40452a <_fstat_r+0x1a>
  404528:	bd38      	pop	{r3, r4, r5, pc}
  40452a:	6823      	ldr	r3, [r4, #0]
  40452c:	2b00      	cmp	r3, #0
  40452e:	d0fb      	beq.n	404528 <_fstat_r+0x18>
  404530:	602b      	str	r3, [r5, #0]
  404532:	bd38      	pop	{r3, r4, r5, pc}
  404534:	20400ae0 	.word	0x20400ae0

00404538 <_isatty_r>:
  404538:	b538      	push	{r3, r4, r5, lr}
  40453a:	4c07      	ldr	r4, [pc, #28]	; (404558 <_isatty_r+0x20>)
  40453c:	2300      	movs	r3, #0
  40453e:	4605      	mov	r5, r0
  404540:	4608      	mov	r0, r1
  404542:	6023      	str	r3, [r4, #0]
  404544:	f7fc fb62 	bl	400c0c <_isatty>
  404548:	1c43      	adds	r3, r0, #1
  40454a:	d000      	beq.n	40454e <_isatty_r+0x16>
  40454c:	bd38      	pop	{r3, r4, r5, pc}
  40454e:	6823      	ldr	r3, [r4, #0]
  404550:	2b00      	cmp	r3, #0
  404552:	d0fb      	beq.n	40454c <_isatty_r+0x14>
  404554:	602b      	str	r3, [r5, #0]
  404556:	bd38      	pop	{r3, r4, r5, pc}
  404558:	20400ae0 	.word	0x20400ae0

0040455c <_lseek_r>:
  40455c:	b570      	push	{r4, r5, r6, lr}
  40455e:	460d      	mov	r5, r1
  404560:	4c08      	ldr	r4, [pc, #32]	; (404584 <_lseek_r+0x28>)
  404562:	4611      	mov	r1, r2
  404564:	4606      	mov	r6, r0
  404566:	461a      	mov	r2, r3
  404568:	4628      	mov	r0, r5
  40456a:	2300      	movs	r3, #0
  40456c:	6023      	str	r3, [r4, #0]
  40456e:	f7fc fb4f 	bl	400c10 <_lseek>
  404572:	1c43      	adds	r3, r0, #1
  404574:	d000      	beq.n	404578 <_lseek_r+0x1c>
  404576:	bd70      	pop	{r4, r5, r6, pc}
  404578:	6823      	ldr	r3, [r4, #0]
  40457a:	2b00      	cmp	r3, #0
  40457c:	d0fb      	beq.n	404576 <_lseek_r+0x1a>
  40457e:	6033      	str	r3, [r6, #0]
  404580:	bd70      	pop	{r4, r5, r6, pc}
  404582:	bf00      	nop
  404584:	20400ae0 	.word	0x20400ae0

00404588 <_read_r>:
  404588:	b570      	push	{r4, r5, r6, lr}
  40458a:	460d      	mov	r5, r1
  40458c:	4c08      	ldr	r4, [pc, #32]	; (4045b0 <_read_r+0x28>)
  40458e:	4611      	mov	r1, r2
  404590:	4606      	mov	r6, r0
  404592:	461a      	mov	r2, r3
  404594:	4628      	mov	r0, r5
  404596:	2300      	movs	r3, #0
  404598:	6023      	str	r3, [r4, #0]
  40459a:	f7fb fe1b 	bl	4001d4 <_read>
  40459e:	1c43      	adds	r3, r0, #1
  4045a0:	d000      	beq.n	4045a4 <_read_r+0x1c>
  4045a2:	bd70      	pop	{r4, r5, r6, pc}
  4045a4:	6823      	ldr	r3, [r4, #0]
  4045a6:	2b00      	cmp	r3, #0
  4045a8:	d0fb      	beq.n	4045a2 <_read_r+0x1a>
  4045aa:	6033      	str	r3, [r6, #0]
  4045ac:	bd70      	pop	{r4, r5, r6, pc}
  4045ae:	bf00      	nop
  4045b0:	20400ae0 	.word	0x20400ae0
  4045b4:	00007350 	.word	0x00007350
  4045b8:	70532d2d 	.word	0x70532d2d
  4045bc:	526e2069 	.word	0x526e2069
  4045c0:	4c343246 	.word	0x4c343246
  4045c4:	54203130 	.word	0x54203130
  4045c8:	20747365 	.word	0x20747365
  4045cc:	0a0d2d2d 	.word	0x0a0d2d2d
  4045d0:	53202d2d 	.word	0x53202d2d
  4045d4:	37454d41 	.word	0x37454d41
  4045d8:	50582d30 	.word	0x50582d30
  4045dc:	2d20444c 	.word	0x2d20444c
  4045e0:	2d0a0d2d 	.word	0x2d0a0d2d
  4045e4:	6f43202d 	.word	0x6f43202d
  4045e8:	6c69706d 	.word	0x6c69706d
  4045ec:	203a6465 	.word	0x203a6465
  4045f0:	20677541 	.word	0x20677541
  4045f4:	32203420 	.word	0x32203420
  4045f8:	20303230 	.word	0x20303230
  4045fc:	353a3130 	.word	0x353a3130
  404600:	37303a33 	.word	0x37303a33
  404604:	0d2d2d20 	.word	0x0d2d2d20
  404608:	00000000 	.word	0x00000000
  40460c:	74746553 	.word	0x74746553
  404610:	20676e69 	.word	0x20676e69
  404614:	20495053 	.word	0x20495053
  404618:	636f6c63 	.word	0x636f6c63
  40461c:	2523206b 	.word	0x2523206b
  404620:	2e20756c 	.word	0x2e20756c
  404624:	0a202e2e 	.word	0x0a202e2e
  404628:	0000000d 	.word	0x0000000d
  40462c:	202d492d 	.word	0x202d492d
  404630:	74696e49 	.word	0x74696e49
  404634:	696c6169 	.word	0x696c6169
  404638:	5320657a 	.word	0x5320657a
  40463c:	61204950 	.word	0x61204950
  404640:	616d2073 	.word	0x616d2073
  404644:	72657473 	.word	0x72657473
  404648:	0000000d 	.word	0x0000000d
  40464c:	6e617274 	.word	0x6e617274
  404650:	73696d73 	.word	0x73696d73
  404654:	6e6f6973 	.word	0x6e6f6973
  404658:	69616620 	.word	0x69616620
  40465c:	2064656c 	.word	0x2064656c
  404660:	00000d0a 	.word	0x00000d0a

00404664 <pipe_enable_s>:
  404664:	03020100 00000504                       ........

0040466c <pipe_s>:
  40466c:	0d0c0b0a 00000f0e                       ........

00404674 <pipe_size_s>:
  404674:	14131211 00001615                       ........

0040467c <_global_impure_ptr>:
  40467c:	20400018 0000000a 33323130 37363534     ..@ ....01234567
  40468c:	42413938 46454443 00000000 33323130     89ABCDEF....0123
  40469c:	37363534 62613938 66656463 00000000     456789abcdef....
  4046ac:	6c756e28 0000296c                       (null)..

004046b4 <blanks.7217>:
  4046b4:	20202020 20202020 20202020 20202020                     

004046c4 <zeroes.7218>:
  4046c4:	30303030 30303030 30303030 30303030     0000000000000000
  4046d4:	00000043 49534f50 00000058 0000002e     C...POSIX.......

004046e4 <_ctype_>:
  4046e4:	20202000 20202020 28282020 20282828     .         ((((( 
  4046f4:	20202020 20202020 20202020 20202020                     
  404704:	10108820 10101010 10101010 10101010      ...............
  404714:	04040410 04040404 10040404 10101010     ................
  404724:	41411010 41414141 01010101 01010101     ..AAAAAA........
  404734:	01010101 01010101 01010101 10101010     ................
  404744:	42421010 42424242 02020202 02020202     ..BBBBBB........
  404754:	02020202 02020202 02020202 10101010     ................
  404764:	00000020 00000000 00000000 00000000      ...............
	...

004047e8 <_init>:
  4047e8:	b5f8      	push	{r3, r4, r5, r6, r7, lr}
  4047ea:	bf00      	nop
  4047ec:	bcf8      	pop	{r3, r4, r5, r6, r7}
  4047ee:	bc08      	pop	{r3}
  4047f0:	469e      	mov	lr, r3
  4047f2:	4770      	bx	lr

004047f4 <__init_array_start>:
  4047f4:	00402c79 	.word	0x00402c79

004047f8 <__frame_dummy_init_array_entry>:
  4047f8:	0040018d                                ..@.

004047fc <_fini>:
  4047fc:	b5f8      	push	{r3, r4, r5, r6, r7, lr}
  4047fe:	bf00      	nop
  404800:	bcf8      	pop	{r3, r4, r5, r6, r7}
  404802:	bc08      	pop	{r3}
  404804:	469e      	mov	lr, r3
  404806:	4770      	bx	lr

00404808 <__fini_array_start>:
  404808:	00400169 	.word	0x00400169

Disassembly of section .relocate:

20400000 <portable_delay_cycles>:
RAMFUNC
void portable_delay_cycles(unsigned long n)
{
	UNUSED(n);

	__asm (
20400000:	f3bf 8f5f 	dmb	sy
20400004:	3801      	subs	r0, #1
20400006:	d1fb      	bne.n	20400000 <portable_delay_cycles>
20400008:	4770      	bx	lr

2040000a <g_interrupt_enabled>:
2040000a:	0001                                        ..

2040000c <SystemCoreClock>:
2040000c:	0900 003d                                   ..=.

20400010 <addr_width>:
20400010:	2004                                             .

20400011 <payload_size>:
20400011:	0020 1800                                         ..

20400014 <_impure_ptr>:
20400014:	0018 2040                                   ..@ 

20400018 <impure_data>:
20400018:	0000 0000 0304 2040 036c 2040 03d4 2040     ......@ l.@ ..@ 
	...
204000c0:	0001 0000 0000 0000 330e abcd 1234 e66d     .........3..4.m.
204000d0:	deec 0005 000b 0000 0000 0000 0000 0000     ................
	...

20400440 <__atexit_recursive_mutex>:
20400440:	0abc 2040                                   ..@ 

20400444 <__global_locale>:
20400444:	0043 0000 0000 0000 0000 0000 0000 0000     C...............
	...
20400464:	0043 0000 0000 0000 0000 0000 0000 0000     C...............
	...
20400484:	0043 0000 0000 0000 0000 0000 0000 0000     C...............
	...
204004a4:	0043 0000 0000 0000 0000 0000 0000 0000     C...............
	...
204004c4:	0043 0000 0000 0000 0000 0000 0000 0000     C...............
	...
204004e4:	0043 0000 0000 0000 0000 0000 0000 0000     C...............
	...
20400504:	0043 0000 0000 0000 0000 0000 0000 0000     C...............
	...
20400524:	431d 0040 3c71 0040 0000 0000 46e4 0040     .C@.q<@......F@.
20400534:	46e0 0040 4608 0040 4608 0040 4608 0040     .F@..F@..F@..F@.
20400544:	4608 0040 4608 0040 4608 0040 4608 0040     .F@..F@..F@..F@.
20400554:	4608 0040 4608 0040 ffff ffff ffff ffff     .F@..F@.........
20400564:	ffff ffff ffff 0000 0001 5341 4943 0049     ..........ASCII.
	...
2040058c:	0000 5341 4943 0049 0000 0000 0000 0000     ..ASCII.........
	...

204005b0 <__malloc_av_>:
	...
204005b8:	05b0 2040 05b0 2040 05b8 2040 05b8 2040     ..@ ..@ ..@ ..@ 
204005c8:	05c0 2040 05c0 2040 05c8 2040 05c8 2040     ..@ ..@ ..@ ..@ 
204005d8:	05d0 2040 05d0 2040 05d8 2040 05d8 2040     ..@ ..@ ..@ ..@ 
204005e8:	05e0 2040 05e0 2040 05e8 2040 05e8 2040     ..@ ..@ ..@ ..@ 
204005f8:	05f0 2040 05f0 2040 05f8 2040 05f8 2040     ..@ ..@ ..@ ..@ 
20400608:	0600 2040 0600 2040 0608 2040 0608 2040     ..@ ..@ ..@ ..@ 
20400618:	0610 2040 0610 2040 0618 2040 0618 2040     ..@ ..@ ..@ ..@ 
20400628:	0620 2040 0620 2040 0628 2040 0628 2040      .@  .@ (.@ (.@ 
20400638:	0630 2040 0630 2040 0638 2040 0638 2040     0.@ 0.@ 8.@ 8.@ 
20400648:	0640 2040 0640 2040 0648 2040 0648 2040     @.@ @.@ H.@ H.@ 
20400658:	0650 2040 0650 2040 0658 2040 0658 2040     P.@ P.@ X.@ X.@ 
20400668:	0660 2040 0660 2040 0668 2040 0668 2040     `.@ `.@ h.@ h.@ 
20400678:	0670 2040 0670 2040 0678 2040 0678 2040     p.@ p.@ x.@ x.@ 
20400688:	0680 2040 0680 2040 0688 2040 0688 2040     ..@ ..@ ..@ ..@ 
20400698:	0690 2040 0690 2040 0698 2040 0698 2040     ..@ ..@ ..@ ..@ 
204006a8:	06a0 2040 06a0 2040 06a8 2040 06a8 2040     ..@ ..@ ..@ ..@ 
204006b8:	06b0 2040 06b0 2040 06b8 2040 06b8 2040     ..@ ..@ ..@ ..@ 
204006c8:	06c0 2040 06c0 2040 06c8 2040 06c8 2040     ..@ ..@ ..@ ..@ 
204006d8:	06d0 2040 06d0 2040 06d8 2040 06d8 2040     ..@ ..@ ..@ ..@ 
204006e8:	06e0 2040 06e0 2040 06e8 2040 06e8 2040     ..@ ..@ ..@ ..@ 
204006f8:	06f0 2040 06f0 2040 06f8 2040 06f8 2040     ..@ ..@ ..@ ..@ 
20400708:	0700 2040 0700 2040 0708 2040 0708 2040     ..@ ..@ ..@ ..@ 
20400718:	0710 2040 0710 2040 0718 2040 0718 2040     ..@ ..@ ..@ ..@ 
20400728:	0720 2040 0720 2040 0728 2040 0728 2040      .@  .@ (.@ (.@ 
20400738:	0730 2040 0730 2040 0738 2040 0738 2040     0.@ 0.@ 8.@ 8.@ 
20400748:	0740 2040 0740 2040 0748 2040 0748 2040     @.@ @.@ H.@ H.@ 
20400758:	0750 2040 0750 2040 0758 2040 0758 2040     P.@ P.@ X.@ X.@ 
20400768:	0760 2040 0760 2040 0768 2040 0768 2040     `.@ `.@ h.@ h.@ 
20400778:	0770 2040 0770 2040 0778 2040 0778 2040     p.@ p.@ x.@ x.@ 
20400788:	0780 2040 0780 2040 0788 2040 0788 2040     ..@ ..@ ..@ ..@ 
20400798:	0790 2040 0790 2040 0798 2040 0798 2040     ..@ ..@ ..@ ..@ 
204007a8:	07a0 2040 07a0 2040 07a8 2040 07a8 2040     ..@ ..@ ..@ ..@ 
204007b8:	07b0 2040 07b0 2040 07b8 2040 07b8 2040     ..@ ..@ ..@ ..@ 
204007c8:	07c0 2040 07c0 2040 07c8 2040 07c8 2040     ..@ ..@ ..@ ..@ 
204007d8:	07d0 2040 07d0 2040 07d8 2040 07d8 2040     ..@ ..@ ..@ ..@ 
204007e8:	07e0 2040 07e0 2040 07e8 2040 07e8 2040     ..@ ..@ ..@ ..@ 
204007f8:	07f0 2040 07f0 2040 07f8 2040 07f8 2040     ..@ ..@ ..@ ..@ 
20400808:	0800 2040 0800 2040 0808 2040 0808 2040     ..@ ..@ ..@ ..@ 
20400818:	0810 2040 0810 2040 0818 2040 0818 2040     ..@ ..@ ..@ ..@ 
20400828:	0820 2040 0820 2040 0828 2040 0828 2040      .@  .@ (.@ (.@ 
20400838:	0830 2040 0830 2040 0838 2040 0838 2040     0.@ 0.@ 8.@ 8.@ 
20400848:	0840 2040 0840 2040 0848 2040 0848 2040     @.@ @.@ H.@ H.@ 
20400858:	0850 2040 0850 2040 0858 2040 0858 2040     P.@ P.@ X.@ X.@ 
20400868:	0860 2040 0860 2040 0868 2040 0868 2040     `.@ `.@ h.@ h.@ 
20400878:	0870 2040 0870 2040 0878 2040 0878 2040     p.@ p.@ x.@ x.@ 
20400888:	0880 2040 0880 2040 0888 2040 0888 2040     ..@ ..@ ..@ ..@ 
20400898:	0890 2040 0890 2040 0898 2040 0898 2040     ..@ ..@ ..@ ..@ 
204008a8:	08a0 2040 08a0 2040 08a8 2040 08a8 2040     ..@ ..@ ..@ ..@ 
204008b8:	08b0 2040 08b0 2040 08b8 2040 08b8 2040     ..@ ..@ ..@ ..@ 
204008c8:	08c0 2040 08c0 2040 08c8 2040 08c8 2040     ..@ ..@ ..@ ..@ 
204008d8:	08d0 2040 08d0 2040 08d8 2040 08d8 2040     ..@ ..@ ..@ ..@ 
204008e8:	08e0 2040 08e0 2040 08e8 2040 08e8 2040     ..@ ..@ ..@ ..@ 
204008f8:	08f0 2040 08f0 2040 08f8 2040 08f8 2040     ..@ ..@ ..@ ..@ 
20400908:	0900 2040 0900 2040 0908 2040 0908 2040     ..@ ..@ ..@ ..@ 
20400918:	0910 2040 0910 2040 0918 2040 0918 2040     ..@ ..@ ..@ ..@ 
20400928:	0920 2040 0920 2040 0928 2040 0928 2040      .@  .@ (.@ (.@ 
20400938:	0930 2040 0930 2040 0938 2040 0938 2040     0.@ 0.@ 8.@ 8.@ 
20400948:	0940 2040 0940 2040 0948 2040 0948 2040     @.@ @.@ H.@ H.@ 
20400958:	0950 2040 0950 2040 0958 2040 0958 2040     P.@ P.@ X.@ X.@ 
20400968:	0960 2040 0960 2040 0968 2040 0968 2040     `.@ `.@ h.@ h.@ 
20400978:	0970 2040 0970 2040 0978 2040 0978 2040     p.@ p.@ x.@ x.@ 
20400988:	0980 2040 0980 2040 0988 2040 0988 2040     ..@ ..@ ..@ ..@ 
20400998:	0990 2040 0990 2040 0998 2040 0998 2040     ..@ ..@ ..@ ..@ 
204009a8:	09a0 2040 09a0 2040 09a8 2040 09a8 2040     ..@ ..@ ..@ ..@ 

204009b8 <__malloc_sbrk_base>:
204009b8:	ffff ffff                                   ....

204009bc <__malloc_trim_threshold>:
204009bc:	0000 0002                                   ....
