
nRF24L01_SPI.elf:     file format elf32-littlearm

Sections:
Idx Name          Size      VMA       LMA       File off  Algn
  0 .text         00004d5c  00400000  00400000  00010000  2**6
                  CONTENTS, ALLOC, LOAD, READONLY, CODE
  1 .ARM.exidx    00000008  00404d5c  00404d5c  00014d5c  2**2
                  CONTENTS, ALLOC, LOAD, READONLY, DATA
  2 .relocate     000009c0  20400000  00404d64  00020000  2**3
                  CONTENTS, ALLOC, LOAD, CODE
  3 .bss          00000144  204009c0  00405728  000209c0  2**3
                  ALLOC
  4 .stack        00002004  20400b04  0040586c  000209c0  2**0
                  ALLOC
  5 .heap         00000200  20402b08  00407870  000209c0  2**0
                  ALLOC
  6 .ARM.attributes 0000002e  00000000  00000000  000209c0  2**0
                  CONTENTS, READONLY
  7 .comment      00000059  00000000  00000000  000209ee  2**0
                  CONTENTS, READONLY
  8 .debug_info   00016ed5  00000000  00000000  00020a47  2**0
                  CONTENTS, READONLY, DEBUGGING
  9 .debug_abbrev 00002f3f  00000000  00000000  0003791c  2**0
                  CONTENTS, READONLY, DEBUGGING
 10 .debug_aranges 00000b98  00000000  00000000  0003a85b  2**0
                  CONTENTS, READONLY, DEBUGGING
 11 .debug_ranges 00000bb8  00000000  00000000  0003b3f3  2**0
                  CONTENTS, READONLY, DEBUGGING
 12 .debug_macro  0002023f  00000000  00000000  0003bfab  2**0
                  CONTENTS, READONLY, DEBUGGING
 13 .debug_line   0000bf41  00000000  00000000  0005c1ea  2**0
                  CONTENTS, READONLY, DEBUGGING
 14 .debug_str    00094d1e  00000000  00000000  0006812b  2**0
                  CONTENTS, READONLY, DEBUGGING
 15 .debug_frame  0000272c  00000000  00000000  000fce4c  2**2
                  CONTENTS, READONLY, DEBUGGING
 16 .debug_loc    000057e5  00000000  00000000  000ff578  2**0
                  CONTENTS, READONLY, DEBUGGING

Disassembly of section .text:

00400000 <exception_table>:
  400000:	08 2b 40 20 65 09 40 00 61 09 40 00 61 09 40 00     .+@ e.@.a.@.a.@.
  400010:	61 09 40 00 61 09 40 00 61 09 40 00 00 00 00 00     a.@.a.@.a.@.....
	...
  40002c:	61 09 40 00 61 09 40 00 00 00 00 00 61 09 40 00     a.@.a.@.....a.@.
  40003c:	61 09 40 00 61 09 40 00 61 09 40 00 61 09 40 00     a.@.a.@.a.@.a.@.
  40004c:	61 09 40 00 61 09 40 00 61 09 40 00 61 09 40 00     a.@.a.@.a.@.a.@.
  40005c:	61 09 40 00 61 09 40 00 00 00 00 00 bd 07 40 00     a.@.a.@.......@.
  40006c:	d1 07 40 00 e5 07 40 00 61 09 40 00 61 09 40 00     ..@...@.a.@.a.@.
  40007c:	61 09 40 00 f9 07 40 00 0d 08 40 00 61 09 40 00     a.@...@...@.a.@.
  40008c:	61 09 40 00 61 09 40 00 61 09 40 00 61 09 40 00     a.@.a.@.a.@.a.@.
  40009c:	61 09 40 00 61 09 40 00 61 09 40 00 61 09 40 00     a.@.a.@.a.@.a.@.
  4000ac:	61 09 40 00 61 09 40 00 61 09 40 00 61 09 40 00     a.@.a.@.a.@.a.@.
  4000bc:	61 09 40 00 61 09 40 00 61 09 40 00 61 09 40 00     a.@.a.@.a.@.a.@.
  4000cc:	61 09 40 00 61 09 40 00 61 09 40 00 61 09 40 00     a.@.a.@.a.@.a.@.
  4000dc:	61 09 40 00 61 09 40 00 61 09 40 00 61 09 40 00     a.@.a.@.a.@.a.@.
  4000ec:	61 09 40 00 61 09 40 00 61 09 40 00 61 09 40 00     a.@.a.@.a.@.a.@.
  4000fc:	61 09 40 00 61 09 40 00 61 09 40 00 61 09 40 00     a.@.a.@.a.@.a.@.
  40010c:	61 09 40 00 61 09 40 00 00 00 00 00 00 00 00 00     a.@.a.@.........
  40011c:	00 00 00 00 61 09 40 00 61 09 40 00 61 09 40 00     ....a.@.a.@.a.@.
  40012c:	61 09 40 00 61 09 40 00 61 09 40 00 61 09 40 00     a.@.a.@.a.@.a.@.
  40013c:	61 09 40 00 61 09 40 00 61 09 40 00 61 09 40 00     a.@.a.@.a.@.a.@.
  40014c:	61 09 40 00 61 09 40 00 61 09 40 00 61 09 40 00     a.@.a.@.a.@.a.@.
  40015c:	61 09 40 00 61 09 40 00 61 09 40 00                 a.@.a.@.a.@.

00400168 <__do_global_dtors_aux>:
  400168:	b510      	push	{r4, lr}
  40016a:	4c05      	ldr	r4, [pc, #20]	; (400180 <__do_global_dtors_aux+0x18>)
  40016c:	7823      	ldrb	r3, [r4, #0]
  40016e:	b933      	cbnz	r3, 40017e <__do_global_dtors_aux+0x16>
  400170:	4b04      	ldr	r3, [pc, #16]	; (400184 <__do_global_dtors_aux+0x1c>)
  400172:	b113      	cbz	r3, 40017a <__do_global_dtors_aux+0x12>
  400174:	4804      	ldr	r0, [pc, #16]	; (400188 <__do_global_dtors_aux+0x20>)
  400176:	f3af 8000 	nop.w
  40017a:	2301      	movs	r3, #1
  40017c:	7023      	strb	r3, [r4, #0]
  40017e:	bd10      	pop	{r4, pc}
  400180:	204009c0 	.word	0x204009c0
  400184:	00000000 	.word	0x00000000
  400188:	00404d64 	.word	0x00404d64

0040018c <frame_dummy>:
  40018c:	4b0c      	ldr	r3, [pc, #48]	; (4001c0 <frame_dummy+0x34>)
  40018e:	b143      	cbz	r3, 4001a2 <frame_dummy+0x16>
  400190:	480c      	ldr	r0, [pc, #48]	; (4001c4 <frame_dummy+0x38>)
  400192:	490d      	ldr	r1, [pc, #52]	; (4001c8 <frame_dummy+0x3c>)
  400194:	b510      	push	{r4, lr}
  400196:	f3af 8000 	nop.w
  40019a:	480c      	ldr	r0, [pc, #48]	; (4001cc <frame_dummy+0x40>)
  40019c:	6803      	ldr	r3, [r0, #0]
  40019e:	b923      	cbnz	r3, 4001aa <frame_dummy+0x1e>
  4001a0:	bd10      	pop	{r4, pc}
  4001a2:	480a      	ldr	r0, [pc, #40]	; (4001cc <frame_dummy+0x40>)
  4001a4:	6803      	ldr	r3, [r0, #0]
  4001a6:	b933      	cbnz	r3, 4001b6 <frame_dummy+0x2a>
  4001a8:	4770      	bx	lr
  4001aa:	4b09      	ldr	r3, [pc, #36]	; (4001d0 <frame_dummy+0x44>)
  4001ac:	2b00      	cmp	r3, #0
  4001ae:	d0f7      	beq.n	4001a0 <frame_dummy+0x14>
  4001b0:	e8bd 4010 	ldmia.w	sp!, {r4, lr}
  4001b4:	4718      	bx	r3
  4001b6:	4b06      	ldr	r3, [pc, #24]	; (4001d0 <frame_dummy+0x44>)
  4001b8:	2b00      	cmp	r3, #0
  4001ba:	d0f5      	beq.n	4001a8 <frame_dummy+0x1c>
  4001bc:	4718      	bx	r3
  4001be:	bf00      	nop
  4001c0:	00000000 	.word	0x00000000
  4001c4:	00404d64 	.word	0x00404d64
  4001c8:	204009c4 	.word	0x204009c4
  4001cc:	00404d64 	.word	0x00404d64
  4001d0:	00000000 	.word	0x00000000

004001d4 <_read>:
int __attribute__((weak))
_read (int file, char * ptr, int len); // Remove GCC compiler warning

int __attribute__((weak))
_read (int file, char * ptr, int len)
{
  4001d4:	e92d 41f0 	stmdb	sp!, {r4, r5, r6, r7, r8, lr}
	int nChars = 0;

	if (file != 0) {
  4001d8:	b980      	cbnz	r0, 4001fc <_read+0x28>
  4001da:	460c      	mov	r4, r1
  4001dc:	4690      	mov	r8, r2
		return -1;
	}

	for (; len > 0; --len) {
  4001de:	2a00      	cmp	r2, #0
  4001e0:	dd0f      	ble.n	400202 <_read+0x2e>
  4001e2:	188f      	adds	r7, r1, r2
		ptr_get(stdio_base, ptr);
  4001e4:	4e08      	ldr	r6, [pc, #32]	; (400208 <_read+0x34>)
  4001e6:	4d09      	ldr	r5, [pc, #36]	; (40020c <_read+0x38>)
  4001e8:	6830      	ldr	r0, [r6, #0]
  4001ea:	4621      	mov	r1, r4
  4001ec:	682b      	ldr	r3, [r5, #0]
  4001ee:	4798      	blx	r3
		ptr++;
  4001f0:	3401      	adds	r4, #1
	for (; len > 0; --len) {
  4001f2:	42bc      	cmp	r4, r7
  4001f4:	d1f8      	bne.n	4001e8 <_read+0x14>
		nChars++;
	}
	return nChars;
}
  4001f6:	4640      	mov	r0, r8
  4001f8:	e8bd 81f0 	ldmia.w	sp!, {r4, r5, r6, r7, r8, pc}
		return -1;
  4001fc:	f04f 38ff 	mov.w	r8, #4294967295
  400200:	e7f9      	b.n	4001f6 <_read+0x22>
	for (; len > 0; --len) {
  400202:	4680      	mov	r8, r0
  400204:	e7f7      	b.n	4001f6 <_read+0x22>
  400206:	bf00      	nop
  400208:	20400a94 	.word	0x20400a94
  40020c:	20400a8c 	.word	0x20400a8c

00400210 <usart_set_async_baudrate>:
 * \retval 1 Baud rate set point is out of range for the given input clock
 * frequency.
 */
uint32_t usart_set_async_baudrate(Usart *p_usart,
		uint32_t baudrate, uint32_t ul_mck)
{
  400210:	b410      	push	{r4}
	uint32_t cd_fp;
	uint32_t cd;
	uint32_t fp;

	/* Calculate the receiver sampling divide of baudrate clock. */
	if (ul_mck >= HIGH_FRQ_SAMPLE_DIV * baudrate) {
  400212:	010b      	lsls	r3, r1, #4
  400214:	4293      	cmp	r3, r2
  400216:	d914      	bls.n	400242 <usart_set_async_baudrate+0x32>
	} else {
		over = LOW_FRQ_SAMPLE_DIV;
	}

	/* Calculate clock divider according to the fraction calculated formula. */
	cd_fp = (8 * ul_mck + (over * baudrate) / 2) / (over * baudrate);
  400218:	00c9      	lsls	r1, r1, #3
  40021a:	084b      	lsrs	r3, r1, #1
  40021c:	eb03 02c2 	add.w	r2, r3, r2, lsl #3
  400220:	fbb2 f2f1 	udiv	r2, r2, r1
	cd = cd_fp >> 3;
  400224:	08d3      	lsrs	r3, r2, #3
	fp = cd_fp & 0x07;
	if (cd < MIN_CD_VALUE || cd > MAX_CD_VALUE) {
  400226:	1e5c      	subs	r4, r3, #1
  400228:	f64f 71fe 	movw	r1, #65534	; 0xfffe
  40022c:	428c      	cmp	r4, r1
  40022e:	d901      	bls.n	400234 <usart_set_async_baudrate+0x24>
		return 1;
  400230:	2001      	movs	r0, #1
  400232:	e017      	b.n	400264 <usart_set_async_baudrate+0x54>
	}

	/* Configure the OVER bit in MR register. */
	if (over == 8) {
		p_usart->US_MR |= US_MR_OVER;
  400234:	6841      	ldr	r1, [r0, #4]
  400236:	f441 2100 	orr.w	r1, r1, #524288	; 0x80000
  40023a:	6041      	str	r1, [r0, #4]
  40023c:	e00c      	b.n	400258 <usart_set_async_baudrate+0x48>
		return 1;
  40023e:	2001      	movs	r0, #1
  400240:	e010      	b.n	400264 <usart_set_async_baudrate+0x54>
	cd_fp = (8 * ul_mck + (over * baudrate) / 2) / (over * baudrate);
  400242:	0859      	lsrs	r1, r3, #1
  400244:	eb01 02c2 	add.w	r2, r1, r2, lsl #3
  400248:	fbb2 f2f3 	udiv	r2, r2, r3
	cd = cd_fp >> 3;
  40024c:	08d3      	lsrs	r3, r2, #3
	if (cd < MIN_CD_VALUE || cd > MAX_CD_VALUE) {
  40024e:	1e5c      	subs	r4, r3, #1
  400250:	f64f 71fe 	movw	r1, #65534	; 0xfffe
  400254:	428c      	cmp	r4, r1
  400256:	d8f2      	bhi.n	40023e <usart_set_async_baudrate+0x2e>
	}

	/* Configure the baudrate generate register. */
	p_usart->US_BRGR = (cd << US_BRGR_CD_Pos) | (fp << US_BRGR_FP_Pos);
  400258:	0412      	lsls	r2, r2, #16
  40025a:	f402 22e0 	and.w	r2, r2, #458752	; 0x70000
  40025e:	431a      	orrs	r2, r3
  400260:	6202      	str	r2, [r0, #32]

	return 0;
  400262:	2000      	movs	r0, #0
}
  400264:	f85d 4b04 	ldr.w	r4, [sp], #4
  400268:	4770      	bx	lr
	...

0040026c <usart_reset>:
 *
 * \param p_usart Pointer to a USART instance.
 */
void usart_disable_writeprotect(Usart *p_usart)
{
	p_usart->US_WPMR = US_WPMR_WPKEY_PASSWD;
  40026c:	4b08      	ldr	r3, [pc, #32]	; (400290 <usart_reset+0x24>)
  40026e:	f8c0 30e4 	str.w	r3, [r0, #228]	; 0xe4
	p_usart->US_MR = 0;
  400272:	2300      	movs	r3, #0
  400274:	6043      	str	r3, [r0, #4]
	p_usart->US_RTOR = 0;
  400276:	6243      	str	r3, [r0, #36]	; 0x24
	p_usart->US_TTGR = 0;
  400278:	6283      	str	r3, [r0, #40]	; 0x28
	p_usart->US_CR = US_CR_RSTTX | US_CR_TXDIS;
  40027a:	2388      	movs	r3, #136	; 0x88
  40027c:	6003      	str	r3, [r0, #0]
	p_usart->US_CR = US_CR_RSTRX | US_CR_RXDIS;
  40027e:	2324      	movs	r3, #36	; 0x24
  400280:	6003      	str	r3, [r0, #0]
	p_usart->US_CR = US_CR_RSTSTA;
  400282:	f44f 7380 	mov.w	r3, #256	; 0x100
  400286:	6003      	str	r3, [r0, #0]
	p_usart->US_CR = US_CR_RTSDIS;
  400288:	f44f 2300 	mov.w	r3, #524288	; 0x80000
  40028c:	6003      	str	r3, [r0, #0]
  40028e:	4770      	bx	lr
  400290:	55534100 	.word	0x55534100

00400294 <usart_init_rs232>:
{
  400294:	b570      	push	{r4, r5, r6, lr}
  400296:	4605      	mov	r5, r0
  400298:	460c      	mov	r4, r1
  40029a:	4616      	mov	r6, r2
	usart_reset(p_usart);
  40029c:	4b0f      	ldr	r3, [pc, #60]	; (4002dc <usart_init_rs232+0x48>)
  40029e:	4798      	blx	r3
	ul_reg_val = 0;
  4002a0:	2200      	movs	r2, #0
  4002a2:	4b0f      	ldr	r3, [pc, #60]	; (4002e0 <usart_init_rs232+0x4c>)
  4002a4:	601a      	str	r2, [r3, #0]
	if (!p_usart_opt || usart_set_async_baudrate(p_usart,
  4002a6:	b1a4      	cbz	r4, 4002d2 <usart_init_rs232+0x3e>
  4002a8:	4632      	mov	r2, r6
  4002aa:	6821      	ldr	r1, [r4, #0]
  4002ac:	4628      	mov	r0, r5
  4002ae:	4b0d      	ldr	r3, [pc, #52]	; (4002e4 <usart_init_rs232+0x50>)
  4002b0:	4798      	blx	r3
  4002b2:	4602      	mov	r2, r0
  4002b4:	b978      	cbnz	r0, 4002d6 <usart_init_rs232+0x42>
	ul_reg_val |= p_usart_opt->char_length | p_usart_opt->parity_type |
  4002b6:	6863      	ldr	r3, [r4, #4]
  4002b8:	68a1      	ldr	r1, [r4, #8]
  4002ba:	430b      	orrs	r3, r1
  4002bc:	6921      	ldr	r1, [r4, #16]
  4002be:	430b      	orrs	r3, r1
			p_usart_opt->channel_mode | p_usart_opt->stop_bits;
  4002c0:	68e1      	ldr	r1, [r4, #12]
  4002c2:	430b      	orrs	r3, r1
	ul_reg_val |= p_usart_opt->char_length | p_usart_opt->parity_type |
  4002c4:	4906      	ldr	r1, [pc, #24]	; (4002e0 <usart_init_rs232+0x4c>)
  4002c6:	600b      	str	r3, [r1, #0]
	p_usart->US_MR |= ul_reg_val;
  4002c8:	6869      	ldr	r1, [r5, #4]
  4002ca:	430b      	orrs	r3, r1
  4002cc:	606b      	str	r3, [r5, #4]
}
  4002ce:	4610      	mov	r0, r2
  4002d0:	bd70      	pop	{r4, r5, r6, pc}
		return 1;
  4002d2:	2201      	movs	r2, #1
  4002d4:	e7fb      	b.n	4002ce <usart_init_rs232+0x3a>
  4002d6:	2201      	movs	r2, #1
  4002d8:	e7f9      	b.n	4002ce <usart_init_rs232+0x3a>
  4002da:	bf00      	nop
  4002dc:	0040026d 	.word	0x0040026d
  4002e0:	204009dc 	.word	0x204009dc
  4002e4:	00400211 	.word	0x00400211

004002e8 <usart_enable_tx>:
	p_usart->US_CR = US_CR_TXEN;
  4002e8:	2340      	movs	r3, #64	; 0x40
  4002ea:	6003      	str	r3, [r0, #0]
  4002ec:	4770      	bx	lr

004002ee <usart_enable_rx>:
	p_usart->US_CR = US_CR_RXEN;
  4002ee:	2310      	movs	r3, #16
  4002f0:	6003      	str	r3, [r0, #0]
  4002f2:	4770      	bx	lr

004002f4 <usart_write>:
	if (!(p_usart->US_CSR & US_CSR_TXRDY)) {
  4002f4:	6943      	ldr	r3, [r0, #20]
  4002f6:	f013 0f02 	tst.w	r3, #2
  4002fa:	d004      	beq.n	400306 <usart_write+0x12>
	p_usart->US_THR = US_THR_TXCHR(c);
  4002fc:	f3c1 0108 	ubfx	r1, r1, #0, #9
  400300:	61c1      	str	r1, [r0, #28]
	return 0;
  400302:	2000      	movs	r0, #0
  400304:	4770      	bx	lr
		return 1;
  400306:	2001      	movs	r0, #1
}
  400308:	4770      	bx	lr

0040030a <usart_read>:
	if (!(p_usart->US_CSR & US_CSR_RXRDY)) {
  40030a:	6943      	ldr	r3, [r0, #20]
  40030c:	f013 0f01 	tst.w	r3, #1
  400310:	d005      	beq.n	40031e <usart_read+0x14>
	*c = p_usart->US_RHR & US_RHR_RXCHR_Msk;
  400312:	6983      	ldr	r3, [r0, #24]
  400314:	f3c3 0308 	ubfx	r3, r3, #0, #9
  400318:	600b      	str	r3, [r1, #0]
	return 0;
  40031a:	2000      	movs	r0, #0
  40031c:	4770      	bx	lr
		return 1;
  40031e:	2001      	movs	r0, #1
}
  400320:	4770      	bx	lr
	...

00400324 <_write>:
int __attribute__((weak))
_write (int file, const char *ptr, int len)
{
	int nChars = 0;

	if ((file != 1) && (file != 2) && (file!=3)) {
  400324:	3801      	subs	r0, #1
  400326:	2802      	cmp	r0, #2
  400328:	d815      	bhi.n	400356 <_write+0x32>
{
  40032a:	e92d 41f0 	stmdb	sp!, {r4, r5, r6, r7, r8, lr}
  40032e:	460e      	mov	r6, r1
  400330:	4614      	mov	r4, r2
		return -1;
	}

	for (; len != 0; --len) {
  400332:	b19a      	cbz	r2, 40035c <_write+0x38>
  400334:	460d      	mov	r5, r1
		if (ptr_put(stdio_base, *ptr++) < 0) {
  400336:	f8df 8038 	ldr.w	r8, [pc, #56]	; 400370 <_write+0x4c>
  40033a:	4f0c      	ldr	r7, [pc, #48]	; (40036c <_write+0x48>)
  40033c:	f8d8 0000 	ldr.w	r0, [r8]
  400340:	f815 1b01 	ldrb.w	r1, [r5], #1
  400344:	683b      	ldr	r3, [r7, #0]
  400346:	4798      	blx	r3
  400348:	2800      	cmp	r0, #0
  40034a:	db0a      	blt.n	400362 <_write+0x3e>
  40034c:	1ba8      	subs	r0, r5, r6
	for (; len != 0; --len) {
  40034e:	3c01      	subs	r4, #1
  400350:	d1f4      	bne.n	40033c <_write+0x18>
  400352:	e8bd 81f0 	ldmia.w	sp!, {r4, r5, r6, r7, r8, pc}
		return -1;
  400356:	f04f 30ff 	mov.w	r0, #4294967295
  40035a:	4770      	bx	lr
	for (; len != 0; --len) {
  40035c:	4610      	mov	r0, r2
  40035e:	e8bd 81f0 	ldmia.w	sp!, {r4, r5, r6, r7, r8, pc}
			return -1;
  400362:	f04f 30ff 	mov.w	r0, #4294967295
		}
		++nChars;
	}
	return nChars;
}
  400366:	e8bd 81f0 	ldmia.w	sp!, {r4, r5, r6, r7, r8, pc}
  40036a:	bf00      	nop
  40036c:	20400a90 	.word	0x20400a90
  400370:	20400a94 	.word	0x20400a94

00400374 <spi_enable_clock>:
 * \brief Enable SPI clock.
 *
 * \param p_spi Pointer to an SPI instance.
 */
void spi_enable_clock(Spi *p_spi)
{
  400374:	b508      	push	{r3, lr}
#if (SAM4S || SAM3S || SAM3N || SAM3U || SAM4E || SAM4N || SAMG51|| SAMG53|| SAMG54)
	UNUSED(p_spi);
	sysclk_enable_peripheral_clock(ID_SPI);
#elif (SAM3XA || SAM4C || SAM4CP || SAM4CM || SAMV71 || SAMV70 || SAME70 || SAMS70)
	if (p_spi == SPI0) {
  400376:	4b07      	ldr	r3, [pc, #28]	; (400394 <spi_enable_clock+0x20>)
  400378:	4298      	cmp	r0, r3
  40037a:	d003      	beq.n	400384 <spi_enable_clock+0x10>
		sysclk_enable_peripheral_clock(ID_SPI0);
	}
	#ifdef SPI1
	else if (p_spi == SPI1) {
  40037c:	4b06      	ldr	r3, [pc, #24]	; (400398 <spi_enable_clock+0x24>)
  40037e:	4298      	cmp	r0, r3
  400380:	d004      	beq.n	40038c <spi_enable_clock+0x18>
  400382:	bd08      	pop	{r3, pc}
 *
 * \param ul_id Id (number) of the peripheral clock.
 */
static inline void sysclk_enable_peripheral_clock(uint32_t ul_id)
{
	pmc_enable_periph_clk(ul_id);
  400384:	2015      	movs	r0, #21
  400386:	4b05      	ldr	r3, [pc, #20]	; (40039c <spi_enable_clock+0x28>)
  400388:	4798      	blx	r3
  40038a:	bd08      	pop	{r3, pc}
  40038c:	202a      	movs	r0, #42	; 0x2a
  40038e:	4b03      	ldr	r3, [pc, #12]	; (40039c <spi_enable_clock+0x28>)
  400390:	4798      	blx	r3
	}
	#endif
#elif SAM4L
	sysclk_enable_peripheral_clock(p_spi);
#endif
}
  400392:	e7f6      	b.n	400382 <spi_enable_clock+0xe>
  400394:	40008000 	.word	0x40008000
  400398:	40058000 	.word	0x40058000
  40039c:	00400941 	.word	0x00400941

004003a0 <spi_set_peripheral_chip_select_value>:
 *                 \ref spi_enable_peripheral_select_decode,
 *                 \ref spi_disable_peripheral_select_decode.
 */
void spi_set_peripheral_chip_select_value(Spi *p_spi, uint32_t ul_value)
{
	p_spi->SPI_MR &= (~SPI_MR_PCS_Msk);
  4003a0:	6843      	ldr	r3, [r0, #4]
  4003a2:	f423 2370 	bic.w	r3, r3, #983040	; 0xf0000
  4003a6:	6043      	str	r3, [r0, #4]
	p_spi->SPI_MR |= SPI_MR_PCS(ul_value);
  4003a8:	6843      	ldr	r3, [r0, #4]
  4003aa:	0409      	lsls	r1, r1, #16
  4003ac:	f401 2170 	and.w	r1, r1, #983040	; 0xf0000
  4003b0:	4319      	orrs	r1, r3
  4003b2:	6041      	str	r1, [r0, #4]
  4003b4:	4770      	bx	lr

004003b6 <spi_read>:
 *
 * \retval SPI_OK on Success.
 * \retval SPI_ERROR_TIMEOUT on Time-out.
 */
spi_status_t spi_read(Spi *p_spi, uint16_t *us_data, uint8_t *p_pcs)
{
  4003b6:	b410      	push	{r4}
	uint32_t timeout = SPI_TIMEOUT;
	static uint32_t reg_value;

	while (!(p_spi->SPI_SR & SPI_SR_RDRF)) {
  4003b8:	f643 2399 	movw	r3, #15001	; 0x3a99
  4003bc:	6904      	ldr	r4, [r0, #16]
  4003be:	f014 0f01 	tst.w	r4, #1
  4003c2:	d103      	bne.n	4003cc <spi_read+0x16>
		if (!timeout--) {
  4003c4:	3b01      	subs	r3, #1
  4003c6:	d1f9      	bne.n	4003bc <spi_read+0x6>
			return SPI_ERROR_TIMEOUT;
  4003c8:	2001      	movs	r0, #1
  4003ca:	e009      	b.n	4003e0 <spi_read+0x2a>
		}
	}

	reg_value = p_spi->SPI_RDR;
  4003cc:	6883      	ldr	r3, [r0, #8]
 *
 * \return 1 for Variable mode, 0 for fixed mode.
 */
static inline uint32_t spi_get_peripheral_select_mode(Spi *p_spi)
{
	if (p_spi->SPI_MR & SPI_MR_PS) {
  4003ce:	6840      	ldr	r0, [r0, #4]
	if (spi_get_peripheral_select_mode(p_spi)) {
  4003d0:	f010 0f02 	tst.w	r0, #2
  4003d4:	d002      	beq.n	4003dc <spi_read+0x26>
		*p_pcs = (uint8_t) ((reg_value & SPI_RDR_PCS_Msk) >> SPI_RDR_PCS_Pos);
  4003d6:	f3c3 4003 	ubfx	r0, r3, #16, #4
  4003da:	7010      	strb	r0, [r2, #0]
	}
	*us_data = (uint16_t) (reg_value & SPI_RDR_RD_Msk);
  4003dc:	800b      	strh	r3, [r1, #0]

	return SPI_OK;
  4003de:	2000      	movs	r0, #0
}
  4003e0:	f85d 4b04 	ldr.w	r4, [sp], #4
  4003e4:	4770      	bx	lr

004003e6 <spi_write>:
 * \retval SPI_OK on Success.
 * \retval SPI_ERROR_TIMEOUT on Time-out.
 */
spi_status_t spi_write(Spi *p_spi, uint16_t us_data,
		uint8_t uc_pcs, uint8_t uc_last)
{
  4003e6:	b430      	push	{r4, r5}
	uint32_t timeout = SPI_TIMEOUT;
	uint32_t value;

	while (!(p_spi->SPI_SR & SPI_SR_TDRE)) {
  4003e8:	f643 2499 	movw	r4, #15001	; 0x3a99
  4003ec:	6905      	ldr	r5, [r0, #16]
  4003ee:	f015 0f02 	tst.w	r5, #2
  4003f2:	d103      	bne.n	4003fc <spi_write+0x16>
		if (!timeout--) {
  4003f4:	3c01      	subs	r4, #1
  4003f6:	d1f9      	bne.n	4003ec <spi_write+0x6>
			return SPI_ERROR_TIMEOUT;
  4003f8:	2001      	movs	r0, #1
  4003fa:	e00c      	b.n	400416 <spi_write+0x30>
  4003fc:	6844      	ldr	r4, [r0, #4]
		}
	}

	if (spi_get_peripheral_select_mode(p_spi)) {
  4003fe:	f014 0f02 	tst.w	r4, #2
  400402:	d006      	beq.n	400412 <spi_write+0x2c>
		value = SPI_TDR_TD(us_data) | SPI_TDR_PCS(uc_pcs);
  400404:	0412      	lsls	r2, r2, #16
  400406:	f402 2270 	and.w	r2, r2, #983040	; 0xf0000
  40040a:	4311      	orrs	r1, r2
		if (uc_last) {
  40040c:	b10b      	cbz	r3, 400412 <spi_write+0x2c>
			value |= SPI_TDR_LASTXFER;
  40040e:	f041 7180 	orr.w	r1, r1, #16777216	; 0x1000000
		}
	} else {
		value = SPI_TDR_TD(us_data);
	}

	p_spi->SPI_TDR = value;
  400412:	60c1      	str	r1, [r0, #12]

	return SPI_OK;
  400414:	2000      	movs	r0, #0
}
  400416:	bc30      	pop	{r4, r5}
  400418:	4770      	bx	lr

0040041a <spi_set_clock_polarity>:
 * \param ul_polarity Default clock state is logical one(high)/zero(low).
 */
void spi_set_clock_polarity(Spi *p_spi, uint32_t ul_pcs_ch,
		uint32_t ul_polarity)
{
	if (ul_polarity) {
  40041a:	b932      	cbnz	r2, 40042a <spi_set_clock_polarity+0x10>
  40041c:	eb00 0081 	add.w	r0, r0, r1, lsl #2
		p_spi->SPI_CSR[ul_pcs_ch] |= SPI_CSR_CPOL;
	} else {
		p_spi->SPI_CSR[ul_pcs_ch] &= (~SPI_CSR_CPOL);
  400420:	6b03      	ldr	r3, [r0, #48]	; 0x30
  400422:	f023 0301 	bic.w	r3, r3, #1
  400426:	6303      	str	r3, [r0, #48]	; 0x30
  400428:	4770      	bx	lr
  40042a:	eb00 0081 	add.w	r0, r0, r1, lsl #2
		p_spi->SPI_CSR[ul_pcs_ch] |= SPI_CSR_CPOL;
  40042e:	6b03      	ldr	r3, [r0, #48]	; 0x30
  400430:	f043 0301 	orr.w	r3, r3, #1
  400434:	6303      	str	r3, [r0, #48]	; 0x30
  400436:	4770      	bx	lr

00400438 <spi_set_clock_phase>:
 *  \param ul_pcs_ch Peripheral Chip Select channel (0~3).
 *  \param ul_phase Data capture on the rising/falling edge of clock.
 */
void spi_set_clock_phase(Spi *p_spi, uint32_t ul_pcs_ch, uint32_t ul_phase)
{
	if (ul_phase) {
  400438:	b932      	cbnz	r2, 400448 <spi_set_clock_phase+0x10>
  40043a:	eb00 0081 	add.w	r0, r0, r1, lsl #2
		p_spi->SPI_CSR[ul_pcs_ch] |= SPI_CSR_NCPHA;
	} else {
		p_spi->SPI_CSR[ul_pcs_ch] &= (~SPI_CSR_NCPHA);
  40043e:	6b03      	ldr	r3, [r0, #48]	; 0x30
  400440:	f023 0302 	bic.w	r3, r3, #2
  400444:	6303      	str	r3, [r0, #48]	; 0x30
  400446:	4770      	bx	lr
  400448:	eb00 0081 	add.w	r0, r0, r1, lsl #2
		p_spi->SPI_CSR[ul_pcs_ch] |= SPI_CSR_NCPHA;
  40044c:	6b03      	ldr	r3, [r0, #48]	; 0x30
  40044e:	f043 0302 	orr.w	r3, r3, #2
  400452:	6303      	str	r3, [r0, #48]	; 0x30
  400454:	4770      	bx	lr

00400456 <spi_set_bits_per_transfer>:
 * \param ul_bits Number of bits (8~16), use the pattern defined
 *        in the device header file.
 */
void spi_set_bits_per_transfer(Spi *p_spi, uint32_t ul_pcs_ch,
		uint32_t ul_bits)
{
  400456:	eb00 0181 	add.w	r1, r0, r1, lsl #2
	p_spi->SPI_CSR[ul_pcs_ch] &= (~SPI_CSR_BITS_Msk);
  40045a:	6b0b      	ldr	r3, [r1, #48]	; 0x30
  40045c:	f023 03f0 	bic.w	r3, r3, #240	; 0xf0
  400460:	630b      	str	r3, [r1, #48]	; 0x30
	p_spi->SPI_CSR[ul_pcs_ch] |= ul_bits;
  400462:	6b0b      	ldr	r3, [r1, #48]	; 0x30
  400464:	431a      	orrs	r2, r3
  400466:	630a      	str	r2, [r1, #48]	; 0x30
  400468:	4770      	bx	lr

0040046a <spi_set_baudrate_div>:
 */
int16_t spi_set_baudrate_div(Spi *p_spi, uint32_t ul_pcs_ch,
		uint8_t uc_baudrate_divider)
{
    /* Programming the SCBR field to 0 is forbidden */
    if (!uc_baudrate_divider){
  40046a:	b17a      	cbz	r2, 40048c <spi_set_baudrate_div+0x22>
{
  40046c:	b410      	push	{r4}
  40046e:	4614      	mov	r4, r2
  400470:	eb00 0181 	add.w	r1, r0, r1, lsl #2
        return -1;
	}
	p_spi->SPI_CSR[ul_pcs_ch] &= (~SPI_CSR_SCBR_Msk);
  400474:	6b0b      	ldr	r3, [r1, #48]	; 0x30
  400476:	f423 437f 	bic.w	r3, r3, #65280	; 0xff00
  40047a:	630b      	str	r3, [r1, #48]	; 0x30
	p_spi->SPI_CSR[ul_pcs_ch] |= SPI_CSR_SCBR(uc_baudrate_divider);
  40047c:	6b0a      	ldr	r2, [r1, #48]	; 0x30
  40047e:	ea42 2204 	orr.w	r2, r2, r4, lsl #8
  400482:	630a      	str	r2, [r1, #48]	; 0x30
    return 0;
  400484:	2000      	movs	r0, #0
}
  400486:	f85d 4b04 	ldr.w	r4, [sp], #4
  40048a:	4770      	bx	lr
        return -1;
  40048c:	f04f 30ff 	mov.w	r0, #4294967295
  400490:	4770      	bx	lr

00400492 <spi_set_transfer_delay>:
 * \param uc_dlybs Delay before SPCK (in number of MCK clocks).
 * \param uc_dlybct Delay between consecutive transfers (in number of MCK clocks).
 */
void spi_set_transfer_delay(Spi *p_spi, uint32_t ul_pcs_ch,
		uint8_t uc_dlybs, uint8_t uc_dlybct)
{
  400492:	b410      	push	{r4}
  400494:	eb00 0181 	add.w	r1, r0, r1, lsl #2
	p_spi->SPI_CSR[ul_pcs_ch] &= ~(SPI_CSR_DLYBS_Msk | SPI_CSR_DLYBCT_Msk);
  400498:	6b08      	ldr	r0, [r1, #48]	; 0x30
  40049a:	b280      	uxth	r0, r0
  40049c:	6308      	str	r0, [r1, #48]	; 0x30
	p_spi->SPI_CSR[ul_pcs_ch] |= SPI_CSR_DLYBS(uc_dlybs)
  40049e:	6b0c      	ldr	r4, [r1, #48]	; 0x30
  4004a0:	ea44 6303 	orr.w	r3, r4, r3, lsl #24
  4004a4:	ea43 4302 	orr.w	r3, r3, r2, lsl #16
  4004a8:	630b      	str	r3, [r1, #48]	; 0x30
			| SPI_CSR_DLYBCT(uc_dlybct);
}
  4004aa:	f85d 4b04 	ldr.w	r4, [sp], #4
  4004ae:	4770      	bx	lr

004004b0 <uart_write>:
 * \retval 1 I/O Failure, UART is not ready.
 */
uint32_t uart_write(Uart *p_uart, const uint8_t uc_data)
{
	/* Check if the transmitter is ready */
	if (!(p_uart->UART_SR & UART_SR_TXRDY))
  4004b0:	6943      	ldr	r3, [r0, #20]
  4004b2:	f013 0f02 	tst.w	r3, #2
  4004b6:	d002      	beq.n	4004be <uart_write+0xe>
		return 1;

	/* Send character */
	p_uart->UART_THR = uc_data;
  4004b8:	61c1      	str	r1, [r0, #28]
	return 0;
  4004ba:	2000      	movs	r0, #0
  4004bc:	4770      	bx	lr
		return 1;
  4004be:	2001      	movs	r0, #1
}
  4004c0:	4770      	bx	lr

004004c2 <uart_read>:
 * \retval 1 I/O Failure, UART is not ready.
 */
uint32_t uart_read(Uart *p_uart, uint8_t *puc_data)
{
	/* Check if the receiver is ready */
	if ((p_uart->UART_SR & UART_SR_RXRDY) == 0)
  4004c2:	6943      	ldr	r3, [r0, #20]
  4004c4:	f013 0f01 	tst.w	r3, #1
  4004c8:	d003      	beq.n	4004d2 <uart_read+0x10>
		return 1;

	/* Read character */
	*puc_data = (uint8_t) p_uart->UART_RHR;
  4004ca:	6983      	ldr	r3, [r0, #24]
  4004cc:	700b      	strb	r3, [r1, #0]
	return 0;
  4004ce:	2000      	movs	r0, #0
  4004d0:	4770      	bx	lr
		return 1;
  4004d2:	2001      	movs	r0, #1
}
  4004d4:	4770      	bx	lr
	...

004004d8 <sysclk_init>:
	pmc_disable_udpck();
}
#endif // CONFIG_USBCLK_SOURCE

void sysclk_init(void)
{
  4004d8:	b510      	push	{r4, lr}
	struct pll_config pllcfg;

	/* Set flash wait state to max in case the below clock switching. */
	system_init_flash(CHIP_FREQ_CPU_MAX/2);
  4004da:	4810      	ldr	r0, [pc, #64]	; (40051c <sysclk_init+0x44>)
  4004dc:	4b10      	ldr	r3, [pc, #64]	; (400520 <sysclk_init+0x48>)
  4004de:	4798      	blx	r3
		pmc_switch_mainck_to_fastrc(CKGR_MOR_MOSCRCF_12_MHz);
		break;


	case OSC_MAINCK_XTAL:
		pmc_switch_mainck_to_xtal(PMC_OSC_XTAL,
  4004e0:	213e      	movs	r1, #62	; 0x3e
  4004e2:	2000      	movs	r0, #0
  4004e4:	4b0f      	ldr	r3, [pc, #60]	; (400524 <sysclk_init+0x4c>)
  4004e6:	4798      	blx	r3
	case OSC_MAINCK_4M_RC:
	case OSC_MAINCK_8M_RC:
	case OSC_MAINCK_12M_RC:
	case OSC_MAINCK_XTAL:
	case OSC_MAINCK_BYPASS:
		return pmc_osc_is_ready_mainck();
  4004e8:	4c0f      	ldr	r4, [pc, #60]	; (400528 <sysclk_init+0x50>)
  4004ea:	47a0      	blx	r4
 *
 * \param id A number identifying the oscillator to wait for.
 */
static inline void osc_wait_ready(uint8_t id)
{
	while (!osc_is_ready(id)) {
  4004ec:	2800      	cmp	r0, #0
  4004ee:	d0fc      	beq.n	4004ea <sysclk_init+0x12>
static inline void pll_enable(const struct pll_config *p_cfg, uint32_t ul_pll_id)
{
	Assert(ul_pll_id < NR_PLLS);

	if (ul_pll_id == PLLA_ID) {
		pmc_disable_pllack(); // Always stop PLL first!
  4004f0:	4b0e      	ldr	r3, [pc, #56]	; (40052c <sysclk_init+0x54>)
  4004f2:	4798      	blx	r3
		PMC->CKGR_PLLAR = CKGR_PLLAR_ONE | p_cfg->ctrl;
  4004f4:	4a0e      	ldr	r2, [pc, #56]	; (400530 <sysclk_init+0x58>)
  4004f6:	4b0f      	ldr	r3, [pc, #60]	; (400534 <sysclk_init+0x5c>)
  4004f8:	629a      	str	r2, [r3, #40]	; 0x28
static inline uint32_t pll_is_locked(uint32_t ul_pll_id)
{
	Assert(ul_pll_id < NR_PLLS);

	if (ul_pll_id == PLLA_ID) {
	return pmc_is_locked_pllack();
  4004fa:	4c0f      	ldr	r4, [pc, #60]	; (400538 <sysclk_init+0x60>)
  4004fc:	47a0      	blx	r4
 */
static inline int pll_wait_for_lock(unsigned int pll_id)
{
	Assert(pll_id < NR_PLLS);

	while (!pll_is_locked(pll_id)) {
  4004fe:	2800      	cmp	r0, #0
  400500:	d0fc      	beq.n	4004fc <sysclk_init+0x24>
	else if (CONFIG_SYSCLK_SOURCE == SYSCLK_SRC_PLLACK) {
		pll_enable_source(CONFIG_PLL0_SOURCE);
		pll_config_defaults(&pllcfg, 0);
		pll_enable(&pllcfg, 0);
		pll_wait_for_lock(0);
		pmc_mck_set_division(CONFIG_SYSCLK_DIV);
  400502:	2002      	movs	r0, #2
  400504:	4b0d      	ldr	r3, [pc, #52]	; (40053c <sysclk_init+0x64>)
  400506:	4798      	blx	r3
		pmc_switch_mck_to_pllack(CONFIG_SYSCLK_PRES);
  400508:	2000      	movs	r0, #0
  40050a:	4b0d      	ldr	r3, [pc, #52]	; (400540 <sysclk_init+0x68>)
  40050c:	4798      	blx	r3
		pll_wait_for_lock(1);
		pmc_mck_set_division(CONFIG_SYSCLK_DIV);
		pmc_switch_mck_to_upllck(CONFIG_SYSCLK_PRES);
	}
	/* Update the SystemFrequency variable */
	SystemCoreClockUpdate();
  40050e:	4b0d      	ldr	r3, [pc, #52]	; (400544 <sysclk_init+0x6c>)
  400510:	4798      	blx	r3

	/* Set a flash wait state depending on the master clock frequency */
	system_init_flash(sysclk_get_cpu_hz() / CONFIG_SYSCLK_DIV);
  400512:	4802      	ldr	r0, [pc, #8]	; (40051c <sysclk_init+0x44>)
  400514:	4b02      	ldr	r3, [pc, #8]	; (400520 <sysclk_init+0x48>)
  400516:	4798      	blx	r3
  400518:	bd10      	pop	{r4, pc}
  40051a:	bf00      	nop
  40051c:	08f0d180 	.word	0x08f0d180
  400520:	00400b39 	.word	0x00400b39
  400524:	004008bd 	.word	0x004008bd
  400528:	00400911 	.word	0x00400911
  40052c:	00400921 	.word	0x00400921
  400530:	20183f01 	.word	0x20183f01
  400534:	400e0600 	.word	0x400e0600
  400538:	00400931 	.word	0x00400931
  40053c:	00400821 	.word	0x00400821
  400540:	00400859 	.word	0x00400859
  400544:	00400a2d 	.word	0x00400a2d

00400548 <board_init>:
	__ISB();
}
#endif

void board_init(void)
{
  400548:	b5f8      	push	{r3, r4, r5, r6, r7, lr}
#ifndef CONF_BOARD_KEEP_WATCHDOG_AT_INIT
	/* Disable the watchdog */
	WDT->WDT_MR = WDT_MR_WDDIS;
  40054a:	f44f 4200 	mov.w	r2, #32768	; 0x8000
  40054e:	4b7d      	ldr	r3, [pc, #500]	; (400744 <board_init+0x1fc>)
  400550:	605a      	str	r2, [r3, #4]
  \details Acts as a special kind of Data Memory Barrier.
           It completes when all explicit memory accesses before this instruction complete.
 */
__STATIC_FORCEINLINE void __DSB(void)
{
  __ASM volatile ("dsb 0xF":::"memory");
  400552:	f3bf 8f4f 	dsb	sy
  __ASM volatile ("isb 0xF":::"memory");
  400556:	f3bf 8f6f 	isb	sy
__STATIC_INLINE void SCB_EnableICache (void)
{
  #if defined (__ICACHE_PRESENT) && (__ICACHE_PRESENT == 1U)
    __DSB();
    __ISB();
    SCB->ICIALLU = 0UL;                     /* invalidate I-Cache */
  40055a:	4b7b      	ldr	r3, [pc, #492]	; (400748 <board_init+0x200>)
  40055c:	2100      	movs	r1, #0
  40055e:	f8c3 1250 	str.w	r1, [r3, #592]	; 0x250
  __ASM volatile ("dsb 0xF":::"memory");
  400562:	f3bf 8f4f 	dsb	sy
  __ASM volatile ("isb 0xF":::"memory");
  400566:	f3bf 8f6f 	isb	sy
    __DSB();
    __ISB();
    SCB->CCR |=  (uint32_t)SCB_CCR_IC_Msk;  /* enable I-Cache */
  40056a:	695a      	ldr	r2, [r3, #20]
  40056c:	f442 3200 	orr.w	r2, r2, #131072	; 0x20000
  400570:	615a      	str	r2, [r3, #20]
  __ASM volatile ("dsb 0xF":::"memory");
  400572:	f3bf 8f4f 	dsb	sy
  __ASM volatile ("isb 0xF":::"memory");
  400576:	f3bf 8f6f 	isb	sy
  #if defined (__DCACHE_PRESENT) && (__DCACHE_PRESENT == 1U)
    uint32_t ccsidr;
    uint32_t sets;
    uint32_t ways;

    SCB->CSSELR = 0U; /*(0U << 1U) | 0U;*/  /* Level 1 data cache */
  40057a:	f8c3 1084 	str.w	r1, [r3, #132]	; 0x84
  __ASM volatile ("dsb 0xF":::"memory");
  40057e:	f3bf 8f4f 	dsb	sy
    __DSB();

    ccsidr = SCB->CCSIDR;
  400582:	f8d3 7080 	ldr.w	r7, [r3, #128]	; 0x80

                                            /* invalidate D-Cache */
    sets = (uint32_t)(CCSIDR_SETS(ccsidr));
  400586:	f3c7 354e 	ubfx	r5, r7, #13, #15
    do {
      ways = (uint32_t)(CCSIDR_WAYS(ccsidr));
  40058a:	f3c7 07c9 	ubfx	r7, r7, #3, #10
  40058e:	016e      	lsls	r6, r5, #5
  400590:	ea4f 7c87 	mov.w	ip, r7, lsl #30
      do {
        SCB->DCISW = (((sets << SCB_DCISW_SET_Pos) & SCB_DCISW_SET_Msk) |
  400594:	f643 7ee0 	movw	lr, #16352	; 0x3fe0
  400598:	461c      	mov	r4, r3
  40059a:	ea06 000e 	and.w	r0, r6, lr
  40059e:	4662      	mov	r2, ip
      ways = (uint32_t)(CCSIDR_WAYS(ccsidr));
  4005a0:	463b      	mov	r3, r7
        SCB->DCISW = (((sets << SCB_DCISW_SET_Pos) & SCB_DCISW_SET_Msk) |
  4005a2:	ea40 0102 	orr.w	r1, r0, r2
  4005a6:	f8c4 1260 	str.w	r1, [r4, #608]	; 0x260
                      ((ways << SCB_DCISW_WAY_Pos) & SCB_DCISW_WAY_Msk)  );
        #if defined ( __CC_ARM )
          __schedule_barrier();
        #endif
      } while (ways-- != 0U);
  4005aa:	3b01      	subs	r3, #1
  4005ac:	f102 4240 	add.w	r2, r2, #3221225472	; 0xc0000000
  4005b0:	f1b3 3fff 	cmp.w	r3, #4294967295
  4005b4:	d1f5      	bne.n	4005a2 <board_init+0x5a>
    } while(sets-- != 0U);
  4005b6:	3d01      	subs	r5, #1
  4005b8:	3e20      	subs	r6, #32
  4005ba:	f1b5 3fff 	cmp.w	r5, #4294967295
  4005be:	d1ec      	bne.n	40059a <board_init+0x52>
  4005c0:	f3bf 8f4f 	dsb	sy
    __DSB();

    SCB->CCR |=  (uint32_t)SCB_CCR_DC_Msk;  /* enable D-Cache */
  4005c4:	4b60      	ldr	r3, [pc, #384]	; (400748 <board_init+0x200>)
  4005c6:	695a      	ldr	r2, [r3, #20]
  4005c8:	f442 3280 	orr.w	r2, r2, #65536	; 0x10000
  4005cc:	615a      	str	r2, [r3, #20]
  4005ce:	f3bf 8f4f 	dsb	sy
  __ASM volatile ("isb 0xF":::"memory");
  4005d2:	f3bf 8f6f 	isb	sy
		*dst++ = *src++;
	}
#endif
#else
	/* TCM Configuration */
	EFC->EEFC_FCR = (EEFC_FCR_FKEY_PASSWD | EEFC_FCR_FCMD_CGPB 
  4005d6:	4a5d      	ldr	r2, [pc, #372]	; (40074c <board_init+0x204>)
  4005d8:	495d      	ldr	r1, [pc, #372]	; (400750 <board_init+0x208>)
  4005da:	6051      	str	r1, [r2, #4]
					| EEFC_FCR_FARG(8));
	EFC->EEFC_FCR = (EEFC_FCR_FKEY_PASSWD | EEFC_FCR_FCMD_CGPB 
  4005dc:	f5a1 7180 	sub.w	r1, r1, #256	; 0x100
  4005e0:	6051      	str	r1, [r2, #4]
  __ASM volatile ("dsb 0xF":::"memory");
  4005e2:	f3bf 8f4f 	dsb	sy
  __ASM volatile ("isb 0xF":::"memory");
  4005e6:	f3bf 8f6f 	isb	sy
	SCB->ITCMCR &= ~(uint32_t)(1UL);
  4005ea:	f8d3 2290 	ldr.w	r2, [r3, #656]	; 0x290
  4005ee:	f022 0201 	bic.w	r2, r2, #1
  4005f2:	f8c3 2290 	str.w	r2, [r3, #656]	; 0x290
	SCB->DTCMCR &= ~(uint32_t)SCB_DTCMCR_EN_Msk;
  4005f6:	f8d3 2294 	ldr.w	r2, [r3, #660]	; 0x294
  4005fa:	f022 0201 	bic.w	r2, r2, #1
  4005fe:	f8c3 2294 	str.w	r2, [r3, #660]	; 0x294
  __ASM volatile ("dsb 0xF":::"memory");
  400602:	f3bf 8f4f 	dsb	sy
  __ASM volatile ("isb 0xF":::"memory");
  400606:	f3bf 8f6f 	isb	sy
  40060a:	200a      	movs	r0, #10
  40060c:	4c51      	ldr	r4, [pc, #324]	; (400754 <board_init+0x20c>)
  40060e:	47a0      	blx	r4
  400610:	200b      	movs	r0, #11
  400612:	47a0      	blx	r4
  400614:	200c      	movs	r0, #12
  400616:	47a0      	blx	r4
  400618:	2010      	movs	r0, #16
  40061a:	47a0      	blx	r4
  40061c:	2011      	movs	r0, #17
  40061e:	47a0      	blx	r4
		enum ioport_direction dir)
{
	Pio *base = arch_ioport_pin_to_base(pin);

	if (dir == IOPORT_DIR_OUTPUT) {
		base->PIO_OER = arch_ioport_pin_to_mask(pin);
  400620:	4b4d      	ldr	r3, [pc, #308]	; (400758 <board_init+0x210>)
  400622:	f44f 7280 	mov.w	r2, #256	; 0x100
  400626:	611a      	str	r2, [r3, #16]
	} else if (dir == IOPORT_DIR_INPUT) {
		base->PIO_ODR = arch_ioport_pin_to_mask(pin);
	}

	base->PIO_OWER = arch_ioport_pin_to_mask(pin);
  400628:	f8c3 20a0 	str.w	r2, [r3, #160]	; 0xa0
		bool level)
{
	Pio *base = arch_ioport_pin_to_base(pin);

	if (level) {
		base->PIO_SODR = arch_ioport_pin_to_mask(pin);
  40062c:	631a      	str	r2, [r3, #48]	; 0x30
		base->PIO_ODR = arch_ioport_pin_to_mask(pin);
  40062e:	f5a3 6380 	sub.w	r3, r3, #1024	; 0x400
  400632:	f44f 6200 	mov.w	r2, #2048	; 0x800
  400636:	615a      	str	r2, [r3, #20]
	base->PIO_OWER = arch_ioport_pin_to_mask(pin);
  400638:	f8c3 20a0 	str.w	r2, [r3, #160]	; 0xa0
		base->PIO_PUER = mask;
  40063c:	665a      	str	r2, [r3, #100]	; 0x64
		base->PIO_PPDDR = mask;
  40063e:	f8c3 2090 	str.w	r2, [r3, #144]	; 0x90
		base->PIO_MDDR = mask;
  400642:	655a      	str	r2, [r3, #84]	; 0x54
		base->PIO_IFER = mask;
  400644:	621a      	str	r2, [r3, #32]
		base->PIO_IFSCER = mask;
  400646:	f8c3 2084 	str.w	r2, [r3, #132]	; 0x84
		base->PIO_ABCDSR[0] &= ~mask;
  40064a:	6f19      	ldr	r1, [r3, #112]	; 0x70
  40064c:	f421 6100 	bic.w	r1, r1, #2048	; 0x800
  400650:	6719      	str	r1, [r3, #112]	; 0x70
		base->PIO_ABCDSR[1] &= ~mask;
  400652:	6f59      	ldr	r1, [r3, #116]	; 0x74
  400654:	f421 6100 	bic.w	r1, r1, #2048	; 0x800
  400658:	6759      	str	r1, [r3, #116]	; 0x74
	case IOPORT_SENSE_FALLING:
		base->PIO_ESR = mask;
		base->PIO_FELLSR = mask;
		break;
	case IOPORT_SENSE_RISING:
		base->PIO_ESR = mask;
  40065a:	f8c3 20c0 	str.w	r2, [r3, #192]	; 0xc0
		base->PIO_REHLSR = mask;
  40065e:	f8c3 20d4 	str.w	r2, [r3, #212]	; 0xd4
		break;
	default:
		base->PIO_AIMDR = mask;
		return;
	}
	base->PIO_AIMER = mask;
  400662:	f8c3 20b0 	str.w	r2, [r3, #176]	; 0xb0
		base->PIO_PUDR = mask;
  400666:	f44f 1200 	mov.w	r2, #2097152	; 0x200000
  40066a:	661a      	str	r2, [r3, #96]	; 0x60
		base->PIO_PPDDR = mask;
  40066c:	f8c3 2090 	str.w	r2, [r3, #144]	; 0x90
		base->PIO_MDDR = mask;
  400670:	655a      	str	r2, [r3, #84]	; 0x54
		base->PIO_IFDR = mask;
  400672:	625a      	str	r2, [r3, #36]	; 0x24
		base->PIO_IFSCDR = mask;
  400674:	f8c3 2080 	str.w	r2, [r3, #128]	; 0x80
		base->PIO_ABCDSR[0] &= ~mask;
  400678:	6f19      	ldr	r1, [r3, #112]	; 0x70
  40067a:	f421 1100 	bic.w	r1, r1, #2097152	; 0x200000
  40067e:	6719      	str	r1, [r3, #112]	; 0x70
		base->PIO_ABCDSR[1] &= ~mask;
  400680:	6f59      	ldr	r1, [r3, #116]	; 0x74
  400682:	f421 1100 	bic.w	r1, r1, #2097152	; 0x200000
  400686:	6759      	str	r1, [r3, #116]	; 0x74
	arch_ioport_port_to_base(port)->PIO_PDR = mask;
  400688:	605a      	str	r2, [r3, #4]
			GPIO_PUSH_BUTTON_1_SENSE);

#ifdef CONF_BOARD_UART_CONSOLE
	/* Configure UART pins */
	ioport_set_pin_peripheral_mode(USART1_RXD_GPIO, USART1_RXD_FLAGS);
	MATRIX->CCFG_SYSIO |= CCFG_SYSIO_SYSIO4;
  40068a:	4934      	ldr	r1, [pc, #208]	; (40075c <board_init+0x214>)
  40068c:	f8d1 3114 	ldr.w	r3, [r1, #276]	; 0x114
  400690:	f043 0310 	orr.w	r3, r3, #16
  400694:	f8c1 3114 	str.w	r3, [r1, #276]	; 0x114
		base->PIO_PUDR = mask;
  400698:	4b31      	ldr	r3, [pc, #196]	; (400760 <board_init+0x218>)
  40069a:	2110      	movs	r1, #16
  40069c:	6619      	str	r1, [r3, #96]	; 0x60
		base->PIO_PPDDR = mask;
  40069e:	f8c3 1090 	str.w	r1, [r3, #144]	; 0x90
		base->PIO_MDDR = mask;
  4006a2:	6559      	str	r1, [r3, #84]	; 0x54
		base->PIO_IFDR = mask;
  4006a4:	6259      	str	r1, [r3, #36]	; 0x24
		base->PIO_IFSCDR = mask;
  4006a6:	f8c3 1080 	str.w	r1, [r3, #128]	; 0x80
		base->PIO_ABCDSR[0] |= mask;
  4006aa:	6f18      	ldr	r0, [r3, #112]	; 0x70
  4006ac:	4308      	orrs	r0, r1
  4006ae:	6718      	str	r0, [r3, #112]	; 0x70
		base->PIO_ABCDSR[1] |= mask;
  4006b0:	6f58      	ldr	r0, [r3, #116]	; 0x74
  4006b2:	4308      	orrs	r0, r1
  4006b4:	6758      	str	r0, [r3, #116]	; 0x74
	arch_ioport_port_to_base(port)->PIO_PDR = mask;
  4006b6:	6059      	str	r1, [r3, #4]
		base->PIO_PUDR = mask;
  4006b8:	f503 6380 	add.w	r3, r3, #1024	; 0x400
  4006bc:	f44f 1180 	mov.w	r1, #1048576	; 0x100000
  4006c0:	6619      	str	r1, [r3, #96]	; 0x60
		base->PIO_PPDDR = mask;
  4006c2:	f8c3 1090 	str.w	r1, [r3, #144]	; 0x90
		base->PIO_MDDR = mask;
  4006c6:	6559      	str	r1, [r3, #84]	; 0x54
		base->PIO_IFDR = mask;
  4006c8:	6259      	str	r1, [r3, #36]	; 0x24
		base->PIO_IFSCDR = mask;
  4006ca:	f8c3 1080 	str.w	r1, [r3, #128]	; 0x80
		base->PIO_ABCDSR[0] |= mask;
  4006ce:	6f18      	ldr	r0, [r3, #112]	; 0x70
  4006d0:	4308      	orrs	r0, r1
  4006d2:	6718      	str	r0, [r3, #112]	; 0x70
		base->PIO_ABCDSR[1] &= ~mask;
  4006d4:	6f58      	ldr	r0, [r3, #116]	; 0x74
  4006d6:	f420 1080 	bic.w	r0, r0, #1048576	; 0x100000
  4006da:	6758      	str	r0, [r3, #116]	; 0x74
	arch_ioport_port_to_base(port)->PIO_PDR = mask;
  4006dc:	6059      	str	r1, [r3, #4]
		base->PIO_PUDR = mask;
  4006de:	661a      	str	r2, [r3, #96]	; 0x60
		base->PIO_PPDDR = mask;
  4006e0:	f8c3 2090 	str.w	r2, [r3, #144]	; 0x90
		base->PIO_MDDR = mask;
  4006e4:	655a      	str	r2, [r3, #84]	; 0x54
		base->PIO_IFDR = mask;
  4006e6:	625a      	str	r2, [r3, #36]	; 0x24
		base->PIO_IFSCDR = mask;
  4006e8:	f8c3 2080 	str.w	r2, [r3, #128]	; 0x80
		base->PIO_ABCDSR[0] |= mask;
  4006ec:	6f19      	ldr	r1, [r3, #112]	; 0x70
  4006ee:	4311      	orrs	r1, r2
  4006f0:	6719      	str	r1, [r3, #112]	; 0x70
		base->PIO_ABCDSR[1] &= ~mask;
  4006f2:	6f59      	ldr	r1, [r3, #116]	; 0x74
  4006f4:	f421 1100 	bic.w	r1, r1, #2097152	; 0x200000
  4006f8:	6759      	str	r1, [r3, #116]	; 0x74
	arch_ioport_port_to_base(port)->PIO_PDR = mask;
  4006fa:	605a      	str	r2, [r3, #4]
		base->PIO_PUDR = mask;
  4006fc:	f44f 0280 	mov.w	r2, #4194304	; 0x400000
  400700:	661a      	str	r2, [r3, #96]	; 0x60
		base->PIO_PPDDR = mask;
  400702:	f8c3 2090 	str.w	r2, [r3, #144]	; 0x90
		base->PIO_MDDR = mask;
  400706:	655a      	str	r2, [r3, #84]	; 0x54
		base->PIO_IFDR = mask;
  400708:	625a      	str	r2, [r3, #36]	; 0x24
		base->PIO_IFSCDR = mask;
  40070a:	f8c3 2080 	str.w	r2, [r3, #128]	; 0x80
		base->PIO_ABCDSR[0] |= mask;
  40070e:	6f19      	ldr	r1, [r3, #112]	; 0x70
  400710:	4311      	orrs	r1, r2
  400712:	6719      	str	r1, [r3, #112]	; 0x70
		base->PIO_ABCDSR[1] &= ~mask;
  400714:	6f59      	ldr	r1, [r3, #116]	; 0x74
  400716:	f421 0180 	bic.w	r1, r1, #4194304	; 0x400000
  40071a:	6759      	str	r1, [r3, #116]	; 0x74
	arch_ioport_port_to_base(port)->PIO_PDR = mask;
  40071c:	605a      	str	r2, [r3, #4]
		base->PIO_PUDR = mask;
  40071e:	f04f 7200 	mov.w	r2, #33554432	; 0x2000000
  400722:	661a      	str	r2, [r3, #96]	; 0x60
		base->PIO_PPDDR = mask;
  400724:	f8c3 2090 	str.w	r2, [r3, #144]	; 0x90
		base->PIO_MDDR = mask;
  400728:	655a      	str	r2, [r3, #84]	; 0x54
		base->PIO_IFDR = mask;
  40072a:	625a      	str	r2, [r3, #36]	; 0x24
		base->PIO_IFSCDR = mask;
  40072c:	f8c3 2080 	str.w	r2, [r3, #128]	; 0x80
		base->PIO_ABCDSR[0] |= mask;
  400730:	6f19      	ldr	r1, [r3, #112]	; 0x70
  400732:	4311      	orrs	r1, r2
  400734:	6719      	str	r1, [r3, #112]	; 0x70
		base->PIO_ABCDSR[1] &= ~mask;
  400736:	6f59      	ldr	r1, [r3, #116]	; 0x74
  400738:	f021 7100 	bic.w	r1, r1, #33554432	; 0x2000000
  40073c:	6759      	str	r1, [r3, #116]	; 0x74
	arch_ioport_port_to_base(port)->PIO_PDR = mask;
  40073e:	605a      	str	r2, [r3, #4]
  400740:	bdf8      	pop	{r3, r4, r5, r6, r7, pc}
  400742:	bf00      	nop
  400744:	400e1850 	.word	0x400e1850
  400748:	e000ed00 	.word	0xe000ed00
  40074c:	400e0c00 	.word	0x400e0c00
  400750:	5a00080c 	.word	0x5a00080c
  400754:	00400941 	.word	0x00400941
  400758:	400e1200 	.word	0x400e1200
  40075c:	40088000 	.word	0x40088000
  400760:	400e1000 	.word	0x400e1000

00400764 <pio_get_interrupt_status>:
 *
 * \return The interrupt status value.
 */
uint32_t pio_get_interrupt_status(const Pio *p_pio)
{
	return p_pio->PIO_ISR;
  400764:	6cc0      	ldr	r0, [r0, #76]	; 0x4c
}
  400766:	4770      	bx	lr

00400768 <pio_get_interrupt_mask>:
 *
 * \return The interrupt mask value.
 */
uint32_t pio_get_interrupt_mask(const Pio *p_pio)
{
	return p_pio->PIO_IMR;
  400768:	6c80      	ldr	r0, [r0, #72]	; 0x48
}
  40076a:	4770      	bx	lr

0040076c <pio_handler_process>:
 *
 * \param p_pio PIO controller base address.
 * \param ul_id PIO controller ID.
 */
void pio_handler_process(Pio *p_pio, uint32_t ul_id)
{
  40076c:	e92d 41f0 	stmdb	sp!, {r4, r5, r6, r7, r8, lr}
  400770:	4604      	mov	r4, r0
  400772:	4688      	mov	r8, r1
	uint32_t status;
	uint32_t i;

	/* Read PIO controller status */
	status = pio_get_interrupt_status(p_pio);
  400774:	4b0e      	ldr	r3, [pc, #56]	; (4007b0 <pio_handler_process+0x44>)
  400776:	4798      	blx	r3
  400778:	4605      	mov	r5, r0
	status &= pio_get_interrupt_mask(p_pio);
  40077a:	4620      	mov	r0, r4
  40077c:	4b0d      	ldr	r3, [pc, #52]	; (4007b4 <pio_handler_process+0x48>)
  40077e:	4798      	blx	r3

	/* Check pending events */
	if (status != 0) {
  400780:	4005      	ands	r5, r0
  400782:	d013      	beq.n	4007ac <pio_handler_process+0x40>
  400784:	4c0c      	ldr	r4, [pc, #48]	; (4007b8 <pio_handler_process+0x4c>)
  400786:	f104 0660 	add.w	r6, r4, #96	; 0x60
  40078a:	e003      	b.n	400794 <pio_handler_process+0x28>
							gs_interrupt_sources[i].mask);
					status &= ~(gs_interrupt_sources[i].mask);
				}
			}
			i++;
			if (i >= MAX_INTERRUPT_SOURCES) {
  40078c:	42b4      	cmp	r4, r6
  40078e:	d00d      	beq.n	4007ac <pio_handler_process+0x40>
  400790:	3410      	adds	r4, #16
		while (status != 0) {
  400792:	b15d      	cbz	r5, 4007ac <pio_handler_process+0x40>
			if (gs_interrupt_sources[i].id == ul_id) {
  400794:	6820      	ldr	r0, [r4, #0]
  400796:	4540      	cmp	r0, r8
  400798:	d1f8      	bne.n	40078c <pio_handler_process+0x20>
				if ((status & gs_interrupt_sources[i].mask) != 0) {
  40079a:	6861      	ldr	r1, [r4, #4]
  40079c:	4229      	tst	r1, r5
  40079e:	d0f5      	beq.n	40078c <pio_handler_process+0x20>
					gs_interrupt_sources[i].handler(gs_interrupt_sources[i].id,
  4007a0:	68e3      	ldr	r3, [r4, #12]
  4007a2:	4798      	blx	r3
					status &= ~(gs_interrupt_sources[i].mask);
  4007a4:	6863      	ldr	r3, [r4, #4]
  4007a6:	ea25 0503 	bic.w	r5, r5, r3
  4007aa:	e7ef      	b.n	40078c <pio_handler_process+0x20>
  4007ac:	e8bd 81f0 	ldmia.w	sp!, {r4, r5, r6, r7, r8, pc}
  4007b0:	00400765 	.word	0x00400765
  4007b4:	00400769 	.word	0x00400769
  4007b8:	204009e0 	.word	0x204009e0

004007bc <PIOA_Handler>:
/**
 * \brief Parallel IO Controller A interrupt handler.
 * Redefined PIOA interrupt handler for NVIC interrupt table.
 */
void PIOA_Handler(void)
{
  4007bc:	b508      	push	{r3, lr}
	pio_handler_process(PIOA, ID_PIOA);
  4007be:	210a      	movs	r1, #10
  4007c0:	4801      	ldr	r0, [pc, #4]	; (4007c8 <PIOA_Handler+0xc>)
  4007c2:	4b02      	ldr	r3, [pc, #8]	; (4007cc <PIOA_Handler+0x10>)
  4007c4:	4798      	blx	r3
  4007c6:	bd08      	pop	{r3, pc}
  4007c8:	400e0e00 	.word	0x400e0e00
  4007cc:	0040076d 	.word	0x0040076d

004007d0 <PIOB_Handler>:
/**
 * \brief Parallel IO Controller B interrupt handler
 * Redefined PIOB interrupt handler for NVIC interrupt table.
 */
void PIOB_Handler(void)
{
  4007d0:	b508      	push	{r3, lr}
    pio_handler_process(PIOB, ID_PIOB);
  4007d2:	210b      	movs	r1, #11
  4007d4:	4801      	ldr	r0, [pc, #4]	; (4007dc <PIOB_Handler+0xc>)
  4007d6:	4b02      	ldr	r3, [pc, #8]	; (4007e0 <PIOB_Handler+0x10>)
  4007d8:	4798      	blx	r3
  4007da:	bd08      	pop	{r3, pc}
  4007dc:	400e1000 	.word	0x400e1000
  4007e0:	0040076d 	.word	0x0040076d

004007e4 <PIOC_Handler>:
/**
 * \brief Parallel IO Controller C interrupt handler.
 * Redefined PIOC interrupt handler for NVIC interrupt table.
 */
void PIOC_Handler(void)
{
  4007e4:	b508      	push	{r3, lr}
	pio_handler_process(PIOC, ID_PIOC);
  4007e6:	210c      	movs	r1, #12
  4007e8:	4801      	ldr	r0, [pc, #4]	; (4007f0 <PIOC_Handler+0xc>)
  4007ea:	4b02      	ldr	r3, [pc, #8]	; (4007f4 <PIOC_Handler+0x10>)
  4007ec:	4798      	blx	r3
  4007ee:	bd08      	pop	{r3, pc}
  4007f0:	400e1200 	.word	0x400e1200
  4007f4:	0040076d 	.word	0x0040076d

004007f8 <PIOD_Handler>:
/**
 * \brief Parallel IO Controller D interrupt handler.
 * Redefined PIOD interrupt handler for NVIC interrupt table.
 */
void PIOD_Handler(void)
{
  4007f8:	b508      	push	{r3, lr}
	pio_handler_process(PIOD, ID_PIOD);
  4007fa:	2110      	movs	r1, #16
  4007fc:	4801      	ldr	r0, [pc, #4]	; (400804 <PIOD_Handler+0xc>)
  4007fe:	4b02      	ldr	r3, [pc, #8]	; (400808 <PIOD_Handler+0x10>)
  400800:	4798      	blx	r3
  400802:	bd08      	pop	{r3, pc}
  400804:	400e1400 	.word	0x400e1400
  400808:	0040076d 	.word	0x0040076d

0040080c <PIOE_Handler>:
/**
 * \brief Parallel IO Controller E interrupt handler.
 * Redefined PIOE interrupt handler for NVIC interrupt table.
 */
void PIOE_Handler(void)
{
  40080c:	b508      	push	{r3, lr}
	pio_handler_process(PIOE, ID_PIOE);
  40080e:	2111      	movs	r1, #17
  400810:	4801      	ldr	r0, [pc, #4]	; (400818 <PIOE_Handler+0xc>)
  400812:	4b02      	ldr	r3, [pc, #8]	; (40081c <PIOE_Handler+0x10>)
  400814:	4798      	blx	r3
  400816:	bd08      	pop	{r3, pc}
  400818:	400e1600 	.word	0x400e1600
  40081c:	0040076d 	.word	0x0040076d

00400820 <pmc_mck_set_division>:
 *
 * \param ul_div Division value.
 */
void pmc_mck_set_division(uint32_t ul_div)
{
	switch (ul_div) {
  400820:	2803      	cmp	r0, #3
  400822:	d011      	beq.n	400848 <pmc_mck_set_division+0x28>
  400824:	2804      	cmp	r0, #4
  400826:	d012      	beq.n	40084e <pmc_mck_set_division+0x2e>
		case 1:
			ul_div = PMC_MCKR_MDIV_EQ_PCK;
  400828:	2802      	cmp	r0, #2
  40082a:	bf0c      	ite	eq
  40082c:	f44f 7180 	moveq.w	r1, #256	; 0x100
  400830:	2100      	movne	r1, #0
		default:
			ul_div = PMC_MCKR_MDIV_EQ_PCK;
			break;
	}
	PMC->PMC_MCKR =
			(PMC->PMC_MCKR & (~PMC_MCKR_MDIV_Msk)) | ul_div;
  400832:	4a08      	ldr	r2, [pc, #32]	; (400854 <pmc_mck_set_division+0x34>)
  400834:	6b13      	ldr	r3, [r2, #48]	; 0x30
  400836:	f423 7340 	bic.w	r3, r3, #768	; 0x300
  40083a:	430b      	orrs	r3, r1
	PMC->PMC_MCKR =
  40083c:	6313      	str	r3, [r2, #48]	; 0x30
	while (!(PMC->PMC_SR & PMC_SR_MCKRDY));
  40083e:	6e93      	ldr	r3, [r2, #104]	; 0x68
  400840:	f013 0f08 	tst.w	r3, #8
  400844:	d0fb      	beq.n	40083e <pmc_mck_set_division+0x1e>
}
  400846:	4770      	bx	lr
			ul_div = PMC_MCKR_MDIV_PCK_DIV3;
  400848:	f44f 7140 	mov.w	r1, #768	; 0x300
			break;
  40084c:	e7f1      	b.n	400832 <pmc_mck_set_division+0x12>
			ul_div = PMC_MCKR_MDIV_PCK_DIV4;
  40084e:	f44f 7100 	mov.w	r1, #512	; 0x200
			break;
  400852:	e7ee      	b.n	400832 <pmc_mck_set_division+0x12>
  400854:	400e0600 	.word	0x400e0600

00400858 <pmc_switch_mck_to_pllack>:
 */
uint32_t pmc_switch_mck_to_pllack(uint32_t ul_pres)
{
	uint32_t ul_timeout;

	PMC->PMC_MCKR = (PMC->PMC_MCKR & (~PMC_MCKR_PRES_Msk)) | ul_pres;
  400858:	4a17      	ldr	r2, [pc, #92]	; (4008b8 <pmc_switch_mck_to_pllack+0x60>)
  40085a:	6b13      	ldr	r3, [r2, #48]	; 0x30
  40085c:	f023 0370 	bic.w	r3, r3, #112	; 0x70
  400860:	4318      	orrs	r0, r3
  400862:	6310      	str	r0, [r2, #48]	; 0x30
	for (ul_timeout = PMC_TIMEOUT; !(PMC->PMC_SR & PMC_SR_MCKRDY);
  400864:	6e93      	ldr	r3, [r2, #104]	; 0x68
  400866:	f013 0f08 	tst.w	r3, #8
  40086a:	d10a      	bne.n	400882 <pmc_switch_mck_to_pllack+0x2a>
  40086c:	f44f 5380 	mov.w	r3, #4096	; 0x1000
  400870:	4911      	ldr	r1, [pc, #68]	; (4008b8 <pmc_switch_mck_to_pllack+0x60>)
  400872:	6e8a      	ldr	r2, [r1, #104]	; 0x68
  400874:	f012 0f08 	tst.w	r2, #8
  400878:	d103      	bne.n	400882 <pmc_switch_mck_to_pllack+0x2a>
			--ul_timeout) {
		if (ul_timeout == 0) {
  40087a:	3b01      	subs	r3, #1
  40087c:	d1f9      	bne.n	400872 <pmc_switch_mck_to_pllack+0x1a>
			return 1;
  40087e:	2001      	movs	r0, #1
  400880:	4770      	bx	lr
		}
	}

	PMC->PMC_MCKR = (PMC->PMC_MCKR & (~PMC_MCKR_CSS_Msk)) |
  400882:	4a0d      	ldr	r2, [pc, #52]	; (4008b8 <pmc_switch_mck_to_pllack+0x60>)
  400884:	6b13      	ldr	r3, [r2, #48]	; 0x30
  400886:	f023 0303 	bic.w	r3, r3, #3
  40088a:	f043 0302 	orr.w	r3, r3, #2
  40088e:	6313      	str	r3, [r2, #48]	; 0x30
			PMC_MCKR_CSS_PLLA_CLK;

	for (ul_timeout = PMC_TIMEOUT; !(PMC->PMC_SR & PMC_SR_MCKRDY);
  400890:	6e93      	ldr	r3, [r2, #104]	; 0x68
  400892:	f013 0f08 	tst.w	r3, #8
  400896:	d10a      	bne.n	4008ae <pmc_switch_mck_to_pllack+0x56>
  400898:	f44f 5380 	mov.w	r3, #4096	; 0x1000
  40089c:	4906      	ldr	r1, [pc, #24]	; (4008b8 <pmc_switch_mck_to_pllack+0x60>)
  40089e:	6e8a      	ldr	r2, [r1, #104]	; 0x68
  4008a0:	f012 0f08 	tst.w	r2, #8
  4008a4:	d105      	bne.n	4008b2 <pmc_switch_mck_to_pllack+0x5a>
			--ul_timeout) {
		if (ul_timeout == 0) {
  4008a6:	3b01      	subs	r3, #1
  4008a8:	d1f9      	bne.n	40089e <pmc_switch_mck_to_pllack+0x46>
			return 1;
  4008aa:	2001      	movs	r0, #1
		}
	}

	return 0;
}
  4008ac:	4770      	bx	lr
	return 0;
  4008ae:	2000      	movs	r0, #0
  4008b0:	4770      	bx	lr
  4008b2:	2000      	movs	r0, #0
  4008b4:	4770      	bx	lr
  4008b6:	bf00      	nop
  4008b8:	400e0600 	.word	0x400e0600

004008bc <pmc_switch_mainck_to_xtal>:
 */
void pmc_switch_mainck_to_xtal(uint32_t ul_bypass,
		uint32_t ul_xtal_startup_time)
{
	/* Enable Main Xtal oscillator */
	if (ul_bypass) {
  4008bc:	b9a0      	cbnz	r0, 4008e8 <pmc_switch_mainck_to_xtal+0x2c>
		PMC->CKGR_MOR = (PMC->CKGR_MOR & ~CKGR_MOR_MOSCXTEN) |
				CKGR_MOR_KEY_PASSWD | CKGR_MOR_MOSCXTBY |
				CKGR_MOR_MOSCSEL;
	} else {
		PMC->CKGR_MOR = (PMC->CKGR_MOR & ~CKGR_MOR_MOSCXTBY) |
  4008be:	480e      	ldr	r0, [pc, #56]	; (4008f8 <pmc_switch_mainck_to_xtal+0x3c>)
  4008c0:	6a03      	ldr	r3, [r0, #32]
				CKGR_MOR_KEY_PASSWD | CKGR_MOR_MOSCXTEN |
				CKGR_MOR_MOSCXTST(ul_xtal_startup_time);
  4008c2:	0209      	lsls	r1, r1, #8
  4008c4:	b289      	uxth	r1, r1
				CKGR_MOR_KEY_PASSWD | CKGR_MOR_MOSCXTEN |
  4008c6:	4a0d      	ldr	r2, [pc, #52]	; (4008fc <pmc_switch_mainck_to_xtal+0x40>)
  4008c8:	401a      	ands	r2, r3
  4008ca:	4b0d      	ldr	r3, [pc, #52]	; (400900 <pmc_switch_mainck_to_xtal+0x44>)
  4008cc:	4313      	orrs	r3, r2
  4008ce:	4319      	orrs	r1, r3
		PMC->CKGR_MOR = (PMC->CKGR_MOR & ~CKGR_MOR_MOSCXTBY) |
  4008d0:	6201      	str	r1, [r0, #32]
		/* Wait the Xtal to stabilize */
		while (!(PMC->PMC_SR & PMC_SR_MOSCXTS));
  4008d2:	4602      	mov	r2, r0
  4008d4:	6e93      	ldr	r3, [r2, #104]	; 0x68
  4008d6:	f013 0f01 	tst.w	r3, #1
  4008da:	d0fb      	beq.n	4008d4 <pmc_switch_mainck_to_xtal+0x18>

		PMC->CKGR_MOR |= CKGR_MOR_KEY_PASSWD | CKGR_MOR_MOSCSEL;
  4008dc:	4a06      	ldr	r2, [pc, #24]	; (4008f8 <pmc_switch_mainck_to_xtal+0x3c>)
  4008de:	6a11      	ldr	r1, [r2, #32]
  4008e0:	4b08      	ldr	r3, [pc, #32]	; (400904 <pmc_switch_mainck_to_xtal+0x48>)
  4008e2:	430b      	orrs	r3, r1
  4008e4:	6213      	str	r3, [r2, #32]
  4008e6:	4770      	bx	lr
		PMC->CKGR_MOR = (PMC->CKGR_MOR & ~CKGR_MOR_MOSCXTEN) |
  4008e8:	4903      	ldr	r1, [pc, #12]	; (4008f8 <pmc_switch_mainck_to_xtal+0x3c>)
  4008ea:	6a0b      	ldr	r3, [r1, #32]
				CKGR_MOR_KEY_PASSWD | CKGR_MOR_MOSCXTBY |
  4008ec:	4a06      	ldr	r2, [pc, #24]	; (400908 <pmc_switch_mainck_to_xtal+0x4c>)
  4008ee:	401a      	ands	r2, r3
  4008f0:	4b06      	ldr	r3, [pc, #24]	; (40090c <pmc_switch_mainck_to_xtal+0x50>)
  4008f2:	4313      	orrs	r3, r2
		PMC->CKGR_MOR = (PMC->CKGR_MOR & ~CKGR_MOR_MOSCXTEN) |
  4008f4:	620b      	str	r3, [r1, #32]
  4008f6:	4770      	bx	lr
  4008f8:	400e0600 	.word	0x400e0600
  4008fc:	ffc8fffc 	.word	0xffc8fffc
  400900:	00370001 	.word	0x00370001
  400904:	01370000 	.word	0x01370000
  400908:	fec8fffc 	.word	0xfec8fffc
  40090c:	01370002 	.word	0x01370002

00400910 <pmc_osc_is_ready_mainck>:
 * \retval 1 Xtal is ready.
 * \retval 0 Xtal is not ready.
 */
uint32_t pmc_osc_is_ready_mainck(void)
{
	return PMC->PMC_SR & PMC_SR_MOSCSELS;
  400910:	4b02      	ldr	r3, [pc, #8]	; (40091c <pmc_osc_is_ready_mainck+0xc>)
  400912:	6e98      	ldr	r0, [r3, #104]	; 0x68
}
  400914:	f400 3080 	and.w	r0, r0, #65536	; 0x10000
  400918:	4770      	bx	lr
  40091a:	bf00      	nop
  40091c:	400e0600 	.word	0x400e0600

00400920 <pmc_disable_pllack>:
void pmc_disable_pllack(void)
{
#if (SAM4C || SAM4CM || SAM4CP || SAMG)
	PMC->CKGR_PLLAR = CKGR_PLLAR_MULA(0);
#else
	PMC->CKGR_PLLAR = CKGR_PLLAR_ONE | CKGR_PLLAR_MULA(0);
  400920:	f04f 5200 	mov.w	r2, #536870912	; 0x20000000
  400924:	4b01      	ldr	r3, [pc, #4]	; (40092c <pmc_disable_pllack+0xc>)
  400926:	629a      	str	r2, [r3, #40]	; 0x28
  400928:	4770      	bx	lr
  40092a:	bf00      	nop
  40092c:	400e0600 	.word	0x400e0600

00400930 <pmc_is_locked_pllack>:
 * \retval 0 Not locked.
 * \retval 1 Locked.
 */
uint32_t pmc_is_locked_pllack(void)
{
	return (PMC->PMC_SR & PMC_SR_LOCKA);
  400930:	4b02      	ldr	r3, [pc, #8]	; (40093c <pmc_is_locked_pllack+0xc>)
  400932:	6e98      	ldr	r0, [r3, #104]	; 0x68
}
  400934:	f000 0002 	and.w	r0, r0, #2
  400938:	4770      	bx	lr
  40093a:	bf00      	nop
  40093c:	400e0600 	.word	0x400e0600

00400940 <pmc_enable_periph_clk>:
 */
uint32_t pmc_enable_periph_clk(uint32_t ul_id)
{
#if defined(REG_PMC_PCR) && !SAMG55
	uint32_t pcr;
	PMC->PMC_PCR = ul_id & 0x7F;
  400940:	f000 007f 	and.w	r0, r0, #127	; 0x7f
  400944:	4b05      	ldr	r3, [pc, #20]	; (40095c <pmc_enable_periph_clk+0x1c>)
  400946:	f8c3 010c 	str.w	r0, [r3, #268]	; 0x10c
	pcr = PMC->PMC_PCR | PMC_PCR_EN | PMC_PCR_CMD;
  40094a:	f8d3 210c 	ldr.w	r2, [r3, #268]	; 0x10c
  40094e:	f042 2210 	orr.w	r2, r2, #268439552	; 0x10001000
	PMC->PMC_PCR = pcr;
  400952:	f8c3 210c 	str.w	r2, [r3, #268]	; 0x10c
#endif
	}

	return 0;
#endif /* defined(REG_PMC_PCR) && !SAMG55 */
}
  400956:	2000      	movs	r0, #0
  400958:	4770      	bx	lr
  40095a:	bf00      	nop
  40095c:	400e0600 	.word	0x400e0600

00400960 <Dummy_Handler>:

/**
 * \brief Default interrupt handler for unused IRQs.
 */
void Dummy_Handler(void)
{
  400960:	e7fe      	b.n	400960 <Dummy_Handler>
	...

00400964 <Reset_Handler>:
{
  400964:	b500      	push	{lr}
  400966:	b083      	sub	sp, #12
        if (pSrc != pDest) {
  400968:	4b25      	ldr	r3, [pc, #148]	; (400a00 <Reset_Handler+0x9c>)
  40096a:	4a26      	ldr	r2, [pc, #152]	; (400a04 <Reset_Handler+0xa0>)
  40096c:	429a      	cmp	r2, r3
  40096e:	d010      	beq.n	400992 <Reset_Handler+0x2e>
                for (; pDest < &_erelocate;) {
  400970:	4b25      	ldr	r3, [pc, #148]	; (400a08 <Reset_Handler+0xa4>)
  400972:	4a23      	ldr	r2, [pc, #140]	; (400a00 <Reset_Handler+0x9c>)
  400974:	429a      	cmp	r2, r3
  400976:	d20c      	bcs.n	400992 <Reset_Handler+0x2e>
  400978:	3b01      	subs	r3, #1
  40097a:	1a9b      	subs	r3, r3, r2
  40097c:	f023 0303 	bic.w	r3, r3, #3
  400980:	3304      	adds	r3, #4
  400982:	4413      	add	r3, r2
  400984:	491f      	ldr	r1, [pc, #124]	; (400a04 <Reset_Handler+0xa0>)
                        *pDest++ = *pSrc++;
  400986:	f851 0b04 	ldr.w	r0, [r1], #4
  40098a:	f842 0b04 	str.w	r0, [r2], #4
                for (; pDest < &_erelocate;) {
  40098e:	429a      	cmp	r2, r3
  400990:	d1f9      	bne.n	400986 <Reset_Handler+0x22>
        for (pDest = &_szero; pDest < &_ezero;) {
  400992:	4b1e      	ldr	r3, [pc, #120]	; (400a0c <Reset_Handler+0xa8>)
  400994:	4a1e      	ldr	r2, [pc, #120]	; (400a10 <Reset_Handler+0xac>)
  400996:	429a      	cmp	r2, r3
  400998:	d20a      	bcs.n	4009b0 <Reset_Handler+0x4c>
  40099a:	3b01      	subs	r3, #1
  40099c:	1a9b      	subs	r3, r3, r2
  40099e:	f023 0303 	bic.w	r3, r3, #3
  4009a2:	3304      	adds	r3, #4
  4009a4:	4413      	add	r3, r2
                *pDest++ = 0;
  4009a6:	2100      	movs	r1, #0
  4009a8:	f842 1b04 	str.w	r1, [r2], #4
        for (pDest = &_szero; pDest < &_ezero;) {
  4009ac:	4293      	cmp	r3, r2
  4009ae:	d1fb      	bne.n	4009a8 <Reset_Handler+0x44>
        SCB->VTOR = ((uint32_t) pSrc & SCB_VTOR_TBLOFF_Msk);
  4009b0:	4a18      	ldr	r2, [pc, #96]	; (400a14 <Reset_Handler+0xb0>)
  4009b2:	4b19      	ldr	r3, [pc, #100]	; (400a18 <Reset_Handler+0xb4>)
  4009b4:	f023 037f 	bic.w	r3, r3, #127	; 0x7f
  4009b8:	6093      	str	r3, [r2, #8]
  __ASM volatile ("MRS %0, primask" : "=r" (result) :: "memory");
  4009ba:	f3ef 8310 	mrs	r3, PRIMASK
static volatile uint32_t cpu_irq_critical_section_counter;
static volatile bool     cpu_irq_prev_interrupt_state;

static inline irqflags_t cpu_irq_save(void)
{
	volatile irqflags_t flags = cpu_irq_is_enabled();
  4009be:	fab3 f383 	clz	r3, r3
  4009c2:	095b      	lsrs	r3, r3, #5
  4009c4:	9301      	str	r3, [sp, #4]
  __ASM volatile ("cpsid i" : : : "memory");
  4009c6:	b672      	cpsid	i
  \details Ensures the apparent order of the explicit memory operations before
           and after the instruction, without ensuring their completion.
 */
__STATIC_FORCEINLINE void __DMB(void)
{
  __ASM volatile ("dmb 0xF":::"memory");
  4009c8:	f3bf 8f5f 	dmb	sy
	cpu_irq_disable();
  4009cc:	2200      	movs	r2, #0
  4009ce:	4b13      	ldr	r3, [pc, #76]	; (400a1c <Reset_Handler+0xb8>)
  4009d0:	701a      	strb	r2, [r3, #0]
	return flags;
  4009d2:	9901      	ldr	r1, [sp, #4]
 */
__always_inline static void fpu_enable(void)
{
	irqflags_t flags;
	flags = cpu_irq_save();
	REG_CPACR |=  (0xFu << 20);
  4009d4:	4a12      	ldr	r2, [pc, #72]	; (400a20 <Reset_Handler+0xbc>)
  4009d6:	6813      	ldr	r3, [r2, #0]
  4009d8:	f443 0370 	orr.w	r3, r3, #15728640	; 0xf00000
  4009dc:	6013      	str	r3, [r2, #0]
  __ASM volatile ("dsb 0xF":::"memory");
  4009de:	f3bf 8f4f 	dsb	sy
  __ASM volatile ("isb 0xF":::"memory");
  4009e2:	f3bf 8f6f 	isb	sy
	return (flags);
}

static inline void cpu_irq_restore(irqflags_t flags)
{
	if (cpu_irq_is_enabled_flags(flags))
  4009e6:	b129      	cbz	r1, 4009f4 <Reset_Handler+0x90>
		cpu_irq_enable();
  4009e8:	2201      	movs	r2, #1
  4009ea:	4b0c      	ldr	r3, [pc, #48]	; (400a1c <Reset_Handler+0xb8>)
  4009ec:	701a      	strb	r2, [r3, #0]
  __ASM volatile ("dmb 0xF":::"memory");
  4009ee:	f3bf 8f5f 	dmb	sy
  __ASM volatile ("cpsie i" : : : "memory");
  4009f2:	b662      	cpsie	i
        __libc_init_array();
  4009f4:	4b0b      	ldr	r3, [pc, #44]	; (400a24 <Reset_Handler+0xc0>)
  4009f6:	4798      	blx	r3
        main();
  4009f8:	4b0b      	ldr	r3, [pc, #44]	; (400a28 <Reset_Handler+0xc4>)
  4009fa:	4798      	blx	r3
  4009fc:	e7fe      	b.n	4009fc <Reset_Handler+0x98>
  4009fe:	bf00      	nop
  400a00:	20400000 	.word	0x20400000
  400a04:	00404d64 	.word	0x00404d64
  400a08:	204009c0 	.word	0x204009c0
  400a0c:	20400b04 	.word	0x20400b04
  400a10:	204009c0 	.word	0x204009c0
  400a14:	e000ed00 	.word	0xe000ed00
  400a18:	00400000 	.word	0x00400000
  400a1c:	2040000a 	.word	0x2040000a
  400a20:	e000ed88 	.word	0xe000ed88
  400a24:	00401bb1 	.word	0x00401bb1
  400a28:	00401649 	.word	0x00401649

00400a2c <SystemCoreClockUpdate>:
}

void SystemCoreClockUpdate( void )
{
  /* Determine clock frequency according to clock register values */
  switch (PMC->PMC_MCKR & (uint32_t) PMC_MCKR_CSS_Msk)
  400a2c:	4b3b      	ldr	r3, [pc, #236]	; (400b1c <SystemCoreClockUpdate+0xf0>)
  400a2e:	6b1b      	ldr	r3, [r3, #48]	; 0x30
  400a30:	f003 0303 	and.w	r3, r3, #3
  400a34:	2b01      	cmp	r3, #1
  400a36:	d01d      	beq.n	400a74 <SystemCoreClockUpdate+0x48>
  400a38:	b183      	cbz	r3, 400a5c <SystemCoreClockUpdate+0x30>
  400a3a:	2b02      	cmp	r3, #2
  400a3c:	d036      	beq.n	400aac <SystemCoreClockUpdate+0x80>

    default:
    break;
  }

  if ( (PMC->PMC_MCKR & PMC_MCKR_PRES_Msk) == PMC_MCKR_PRES_CLK_3 )
  400a3e:	4b37      	ldr	r3, [pc, #220]	; (400b1c <SystemCoreClockUpdate+0xf0>)
  400a40:	6b1b      	ldr	r3, [r3, #48]	; 0x30
  400a42:	f003 0370 	and.w	r3, r3, #112	; 0x70
  400a46:	2b70      	cmp	r3, #112	; 0x70
  400a48:	d05f      	beq.n	400b0a <SystemCoreClockUpdate+0xde>
  {
    SystemCoreClock /= 3U;
  }
  else
  {
    SystemCoreClock >>= ((PMC->PMC_MCKR & PMC_MCKR_PRES_Msk) >> PMC_MCKR_PRES_Pos);
  400a4a:	4b34      	ldr	r3, [pc, #208]	; (400b1c <SystemCoreClockUpdate+0xf0>)
  400a4c:	6b1a      	ldr	r2, [r3, #48]	; 0x30
  400a4e:	4934      	ldr	r1, [pc, #208]	; (400b20 <SystemCoreClockUpdate+0xf4>)
  400a50:	f3c2 1202 	ubfx	r2, r2, #4, #3
  400a54:	680b      	ldr	r3, [r1, #0]
  400a56:	40d3      	lsrs	r3, r2
  400a58:	600b      	str	r3, [r1, #0]
  400a5a:	4770      	bx	lr
      if ( SUPC->SUPC_SR & SUPC_SR_OSCSEL )
  400a5c:	4b31      	ldr	r3, [pc, #196]	; (400b24 <SystemCoreClockUpdate+0xf8>)
  400a5e:	695b      	ldr	r3, [r3, #20]
  400a60:	f013 0f80 	tst.w	r3, #128	; 0x80
        SystemCoreClock = CHIP_FREQ_XTAL_32K;
  400a64:	bf14      	ite	ne
  400a66:	f44f 4200 	movne.w	r2, #32768	; 0x8000
        SystemCoreClock = CHIP_FREQ_SLCK_RC;
  400a6a:	f44f 42fa 	moveq.w	r2, #32000	; 0x7d00
  400a6e:	4b2c      	ldr	r3, [pc, #176]	; (400b20 <SystemCoreClockUpdate+0xf4>)
  400a70:	601a      	str	r2, [r3, #0]
  400a72:	e7e4      	b.n	400a3e <SystemCoreClockUpdate+0x12>
      if ( PMC->CKGR_MOR & CKGR_MOR_MOSCSEL )
  400a74:	4b29      	ldr	r3, [pc, #164]	; (400b1c <SystemCoreClockUpdate+0xf0>)
  400a76:	6a1b      	ldr	r3, [r3, #32]
  400a78:	f013 7f80 	tst.w	r3, #16777216	; 0x1000000
  400a7c:	d003      	beq.n	400a86 <SystemCoreClockUpdate+0x5a>
        SystemCoreClock = CHIP_FREQ_XTAL_12M;
  400a7e:	4a2a      	ldr	r2, [pc, #168]	; (400b28 <SystemCoreClockUpdate+0xfc>)
  400a80:	4b27      	ldr	r3, [pc, #156]	; (400b20 <SystemCoreClockUpdate+0xf4>)
  400a82:	601a      	str	r2, [r3, #0]
  400a84:	e7db      	b.n	400a3e <SystemCoreClockUpdate+0x12>
        SystemCoreClock = CHIP_FREQ_MAINCK_RC_4MHZ;
  400a86:	4a29      	ldr	r2, [pc, #164]	; (400b2c <SystemCoreClockUpdate+0x100>)
  400a88:	4b25      	ldr	r3, [pc, #148]	; (400b20 <SystemCoreClockUpdate+0xf4>)
  400a8a:	601a      	str	r2, [r3, #0]
        switch ( PMC->CKGR_MOR & CKGR_MOR_MOSCRCF_Msk )
  400a8c:	4b23      	ldr	r3, [pc, #140]	; (400b1c <SystemCoreClockUpdate+0xf0>)
  400a8e:	6a1b      	ldr	r3, [r3, #32]
  400a90:	f003 0370 	and.w	r3, r3, #112	; 0x70
  400a94:	2b10      	cmp	r3, #16
  400a96:	d005      	beq.n	400aa4 <SystemCoreClockUpdate+0x78>
  400a98:	2b20      	cmp	r3, #32
  400a9a:	d1d0      	bne.n	400a3e <SystemCoreClockUpdate+0x12>
            SystemCoreClock *= 3U;
  400a9c:	4a22      	ldr	r2, [pc, #136]	; (400b28 <SystemCoreClockUpdate+0xfc>)
  400a9e:	4b20      	ldr	r3, [pc, #128]	; (400b20 <SystemCoreClockUpdate+0xf4>)
  400aa0:	601a      	str	r2, [r3, #0]
          break;
  400aa2:	e7cc      	b.n	400a3e <SystemCoreClockUpdate+0x12>
            SystemCoreClock *= 2U;
  400aa4:	4a22      	ldr	r2, [pc, #136]	; (400b30 <SystemCoreClockUpdate+0x104>)
  400aa6:	4b1e      	ldr	r3, [pc, #120]	; (400b20 <SystemCoreClockUpdate+0xf4>)
  400aa8:	601a      	str	r2, [r3, #0]
          break;
  400aaa:	e7c8      	b.n	400a3e <SystemCoreClockUpdate+0x12>
      if ( PMC->CKGR_MOR & CKGR_MOR_MOSCSEL )
  400aac:	4b1b      	ldr	r3, [pc, #108]	; (400b1c <SystemCoreClockUpdate+0xf0>)
  400aae:	6a1b      	ldr	r3, [r3, #32]
  400ab0:	f013 7f80 	tst.w	r3, #16777216	; 0x1000000
  400ab4:	d016      	beq.n	400ae4 <SystemCoreClockUpdate+0xb8>
        SystemCoreClock = CHIP_FREQ_XTAL_12M ;
  400ab6:	4a1c      	ldr	r2, [pc, #112]	; (400b28 <SystemCoreClockUpdate+0xfc>)
  400ab8:	4b19      	ldr	r3, [pc, #100]	; (400b20 <SystemCoreClockUpdate+0xf4>)
  400aba:	601a      	str	r2, [r3, #0]
      if ( (uint32_t) (PMC->PMC_MCKR & (uint32_t) PMC_MCKR_CSS_Msk) == PMC_MCKR_CSS_PLLA_CLK )
  400abc:	4b17      	ldr	r3, [pc, #92]	; (400b1c <SystemCoreClockUpdate+0xf0>)
  400abe:	6b1b      	ldr	r3, [r3, #48]	; 0x30
  400ac0:	f003 0303 	and.w	r3, r3, #3
  400ac4:	2b02      	cmp	r3, #2
  400ac6:	d1ba      	bne.n	400a3e <SystemCoreClockUpdate+0x12>
        SystemCoreClock *= ((((PMC->CKGR_PLLAR) & CKGR_PLLAR_MULA_Msk) >> CKGR_PLLAR_MULA_Pos) + 1U);
  400ac8:	4a14      	ldr	r2, [pc, #80]	; (400b1c <SystemCoreClockUpdate+0xf0>)
  400aca:	6a91      	ldr	r1, [r2, #40]	; 0x28
        SystemCoreClock /= ((((PMC->CKGR_PLLAR) & CKGR_PLLAR_DIVA_Msk) >> CKGR_PLLAR_DIVA_Pos));
  400acc:	6a92      	ldr	r2, [r2, #40]	; 0x28
  400ace:	4814      	ldr	r0, [pc, #80]	; (400b20 <SystemCoreClockUpdate+0xf4>)
        SystemCoreClock *= ((((PMC->CKGR_PLLAR) & CKGR_PLLAR_MULA_Msk) >> CKGR_PLLAR_MULA_Pos) + 1U);
  400ad0:	f3c1 410a 	ubfx	r1, r1, #16, #11
  400ad4:	6803      	ldr	r3, [r0, #0]
  400ad6:	fb01 3303 	mla	r3, r1, r3, r3
        SystemCoreClock /= ((((PMC->CKGR_PLLAR) & CKGR_PLLAR_DIVA_Msk) >> CKGR_PLLAR_DIVA_Pos));
  400ada:	b2d2      	uxtb	r2, r2
  400adc:	fbb3 f3f2 	udiv	r3, r3, r2
  400ae0:	6003      	str	r3, [r0, #0]
  400ae2:	e7ac      	b.n	400a3e <SystemCoreClockUpdate+0x12>
        SystemCoreClock = CHIP_FREQ_MAINCK_RC_4MHZ;
  400ae4:	4a11      	ldr	r2, [pc, #68]	; (400b2c <SystemCoreClockUpdate+0x100>)
  400ae6:	4b0e      	ldr	r3, [pc, #56]	; (400b20 <SystemCoreClockUpdate+0xf4>)
  400ae8:	601a      	str	r2, [r3, #0]
        switch ( PMC->CKGR_MOR & CKGR_MOR_MOSCRCF_Msk )
  400aea:	4b0c      	ldr	r3, [pc, #48]	; (400b1c <SystemCoreClockUpdate+0xf0>)
  400aec:	6a1b      	ldr	r3, [r3, #32]
  400aee:	f003 0370 	and.w	r3, r3, #112	; 0x70
  400af2:	2b10      	cmp	r3, #16
  400af4:	d005      	beq.n	400b02 <SystemCoreClockUpdate+0xd6>
  400af6:	2b20      	cmp	r3, #32
  400af8:	d1e0      	bne.n	400abc <SystemCoreClockUpdate+0x90>
            SystemCoreClock *= 3U;
  400afa:	4a0b      	ldr	r2, [pc, #44]	; (400b28 <SystemCoreClockUpdate+0xfc>)
  400afc:	4b08      	ldr	r3, [pc, #32]	; (400b20 <SystemCoreClockUpdate+0xf4>)
  400afe:	601a      	str	r2, [r3, #0]
          break;
  400b00:	e7dc      	b.n	400abc <SystemCoreClockUpdate+0x90>
            SystemCoreClock *= 2U;
  400b02:	4a0b      	ldr	r2, [pc, #44]	; (400b30 <SystemCoreClockUpdate+0x104>)
  400b04:	4b06      	ldr	r3, [pc, #24]	; (400b20 <SystemCoreClockUpdate+0xf4>)
  400b06:	601a      	str	r2, [r3, #0]
          break;
  400b08:	e7d8      	b.n	400abc <SystemCoreClockUpdate+0x90>
    SystemCoreClock /= 3U;
  400b0a:	4a05      	ldr	r2, [pc, #20]	; (400b20 <SystemCoreClockUpdate+0xf4>)
  400b0c:	6813      	ldr	r3, [r2, #0]
  400b0e:	4909      	ldr	r1, [pc, #36]	; (400b34 <SystemCoreClockUpdate+0x108>)
  400b10:	fba1 1303 	umull	r1, r3, r1, r3
  400b14:	085b      	lsrs	r3, r3, #1
  400b16:	6013      	str	r3, [r2, #0]
  400b18:	4770      	bx	lr
  400b1a:	bf00      	nop
  400b1c:	400e0600 	.word	0x400e0600
  400b20:	2040000c 	.word	0x2040000c
  400b24:	400e1810 	.word	0x400e1810
  400b28:	00b71b00 	.word	0x00b71b00
  400b2c:	003d0900 	.word	0x003d0900
  400b30:	007a1200 	.word	0x007a1200
  400b34:	aaaaaaab 	.word	0xaaaaaaab

00400b38 <system_init_flash>:
 * Initialize flash.
 */
void system_init_flash( uint32_t ul_clk )
{
  /* Set FWS for embedded Flash access according to operating frequency */
  if ( ul_clk < CHIP_FREQ_FWS_0 )
  400b38:	4b16      	ldr	r3, [pc, #88]	; (400b94 <system_init_flash+0x5c>)
  400b3a:	4298      	cmp	r0, r3
  400b3c:	d913      	bls.n	400b66 <system_init_flash+0x2e>
  {
    EFC->EEFC_FMR = EEFC_FMR_FWS(0)|EEFC_FMR_CLOE;
  }
  else
  {
    if (ul_clk < CHIP_FREQ_FWS_1)
  400b3e:	4b16      	ldr	r3, [pc, #88]	; (400b98 <system_init_flash+0x60>)
  400b40:	4298      	cmp	r0, r3
  400b42:	d915      	bls.n	400b70 <system_init_flash+0x38>
    {
      EFC->EEFC_FMR = EEFC_FMR_FWS(1)|EEFC_FMR_CLOE;
    }
    else
    {
      if (ul_clk < CHIP_FREQ_FWS_2)
  400b44:	4b15      	ldr	r3, [pc, #84]	; (400b9c <system_init_flash+0x64>)
  400b46:	4298      	cmp	r0, r3
  400b48:	d916      	bls.n	400b78 <system_init_flash+0x40>
      {
        EFC->EEFC_FMR = EEFC_FMR_FWS(2)|EEFC_FMR_CLOE;
      }
      else
      {
        if ( ul_clk < CHIP_FREQ_FWS_3 )
  400b4a:	4b15      	ldr	r3, [pc, #84]	; (400ba0 <system_init_flash+0x68>)
  400b4c:	4298      	cmp	r0, r3
  400b4e:	d917      	bls.n	400b80 <system_init_flash+0x48>
        {
          EFC->EEFC_FMR = EEFC_FMR_FWS(3)|EEFC_FMR_CLOE;
        }
        else
        {
          if ( ul_clk < CHIP_FREQ_FWS_4 )
  400b50:	4b14      	ldr	r3, [pc, #80]	; (400ba4 <system_init_flash+0x6c>)
  400b52:	4298      	cmp	r0, r3
  400b54:	d918      	bls.n	400b88 <system_init_flash+0x50>
          {
            EFC->EEFC_FMR = EEFC_FMR_FWS(4)|EEFC_FMR_CLOE;
          }
          else
          {
            if ( ul_clk < CHIP_FREQ_FWS_5 )
  400b56:	4b14      	ldr	r3, [pc, #80]	; (400ba8 <system_init_flash+0x70>)
  400b58:	4298      	cmp	r0, r3
            {
              EFC->EEFC_FMR = EEFC_FMR_FWS(5)|EEFC_FMR_CLOE;
  400b5a:	bf94      	ite	ls
  400b5c:	4a13      	ldrls	r2, [pc, #76]	; (400bac <system_init_flash+0x74>)
            }
            else
            {
              EFC->EEFC_FMR = EEFC_FMR_FWS(6)|EEFC_FMR_CLOE;
  400b5e:	4a14      	ldrhi	r2, [pc, #80]	; (400bb0 <system_init_flash+0x78>)
  400b60:	4b14      	ldr	r3, [pc, #80]	; (400bb4 <system_init_flash+0x7c>)
  400b62:	601a      	str	r2, [r3, #0]
  400b64:	4770      	bx	lr
    EFC->EEFC_FMR = EEFC_FMR_FWS(0)|EEFC_FMR_CLOE;
  400b66:	f04f 6280 	mov.w	r2, #67108864	; 0x4000000
  400b6a:	4b12      	ldr	r3, [pc, #72]	; (400bb4 <system_init_flash+0x7c>)
  400b6c:	601a      	str	r2, [r3, #0]
  400b6e:	4770      	bx	lr
      EFC->EEFC_FMR = EEFC_FMR_FWS(1)|EEFC_FMR_CLOE;
  400b70:	4a11      	ldr	r2, [pc, #68]	; (400bb8 <system_init_flash+0x80>)
  400b72:	4b10      	ldr	r3, [pc, #64]	; (400bb4 <system_init_flash+0x7c>)
  400b74:	601a      	str	r2, [r3, #0]
  400b76:	4770      	bx	lr
        EFC->EEFC_FMR = EEFC_FMR_FWS(2)|EEFC_FMR_CLOE;
  400b78:	4a10      	ldr	r2, [pc, #64]	; (400bbc <system_init_flash+0x84>)
  400b7a:	4b0e      	ldr	r3, [pc, #56]	; (400bb4 <system_init_flash+0x7c>)
  400b7c:	601a      	str	r2, [r3, #0]
  400b7e:	4770      	bx	lr
          EFC->EEFC_FMR = EEFC_FMR_FWS(3)|EEFC_FMR_CLOE;
  400b80:	4a0f      	ldr	r2, [pc, #60]	; (400bc0 <system_init_flash+0x88>)
  400b82:	4b0c      	ldr	r3, [pc, #48]	; (400bb4 <system_init_flash+0x7c>)
  400b84:	601a      	str	r2, [r3, #0]
  400b86:	4770      	bx	lr
            EFC->EEFC_FMR = EEFC_FMR_FWS(4)|EEFC_FMR_CLOE;
  400b88:	f04f 2204 	mov.w	r2, #67109888	; 0x4000400
  400b8c:	4b09      	ldr	r3, [pc, #36]	; (400bb4 <system_init_flash+0x7c>)
  400b8e:	601a      	str	r2, [r3, #0]
  400b90:	4770      	bx	lr
  400b92:	bf00      	nop
  400b94:	015ef3bf 	.word	0x015ef3bf
  400b98:	02bde77f 	.word	0x02bde77f
  400b9c:	041cdb3f 	.word	0x041cdb3f
  400ba0:	057bceff 	.word	0x057bceff
  400ba4:	06dac2bf 	.word	0x06dac2bf
  400ba8:	0839b67f 	.word	0x0839b67f
  400bac:	04000500 	.word	0x04000500
  400bb0:	04000600 	.word	0x04000600
  400bb4:	400e0c00 	.word	0x400e0c00
  400bb8:	04000100 	.word	0x04000100
  400bbc:	04000200 	.word	0x04000200
  400bc0:	04000300 	.word	0x04000300

00400bc4 <_sbrk>:
{
	static unsigned char *heap = NULL;
	unsigned char *prev_heap;
	int ramend = (int)&__ram_end__;

	if (heap == NULL) {
  400bc4:	4b0a      	ldr	r3, [pc, #40]	; (400bf0 <_sbrk+0x2c>)
  400bc6:	681b      	ldr	r3, [r3, #0]
  400bc8:	b153      	cbz	r3, 400be0 <_sbrk+0x1c>
		heap = (unsigned char *)&_end;
	}
	prev_heap = heap;
  400bca:	4b09      	ldr	r3, [pc, #36]	; (400bf0 <_sbrk+0x2c>)
  400bcc:	681b      	ldr	r3, [r3, #0]

	if (((int)prev_heap + incr) > ramend) {
  400bce:	181a      	adds	r2, r3, r0
  400bd0:	4908      	ldr	r1, [pc, #32]	; (400bf4 <_sbrk+0x30>)
  400bd2:	4291      	cmp	r1, r2
  400bd4:	db08      	blt.n	400be8 <_sbrk+0x24>
		return (caddr_t) -1;	
	}

	heap += incr;
  400bd6:	4610      	mov	r0, r2
  400bd8:	4a05      	ldr	r2, [pc, #20]	; (400bf0 <_sbrk+0x2c>)
  400bda:	6010      	str	r0, [r2, #0]

	return (caddr_t) prev_heap;
  400bdc:	4618      	mov	r0, r3
  400bde:	4770      	bx	lr
		heap = (unsigned char *)&_end;
  400be0:	4a05      	ldr	r2, [pc, #20]	; (400bf8 <_sbrk+0x34>)
  400be2:	4b03      	ldr	r3, [pc, #12]	; (400bf0 <_sbrk+0x2c>)
  400be4:	601a      	str	r2, [r3, #0]
  400be6:	e7f0      	b.n	400bca <_sbrk+0x6>
		return (caddr_t) -1;	
  400be8:	f04f 30ff 	mov.w	r0, #4294967295
}
  400bec:	4770      	bx	lr
  400bee:	bf00      	nop
  400bf0:	20400a50 	.word	0x20400a50
  400bf4:	2045fffc 	.word	0x2045fffc
  400bf8:	20402d08 	.word	0x20402d08

00400bfc <_close>:
}

extern int _close(int file)
{
	return -1;
}
  400bfc:	f04f 30ff 	mov.w	r0, #4294967295
  400c00:	4770      	bx	lr

00400c02 <_fstat>:

extern int _fstat(int file, struct stat *st)
{
	st->st_mode = S_IFCHR;
  400c02:	f44f 5300 	mov.w	r3, #8192	; 0x2000
  400c06:	604b      	str	r3, [r1, #4]

	return 0;
}
  400c08:	2000      	movs	r0, #0
  400c0a:	4770      	bx	lr

00400c0c <_isatty>:

extern int _isatty(int file)
{
	return 1;
}
  400c0c:	2001      	movs	r0, #1
  400c0e:	4770      	bx	lr

00400c10 <_lseek>:

extern int _lseek(int file, int ptr, int dir)
{
	return 0;
}
  400c10:	2000      	movs	r0, #0
  400c12:	4770      	bx	lr

00400c14 <spi_master_transfer>:
 * \param size Size of the buffer.
 * 
 * \brief after function p_buf will contain the received SPI data  
 */
static void spi_master_transfer(void *p_buf, uint32_t size)
{
  400c14:	e92d 43f0 	stmdb	sp!, {r4, r5, r6, r7, r8, r9, lr}
  400c18:	b083      	sub	sp, #12

	uint8_t *p_buffer;

	p_buffer = p_buf;

	for (i = 0; i < size; i++) {
  400c1a:	b1d9      	cbz	r1, 400c54 <spi_master_transfer+0x40>
  400c1c:	4688      	mov	r8, r1
  400c1e:	4605      	mov	r5, r0
  400c20:	4480      	add	r8, r0
		//if (i != size-1){
			spi_write(SPI_MASTER_BASE, p_buffer[i], 0, 0);
  400c22:	4c0f      	ldr	r4, [pc, #60]	; (400c60 <spi_master_transfer+0x4c>)
  400c24:	f8df 9048 	ldr.w	r9, [pc, #72]	; 400c70 <spi_master_transfer+0x5c>
			spi_write(SPI_MASTER_BASE, p_buffer[i], 0, 1);
		}*/
		
		/* Wait transfer done. */
		while ((spi_read_status(SPI_MASTER_BASE) & SPI_SR_RDRF) == 0);
		spi_read(SPI_MASTER_BASE, &data, &uc_pcs);
  400c28:	4e0e      	ldr	r6, [pc, #56]	; (400c64 <spi_master_transfer+0x50>)
  400c2a:	462f      	mov	r7, r5
			spi_write(SPI_MASTER_BASE, p_buffer[i], 0, 0);
  400c2c:	2300      	movs	r3, #0
  400c2e:	461a      	mov	r2, r3
  400c30:	7829      	ldrb	r1, [r5, #0]
  400c32:	4620      	mov	r0, r4
  400c34:	47c8      	blx	r9
 *
 * \return SPI status register value.
 */
static inline uint32_t spi_read_status(Spi *p_spi)
{
	return p_spi->SPI_SR;
  400c36:	6923      	ldr	r3, [r4, #16]
		while ((spi_read_status(SPI_MASTER_BASE) & SPI_SR_RDRF) == 0);
  400c38:	f013 0f01 	tst.w	r3, #1
  400c3c:	d0fb      	beq.n	400c36 <spi_master_transfer+0x22>
		spi_read(SPI_MASTER_BASE, &data, &uc_pcs);
  400c3e:	f10d 0207 	add.w	r2, sp, #7
  400c42:	4631      	mov	r1, r6
  400c44:	4620      	mov	r0, r4
  400c46:	4b08      	ldr	r3, [pc, #32]	; (400c68 <spi_master_transfer+0x54>)
  400c48:	4798      	blx	r3
		p_buffer[i] = data;
  400c4a:	8833      	ldrh	r3, [r6, #0]
  400c4c:	703b      	strb	r3, [r7, #0]
  400c4e:	3501      	adds	r5, #1
	for (i = 0; i < size; i++) {
  400c50:	4545      	cmp	r5, r8
  400c52:	d1ea      	bne.n	400c2a <spi_master_transfer+0x16>
	}
	delay_us(5);
  400c54:	20fd      	movs	r0, #253	; 0xfd
  400c56:	4b05      	ldr	r3, [pc, #20]	; (400c6c <spi_master_transfer+0x58>)
  400c58:	4798      	blx	r3
}
  400c5a:	b003      	add	sp, #12
  400c5c:	e8bd 83f0 	ldmia.w	sp!, {r4, r5, r6, r7, r8, r9, pc}
  400c60:	40008000 	.word	0x40008000
  400c64:	20400a54 	.word	0x20400a54
  400c68:	004003b7 	.word	0x004003b7
  400c6c:	20400001 	.word	0x20400001
  400c70:	004003e7 	.word	0x004003e7

00400c74 <usart_serial_getchar>:
 * \param p_usart   Base address of the USART instance.
 * \param data   Data to read
 *
 */
static inline void usart_serial_getchar(usart_if p_usart, uint8_t *data)
{
  400c74:	b5f0      	push	{r4, r5, r6, r7, lr}
  400c76:	b083      	sub	sp, #12
  400c78:	4605      	mov	r5, r0
  400c7a:	460c      	mov	r4, r1
	uint32_t val = 0;
  400c7c:	2300      	movs	r3, #0
  400c7e:	9301      	str	r3, [sp, #4]
	if (UART == (Uart*)p_usart) {
		while (uart_read((Uart*)p_usart, data));
	}
#else
# ifdef UART0
	if (UART0 == (Uart*)p_usart) {
  400c80:	4b2a      	ldr	r3, [pc, #168]	; (400d2c <usart_serial_getchar+0xb8>)
  400c82:	4298      	cmp	r0, r3
  400c84:	d013      	beq.n	400cae <usart_serial_getchar+0x3a>
		while (uart_read((Uart*)p_usart, data));
	}
# endif
# ifdef UART1
	if (UART1 == (Uart*)p_usart) {
  400c86:	4b2a      	ldr	r3, [pc, #168]	; (400d30 <usart_serial_getchar+0xbc>)
  400c88:	4298      	cmp	r0, r3
  400c8a:	d018      	beq.n	400cbe <usart_serial_getchar+0x4a>
		while (uart_read((Uart*)p_usart, data));
	}
# endif
# ifdef UART2
	if (UART2 == (Uart*)p_usart) {
  400c8c:	4b29      	ldr	r3, [pc, #164]	; (400d34 <usart_serial_getchar+0xc0>)
  400c8e:	4298      	cmp	r0, r3
  400c90:	d01d      	beq.n	400cce <usart_serial_getchar+0x5a>
		while (uart_read((Uart*)p_usart, data));
	}
# endif
# ifdef UART3
	if (UART3 == (Uart*)p_usart) {
  400c92:	4b29      	ldr	r3, [pc, #164]	; (400d38 <usart_serial_getchar+0xc4>)
  400c94:	429d      	cmp	r5, r3
  400c96:	d022      	beq.n	400cde <usart_serial_getchar+0x6a>
		while (usart_read(p_usart, &val));
		*data = (uint8_t)(val & 0xFF);
	}
#else
# ifdef USART0
	if (USART0 == p_usart) {
  400c98:	4b28      	ldr	r3, [pc, #160]	; (400d3c <usart_serial_getchar+0xc8>)
  400c9a:	429d      	cmp	r5, r3
  400c9c:	d027      	beq.n	400cee <usart_serial_getchar+0x7a>
		while (usart_read(p_usart, &val));
		*data = (uint8_t)(val & 0xFF);
	}
# endif
# ifdef USART1
	if (USART1 == p_usart) {
  400c9e:	4b28      	ldr	r3, [pc, #160]	; (400d40 <usart_serial_getchar+0xcc>)
  400ca0:	429d      	cmp	r5, r3
  400ca2:	d02e      	beq.n	400d02 <usart_serial_getchar+0x8e>
		while (usart_read(p_usart, &val));
		*data = (uint8_t)(val & 0xFF);
	}
# endif
# ifdef USART2
	if (USART2 == p_usart) {
  400ca4:	4b27      	ldr	r3, [pc, #156]	; (400d44 <usart_serial_getchar+0xd0>)
  400ca6:	429d      	cmp	r5, r3
  400ca8:	d035      	beq.n	400d16 <usart_serial_getchar+0xa2>
		*data = (uint8_t)(val & 0xFF);
	}
# endif
#endif /* ifdef USART */

}
  400caa:	b003      	add	sp, #12
  400cac:	bdf0      	pop	{r4, r5, r6, r7, pc}
		while (uart_read((Uart*)p_usart, data));
  400cae:	461f      	mov	r7, r3
  400cb0:	4e25      	ldr	r6, [pc, #148]	; (400d48 <usart_serial_getchar+0xd4>)
  400cb2:	4621      	mov	r1, r4
  400cb4:	4638      	mov	r0, r7
  400cb6:	47b0      	blx	r6
  400cb8:	2800      	cmp	r0, #0
  400cba:	d1fa      	bne.n	400cb2 <usart_serial_getchar+0x3e>
  400cbc:	e7e9      	b.n	400c92 <usart_serial_getchar+0x1e>
		while (uart_read((Uart*)p_usart, data));
  400cbe:	461f      	mov	r7, r3
  400cc0:	4e21      	ldr	r6, [pc, #132]	; (400d48 <usart_serial_getchar+0xd4>)
  400cc2:	4621      	mov	r1, r4
  400cc4:	4638      	mov	r0, r7
  400cc6:	47b0      	blx	r6
  400cc8:	2800      	cmp	r0, #0
  400cca:	d1fa      	bne.n	400cc2 <usart_serial_getchar+0x4e>
  400ccc:	e7e4      	b.n	400c98 <usart_serial_getchar+0x24>
		while (uart_read((Uart*)p_usart, data));
  400cce:	461f      	mov	r7, r3
  400cd0:	4e1d      	ldr	r6, [pc, #116]	; (400d48 <usart_serial_getchar+0xd4>)
  400cd2:	4621      	mov	r1, r4
  400cd4:	4638      	mov	r0, r7
  400cd6:	47b0      	blx	r6
  400cd8:	2800      	cmp	r0, #0
  400cda:	d1fa      	bne.n	400cd2 <usart_serial_getchar+0x5e>
  400cdc:	e7df      	b.n	400c9e <usart_serial_getchar+0x2a>
		while (uart_read((Uart*)p_usart, data));
  400cde:	461f      	mov	r7, r3
  400ce0:	4e19      	ldr	r6, [pc, #100]	; (400d48 <usart_serial_getchar+0xd4>)
  400ce2:	4621      	mov	r1, r4
  400ce4:	4638      	mov	r0, r7
  400ce6:	47b0      	blx	r6
  400ce8:	2800      	cmp	r0, #0
  400cea:	d1fa      	bne.n	400ce2 <usart_serial_getchar+0x6e>
  400cec:	e7da      	b.n	400ca4 <usart_serial_getchar+0x30>
		while (usart_read(p_usart, &val));
  400cee:	461e      	mov	r6, r3
  400cf0:	4d16      	ldr	r5, [pc, #88]	; (400d4c <usart_serial_getchar+0xd8>)
  400cf2:	a901      	add	r1, sp, #4
  400cf4:	4630      	mov	r0, r6
  400cf6:	47a8      	blx	r5
  400cf8:	2800      	cmp	r0, #0
  400cfa:	d1fa      	bne.n	400cf2 <usart_serial_getchar+0x7e>
		*data = (uint8_t)(val & 0xFF);
  400cfc:	9b01      	ldr	r3, [sp, #4]
  400cfe:	7023      	strb	r3, [r4, #0]
  400d00:	e7d3      	b.n	400caa <usart_serial_getchar+0x36>
		while (usart_read(p_usart, &val));
  400d02:	461e      	mov	r6, r3
  400d04:	4d11      	ldr	r5, [pc, #68]	; (400d4c <usart_serial_getchar+0xd8>)
  400d06:	a901      	add	r1, sp, #4
  400d08:	4630      	mov	r0, r6
  400d0a:	47a8      	blx	r5
  400d0c:	2800      	cmp	r0, #0
  400d0e:	d1fa      	bne.n	400d06 <usart_serial_getchar+0x92>
		*data = (uint8_t)(val & 0xFF);
  400d10:	9b01      	ldr	r3, [sp, #4]
  400d12:	7023      	strb	r3, [r4, #0]
  400d14:	e7c9      	b.n	400caa <usart_serial_getchar+0x36>
		while (usart_read(p_usart, &val));
  400d16:	461e      	mov	r6, r3
  400d18:	4d0c      	ldr	r5, [pc, #48]	; (400d4c <usart_serial_getchar+0xd8>)
  400d1a:	a901      	add	r1, sp, #4
  400d1c:	4630      	mov	r0, r6
  400d1e:	47a8      	blx	r5
  400d20:	2800      	cmp	r0, #0
  400d22:	d1fa      	bne.n	400d1a <usart_serial_getchar+0xa6>
		*data = (uint8_t)(val & 0xFF);
  400d24:	9b01      	ldr	r3, [sp, #4]
  400d26:	7023      	strb	r3, [r4, #0]
}
  400d28:	e7bf      	b.n	400caa <usart_serial_getchar+0x36>
  400d2a:	bf00      	nop
  400d2c:	400e0800 	.word	0x400e0800
  400d30:	400e0a00 	.word	0x400e0a00
  400d34:	400e1a00 	.word	0x400e1a00
  400d38:	400e1c00 	.word	0x400e1c00
  400d3c:	40024000 	.word	0x40024000
  400d40:	40028000 	.word	0x40028000
  400d44:	4002c000 	.word	0x4002c000
  400d48:	004004c3 	.word	0x004004c3
  400d4c:	0040030b 	.word	0x0040030b

00400d50 <usart_serial_putchar>:
{
  400d50:	b570      	push	{r4, r5, r6, lr}
  400d52:	460c      	mov	r4, r1
	if (UART0 == (Uart*)p_usart) {
  400d54:	4b2a      	ldr	r3, [pc, #168]	; (400e00 <usart_serial_putchar+0xb0>)
  400d56:	4298      	cmp	r0, r3
  400d58:	d013      	beq.n	400d82 <usart_serial_putchar+0x32>
	if (UART1 == (Uart*)p_usart) {
  400d5a:	4b2a      	ldr	r3, [pc, #168]	; (400e04 <usart_serial_putchar+0xb4>)
  400d5c:	4298      	cmp	r0, r3
  400d5e:	d019      	beq.n	400d94 <usart_serial_putchar+0x44>
	if (UART2 == (Uart*)p_usart) {
  400d60:	4b29      	ldr	r3, [pc, #164]	; (400e08 <usart_serial_putchar+0xb8>)
  400d62:	4298      	cmp	r0, r3
  400d64:	d01f      	beq.n	400da6 <usart_serial_putchar+0x56>
	if (UART3 == (Uart*)p_usart) {
  400d66:	4b29      	ldr	r3, [pc, #164]	; (400e0c <usart_serial_putchar+0xbc>)
  400d68:	4298      	cmp	r0, r3
  400d6a:	d025      	beq.n	400db8 <usart_serial_putchar+0x68>
	if (USART0 == p_usart) {
  400d6c:	4b28      	ldr	r3, [pc, #160]	; (400e10 <usart_serial_putchar+0xc0>)
  400d6e:	4298      	cmp	r0, r3
  400d70:	d02b      	beq.n	400dca <usart_serial_putchar+0x7a>
	if (USART1 == p_usart) {
  400d72:	4b28      	ldr	r3, [pc, #160]	; (400e14 <usart_serial_putchar+0xc4>)
  400d74:	4298      	cmp	r0, r3
  400d76:	d031      	beq.n	400ddc <usart_serial_putchar+0x8c>
	if (USART2 == p_usart) {
  400d78:	4b27      	ldr	r3, [pc, #156]	; (400e18 <usart_serial_putchar+0xc8>)
  400d7a:	4298      	cmp	r0, r3
  400d7c:	d037      	beq.n	400dee <usart_serial_putchar+0x9e>
	return 0;
  400d7e:	2000      	movs	r0, #0
}
  400d80:	bd70      	pop	{r4, r5, r6, pc}
		while (uart_write((Uart*)p_usart, c)!=0);
  400d82:	461e      	mov	r6, r3
  400d84:	4d25      	ldr	r5, [pc, #148]	; (400e1c <usart_serial_putchar+0xcc>)
  400d86:	4621      	mov	r1, r4
  400d88:	4630      	mov	r0, r6
  400d8a:	47a8      	blx	r5
  400d8c:	2800      	cmp	r0, #0
  400d8e:	d1fa      	bne.n	400d86 <usart_serial_putchar+0x36>
		return 1;
  400d90:	2001      	movs	r0, #1
  400d92:	bd70      	pop	{r4, r5, r6, pc}
		while (uart_write((Uart*)p_usart, c)!=0);
  400d94:	461e      	mov	r6, r3
  400d96:	4d21      	ldr	r5, [pc, #132]	; (400e1c <usart_serial_putchar+0xcc>)
  400d98:	4621      	mov	r1, r4
  400d9a:	4630      	mov	r0, r6
  400d9c:	47a8      	blx	r5
  400d9e:	2800      	cmp	r0, #0
  400da0:	d1fa      	bne.n	400d98 <usart_serial_putchar+0x48>
		return 1;
  400da2:	2001      	movs	r0, #1
  400da4:	bd70      	pop	{r4, r5, r6, pc}
		while (uart_write((Uart*)p_usart, c)!=0);
  400da6:	461e      	mov	r6, r3
  400da8:	4d1c      	ldr	r5, [pc, #112]	; (400e1c <usart_serial_putchar+0xcc>)
  400daa:	4621      	mov	r1, r4
  400dac:	4630      	mov	r0, r6
  400dae:	47a8      	blx	r5
  400db0:	2800      	cmp	r0, #0
  400db2:	d1fa      	bne.n	400daa <usart_serial_putchar+0x5a>
		return 1;
  400db4:	2001      	movs	r0, #1
  400db6:	bd70      	pop	{r4, r5, r6, pc}
		while (uart_write((Uart*)p_usart, c)!=0);
  400db8:	461e      	mov	r6, r3
  400dba:	4d18      	ldr	r5, [pc, #96]	; (400e1c <usart_serial_putchar+0xcc>)
  400dbc:	4621      	mov	r1, r4
  400dbe:	4630      	mov	r0, r6
  400dc0:	47a8      	blx	r5
  400dc2:	2800      	cmp	r0, #0
  400dc4:	d1fa      	bne.n	400dbc <usart_serial_putchar+0x6c>
		return 1;
  400dc6:	2001      	movs	r0, #1
  400dc8:	bd70      	pop	{r4, r5, r6, pc}
		while (usart_write(p_usart, c)!=0);
  400dca:	461e      	mov	r6, r3
  400dcc:	4d14      	ldr	r5, [pc, #80]	; (400e20 <usart_serial_putchar+0xd0>)
  400dce:	4621      	mov	r1, r4
  400dd0:	4630      	mov	r0, r6
  400dd2:	47a8      	blx	r5
  400dd4:	2800      	cmp	r0, #0
  400dd6:	d1fa      	bne.n	400dce <usart_serial_putchar+0x7e>
		return 1;
  400dd8:	2001      	movs	r0, #1
  400dda:	bd70      	pop	{r4, r5, r6, pc}
		while (usart_write(p_usart, c)!=0);
  400ddc:	461e      	mov	r6, r3
  400dde:	4d10      	ldr	r5, [pc, #64]	; (400e20 <usart_serial_putchar+0xd0>)
  400de0:	4621      	mov	r1, r4
  400de2:	4630      	mov	r0, r6
  400de4:	47a8      	blx	r5
  400de6:	2800      	cmp	r0, #0
  400de8:	d1fa      	bne.n	400de0 <usart_serial_putchar+0x90>
		return 1;
  400dea:	2001      	movs	r0, #1
  400dec:	bd70      	pop	{r4, r5, r6, pc}
		while (usart_write(p_usart, c)!=0);
  400dee:	461e      	mov	r6, r3
  400df0:	4d0b      	ldr	r5, [pc, #44]	; (400e20 <usart_serial_putchar+0xd0>)
  400df2:	4621      	mov	r1, r4
  400df4:	4630      	mov	r0, r6
  400df6:	47a8      	blx	r5
  400df8:	2800      	cmp	r0, #0
  400dfa:	d1fa      	bne.n	400df2 <usart_serial_putchar+0xa2>
		return 1;
  400dfc:	2001      	movs	r0, #1
  400dfe:	bd70      	pop	{r4, r5, r6, pc}
  400e00:	400e0800 	.word	0x400e0800
  400e04:	400e0a00 	.word	0x400e0a00
  400e08:	400e1a00 	.word	0x400e1a00
  400e0c:	400e1c00 	.word	0x400e1c00
  400e10:	40024000 	.word	0x40024000
  400e14:	40028000 	.word	0x40028000
  400e18:	4002c000 	.word	0x4002c000
  400e1c:	004004b1 	.word	0x004004b1
  400e20:	004002f5 	.word	0x004002f5

00400e24 <nRF24_readRegister>:
 * 
 * \param reg register to read
 * \return data register
 */
uint8_t nRF24_readRegister(uint8_t reg)
{
  400e24:	b500      	push	{lr}
  400e26:	b083      	sub	sp, #12
	uint8_t cmd[2] = {R_REGISTER | (REGISTER_MASK & reg), 0xFF};
  400e28:	f000 001f 	and.w	r0, r0, #31
  400e2c:	f88d 0004 	strb.w	r0, [sp, #4]
  400e30:	23ff      	movs	r3, #255	; 0xff
  400e32:	f88d 3005 	strb.w	r3, [sp, #5]
	
	spi_master_transfer(&cmd, sizeof(cmd));
  400e36:	2102      	movs	r1, #2
  400e38:	a801      	add	r0, sp, #4
  400e3a:	4b03      	ldr	r3, [pc, #12]	; (400e48 <nRF24_readRegister+0x24>)
  400e3c:	4798      	blx	r3
	/** contents of cmd after transfer:
	 * [0] contains STATUS register
	 * [1] contains requested register
	*/
	return cmd[1]; 
}
  400e3e:	f89d 0005 	ldrb.w	r0, [sp, #5]
  400e42:	b003      	add	sp, #12
  400e44:	f85d fb04 	ldr.w	pc, [sp], #4
  400e48:	00400c15 	.word	0x00400c15

00400e4c <read_register>:

uint8_t read_register(uint8_t reg, uint8_t* buf, uint8_t len)
{
  400e4c:	b5f8      	push	{r3, r4, r5, r6, r7, lr}
  400e4e:	af00      	add	r7, sp, #0
  400e50:	460e      	mov	r6, r1
  400e52:	4614      	mov	r4, r2
	//1x spi zenden niet 2 commando's
	uint8_t status[len+1];
  400e54:	f102 0308 	add.w	r3, r2, #8
  400e58:	f023 0307 	bic.w	r3, r3, #7
  400e5c:	ebad 0d03 	sub.w	sp, sp, r3
  400e60:	466d      	mov	r5, sp
	status[0] = R_REGISTER | (REGISTER_MASK & reg);
  400e62:	f000 001f 	and.w	r0, r0, #31
  400e66:	f88d 0000 	strb.w	r0, [sp]
	spi_master_transfer(&status, sizeof(status));
  400e6a:	1c51      	adds	r1, r2, #1
  400e6c:	4668      	mov	r0, sp
  400e6e:	4b08      	ldr	r3, [pc, #32]	; (400e90 <read_register+0x44>)
  400e70:	4798      	blx	r3
	
	for (uint8_t i = 0; i< len; i++)
  400e72:	b154      	cbz	r4, 400e8a <read_register+0x3e>
  400e74:	1c68      	adds	r0, r5, #1
  400e76:	1e73      	subs	r3, r6, #1
  400e78:	1e61      	subs	r1, r4, #1
  400e7a:	fa56 f181 	uxtab	r1, r6, r1
	{
		buf[i] = status[i+1];
  400e7e:	f810 2b01 	ldrb.w	r2, [r0], #1
  400e82:	f803 2f01 	strb.w	r2, [r3, #1]!
	for (uint8_t i = 0; i< len; i++)
  400e86:	428b      	cmp	r3, r1
  400e88:	d1f9      	bne.n	400e7e <read_register+0x32>
	}
	
	return status[0];
	
}
  400e8a:	7828      	ldrb	r0, [r5, #0]
  400e8c:	46bd      	mov	sp, r7
  400e8e:	bdf8      	pop	{r3, r4, r5, r6, r7, pc}
  400e90:	00400c15 	.word	0x00400c15

00400e94 <nRF24_writeRegister>:
 * \param reg register to write
 * \param value to write
 * \return STATUS register 
 */
uint8_t nRF24_writeRegister(uint8_t reg, uint8_t val)
{
  400e94:	b500      	push	{lr}
  400e96:	b083      	sub	sp, #12
	uint8_t p_buf[2];
	
	p_buf[0] = (W_REGISTER | (REGISTER_MASK & reg));
  400e98:	f000 001f 	and.w	r0, r0, #31
  400e9c:	f040 0020 	orr.w	r0, r0, #32
  400ea0:	f88d 0004 	strb.w	r0, [sp, #4]
	p_buf[1] = val;
  400ea4:	f88d 1005 	strb.w	r1, [sp, #5]
	/** contents of p_buf before transfer
	* [0] write commando to reg
	* [1] data to write
	*/
	
	spi_master_transfer(p_buf, sizeof(p_buf));
  400ea8:	2102      	movs	r1, #2
  400eaa:	a801      	add	r0, sp, #4
  400eac:	4b03      	ldr	r3, [pc, #12]	; (400ebc <nRF24_writeRegister+0x28>)
  400eae:	4798      	blx	r3
	/** contents of p_buf after transfer
	* [0] Status register
	* [1] unknown data
	*/
	return p_buf[0]; //return STATUS
}
  400eb0:	f89d 0004 	ldrb.w	r0, [sp, #4]
  400eb4:	b003      	add	sp, #12
  400eb6:	f85d fb04 	ldr.w	pc, [sp], #4
  400eba:	bf00      	nop
  400ebc:	00400c15 	.word	0x00400c15

00400ec0 <nRF_writeRegister>:

uint8_t nRF_writeRegister(uint8_t reg, const uint8_t* buf, uint8_t length)
{
  400ec0:	b5f8      	push	{r3, r4, r5, r6, r7, lr}
  400ec2:	af00      	add	r7, sp, #0
	uint8_t p_buf[length+1];
  400ec4:	1c56      	adds	r6, r2, #1
  400ec6:	f102 0308 	add.w	r3, r2, #8
  400eca:	f023 0307 	bic.w	r3, r3, #7
  400ece:	ebad 0d03 	sub.w	sp, sp, r3
  400ed2:	466d      	mov	r5, sp
	
	p_buf[0] = (W_REGISTER | (REGISTER_MASK & reg));
  400ed4:	f000 001f 	and.w	r0, r0, #31
  400ed8:	f040 0020 	orr.w	r0, r0, #32
  400edc:	f88d 0000 	strb.w	r0, [sp]
	
	for (uint8_t i = 0; i < length; i++)
  400ee0:	b152      	cbz	r2, 400ef8 <nRF_writeRegister+0x38>
  400ee2:	1e4b      	subs	r3, r1, #1
  400ee4:	1c68      	adds	r0, r5, #1
  400ee6:	3a01      	subs	r2, #1
  400ee8:	fa51 f482 	uxtab	r4, r1, r2
	{
		p_buf[i+1] = (*buf++);
  400eec:	f813 2f01 	ldrb.w	r2, [r3, #1]!
  400ef0:	f800 2b01 	strb.w	r2, [r0], #1
	for (uint8_t i = 0; i < length; i++)
  400ef4:	42a3      	cmp	r3, r4
  400ef6:	d1f9      	bne.n	400eec <nRF_writeRegister+0x2c>
		//printf("%d || %02x || %02x\n\r", i, p_buf[i], *buf);
	}
	spi_master_transfer(p_buf, sizeof(p_buf));
  400ef8:	4631      	mov	r1, r6
  400efa:	4628      	mov	r0, r5
  400efc:	4b02      	ldr	r3, [pc, #8]	; (400f08 <nRF_writeRegister+0x48>)
  400efe:	4798      	blx	r3
	
	return p_buf[0];
}
  400f00:	7828      	ldrb	r0, [r5, #0]
  400f02:	46bd      	mov	sp, r7
  400f04:	bdf8      	pop	{r3, r4, r5, r6, r7, pc}
  400f06:	bf00      	nop
  400f08:	00400c15 	.word	0x00400c15

00400f0c <nRF24_FlushRx>:
/**
 * \brief flush the RX buffer of the nRF24L01 transceiver
 * \return STATUS
 */
uint8_t nRF24_FlushRx(void)
{
  400f0c:	b500      	push	{lr}
  400f0e:	b083      	sub	sp, #12
	uint8_t cmd;
	cmd = FLUSH_RX;
  400f10:	a802      	add	r0, sp, #8
  400f12:	23e2      	movs	r3, #226	; 0xe2
  400f14:	f800 3d01 	strb.w	r3, [r0, #-1]!
	
	spi_master_transfer(&cmd, sizeof(cmd));
  400f18:	2101      	movs	r1, #1
  400f1a:	4b03      	ldr	r3, [pc, #12]	; (400f28 <nRF24_FlushRx+0x1c>)
  400f1c:	4798      	blx	r3
	
	return cmd;
}
  400f1e:	f89d 0007 	ldrb.w	r0, [sp, #7]
  400f22:	b003      	add	sp, #12
  400f24:	f85d fb04 	ldr.w	pc, [sp], #4
  400f28:	00400c15 	.word	0x00400c15

00400f2c <nRF24_FlushTx>:
/**
 * \brief flush the TX buffer of the nRF24L01 transceiver
 * \return STATUS
 */
uint8_t nRF24_FlushTx(void)
{
  400f2c:	b500      	push	{lr}
  400f2e:	b083      	sub	sp, #12
	uint8_t cmd;
	cmd = FLUSH_TX;
  400f30:	a802      	add	r0, sp, #8
  400f32:	23e1      	movs	r3, #225	; 0xe1
  400f34:	f800 3d01 	strb.w	r3, [r0, #-1]!
	
	spi_master_transfer(&cmd, sizeof(cmd));
  400f38:	2101      	movs	r1, #1
  400f3a:	4b03      	ldr	r3, [pc, #12]	; (400f48 <nRF24_FlushTx+0x1c>)
  400f3c:	4798      	blx	r3
	return cmd;
}
  400f3e:	f89d 0007 	ldrb.w	r0, [sp, #7]
  400f42:	b003      	add	sp, #12
  400f44:	f85d fb04 	ldr.w	pc, [sp], #4
  400f48:	00400c15 	.word	0x00400c15

00400f4c <nRF24_getStatus>:
/**
 * \brief Read the Status register of the nRF24L01 transceiver
 * \return STATUS
 */
uint8_t nRF24_getStatus(void)
{
  400f4c:	b500      	push	{lr}
  400f4e:	b083      	sub	sp, #12
	uint8_t cmd;
	cmd = RF24_NOP;
  400f50:	a802      	add	r0, sp, #8
  400f52:	23ff      	movs	r3, #255	; 0xff
  400f54:	f800 3d01 	strb.w	r3, [r0, #-1]!
	
	spi_master_transfer(&cmd, sizeof(cmd));
  400f58:	2101      	movs	r1, #1
  400f5a:	4b03      	ldr	r3, [pc, #12]	; (400f68 <nRF24_getStatus+0x1c>)
  400f5c:	4798      	blx	r3
	return cmd;
}
  400f5e:	f89d 0007 	ldrb.w	r0, [sp, #7]
  400f62:	b003      	add	sp, #12
  400f64:	f85d fb04 	ldr.w	pc, [sp], #4
  400f68:	00400c15 	.word	0x00400c15

00400f6c <nRF24_setDataRate>:

bool nRF24_setDataRate(rf24_datarate_e speed)
{
  400f6c:	b538      	push	{r3, r4, r5, lr}
  400f6e:	4605      	mov	r5, r0
	bool result = false;
	uint8_t setup = nRF24_readRegister(RF_SETUP);
  400f70:	2006      	movs	r0, #6
  400f72:	4b0c      	ldr	r3, [pc, #48]	; (400fa4 <nRF24_setDataRate+0x38>)
  400f74:	4798      	blx	r3
	setup &= ~((1<<RF_DR));
  400f76:	f000 04f7 	and.w	r4, r0, #247	; 0xf7
	
	if (speed == RF24_2MBPS) {
  400f7a:	2d01      	cmp	r5, #1
  400f7c:	d00b      	beq.n	400f96 <nRF24_setDataRate+0x2a>
		txDelay = 190;
		#else // 16Mhz Arduino
		txDelay = 65;
		#endif
	}
	nRF24_writeRegister(RF_SETUP, setup);
  400f7e:	4621      	mov	r1, r4
  400f80:	2006      	movs	r0, #6
  400f82:	4b09      	ldr	r3, [pc, #36]	; (400fa8 <nRF24_setDataRate+0x3c>)
  400f84:	4798      	blx	r3
	
	if(nRF24_readRegister(RF_SETUP) == setup)
  400f86:	2006      	movs	r0, #6
  400f88:	4b06      	ldr	r3, [pc, #24]	; (400fa4 <nRF24_setDataRate+0x38>)
  400f8a:	4798      	blx	r3
	result = true;
	
	return result;
}
  400f8c:	4284      	cmp	r4, r0
  400f8e:	bf14      	ite	ne
  400f90:	2000      	movne	r0, #0
  400f92:	2001      	moveq	r0, #1
  400f94:	bd38      	pop	{r3, r4, r5, pc}
		setup |= (1<<RF_DR);
  400f96:	f044 0408 	orr.w	r4, r4, #8
		txDelay = 65;
  400f9a:	2241      	movs	r2, #65	; 0x41
  400f9c:	4b03      	ldr	r3, [pc, #12]	; (400fac <nRF24_setDataRate+0x40>)
  400f9e:	601a      	str	r2, [r3, #0]
  400fa0:	e7ed      	b.n	400f7e <nRF24_setDataRate+0x12>
  400fa2:	bf00      	nop
  400fa4:	00400e25 	.word	0x00400e25
  400fa8:	00400e95 	.word	0x00400e95
  400fac:	20400ad8 	.word	0x20400ad8

00400fb0 <getDataRate>:

rf24_datarate_e getDataRate(void)
{
  400fb0:	b508      	push	{r3, lr}
	rf24_datarate_e result;
	uint8_t dr = nRF24_readRegister(RF_SETUP) & ((1<<RF_DR_LOW) | (1<<RF_DR_HIGH));
  400fb2:	2006      	movs	r0, #6
  400fb4:	4b04      	ldr	r3, [pc, #16]	; (400fc8 <getDataRate+0x18>)
  400fb6:	4798      	blx	r3
	
	if (dr == (1<<RF_DR_HIGH)) {
  400fb8:	f000 0028 	and.w	r0, r0, #40	; 0x28
	} else {
		// '00' = 1MBPS
		result = RF24_1MBPS;
	}
	return result;
}
  400fbc:	2808      	cmp	r0, #8
  400fbe:	bf14      	ite	ne
  400fc0:	2000      	movne	r0, #0
  400fc2:	2001      	moveq	r0, #1
  400fc4:	bd08      	pop	{r3, pc}
  400fc6:	bf00      	nop
  400fc8:	00400e25 	.word	0x00400e25

00400fcc <getCRCLength>:

rf24_crclength_e getCRCLength(void)
{
  400fcc:	b538      	push	{r3, r4, r5, lr}
	rf24_crclength_e result = RF24_CRC_DISABLED;
	
	
	uint8_t config = nRF24_readRegister(NRF_CONFIG) & ((1<<CRCO) | (1<<EN_CRC));
  400fce:	2000      	movs	r0, #0
  400fd0:	4d08      	ldr	r5, [pc, #32]	; (400ff4 <getCRCLength+0x28>)
  400fd2:	47a8      	blx	r5
  400fd4:	4604      	mov	r4, r0
	uint8_t AA = nRF24_readRegister(EN_AA);
  400fd6:	2001      	movs	r0, #1
  400fd8:	47a8      	blx	r5
	
    if (config & (1<<EN_CRC) || AA) {
  400fda:	f014 0f08 	tst.w	r4, #8
  400fde:	d102      	bne.n	400fe6 <getCRCLength+0x1a>
  400fe0:	b908      	cbnz	r0, 400fe6 <getCRCLength+0x1a>
	rf24_crclength_e result = RF24_CRC_DISABLED;
  400fe2:	2000      	movs	r0, #0
		    result = RF24_CRC_8;
	    }
    }

    return result;	
}
  400fe4:	bd38      	pop	{r3, r4, r5, pc}
	    if (config & (1<<CRCO)) {
  400fe6:	f004 0404 	and.w	r4, r4, #4
		    result = RF24_CRC_8;
  400fea:	2c00      	cmp	r4, #0
  400fec:	bf14      	ite	ne
  400fee:	2002      	movne	r0, #2
  400ff0:	2001      	moveq	r0, #1
  400ff2:	bd38      	pop	{r3, r4, r5, pc}
  400ff4:	00400e25 	.word	0x00400e25

00400ff8 <nRF24_getPALevel>:

uint8_t nRF24_getPALevel(void)
{
  400ff8:	b508      	push	{r3, lr}
	return (nRF24_readRegister(RF_SETUP) & (1<<(RF_PWR_LOW) | (1<<RF_PWR_HIGH))) >> 1;
  400ffa:	2006      	movs	r0, #6
  400ffc:	4b02      	ldr	r3, [pc, #8]	; (401008 <nRF24_getPALevel+0x10>)
  400ffe:	4798      	blx	r3
}
  401000:	f3c0 0041 	ubfx	r0, r0, #1, #2
  401004:	bd08      	pop	{r3, pc}
  401006:	bf00      	nop
  401008:	00400e25 	.word	0x00400e25

0040100c <print_status>:
	return true;
}

#ifdef _DEBUG
void print_status (uint8_t status)
{
  40100c:	b510      	push	{r4, lr}
  40100e:	b084      	sub	sp, #16
  401010:	4601      	mov	r1, r0
	printf("STATUS\t\t = 0x%02x RX_DR=%x TX_DS=%x MAX_RT=%x RX_P_NO=%x TX_FULL=%x\r\n", status, (status & (1<<RX_DR)) ? 1 : 0, (status & (1<<TX_DS)) ? 1 : 0, (status & (1<<MAX_RT)) ? 1 : 0, (status & (1<<RX_P_NO)) ? 1 : 0, (status & (1<<TX_FULL)) ? 1 : 0);
  401012:	f000 0301 	and.w	r3, r0, #1
  401016:	9302      	str	r3, [sp, #8]
  401018:	f3c0 0340 	ubfx	r3, r0, #1, #1
  40101c:	9301      	str	r3, [sp, #4]
  40101e:	f3c0 1300 	ubfx	r3, r0, #4, #1
  401022:	9300      	str	r3, [sp, #0]
  401024:	f3c0 1340 	ubfx	r3, r0, #5, #1
  401028:	f3c0 1280 	ubfx	r2, r0, #6, #1
  40102c:	4802      	ldr	r0, [pc, #8]	; (401038 <print_status+0x2c>)
  40102e:	4c03      	ldr	r4, [pc, #12]	; (40103c <print_status+0x30>)
  401030:	47a0      	blx	r4
}
  401032:	b004      	add	sp, #16
  401034:	bd10      	pop	{r4, pc}
  401036:	bf00      	nop
  401038:	00404b00 	.word	0x00404b00
  40103c:	00401c01 	.word	0x00401c01

00401040 <print_address_register>:
//functie print verkeerde registers
void print_address_register(const char* name, uint8_t reg, uint8_t qty)
{
  401040:	e92d 4ff0 	stmdb	sp!, {r4, r5, r6, r7, r8, r9, sl, fp, lr}
  401044:	b083      	sub	sp, #12
  401046:	af00      	add	r7, sp, #0
  401048:	460e      	mov	r6, r1
  40104a:	4614      	mov	r4, r2
	printf("%s\t", name);
  40104c:	4601      	mov	r1, r0
  40104e:	481b      	ldr	r0, [pc, #108]	; (4010bc <print_address_register+0x7c>)
  401050:	4b1b      	ldr	r3, [pc, #108]	; (4010c0 <print_address_register+0x80>)
  401052:	4798      	blx	r3
	while(qty--){
  401054:	b35c      	cbz	r4, 4010ae <print_address_register+0x6e>
  401056:	4434      	add	r4, r6
  401058:	fa5f fa84 	uxtb.w	sl, r4
		uint8_t buffer[addr_width];
  40105c:	f8df b070 	ldr.w	fp, [pc, #112]	; 4010d0 <print_address_register+0x90>
	while(qty--){
  401060:	f8c7 d004 	str.w	sp, [r7, #4]
		uint8_t buffer[addr_width];
  401064:	f89b 4000 	ldrb.w	r4, [fp]
  401068:	1de3      	adds	r3, r4, #7
  40106a:	f023 0307 	bic.w	r3, r3, #7
  40106e:	ebad 0d03 	sub.w	sp, sp, r3
  401072:	466d      	mov	r5, sp
		read_register(reg++, buffer, sizeof(buffer));
  401074:	f106 0901 	add.w	r9, r6, #1
  401078:	fa5f f989 	uxtb.w	r9, r9
  40107c:	4622      	mov	r2, r4
  40107e:	4669      	mov	r1, sp
  401080:	4630      	mov	r0, r6
  401082:	4b10      	ldr	r3, [pc, #64]	; (4010c4 <print_address_register+0x84>)
  401084:	4798      	blx	r3
		
		printf(" 0x");
  401086:	4810      	ldr	r0, [pc, #64]	; (4010c8 <print_address_register+0x88>)
  401088:	4b0d      	ldr	r3, [pc, #52]	; (4010c0 <print_address_register+0x80>)
  40108a:	4798      	blx	r3
		uint8_t* bufptr = buffer + sizeof(buffer);
		while(--bufptr >= buffer){
  40108c:	3c01      	subs	r4, #1
  40108e:	192c      	adds	r4, r5, r4
  401090:	d208      	bcs.n	4010a4 <print_address_register+0x64>
			printf("%02x", *bufptr);
  401092:	f8df 8040 	ldr.w	r8, [pc, #64]	; 4010d4 <print_address_register+0x94>
  401096:	4e0a      	ldr	r6, [pc, #40]	; (4010c0 <print_address_register+0x80>)
  401098:	f814 1901 	ldrb.w	r1, [r4], #-1
  40109c:	4640      	mov	r0, r8
  40109e:	47b0      	blx	r6
		while(--bufptr >= buffer){
  4010a0:	42a5      	cmp	r5, r4
  4010a2:	d9f9      	bls.n	401098 <print_address_register+0x58>
  4010a4:	f8d7 d004 	ldr.w	sp, [r7, #4]
		read_register(reg++, buffer, sizeof(buffer));
  4010a8:	464e      	mov	r6, r9
	while(qty--){
  4010aa:	45ca      	cmp	sl, r9
  4010ac:	d1d8      	bne.n	401060 <print_address_register+0x20>
		}
	}
	printf("\r\n");
  4010ae:	4807      	ldr	r0, [pc, #28]	; (4010cc <print_address_register+0x8c>)
  4010b0:	4b03      	ldr	r3, [pc, #12]	; (4010c0 <print_address_register+0x80>)
  4010b2:	4798      	blx	r3
}
  4010b4:	370c      	adds	r7, #12
  4010b6:	46bd      	mov	sp, r7
  4010b8:	e8bd 8ff0 	ldmia.w	sp!, {r4, r5, r6, r7, r8, r9, sl, fp, pc}
  4010bc:	00404ae8 	.word	0x00404ae8
  4010c0:	00401c01 	.word	0x00401c01
  4010c4:	00400e4d 	.word	0x00400e4d
  4010c8:	00404aec 	.word	0x00404aec
  4010cc:	004049a4 	.word	0x004049a4
  4010d0:	20400a98 	.word	0x20400a98
  4010d4:	00404af0 	.word	0x00404af0

004010d8 <print_byte_register>:

void print_byte_register(const char* name, uint8_t reg, uint8_t qty)
{
  4010d8:	e92d 43f8 	stmdb	sp!, {r3, r4, r5, r6, r7, r8, r9, lr}
  4010dc:	460d      	mov	r5, r1
  4010de:	4616      	mov	r6, r2
	printf("%s\t", name);
  4010e0:	4601      	mov	r1, r0
  4010e2:	480d      	ldr	r0, [pc, #52]	; (401118 <print_byte_register+0x40>)
  4010e4:	4b0d      	ldr	r3, [pc, #52]	; (40111c <print_byte_register+0x44>)
  4010e6:	4798      	blx	r3
	while (qty--)
  4010e8:	b186      	cbz	r6, 40110c <print_byte_register+0x34>
  4010ea:	442e      	add	r6, r5
  4010ec:	b2f6      	uxtb	r6, r6
	{
		printf(" 0x%02x", nRF24_readRegister(reg++));
  4010ee:	f8df 9034 	ldr.w	r9, [pc, #52]	; 401124 <print_byte_register+0x4c>
  4010f2:	f8df 8034 	ldr.w	r8, [pc, #52]	; 401128 <print_byte_register+0x50>
  4010f6:	4f09      	ldr	r7, [pc, #36]	; (40111c <print_byte_register+0x44>)
  4010f8:	1c6c      	adds	r4, r5, #1
  4010fa:	b2e4      	uxtb	r4, r4
  4010fc:	4628      	mov	r0, r5
  4010fe:	47c8      	blx	r9
  401100:	4601      	mov	r1, r0
  401102:	4640      	mov	r0, r8
  401104:	47b8      	blx	r7
  401106:	4625      	mov	r5, r4
	while (qty--)
  401108:	42a6      	cmp	r6, r4
  40110a:	d1f5      	bne.n	4010f8 <print_byte_register+0x20>
	}
	printf("\r\n");
  40110c:	4804      	ldr	r0, [pc, #16]	; (401120 <print_byte_register+0x48>)
  40110e:	4b03      	ldr	r3, [pc, #12]	; (40111c <print_byte_register+0x44>)
  401110:	4798      	blx	r3
  401112:	e8bd 83f8 	ldmia.w	sp!, {r3, r4, r5, r6, r7, r8, r9, pc}
  401116:	bf00      	nop
  401118:	00404ae8 	.word	0x00404ae8
  40111c:	00401c01 	.word	0x00401c01
  401120:	004049a4 	.word	0x004049a4
  401124:	00400e25 	.word	0x00400e25
  401128:	00404af8 	.word	0x00404af8

0040112c <printDetails>:
}

void printDetails(void)
{
  40112c:	b570      	push	{r4, r5, r6, lr}
	printf("SPI Speed\t = %ld MHz\r\n",gs_ul_spi_clock/1000000);
  40112e:	2105      	movs	r1, #5
  401130:	4826      	ldr	r0, [pc, #152]	; (4011cc <printDetails+0xa0>)
  401132:	4d27      	ldr	r5, [pc, #156]	; (4011d0 <printDetails+0xa4>)
  401134:	47a8      	blx	r5
	print_status(nRF24_getStatus());
  401136:	4b27      	ldr	r3, [pc, #156]	; (4011d4 <printDetails+0xa8>)
  401138:	4798      	blx	r3
  40113a:	4b27      	ldr	r3, [pc, #156]	; (4011d8 <printDetails+0xac>)
  40113c:	4798      	blx	r3
	print_address_register("RX_ADDR_P0-1", RX_ADDR_P0, 2);
  40113e:	2202      	movs	r2, #2
  401140:	210a      	movs	r1, #10
  401142:	4826      	ldr	r0, [pc, #152]	; (4011dc <printDetails+0xb0>)
  401144:	4e26      	ldr	r6, [pc, #152]	; (4011e0 <printDetails+0xb4>)
  401146:	47b0      	blx	r6
	print_byte_register("RX_ADDR_P2-5", RX_ADDR_P2, 4);
  401148:	2204      	movs	r2, #4
  40114a:	210c      	movs	r1, #12
  40114c:	4825      	ldr	r0, [pc, #148]	; (4011e4 <printDetails+0xb8>)
  40114e:	4c26      	ldr	r4, [pc, #152]	; (4011e8 <printDetails+0xbc>)
  401150:	47a0      	blx	r4
	print_address_register("TX_ADDR\t", TX_ADDR, 1);
  401152:	2201      	movs	r2, #1
  401154:	2110      	movs	r1, #16
  401156:	4825      	ldr	r0, [pc, #148]	; (4011ec <printDetails+0xc0>)
  401158:	47b0      	blx	r6

	print_byte_register("RX_PW_P0-5", RX_PW_P0, 6);
  40115a:	2206      	movs	r2, #6
  40115c:	2111      	movs	r1, #17
  40115e:	4824      	ldr	r0, [pc, #144]	; (4011f0 <printDetails+0xc4>)
  401160:	47a0      	blx	r4
	print_byte_register("SETUP_AW", SETUP_AW, 1);
  401162:	2201      	movs	r2, #1
  401164:	2103      	movs	r1, #3
  401166:	4823      	ldr	r0, [pc, #140]	; (4011f4 <printDetails+0xc8>)
  401168:	47a0      	blx	r4
	print_byte_register("EN_AA\t", EN_AA, 1);
  40116a:	2201      	movs	r2, #1
  40116c:	4611      	mov	r1, r2
  40116e:	4822      	ldr	r0, [pc, #136]	; (4011f8 <printDetails+0xcc>)
  401170:	47a0      	blx	r4
	print_byte_register("EN_RXADDR", EN_RXADDR, 1);
  401172:	2201      	movs	r2, #1
  401174:	2102      	movs	r1, #2
  401176:	4821      	ldr	r0, [pc, #132]	; (4011fc <printDetails+0xd0>)
  401178:	47a0      	blx	r4
	print_byte_register("RF_CH\t", RF_CH, 1);
  40117a:	2201      	movs	r2, #1
  40117c:	2105      	movs	r1, #5
  40117e:	4820      	ldr	r0, [pc, #128]	; (401200 <printDetails+0xd4>)
  401180:	47a0      	blx	r4
	print_byte_register("RF_SETUP", RF_SETUP, 1);
  401182:	2201      	movs	r2, #1
  401184:	2106      	movs	r1, #6
  401186:	481f      	ldr	r0, [pc, #124]	; (401204 <printDetails+0xd8>)
  401188:	47a0      	blx	r4
	print_byte_register("CONFIG\t", NRF_CONFIG, 1);
  40118a:	2201      	movs	r2, #1
  40118c:	2100      	movs	r1, #0
  40118e:	481e      	ldr	r0, [pc, #120]	; (401208 <printDetails+0xdc>)
  401190:	47a0      	blx	r4
	print_byte_register("DYNPD/FEATURE", DYNPD, 2);
  401192:	2202      	movs	r2, #2
  401194:	211c      	movs	r1, #28
  401196:	481d      	ldr	r0, [pc, #116]	; (40120c <printDetails+0xe0>)
  401198:	47a0      	blx	r4
	 
	printf("Data Rate\t = %s\r\n", rf24_datarate_e_str_P[getDataRate()]);
  40119a:	4b1d      	ldr	r3, [pc, #116]	; (401210 <printDetails+0xe4>)
  40119c:	4798      	blx	r3
  40119e:	4b1d      	ldr	r3, [pc, #116]	; (401214 <printDetails+0xe8>)
  4011a0:	f853 1020 	ldr.w	r1, [r3, r0, lsl #2]
  4011a4:	481c      	ldr	r0, [pc, #112]	; (401218 <printDetails+0xec>)
  4011a6:	47a8      	blx	r5
	printf("Model\t\t = %s\r\n", rf24_model_e_str_P[isPVariant()]);
  4011a8:	491c      	ldr	r1, [pc, #112]	; (40121c <printDetails+0xf0>)
  4011aa:	481d      	ldr	r0, [pc, #116]	; (401220 <printDetails+0xf4>)
  4011ac:	47a8      	blx	r5
	printf("CRC Length\t = %s\r\n", rf24_crclength_e_str_P[getCRCLength()]);
  4011ae:	4b1d      	ldr	r3, [pc, #116]	; (401224 <printDetails+0xf8>)
  4011b0:	4798      	blx	r3
  4011b2:	4b1d      	ldr	r3, [pc, #116]	; (401228 <printDetails+0xfc>)
  4011b4:	f853 1020 	ldr.w	r1, [r3, r0, lsl #2]
  4011b8:	481c      	ldr	r0, [pc, #112]	; (40122c <printDetails+0x100>)
  4011ba:	47a8      	blx	r5
	printf("PA Power\t = %s\r\n", rf24_pa_dbm_e_str_P[nRF24_getPALevel()]);
  4011bc:	4b1c      	ldr	r3, [pc, #112]	; (401230 <printDetails+0x104>)
  4011be:	4798      	blx	r3
  4011c0:	4b1c      	ldr	r3, [pc, #112]	; (401234 <printDetails+0x108>)
  4011c2:	f853 1020 	ldr.w	r1, [r3, r0, lsl #2]
  4011c6:	481c      	ldr	r0, [pc, #112]	; (401238 <printDetails+0x10c>)
  4011c8:	47a8      	blx	r5
  4011ca:	bd70      	pop	{r4, r5, r6, pc}
  4011cc:	00404a00 	.word	0x00404a00
  4011d0:	00401c01 	.word	0x00401c01
  4011d4:	00400f4d 	.word	0x00400f4d
  4011d8:	0040100d 	.word	0x0040100d
  4011dc:	00404a18 	.word	0x00404a18
  4011e0:	00401041 	.word	0x00401041
  4011e4:	00404a28 	.word	0x00404a28
  4011e8:	004010d9 	.word	0x004010d9
  4011ec:	00404a38 	.word	0x00404a38
  4011f0:	00404a44 	.word	0x00404a44
  4011f4:	00404a50 	.word	0x00404a50
  4011f8:	00404a5c 	.word	0x00404a5c
  4011fc:	00404a64 	.word	0x00404a64
  401200:	00404a70 	.word	0x00404a70
  401204:	00404a78 	.word	0x00404a78
  401208:	00404a84 	.word	0x00404a84
  40120c:	00404a8c 	.word	0x00404a8c
  401210:	00400fb1 	.word	0x00400fb1
  401214:	00404b88 	.word	0x00404b88
  401218:	00404a9c 	.word	0x00404a9c
  40121c:	00404b94 	.word	0x00404b94
  401220:	00404ab0 	.word	0x00404ab0
  401224:	00400fcd 	.word	0x00400fcd
  401228:	00404b64 	.word	0x00404b64
  40122c:	00404ac0 	.word	0x00404ac0
  401230:	00400ff9 	.word	0x00400ff9
  401234:	00404bc0 	.word	0x00404bc0
  401238:	00404ad4 	.word	0x00404ad4

0040123c <nRF24_writePayload>:
}
#endif

uint8_t nRF24_writePayload(const void* buf, uint8_t data_len, const uint8_t writeType)
{
  40123c:	e92d 43f8 	stmdb	sp!, {r3, r4, r5, r6, r7, r8, r9, lr}
  401240:	af00      	add	r7, sp, #0
  401242:	4606      	mov	r6, r0
  401244:	460c      	mov	r4, r1
  401246:	4691      	mov	r9, r2
	uint8_t s_buff[data_len + 1];
  401248:	f101 0801 	add.w	r8, r1, #1
  40124c:	f101 0308 	add.w	r3, r1, #8
  401250:	f023 0307 	bic.w	r3, r3, #7
  401254:	ebad 0d03 	sub.w	sp, sp, r3
  401258:	466d      	mov	r5, sp
	uint8_t* current = (uint8_t*) buf;
	
	#ifdef _DEBUG
	printf("[Writing %u bytes", data_len);
  40125a:	4813      	ldr	r0, [pc, #76]	; (4012a8 <nRF24_writePayload+0x6c>)
  40125c:	4b13      	ldr	r3, [pc, #76]	; (4012ac <nRF24_writePayload+0x70>)
  40125e:	4798      	blx	r3
	#endif
	
	s_buff[0] = writeType;
  401260:	f88d 9000 	strb.w	r9, [sp]
	for (uint8_t i = 1; i< data_len+1; i++)
  401264:	f1b8 0f01 	cmp.w	r8, #1
  401268:	dd0a      	ble.n	401280 <nRF24_writePayload+0x44>
  40126a:	2201      	movs	r2, #1
  40126c:	4613      	mov	r3, r2
	{
		s_buff[i] = current[i-1];
  40126e:	18f1      	adds	r1, r6, r3
  401270:	f811 1c01 	ldrb.w	r1, [r1, #-1]
  401274:	54a9      	strb	r1, [r5, r2]
	for (uint8_t i = 1; i< data_len+1; i++)
  401276:	3301      	adds	r3, #1
  401278:	b2db      	uxtb	r3, r3
  40127a:	461a      	mov	r2, r3
  40127c:	4598      	cmp	r8, r3
  40127e:	dcf6      	bgt.n	40126e <nRF24_writePayload+0x32>
	}
	
	spi_master_transfer(s_buff, sizeof(s_buff));
  401280:	4641      	mov	r1, r8
  401282:	4628      	mov	r0, r5
  401284:	4b0a      	ldr	r3, [pc, #40]	; (4012b0 <nRF24_writePayload+0x74>)
  401286:	4798      	blx	r3
	
	for (uint8_t i = 0; i< data_len; i++)
  401288:	b154      	cbz	r4, 4012a0 <nRF24_writePayload+0x64>
  40128a:	1c6a      	adds	r2, r5, #1
  40128c:	1e73      	subs	r3, r6, #1
  40128e:	3c01      	subs	r4, #1
  401290:	fa56 f684 	uxtab	r6, r6, r4
	{
		current[i] = s_buff[i+1];
  401294:	f812 1b01 	ldrb.w	r1, [r2], #1
  401298:	f803 1f01 	strb.w	r1, [r3, #1]!
	for (uint8_t i = 0; i< data_len; i++)
  40129c:	42b3      	cmp	r3, r6
  40129e:	d1f9      	bne.n	401294 <nRF24_writePayload+0x58>
	}
	
	return s_buff[0];
}
  4012a0:	7828      	ldrb	r0, [r5, #0]
  4012a2:	46bd      	mov	sp, r7
  4012a4:	e8bd 83f8 	ldmia.w	sp!, {r3, r4, r5, r6, r7, r8, r9, pc}
  4012a8:	004049d4 	.word	0x004049d4
  4012ac:	00401c01 	.word	0x00401c01
  4012b0:	00400c15 	.word	0x00400c15

004012b4 <startFastWrite>:

void startFastWrite(const void* buf, uint8_t len, const bool multicast)
{
  4012b4:	b508      	push	{r3, lr}
	nRF24_writePayload(buf, len, multicast ? W_TX_PAYLOAD_NO_ACK : W_TX_PAYLOAD); // ?: operator a ? b : c // if a, b else c
  4012b6:	2a00      	cmp	r2, #0
  4012b8:	bf14      	ite	ne
  4012ba:	22b0      	movne	r2, #176	; 0xb0
  4012bc:	22a0      	moveq	r2, #160	; 0xa0
  4012be:	4b03      	ldr	r3, [pc, #12]	; (4012cc <startFastWrite+0x18>)
  4012c0:	4798      	blx	r3
		base->PIO_SODR = arch_ioport_pin_to_mask(pin);
  4012c2:	f44f 7200 	mov.w	r2, #512	; 0x200
  4012c6:	4b02      	ldr	r3, [pc, #8]	; (4012d0 <startFastWrite+0x1c>)
  4012c8:	631a      	str	r2, [r3, #48]	; 0x30
  4012ca:	bd08      	pop	{r3, pc}
  4012cc:	0040123d 	.word	0x0040123d
  4012d0:	400e1200 	.word	0x400e1200

004012d4 <nRFwrite>:
	ioport_set_pin_level(CE, 1);

}

bool nRFwrite(const void* buf, uint8_t len, const bool multicast)
{
  4012d4:	b510      	push	{r4, lr}
	startFastWrite(buf, len, multicast);
  4012d6:	4b0c      	ldr	r3, [pc, #48]	; (401308 <nRFwrite+0x34>)
  4012d8:	4798      	blx	r3
	
	while(!(nRF24_getStatus() & ((1<<TX_DS) | (1<<MAX_RT))));
  4012da:	4c0c      	ldr	r4, [pc, #48]	; (40130c <nRFwrite+0x38>)
  4012dc:	47a0      	blx	r4
  4012de:	f010 0f30 	tst.w	r0, #48	; 0x30
  4012e2:	d0fb      	beq.n	4012dc <nRFwrite+0x8>
		base->PIO_CODR = arch_ioport_pin_to_mask(pin);
  4012e4:	f44f 7200 	mov.w	r2, #512	; 0x200
  4012e8:	4b09      	ldr	r3, [pc, #36]	; (401310 <nRFwrite+0x3c>)
  4012ea:	635a      	str	r2, [r3, #52]	; 0x34
	ioport_set_pin_level(CE, 0);
	uint8_t status = nRF24_writeRegister(NRF_STATUS, (1<<RX_DR) | (1<<TX_DS) | (1<<MAX_RT));
  4012ec:	2170      	movs	r1, #112	; 0x70
  4012ee:	2007      	movs	r0, #7
  4012f0:	4b08      	ldr	r3, [pc, #32]	; (401314 <nRFwrite+0x40>)
  4012f2:	4798      	blx	r3
	
	if(status & (1<<MAX_RT)){
  4012f4:	f010 0f10 	tst.w	r0, #16
  4012f8:	d101      	bne.n	4012fe <nRFwrite+0x2a>
		nRF24_FlushTx();
		return 0;
	}
	return 1;
  4012fa:	2001      	movs	r0, #1
}
  4012fc:	bd10      	pop	{r4, pc}
		nRF24_FlushTx();
  4012fe:	4b06      	ldr	r3, [pc, #24]	; (401318 <nRFwrite+0x44>)
  401300:	4798      	blx	r3
		return 0;
  401302:	2000      	movs	r0, #0
  401304:	bd10      	pop	{r4, pc}
  401306:	bf00      	nop
  401308:	004012b5 	.word	0x004012b5
  40130c:	00400f4d 	.word	0x00400f4d
  401310:	400e1200 	.word	0x400e1200
  401314:	00400e95 	.word	0x00400e95
  401318:	00400f2d 	.word	0x00400f2d

0040131c <nRF24_setAddressWidth>:
	
	return s_buff[0];
}

void nRF24_setAddressWidth(uint8_t width)
{
  40131c:	b510      	push	{r4, lr}
	if (width -= 2){
  40131e:	3802      	subs	r0, #2
  401320:	f010 00ff 	ands.w	r0, r0, #255	; 0xff
  401324:	d107      	bne.n	401336 <nRF24_setAddressWidth+0x1a>
		nRF24_writeRegister(SETUP_AW, width % 4);
		addr_width = (width % 4) + 2;
		} else {
		nRF24_writeRegister(SETUP_AW, 0);
  401326:	2100      	movs	r1, #0
  401328:	2003      	movs	r0, #3
  40132a:	4b08      	ldr	r3, [pc, #32]	; (40134c <nRF24_setAddressWidth+0x30>)
  40132c:	4798      	blx	r3
		addr_width = 2;
  40132e:	2202      	movs	r2, #2
  401330:	4b07      	ldr	r3, [pc, #28]	; (401350 <nRF24_setAddressWidth+0x34>)
  401332:	701a      	strb	r2, [r3, #0]
  401334:	bd10      	pop	{r4, pc}
		nRF24_writeRegister(SETUP_AW, width % 4);
  401336:	f000 0403 	and.w	r4, r0, #3
  40133a:	4621      	mov	r1, r4
  40133c:	2003      	movs	r0, #3
  40133e:	4b03      	ldr	r3, [pc, #12]	; (40134c <nRF24_setAddressWidth+0x30>)
  401340:	4798      	blx	r3
		addr_width = (width % 4) + 2;
  401342:	1ca0      	adds	r0, r4, #2
  401344:	4b02      	ldr	r3, [pc, #8]	; (401350 <nRF24_setAddressWidth+0x34>)
  401346:	7018      	strb	r0, [r3, #0]
  401348:	bd10      	pop	{r4, pc}
  40134a:	bf00      	nop
  40134c:	00400e95 	.word	0x00400e95
  401350:	20400a98 	.word	0x20400a98

00401354 <nRF24_setCRCLength>:
{
	nRF24_writeRegister(SETUP_RETR, (delay & 0xF) << ARD | (count & 0xF) <<ARC );
}

void nRF24_setCRCLength(rf24_crclength_e length)
{
  401354:	b510      	push	{r4, lr}
  401356:	4604      	mov	r4, r0
	uint8_t config = nRF24_readRegister(NRF_CONFIG) & ~((1<<CRCO) | (1<<EN_CRC));
  401358:	2000      	movs	r0, #0
  40135a:	4b07      	ldr	r3, [pc, #28]	; (401378 <nRF24_setCRCLength+0x24>)
  40135c:	4798      	blx	r3
  40135e:	f000 01f3 	and.w	r1, r0, #243	; 0xf3
	
	if (length == RF24_CRC_DISABLED){
  401362:	b12c      	cbz	r4, 401370 <nRF24_setCRCLength+0x1c>
		// do nothing we turned it off above
	} 
	else if (length == RF24_CRC_8){
  401364:	2c01      	cmp	r4, #1
		config |= (1<<EN_CRC);
  401366:	bf0c      	ite	eq
  401368:	f041 0108 	orreq.w	r1, r1, #8
	} 
	else //CRC 16 bit
	{
		config |= (1<<EN_CRC);
		config |= (1<<CRCO);
  40136c:	f041 010c 	orrne.w	r1, r1, #12
	}
	nRF24_writeRegister(NRF_CONFIG, config);
  401370:	2000      	movs	r0, #0
  401372:	4b02      	ldr	r3, [pc, #8]	; (40137c <nRF24_setCRCLength+0x28>)
  401374:	4798      	blx	r3
  401376:	bd10      	pop	{r4, pc}
  401378:	00400e25 	.word	0x00400e25
  40137c:	00400e95 	.word	0x00400e95

00401380 <toggle_features>:
}

void toggle_features(void)
{
  401380:	b500      	push	{lr}
  401382:	b083      	sub	sp, #12
	uint8_t config[2] = {ACTIVATE, 0x73};
  401384:	4b05      	ldr	r3, [pc, #20]	; (40139c <toggle_features+0x1c>)
  401386:	881b      	ldrh	r3, [r3, #0]
  401388:	a802      	add	r0, sp, #8
  40138a:	f820 3d04 	strh.w	r3, [r0, #-4]!
	
	spi_master_transfer(config, sizeof(config));
  40138e:	2102      	movs	r1, #2
  401390:	4b03      	ldr	r3, [pc, #12]	; (4013a0 <toggle_features+0x20>)
  401392:	4798      	blx	r3
}
  401394:	b003      	add	sp, #12
  401396:	f85d fb04 	ldr.w	pc, [sp], #4
  40139a:	bf00      	nop
  40139c:	004048f4 	.word	0x004048f4
  4013a0:	00400c15 	.word	0x00400c15

004013a4 <nRF24_setChannel>:

void nRF24_setChannel(uint8_t channel)
{
  4013a4:	b508      	push	{r3, lr}
	const uint8_t max_channel = 125;
	if (channel > max_channel)
  4013a6:	287d      	cmp	r0, #125	; 0x7d
		nRF24_writeRegister(RF_CH, max_channel);
  4013a8:	bf8c      	ite	hi
  4013aa:	217d      	movhi	r1, #125	; 0x7d
	else
		nRF24_writeRegister(RF_CH, channel);
  4013ac:	4601      	movls	r1, r0
  4013ae:	2005      	movs	r0, #5
  4013b0:	4b01      	ldr	r3, [pc, #4]	; (4013b8 <nRF24_setChannel+0x14>)
  4013b2:	4798      	blx	r3
  4013b4:	bd08      	pop	{r3, pc}
  4013b6:	bf00      	nop
  4013b8:	00400e95 	.word	0x00400e95

004013bc <nRF24_powerUp>:
}

void nRF24_powerUp(void)
{
  4013bc:	b508      	push	{r3, lr}
	uint8_t config = nRF24_readRegister(NRF_CONFIG);
  4013be:	2000      	movs	r0, #0
  4013c0:	4b07      	ldr	r3, [pc, #28]	; (4013e0 <nRF24_powerUp+0x24>)
  4013c2:	4798      	blx	r3
	
	if (!(config & (1<<PWR_UP))){
  4013c4:	f010 0f02 	tst.w	r0, #2
  4013c8:	d000      	beq.n	4013cc <nRF24_powerUp+0x10>
  4013ca:	bd08      	pop	{r3, pc}
		nRF24_writeRegister(NRF_CONFIG, config | (1<<PWR_UP));
  4013cc:	f040 0102 	orr.w	r1, r0, #2
  4013d0:	b2c9      	uxtb	r1, r1
  4013d2:	2000      	movs	r0, #0
  4013d4:	4b03      	ldr	r3, [pc, #12]	; (4013e4 <nRF24_powerUp+0x28>)
  4013d6:	4798      	blx	r3
		delay_ms(5);
  4013d8:	4803      	ldr	r0, [pc, #12]	; (4013e8 <nRF24_powerUp+0x2c>)
  4013da:	4b04      	ldr	r3, [pc, #16]	; (4013ec <nRF24_powerUp+0x30>)
  4013dc:	4798      	blx	r3
	}
}
  4013de:	e7f4      	b.n	4013ca <nRF24_powerUp+0xe>
  4013e0:	00400e25 	.word	0x00400e25
  4013e4:	00400e95 	.word	0x00400e95
  4013e8:	0003dbc2 	.word	0x0003dbc2
  4013ec:	20400001 	.word	0x20400001

004013f0 <nRF24_stopListening>:
		nRF24_FlushTx();
	}
}

void nRF24_stopListening(void)
{
  4013f0:	b538      	push	{r3, r4, r5, lr}
  4013f2:	f44f 7200 	mov.w	r2, #512	; 0x200
  4013f6:	4b21      	ldr	r3, [pc, #132]	; (40147c <nRF24_stopListening+0x8c>)
  4013f8:	635a      	str	r2, [r3, #52]	; 0x34
	ioport_set_pin_level(CE, 0);
	
	delay_us(txDelay);
  4013fa:	4b21      	ldr	r3, [pc, #132]	; (401480 <nRF24_stopListening+0x90>)
  4013fc:	6819      	ldr	r1, [r3, #0]
  4013fe:	2900      	cmp	r1, #0
  401400:	d034      	beq.n	40146c <nRF24_stopListening+0x7c>
  401402:	4a20      	ldr	r2, [pc, #128]	; (401484 <nRF24_stopListening+0x94>)
  401404:	2300      	movs	r3, #0
  401406:	4c20      	ldr	r4, [pc, #128]	; (401488 <nRF24_stopListening+0x98>)
  401408:	2500      	movs	r5, #0
  40140a:	4820      	ldr	r0, [pc, #128]	; (40148c <nRF24_stopListening+0x9c>)
  40140c:	fbe0 4501 	umlal	r4, r5, r0, r1
  401410:	4620      	mov	r0, r4
  401412:	4629      	mov	r1, r5
  401414:	4c1e      	ldr	r4, [pc, #120]	; (401490 <nRF24_stopListening+0xa0>)
  401416:	47a0      	blx	r4
  401418:	4b1e      	ldr	r3, [pc, #120]	; (401494 <nRF24_stopListening+0xa4>)
  40141a:	4798      	blx	r3
	if (nRF24_readRegister(FEATURE) & 1<<(EN_ACK_PAY))
  40141c:	201d      	movs	r0, #29
  40141e:	4b1e      	ldr	r3, [pc, #120]	; (401498 <nRF24_stopListening+0xa8>)
  401420:	4798      	blx	r3
  401422:	f010 0f02 	tst.w	r0, #2
  401426:	d011      	beq.n	40144c <nRF24_stopListening+0x5c>
	{
		delay_us(txDelay);
  401428:	4b15      	ldr	r3, [pc, #84]	; (401480 <nRF24_stopListening+0x90>)
  40142a:	6819      	ldr	r1, [r3, #0]
  40142c:	b311      	cbz	r1, 401474 <nRF24_stopListening+0x84>
  40142e:	4a15      	ldr	r2, [pc, #84]	; (401484 <nRF24_stopListening+0x94>)
  401430:	2300      	movs	r3, #0
  401432:	4c15      	ldr	r4, [pc, #84]	; (401488 <nRF24_stopListening+0x98>)
  401434:	2500      	movs	r5, #0
  401436:	4815      	ldr	r0, [pc, #84]	; (40148c <nRF24_stopListening+0x9c>)
  401438:	fbe0 4501 	umlal	r4, r5, r0, r1
  40143c:	4620      	mov	r0, r4
  40143e:	4629      	mov	r1, r5
  401440:	4c13      	ldr	r4, [pc, #76]	; (401490 <nRF24_stopListening+0xa0>)
  401442:	47a0      	blx	r4
  401444:	4b13      	ldr	r3, [pc, #76]	; (401494 <nRF24_stopListening+0xa4>)
  401446:	4798      	blx	r3
		nRF24_FlushTx();
  401448:	4b14      	ldr	r3, [pc, #80]	; (40149c <nRF24_stopListening+0xac>)
  40144a:	4798      	blx	r3
	}
	nRF24_writeRegister(NRF_CONFIG, (nRF24_readRegister(NRF_CONFIG)) & ~(1<<PRIM_RX));
  40144c:	2000      	movs	r0, #0
  40144e:	4d12      	ldr	r5, [pc, #72]	; (401498 <nRF24_stopListening+0xa8>)
  401450:	47a8      	blx	r5
  401452:	f000 01fe 	and.w	r1, r0, #254	; 0xfe
  401456:	2000      	movs	r0, #0
  401458:	4c11      	ldr	r4, [pc, #68]	; (4014a0 <nRF24_stopListening+0xb0>)
  40145a:	47a0      	blx	r4
	nRF24_writeRegister(EN_RXADDR, nRF24_readRegister(EN_RXADDR) | (1<< pipe_enable_s[0])); 
  40145c:	2002      	movs	r0, #2
  40145e:	47a8      	blx	r5
  401460:	f040 0101 	orr.w	r1, r0, #1
  401464:	b2c9      	uxtb	r1, r1
  401466:	2002      	movs	r0, #2
  401468:	47a0      	blx	r4
  40146a:	bd38      	pop	{r3, r4, r5, pc}
	delay_us(txDelay);
  40146c:	2033      	movs	r0, #51	; 0x33
  40146e:	4b09      	ldr	r3, [pc, #36]	; (401494 <nRF24_stopListening+0xa4>)
  401470:	4798      	blx	r3
  401472:	e7d3      	b.n	40141c <nRF24_stopListening+0x2c>
		delay_us(txDelay);
  401474:	2033      	movs	r0, #51	; 0x33
  401476:	4b07      	ldr	r3, [pc, #28]	; (401494 <nRF24_stopListening+0xa4>)
  401478:	4798      	blx	r3
  40147a:	e7e5      	b.n	401448 <nRF24_stopListening+0x58>
  40147c:	400e1200 	.word	0x400e1200
  401480:	20400ad8 	.word	0x20400ad8
  401484:	005a83e0 	.word	0x005a83e0
  401488:	005a83df 	.word	0x005a83df
  40148c:	11e1a300 	.word	0x11e1a300
  401490:	004018a1 	.word	0x004018a1
  401494:	20400001 	.word	0x20400001
  401498:	00400e25 	.word	0x00400e25
  40149c:	00400f2d 	.word	0x00400f2d
  4014a0:	00400e95 	.word	0x00400e95

004014a4 <nRF24_begin>:
}

bool nRF24_begin(void)
{
  4014a4:	b538      	push	{r3, r4, r5, lr}
		base->PIO_OER = arch_ioport_pin_to_mask(pin);
  4014a6:	4b1a      	ldr	r3, [pc, #104]	; (401510 <nRF24_begin+0x6c>)
  4014a8:	f44f 7200 	mov.w	r2, #512	; 0x200
  4014ac:	611a      	str	r2, [r3, #16]
	base->PIO_OWER = arch_ioport_pin_to_mask(pin);
  4014ae:	f8c3 20a0 	str.w	r2, [r3, #160]	; 0xa0
		base->PIO_CODR = arch_ioport_pin_to_mask(pin);
  4014b2:	635a      	str	r2, [r3, #52]	; 0x34
	uint8_t setup = 0;
	ioport_set_pin_dir(CE, IOPORT_DIR_OUTPUT);//ce_pin PC9
	ioport_set_pin_level(CE, 0);
	
	nRF24_writeRegister(NRF_CONFIG, 0x0C);
  4014b4:	210c      	movs	r1, #12
  4014b6:	2000      	movs	r0, #0
  4014b8:	4c16      	ldr	r4, [pc, #88]	; (401514 <nRF24_begin+0x70>)
  4014ba:	47a0      	blx	r4
	nRF24_writeRegister(SETUP_RETR, (delay & 0xF) << ARD | (count & 0xF) <<ARC );
  4014bc:	215f      	movs	r1, #95	; 0x5f
  4014be:	2004      	movs	r0, #4
  4014c0:	47a0      	blx	r4
	nRF24_setRetries(5, 15);
	
	nRF24_setDataRate(RF24_1MBPS);
  4014c2:	2000      	movs	r0, #0
  4014c4:	4b14      	ldr	r3, [pc, #80]	; (401518 <nRF24_begin+0x74>)
  4014c6:	4798      	blx	r3
	nRF24_setCRCLength(RF24_CRC_16);
  4014c8:	2002      	movs	r0, #2
  4014ca:	4b14      	ldr	r3, [pc, #80]	; (40151c <nRF24_begin+0x78>)
  4014cc:	4798      	blx	r3
	toggle_features();
  4014ce:	4b14      	ldr	r3, [pc, #80]	; (401520 <nRF24_begin+0x7c>)
  4014d0:	4798      	blx	r3
	
	//reset current status
	nRF24_writeRegister(NRF_STATUS, (1<<RX_DR) | (1<<TX_DS) | (1<<MAX_RT));
  4014d2:	2170      	movs	r1, #112	; 0x70
  4014d4:	2007      	movs	r0, #7
  4014d6:	47a0      	blx	r4
	
	nRF24_setChannel(76);
  4014d8:	204c      	movs	r0, #76	; 0x4c
  4014da:	4b12      	ldr	r3, [pc, #72]	; (401524 <nRF24_begin+0x80>)
  4014dc:	4798      	blx	r3
	nRF24_setAddressWidth(ADDR_5bytes);
  4014de:	2005      	movs	r0, #5
  4014e0:	4b11      	ldr	r3, [pc, #68]	; (401528 <nRF24_begin+0x84>)
  4014e2:	4798      	blx	r3
	
	nRF24_FlushRx();
  4014e4:	4b11      	ldr	r3, [pc, #68]	; (40152c <nRF24_begin+0x88>)
  4014e6:	4798      	blx	r3
	nRF24_FlushTx();
  4014e8:	4b11      	ldr	r3, [pc, #68]	; (401530 <nRF24_begin+0x8c>)
  4014ea:	4798      	blx	r3
	
	nRF24_powerUp();
  4014ec:	4b11      	ldr	r3, [pc, #68]	; (401534 <nRF24_begin+0x90>)
  4014ee:	4798      	blx	r3
	
	nRF24_writeRegister(NRF_CONFIG, (nRF24_readRegister(NRF_CONFIG)) & ~(1<<PRIM_RX));
  4014f0:	2000      	movs	r0, #0
  4014f2:	4d11      	ldr	r5, [pc, #68]	; (401538 <nRF24_begin+0x94>)
  4014f4:	47a8      	blx	r5
  4014f6:	f000 01fe 	and.w	r1, r0, #254	; 0xfe
  4014fa:	2000      	movs	r0, #0
  4014fc:	47a0      	blx	r4
	setup = nRF24_readRegister(RF_SETUP);
  4014fe:	2006      	movs	r0, #6
  401500:	47a8      	blx	r5
	
	return (setup != 0 && setup != 0xFF);
  401502:	3801      	subs	r0, #1
  401504:	b2c0      	uxtb	r0, r0
}
  401506:	28fd      	cmp	r0, #253	; 0xfd
  401508:	bf8c      	ite	hi
  40150a:	2000      	movhi	r0, #0
  40150c:	2001      	movls	r0, #1
  40150e:	bd38      	pop	{r3, r4, r5, pc}
  401510:	400e1200 	.word	0x400e1200
  401514:	00400e95 	.word	0x00400e95
  401518:	00400f6d 	.word	0x00400f6d
  40151c:	00401355 	.word	0x00401355
  401520:	00401381 	.word	0x00401381
  401524:	004013a5 	.word	0x004013a5
  401528:	0040131d 	.word	0x0040131d
  40152c:	00400f0d 	.word	0x00400f0d
  401530:	00400f2d 	.word	0x00400f2d
  401534:	004013bd 	.word	0x004013bd
  401538:	00400e25 	.word	0x00400e25

0040153c <nRF24_openWritingPipe>:

void nRF24_openWritingPipe(uint64_t address)
{
  40153c:	b570      	push	{r4, r5, r6, lr}
  40153e:	b082      	sub	sp, #8
  401540:	ac02      	add	r4, sp, #8
  401542:	e964 0102 	strd	r0, r1, [r4, #-8]!
	nRF_writeRegister(RX_ADDR_P0, (uint8_t *)(&address), addr_width);
  401546:	4e08      	ldr	r6, [pc, #32]	; (401568 <nRF24_openWritingPipe+0x2c>)
  401548:	7832      	ldrb	r2, [r6, #0]
  40154a:	4621      	mov	r1, r4
  40154c:	200a      	movs	r0, #10
  40154e:	4d07      	ldr	r5, [pc, #28]	; (40156c <nRF24_openWritingPipe+0x30>)
  401550:	47a8      	blx	r5
	nRF_writeRegister(TX_ADDR, (uint8_t *)(&address), addr_width);
  401552:	7832      	ldrb	r2, [r6, #0]
  401554:	4621      	mov	r1, r4
  401556:	2010      	movs	r0, #16
  401558:	47a8      	blx	r5
	
	nRF24_writeRegister(RX_PW_P0, payload_size);
  40155a:	4b05      	ldr	r3, [pc, #20]	; (401570 <nRF24_openWritingPipe+0x34>)
  40155c:	7819      	ldrb	r1, [r3, #0]
  40155e:	2011      	movs	r0, #17
  401560:	4b04      	ldr	r3, [pc, #16]	; (401574 <nRF24_openWritingPipe+0x38>)
  401562:	4798      	blx	r3
}
  401564:	b002      	add	sp, #8
  401566:	bd70      	pop	{r4, r5, r6, pc}
  401568:	20400a98 	.word	0x20400a98
  40156c:	00400ec1 	.word	0x00400ec1
  401570:	20400010 	.word	0x20400010
  401574:	00400e95 	.word	0x00400e95

00401578 <nRF24_openReadingPipe>:
{
	return payload_size;
}

void nRF24_openReadingPipe(uint8_t pipe, uint64_t address)
{	
  401578:	b510      	push	{r4, lr}
  40157a:	b082      	sub	sp, #8
  40157c:	e9cd 2300 	strd	r2, r3, [sp]
	if (pipe == 0){
  401580:	4604      	mov	r4, r0
  401582:	b1e8      	cbz	r0, 4015c0 <nRF24_openReadingPipe+0x48>
		memcpy(pipe0_reading_address, &address, addr_width);
	}
	if (pipe <= 5){
  401584:	2805      	cmp	r0, #5
  401586:	d80d      	bhi.n	4015a4 <nRF24_openReadingPipe+0x2c>
		if (pipe < 2){
  401588:	2801      	cmp	r0, #1
  40158a:	d91f      	bls.n	4015cc <nRF24_openReadingPipe+0x54>
			nRF_writeRegister(pipe_s[pipe], (const uint8_t *) (&address), addr_width);
		} else {
			nRF_writeRegister(pipe_s[pipe], (const uint8_t *) (&address), 1);
  40158c:	2201      	movs	r2, #1
  40158e:	4669      	mov	r1, sp
  401590:	4b12      	ldr	r3, [pc, #72]	; (4015dc <nRF24_openReadingPipe+0x64>)
  401592:	5c18      	ldrb	r0, [r3, r0]
  401594:	4b12      	ldr	r3, [pc, #72]	; (4015e0 <nRF24_openReadingPipe+0x68>)
  401596:	4798      	blx	r3
		}
		nRF24_writeRegister(pipe_size_s[pipe], payload_size);
  401598:	4b12      	ldr	r3, [pc, #72]	; (4015e4 <nRF24_openReadingPipe+0x6c>)
  40159a:	7819      	ldrb	r1, [r3, #0]
  40159c:	4b12      	ldr	r3, [pc, #72]	; (4015e8 <nRF24_openReadingPipe+0x70>)
  40159e:	5d18      	ldrb	r0, [r3, r4]
  4015a0:	4b12      	ldr	r3, [pc, #72]	; (4015ec <nRF24_openReadingPipe+0x74>)
  4015a2:	4798      	blx	r3
	}
	nRF24_writeRegister(EN_RXADDR, nRF24_readRegister(EN_RXADDR) | (1 << pipe_enable_s[pipe]));
  4015a4:	2002      	movs	r0, #2
  4015a6:	4b12      	ldr	r3, [pc, #72]	; (4015f0 <nRF24_openReadingPipe+0x78>)
  4015a8:	4798      	blx	r3
  4015aa:	4b12      	ldr	r3, [pc, #72]	; (4015f4 <nRF24_openReadingPipe+0x7c>)
  4015ac:	5d1b      	ldrb	r3, [r3, r4]
  4015ae:	2101      	movs	r1, #1
  4015b0:	4099      	lsls	r1, r3
  4015b2:	4301      	orrs	r1, r0
  4015b4:	b2c9      	uxtb	r1, r1
  4015b6:	2002      	movs	r0, #2
  4015b8:	4b0c      	ldr	r3, [pc, #48]	; (4015ec <nRF24_openReadingPipe+0x74>)
  4015ba:	4798      	blx	r3
}
  4015bc:	b002      	add	sp, #8
  4015be:	bd10      	pop	{r4, pc}
		memcpy(pipe0_reading_address, &address, addr_width);
  4015c0:	4b0d      	ldr	r3, [pc, #52]	; (4015f8 <nRF24_openReadingPipe+0x80>)
  4015c2:	781a      	ldrb	r2, [r3, #0]
  4015c4:	4669      	mov	r1, sp
  4015c6:	480d      	ldr	r0, [pc, #52]	; (4015fc <nRF24_openReadingPipe+0x84>)
  4015c8:	4b0d      	ldr	r3, [pc, #52]	; (401600 <nRF24_openReadingPipe+0x88>)
  4015ca:	4798      	blx	r3
			nRF_writeRegister(pipe_s[pipe], (const uint8_t *) (&address), addr_width);
  4015cc:	4b0a      	ldr	r3, [pc, #40]	; (4015f8 <nRF24_openReadingPipe+0x80>)
  4015ce:	781a      	ldrb	r2, [r3, #0]
  4015d0:	4669      	mov	r1, sp
  4015d2:	4b02      	ldr	r3, [pc, #8]	; (4015dc <nRF24_openReadingPipe+0x64>)
  4015d4:	5d18      	ldrb	r0, [r3, r4]
  4015d6:	4b02      	ldr	r3, [pc, #8]	; (4015e0 <nRF24_openReadingPipe+0x68>)
  4015d8:	4798      	blx	r3
  4015da:	e7dd      	b.n	401598 <nRF24_openReadingPipe+0x20>
  4015dc:	004049f0 	.word	0x004049f0
  4015e0:	00400ec1 	.word	0x00400ec1
  4015e4:	20400010 	.word	0x20400010
  4015e8:	004049f8 	.word	0x004049f8
  4015ec:	00400e95 	.word	0x00400e95
  4015f0:	00400e25 	.word	0x00400e25
  4015f4:	004049e8 	.word	0x004049e8
  4015f8:	20400a98 	.word	0x20400a98
  4015fc:	20400ab8 	.word	0x20400ab8
  401600:	00401c29 	.word	0x00401c29

00401604 <nRF24_setPALevel>:
	}
	return 0;
}

void nRF24_setPALevel(uint8_t level)
{
  401604:	b510      	push	{r4, lr}
  401606:	4604      	mov	r4, r0
	uint8_t setup = nRF24_readRegister(RF_SETUP) & 0xF8;
  401608:	2006      	movs	r0, #6
  40160a:	4b08      	ldr	r3, [pc, #32]	; (40162c <nRF24_setPALevel+0x28>)
  40160c:	4798      	blx	r3
  40160e:	f000 01f8 	and.w	r1, r0, #248	; 0xf8
	
	
	if (level > 3) {
  401612:	2c03      	cmp	r4, #3
  401614:	d808      	bhi.n	401628 <nRF24_setPALevel+0x24>
		level = (RF_PA_MAX << 1) + 1;
	} else {
		level = (level << 1) + 1;
  401616:	0064      	lsls	r4, r4, #1
  401618:	3401      	adds	r4, #1
  40161a:	f004 04ff 	and.w	r4, r4, #255	; 0xff
	}
	nRF24_writeRegister(RF_SETUP, setup |= level);
  40161e:	4321      	orrs	r1, r4
  401620:	2006      	movs	r0, #6
  401622:	4b03      	ldr	r3, [pc, #12]	; (401630 <nRF24_setPALevel+0x2c>)
  401624:	4798      	blx	r3
  401626:	bd10      	pop	{r4, pc}
		level = (RF_PA_MAX << 1) + 1;
  401628:	2407      	movs	r4, #7
  40162a:	e7f8      	b.n	40161e <nRF24_setPALevel+0x1a>
  40162c:	00400e25 	.word	0x00400e25
  401630:	00400e95 	.word	0x00400e95

00401634 <nRF24_write>:
	
	nRF24_writeRegister(NRF_STATUS, (1<<RX_DR) | (1<<MAX_RT) | (1<<TX_DS));	
}

bool nRF24_write(const void* buf, uint8_t len)
{
  401634:	b508      	push	{r3, lr}
	return nRFwrite(buf, len, 0);
  401636:	2200      	movs	r2, #0
  401638:	4b01      	ldr	r3, [pc, #4]	; (401640 <nRF24_write+0xc>)
  40163a:	4798      	blx	r3
}
  40163c:	bd08      	pop	{r3, pc}
  40163e:	bf00      	nop
  401640:	004012d5 	.word	0x004012d5
  401644:	00000000 	.word	0x00000000

00401648 <main>:

int main (void)
{
  401648:	e92d 47f0 	stmdb	sp!, {r4, r5, r6, r7, r8, r9, sl, lr}
  40164c:	b086      	sub	sp, #24
	
	/* Initialize the SAM system. */
	sysclk_init();
  40164e:	4b68      	ldr	r3, [pc, #416]	; (4017f0 <main+0x1a8>)
  401650:	4798      	blx	r3
	board_init();
  401652:	4b68      	ldr	r3, [pc, #416]	; (4017f4 <main+0x1ac>)
  401654:	4798      	blx	r3
 * \param opt         Options needed to set up RS232 communication (see \ref usart_options_t).
 *
 */
static inline void stdio_serial_init(volatile void *usart, const usart_serial_options_t *opt)
{
	stdio_base = (void *)usart;
  401656:	4c68      	ldr	r4, [pc, #416]	; (4017f8 <main+0x1b0>)
  401658:	4b68      	ldr	r3, [pc, #416]	; (4017fc <main+0x1b4>)
  40165a:	601c      	str	r4, [r3, #0]
	ptr_put = (int (*)(void volatile*,char))&usart_serial_putchar;
  40165c:	4a68      	ldr	r2, [pc, #416]	; (401800 <main+0x1b8>)
  40165e:	4b69      	ldr	r3, [pc, #420]	; (401804 <main+0x1bc>)
  401660:	601a      	str	r2, [r3, #0]
	ptr_get = (void (*)(void volatile*,char*))&usart_serial_getchar;
  401662:	4a69      	ldr	r2, [pc, #420]	; (401808 <main+0x1c0>)
  401664:	4b69      	ldr	r3, [pc, #420]	; (40180c <main+0x1c4>)
  401666:	601a      	str	r2, [r3, #0]
	usart_settings.baudrate = opt->baudrate;
  401668:	f44f 33e1 	mov.w	r3, #115200	; 0x1c200
  40166c:	9300      	str	r3, [sp, #0]
	usart_settings.char_length = opt->charlength;
  40166e:	23c0      	movs	r3, #192	; 0xc0
  401670:	9301      	str	r3, [sp, #4]
	usart_settings.parity_type = opt->paritytype;
  401672:	f44f 6300 	mov.w	r3, #2048	; 0x800
  401676:	9302      	str	r3, [sp, #8]
	usart_settings.stop_bits= opt->stopbits;
  401678:	2500      	movs	r5, #0
  40167a:	9503      	str	r5, [sp, #12]
	usart_settings.channel_mode= US_MR_CHMODE_NORMAL;
  40167c:	9504      	str	r5, [sp, #16]
  40167e:	200e      	movs	r0, #14
  401680:	4b63      	ldr	r3, [pc, #396]	; (401810 <main+0x1c8>)
  401682:	4798      	blx	r3
		usart_init_rs232(p_usart, &usart_settings,
  401684:	4a63      	ldr	r2, [pc, #396]	; (401814 <main+0x1cc>)
  401686:	4669      	mov	r1, sp
  401688:	4620      	mov	r0, r4
  40168a:	4b63      	ldr	r3, [pc, #396]	; (401818 <main+0x1d0>)
  40168c:	4798      	blx	r3
		usart_enable_tx(p_usart);
  40168e:	4620      	mov	r0, r4
  401690:	4b62      	ldr	r3, [pc, #392]	; (40181c <main+0x1d4>)
  401692:	4798      	blx	r3
		usart_enable_rx(p_usart);
  401694:	4620      	mov	r0, r4
  401696:	4b62      	ldr	r3, [pc, #392]	; (401820 <main+0x1d8>)
  401698:	4798      	blx	r3
	fdevopen((int (*)(char, FILE*))(_write),(int (*)(FILE*))(_read));
#  endif
#  if UC3 || SAM
	// For AVR32 and SAM GCC
	// Specify that stdout and stdin should not be buffered.
	setbuf(stdout, NULL);
  40169a:	4e62      	ldr	r6, [pc, #392]	; (401824 <main+0x1dc>)
  40169c:	6833      	ldr	r3, [r6, #0]
  40169e:	4629      	mov	r1, r5
  4016a0:	6898      	ldr	r0, [r3, #8]
  4016a2:	4c61      	ldr	r4, [pc, #388]	; (401828 <main+0x1e0>)
  4016a4:	47a0      	blx	r4
	setbuf(stdin, NULL);
  4016a6:	6833      	ldr	r3, [r6, #0]
  4016a8:	4629      	mov	r1, r5
  4016aa:	6858      	ldr	r0, [r3, #4]
  4016ac:	47a0      	blx	r4

	/* Initialize the console UART. */
	configure_console();

	/* Output example information. */
	puts(STRING_HEADER);
  4016ae:	485f      	ldr	r0, [pc, #380]	; (40182c <main+0x1e4>)
  4016b0:	4c5f      	ldr	r4, [pc, #380]	; (401830 <main+0x1e8>)
  4016b2:	47a0      	blx	r4
    NVIC->ICPR[(((uint32_t)IRQn) >> 5UL)] = (uint32_t)(1UL << (((uint32_t)IRQn) & 0x1FUL));
  4016b4:	4b5f      	ldr	r3, [pc, #380]	; (401834 <main+0x1ec>)
  4016b6:	f44f 1200 	mov.w	r2, #2097152	; 0x200000
  4016ba:	f8c3 2180 	str.w	r2, [r3, #384]	; 0x180
    NVIC->ICER[(((uint32_t)IRQn) >> 5UL)] = (uint32_t)(1UL << (((uint32_t)IRQn) & 0x1FUL));
  4016be:	f8c3 2080 	str.w	r2, [r3, #128]	; 0x80
  __ASM volatile ("dsb 0xF":::"memory");
  4016c2:	f3bf 8f4f 	dsb	sy
  __ASM volatile ("isb 0xF":::"memory");
  4016c6:	f3bf 8f6f 	isb	sy
    NVIC->IP[((uint32_t)IRQn)]                = (uint8_t)((priority << (8U - __NVIC_PRIO_BITS)) & (uint32_t)0xFFUL);
  4016ca:	f883 5315 	strb.w	r5, [r3, #789]	; 0x315
    NVIC->ISER[(((uint32_t)IRQn) >> 5UL)] = (uint32_t)(1UL << (((uint32_t)IRQn) & 0x1FUL));
  4016ce:	601a      	str	r2, [r3, #0]
	printf("Setting SPI clock #%lu ... \n\r", (unsigned long)gs_ul_spi_clock);
  4016d0:	4959      	ldr	r1, [pc, #356]	; (401838 <main+0x1f0>)
  4016d2:	485a      	ldr	r0, [pc, #360]	; (40183c <main+0x1f4>)
  4016d4:	4f5a      	ldr	r7, [pc, #360]	; (401840 <main+0x1f8>)
  4016d6:	47b8      	blx	r7
	puts("-I- Initialize SPI as master\r");
  4016d8:	485a      	ldr	r0, [pc, #360]	; (401844 <main+0x1fc>)
  4016da:	47a0      	blx	r4
	spi_enable_clock(SPI_MASTER_BASE);
  4016dc:	4c5a      	ldr	r4, [pc, #360]	; (401848 <main+0x200>)
  4016de:	4620      	mov	r0, r4
  4016e0:	4b5a      	ldr	r3, [pc, #360]	; (40184c <main+0x204>)
  4016e2:	4798      	blx	r3
	p_spi->SPI_CR = SPI_CR_SPIDIS;
  4016e4:	f04f 0a02 	mov.w	sl, #2
  4016e8:	f8c4 a000 	str.w	sl, [r4]
	p_spi->SPI_CR = SPI_CR_SWRST;
  4016ec:	2380      	movs	r3, #128	; 0x80
  4016ee:	6023      	str	r3, [r4, #0]
	p_spi->SPI_CR = SPI_CR_LASTXFER;
  4016f0:	f04f 7380 	mov.w	r3, #16777216	; 0x1000000
  4016f4:	6023      	str	r3, [r4, #0]
	p_spi->SPI_MR |= SPI_MR_MSTR;
  4016f6:	6863      	ldr	r3, [r4, #4]
  4016f8:	f043 0301 	orr.w	r3, r3, #1
  4016fc:	6063      	str	r3, [r4, #4]
	p_spi->SPI_MR |= SPI_MR_MODFDIS;
  4016fe:	6863      	ldr	r3, [r4, #4]
  401700:	f043 0310 	orr.w	r3, r3, #16
  401704:	6063      	str	r3, [r4, #4]
	spi_set_peripheral_chip_select_value(SPI_MASTER_BASE, SPI_CHIP_PCS);
  401706:	210d      	movs	r1, #13
  401708:	4620      	mov	r0, r4
  40170a:	4b51      	ldr	r3, [pc, #324]	; (401850 <main+0x208>)
  40170c:	4798      	blx	r3
	spi_set_clock_polarity(SPI_MASTER_BASE, SPI_CHIP_SEL, SPI_CLK_POLARITY);
  40170e:	462a      	mov	r2, r5
  401710:	2101      	movs	r1, #1
  401712:	4620      	mov	r0, r4
  401714:	4b4f      	ldr	r3, [pc, #316]	; (401854 <main+0x20c>)
  401716:	4798      	blx	r3
	spi_set_clock_phase(SPI_MASTER_BASE, SPI_CHIP_SEL, SPI_CLK_PHASE);
  401718:	2201      	movs	r2, #1
  40171a:	4611      	mov	r1, r2
  40171c:	4620      	mov	r0, r4
  40171e:	4b4e      	ldr	r3, [pc, #312]	; (401858 <main+0x210>)
  401720:	4798      	blx	r3
	spi_set_bits_per_transfer(SPI_MASTER_BASE, SPI_CHIP_SEL,
  401722:	462a      	mov	r2, r5
  401724:	2101      	movs	r1, #1
  401726:	4620      	mov	r0, r4
  401728:	4b4c      	ldr	r3, [pc, #304]	; (40185c <main+0x214>)
  40172a:	4798      	blx	r3
	spi_set_baudrate_div(SPI_MASTER_BASE, SPI_CHIP_SEL,
  40172c:	221e      	movs	r2, #30
  40172e:	2101      	movs	r1, #1
  401730:	4620      	mov	r0, r4
  401732:	4b4b      	ldr	r3, [pc, #300]	; (401860 <main+0x218>)
  401734:	4798      	blx	r3
	spi_set_transfer_delay(SPI_MASTER_BASE, SPI_CHIP_SEL, SPI_DLYBS,
  401736:	2304      	movs	r3, #4
  401738:	2210      	movs	r2, #16
  40173a:	2101      	movs	r1, #1
  40173c:	4620      	mov	r0, r4
  40173e:	4e49      	ldr	r6, [pc, #292]	; (401864 <main+0x21c>)
  401740:	47b0      	blx	r6
	p_spi->SPI_CR = SPI_CR_SPIEN;
  401742:	2601      	movs	r6, #1
  401744:	6026      	str	r6, [r4, #0]
	/* Insert application code here, after the board has been initialized. */
	
	spi_set_clock_configuration(gs_ul_spi_clock);
		
	nRF24_begin();
  401746:	4b48      	ldr	r3, [pc, #288]	; (401868 <main+0x220>)
  401748:	4798      	blx	r3
	nRF24_openReadingPipe(1, listeningPipes[1]);
  40174a:	a323      	add	r3, pc, #140	; (adr r3, 4017d8 <main+0x190>)
  40174c:	e9d3 2300 	ldrd	r2, r3, [r3]
  401750:	4630      	mov	r0, r6
  401752:	4c46      	ldr	r4, [pc, #280]	; (40186c <main+0x224>)
  401754:	47a0      	blx	r4
	nRF24_openReadingPipe(2, listeningPipes[2]);
  401756:	f20f 0988 	addw	r9, pc, #136	; 0x88
  40175a:	e9d9 8900 	ldrd	r8, r9, [r9]
  40175e:	4642      	mov	r2, r8
  401760:	464b      	mov	r3, r9
  401762:	4650      	mov	r0, sl
  401764:	47a0      	blx	r4
	nRF24_openWritingPipe(listeningPipes[localAddr]);
  401766:	a120      	add	r1, pc, #128	; (adr r1, 4017e8 <main+0x1a0>)
  401768:	e9d1 0100 	ldrd	r0, r1, [r1]
  40176c:	4c40      	ldr	r4, [pc, #256]	; (401870 <main+0x228>)
  40176e:	47a0      	blx	r4
	nRF24_setPALevel(RF_PA_MIN);
  401770:	4628      	mov	r0, r5
  401772:	4b40      	ldr	r3, [pc, #256]	; (401874 <main+0x22c>)
  401774:	4798      	blx	r3
	nRF24_stopListening();
  401776:	4b40      	ldr	r3, [pc, #256]	; (401878 <main+0x230>)
  401778:	4798      	blx	r3

#ifdef _DEBUG	
	printDetails();
  40177a:	4b40      	ldr	r3, [pc, #256]	; (40187c <main+0x234>)
  40177c:	4798      	blx	r3
#endif
	
//	while(1)
//	{

		nRF24_openWritingPipe(listeningPipes[2]);
  40177e:	4640      	mov	r0, r8
  401780:	4649      	mov	r1, r9
  401782:	47a0      	blx	r4

		dataOut.command = 1;
  401784:	4b3e      	ldr	r3, [pc, #248]	; (401880 <main+0x238>)
  401786:	701e      	strb	r6, [r3, #0]
		dataOut.destAddr = listeningPipes[2];
  401788:	e9c3 8902 	strd	r8, r9, [r3, #8]
		dataOut.datavalue = 0;
  40178c:	821d      	strh	r5, [r3, #16]
		
		#ifdef _DEBUG
			printf("commando %d send to %lld\r\n", dataOut.command, dataOut.destAddr);
  40178e:	4642      	mov	r2, r8
  401790:	464b      	mov	r3, r9
  401792:	4631      	mov	r1, r6
  401794:	483b      	ldr	r0, [pc, #236]	; (401884 <main+0x23c>)
  401796:	47b8      	blx	r7
  401798:	240a      	movs	r4, #10
		#endif
		
		for (int i = 0; i< 10; i++)
		{
			if(!nRF24_write(&dataOut, sizeof(dataOut)))
  40179a:	4e39      	ldr	r6, [pc, #228]	; (401880 <main+0x238>)
  40179c:	4d3a      	ldr	r5, [pc, #232]	; (401888 <main+0x240>)
			{
				printf("transmission failed \n\r");
			}
		#ifdef _DEBUG
			else{
				printf("transmission succes");
  40179e:	4f3b      	ldr	r7, [pc, #236]	; (40188c <main+0x244>)
  4017a0:	e007      	b.n	4017b2 <main+0x16a>
  4017a2:	4638      	mov	r0, r7
  4017a4:	4b26      	ldr	r3, [pc, #152]	; (401840 <main+0x1f8>)
  4017a6:	4798      	blx	r3
			}
		#endif
			delay_ms(10);
  4017a8:	4839      	ldr	r0, [pc, #228]	; (401890 <main+0x248>)
  4017aa:	4b3a      	ldr	r3, [pc, #232]	; (401894 <main+0x24c>)
  4017ac:	4798      	blx	r3
		for (int i = 0; i< 10; i++)
  4017ae:	3c01      	subs	r4, #1
  4017b0:	d008      	beq.n	4017c4 <main+0x17c>
			if(!nRF24_write(&dataOut, sizeof(dataOut)))
  4017b2:	2118      	movs	r1, #24
  4017b4:	4630      	mov	r0, r6
  4017b6:	47a8      	blx	r5
  4017b8:	2800      	cmp	r0, #0
  4017ba:	d1f2      	bne.n	4017a2 <main+0x15a>
				printf("transmission failed \n\r");
  4017bc:	4836      	ldr	r0, [pc, #216]	; (401898 <main+0x250>)
  4017be:	4b20      	ldr	r3, [pc, #128]	; (401840 <main+0x1f8>)
  4017c0:	4798      	blx	r3
  4017c2:	e7f1      	b.n	4017a8 <main+0x160>
		}
		delay_ms(500);
  4017c4:	4835      	ldr	r0, [pc, #212]	; (40189c <main+0x254>)
  4017c6:	4b33      	ldr	r3, [pc, #204]	; (401894 <main+0x24c>)
  4017c8:	4798      	blx	r3
		}
		delay_s(5);
*/
//	}

}
  4017ca:	2000      	movs	r0, #0
  4017cc:	b006      	add	sp, #24
  4017ce:	e8bd 87f0 	ldmia.w	sp!, {r4, r5, r6, r7, r8, r9, sl, pc}
  4017d2:	bf00      	nop
  4017d4:	f3af 8000 	nop.w
  4017d8:	3a3a3ac3 	.word	0x3a3a3ac3
  4017dc:	0000003a 	.word	0x0000003a
  4017e0:	3a3a3ab4 	.word	0x3a3a3ab4
  4017e4:	0000003a 	.word	0x0000003a
  4017e8:	3a3a3ad2 	.word	0x3a3a3ad2
  4017ec:	0000003a 	.word	0x0000003a
  4017f0:	004004d9 	.word	0x004004d9
  4017f4:	00400549 	.word	0x00400549
  4017f8:	40028000 	.word	0x40028000
  4017fc:	20400a94 	.word	0x20400a94
  401800:	00400d51 	.word	0x00400d51
  401804:	20400a90 	.word	0x20400a90
  401808:	00400c75 	.word	0x00400c75
  40180c:	20400a8c 	.word	0x20400a8c
  401810:	00400941 	.word	0x00400941
  401814:	08f0d180 	.word	0x08f0d180
  401818:	00400295 	.word	0x00400295
  40181c:	004002e9 	.word	0x004002e9
  401820:	004002ef 	.word	0x004002ef
  401824:	20400014 	.word	0x20400014
  401828:	00401ea5 	.word	0x00401ea5
  40182c:	004048f8 	.word	0x004048f8
  401830:	00401e95 	.word	0x00401e95
  401834:	e000e100 	.word	0xe000e100
  401838:	004c4b40 	.word	0x004c4b40
  40183c:	0040494c 	.word	0x0040494c
  401840:	00401c01 	.word	0x00401c01
  401844:	0040496c 	.word	0x0040496c
  401848:	40008000 	.word	0x40008000
  40184c:	00400375 	.word	0x00400375
  401850:	004003a1 	.word	0x004003a1
  401854:	0040041b 	.word	0x0040041b
  401858:	00400439 	.word	0x00400439
  40185c:	00400457 	.word	0x00400457
  401860:	0040046b 	.word	0x0040046b
  401864:	00400493 	.word	0x00400493
  401868:	004014a5 	.word	0x004014a5
  40186c:	00401579 	.word	0x00401579
  401870:	0040153d 	.word	0x0040153d
  401874:	00401605 	.word	0x00401605
  401878:	004013f1 	.word	0x004013f1
  40187c:	0040112d 	.word	0x0040112d
  401880:	20400ac0 	.word	0x20400ac0
  401884:	0040498c 	.word	0x0040498c
  401888:	00401635 	.word	0x00401635
  40188c:	004049c0 	.word	0x004049c0
  401890:	0007b784 	.word	0x0007b784
  401894:	20400001 	.word	0x20400001
  401898:	004049a8 	.word	0x004049a8
  40189c:	0181d7b6 	.word	0x0181d7b6

004018a0 <__aeabi_uldivmod>:
  4018a0:	b953      	cbnz	r3, 4018b8 <__aeabi_uldivmod+0x18>
  4018a2:	b94a      	cbnz	r2, 4018b8 <__aeabi_uldivmod+0x18>
  4018a4:	2900      	cmp	r1, #0
  4018a6:	bf08      	it	eq
  4018a8:	2800      	cmpeq	r0, #0
  4018aa:	bf1c      	itt	ne
  4018ac:	f04f 31ff 	movne.w	r1, #4294967295
  4018b0:	f04f 30ff 	movne.w	r0, #4294967295
  4018b4:	f000 b97a 	b.w	401bac <__aeabi_idiv0>
  4018b8:	f1ad 0c08 	sub.w	ip, sp, #8
  4018bc:	e96d ce04 	strd	ip, lr, [sp, #-16]!
  4018c0:	f000 f806 	bl	4018d0 <__udivmoddi4>
  4018c4:	f8dd e004 	ldr.w	lr, [sp, #4]
  4018c8:	e9dd 2302 	ldrd	r2, r3, [sp, #8]
  4018cc:	b004      	add	sp, #16
  4018ce:	4770      	bx	lr

004018d0 <__udivmoddi4>:
  4018d0:	e92d 47f0 	stmdb	sp!, {r4, r5, r6, r7, r8, r9, sl, lr}
  4018d4:	468c      	mov	ip, r1
  4018d6:	460d      	mov	r5, r1
  4018d8:	4604      	mov	r4, r0
  4018da:	9e08      	ldr	r6, [sp, #32]
  4018dc:	2b00      	cmp	r3, #0
  4018de:	d151      	bne.n	401984 <__udivmoddi4+0xb4>
  4018e0:	428a      	cmp	r2, r1
  4018e2:	4617      	mov	r7, r2
  4018e4:	d96d      	bls.n	4019c2 <__udivmoddi4+0xf2>
  4018e6:	fab2 fe82 	clz	lr, r2
  4018ea:	f1be 0f00 	cmp.w	lr, #0
  4018ee:	d00b      	beq.n	401908 <__udivmoddi4+0x38>
  4018f0:	f1ce 0c20 	rsb	ip, lr, #32
  4018f4:	fa01 f50e 	lsl.w	r5, r1, lr
  4018f8:	fa20 fc0c 	lsr.w	ip, r0, ip
  4018fc:	fa02 f70e 	lsl.w	r7, r2, lr
  401900:	ea4c 0c05 	orr.w	ip, ip, r5
  401904:	fa00 f40e 	lsl.w	r4, r0, lr
  401908:	ea4f 4a17 	mov.w	sl, r7, lsr #16
  40190c:	0c25      	lsrs	r5, r4, #16
  40190e:	fbbc f8fa 	udiv	r8, ip, sl
  401912:	fa1f f987 	uxth.w	r9, r7
  401916:	fb0a cc18 	mls	ip, sl, r8, ip
  40191a:	ea45 450c 	orr.w	r5, r5, ip, lsl #16
  40191e:	fb08 f309 	mul.w	r3, r8, r9
  401922:	42ab      	cmp	r3, r5
  401924:	d90a      	bls.n	40193c <__udivmoddi4+0x6c>
  401926:	19ed      	adds	r5, r5, r7
  401928:	f108 32ff 	add.w	r2, r8, #4294967295
  40192c:	f080 8123 	bcs.w	401b76 <__udivmoddi4+0x2a6>
  401930:	42ab      	cmp	r3, r5
  401932:	f240 8120 	bls.w	401b76 <__udivmoddi4+0x2a6>
  401936:	f1a8 0802 	sub.w	r8, r8, #2
  40193a:	443d      	add	r5, r7
  40193c:	1aed      	subs	r5, r5, r3
  40193e:	b2a4      	uxth	r4, r4
  401940:	fbb5 f0fa 	udiv	r0, r5, sl
  401944:	fb0a 5510 	mls	r5, sl, r0, r5
  401948:	ea44 4405 	orr.w	r4, r4, r5, lsl #16
  40194c:	fb00 f909 	mul.w	r9, r0, r9
  401950:	45a1      	cmp	r9, r4
  401952:	d909      	bls.n	401968 <__udivmoddi4+0x98>
  401954:	19e4      	adds	r4, r4, r7
  401956:	f100 33ff 	add.w	r3, r0, #4294967295
  40195a:	f080 810a 	bcs.w	401b72 <__udivmoddi4+0x2a2>
  40195e:	45a1      	cmp	r9, r4
  401960:	f240 8107 	bls.w	401b72 <__udivmoddi4+0x2a2>
  401964:	3802      	subs	r0, #2
  401966:	443c      	add	r4, r7
  401968:	eba4 0409 	sub.w	r4, r4, r9
  40196c:	ea40 4008 	orr.w	r0, r0, r8, lsl #16
  401970:	2100      	movs	r1, #0
  401972:	2e00      	cmp	r6, #0
  401974:	d061      	beq.n	401a3a <__udivmoddi4+0x16a>
  401976:	fa24 f40e 	lsr.w	r4, r4, lr
  40197a:	2300      	movs	r3, #0
  40197c:	6034      	str	r4, [r6, #0]
  40197e:	6073      	str	r3, [r6, #4]
  401980:	e8bd 87f0 	ldmia.w	sp!, {r4, r5, r6, r7, r8, r9, sl, pc}
  401984:	428b      	cmp	r3, r1
  401986:	d907      	bls.n	401998 <__udivmoddi4+0xc8>
  401988:	2e00      	cmp	r6, #0
  40198a:	d054      	beq.n	401a36 <__udivmoddi4+0x166>
  40198c:	2100      	movs	r1, #0
  40198e:	e886 0021 	stmia.w	r6, {r0, r5}
  401992:	4608      	mov	r0, r1
  401994:	e8bd 87f0 	ldmia.w	sp!, {r4, r5, r6, r7, r8, r9, sl, pc}
  401998:	fab3 f183 	clz	r1, r3
  40199c:	2900      	cmp	r1, #0
  40199e:	f040 808e 	bne.w	401abe <__udivmoddi4+0x1ee>
  4019a2:	42ab      	cmp	r3, r5
  4019a4:	d302      	bcc.n	4019ac <__udivmoddi4+0xdc>
  4019a6:	4282      	cmp	r2, r0
  4019a8:	f200 80fa 	bhi.w	401ba0 <__udivmoddi4+0x2d0>
  4019ac:	1a84      	subs	r4, r0, r2
  4019ae:	eb65 0503 	sbc.w	r5, r5, r3
  4019b2:	2001      	movs	r0, #1
  4019b4:	46ac      	mov	ip, r5
  4019b6:	2e00      	cmp	r6, #0
  4019b8:	d03f      	beq.n	401a3a <__udivmoddi4+0x16a>
  4019ba:	e886 1010 	stmia.w	r6, {r4, ip}
  4019be:	e8bd 87f0 	ldmia.w	sp!, {r4, r5, r6, r7, r8, r9, sl, pc}
  4019c2:	b912      	cbnz	r2, 4019ca <__udivmoddi4+0xfa>
  4019c4:	2701      	movs	r7, #1
  4019c6:	fbb7 f7f2 	udiv	r7, r7, r2
  4019ca:	fab7 fe87 	clz	lr, r7
  4019ce:	f1be 0f00 	cmp.w	lr, #0
  4019d2:	d134      	bne.n	401a3e <__udivmoddi4+0x16e>
  4019d4:	1beb      	subs	r3, r5, r7
  4019d6:	0c3a      	lsrs	r2, r7, #16
  4019d8:	fa1f fc87 	uxth.w	ip, r7
  4019dc:	2101      	movs	r1, #1
  4019de:	fbb3 f8f2 	udiv	r8, r3, r2
  4019e2:	0c25      	lsrs	r5, r4, #16
  4019e4:	fb02 3318 	mls	r3, r2, r8, r3
  4019e8:	ea45 4503 	orr.w	r5, r5, r3, lsl #16
  4019ec:	fb0c f308 	mul.w	r3, ip, r8
  4019f0:	42ab      	cmp	r3, r5
  4019f2:	d907      	bls.n	401a04 <__udivmoddi4+0x134>
  4019f4:	19ed      	adds	r5, r5, r7
  4019f6:	f108 30ff 	add.w	r0, r8, #4294967295
  4019fa:	d202      	bcs.n	401a02 <__udivmoddi4+0x132>
  4019fc:	42ab      	cmp	r3, r5
  4019fe:	f200 80d1 	bhi.w	401ba4 <__udivmoddi4+0x2d4>
  401a02:	4680      	mov	r8, r0
  401a04:	1aed      	subs	r5, r5, r3
  401a06:	b2a3      	uxth	r3, r4
  401a08:	fbb5 f0f2 	udiv	r0, r5, r2
  401a0c:	fb02 5510 	mls	r5, r2, r0, r5
  401a10:	ea43 4405 	orr.w	r4, r3, r5, lsl #16
  401a14:	fb0c fc00 	mul.w	ip, ip, r0
  401a18:	45a4      	cmp	ip, r4
  401a1a:	d907      	bls.n	401a2c <__udivmoddi4+0x15c>
  401a1c:	19e4      	adds	r4, r4, r7
  401a1e:	f100 33ff 	add.w	r3, r0, #4294967295
  401a22:	d202      	bcs.n	401a2a <__udivmoddi4+0x15a>
  401a24:	45a4      	cmp	ip, r4
  401a26:	f200 80b8 	bhi.w	401b9a <__udivmoddi4+0x2ca>
  401a2a:	4618      	mov	r0, r3
  401a2c:	eba4 040c 	sub.w	r4, r4, ip
  401a30:	ea40 4008 	orr.w	r0, r0, r8, lsl #16
  401a34:	e79d      	b.n	401972 <__udivmoddi4+0xa2>
  401a36:	4631      	mov	r1, r6
  401a38:	4630      	mov	r0, r6
  401a3a:	e8bd 87f0 	ldmia.w	sp!, {r4, r5, r6, r7, r8, r9, sl, pc}
  401a3e:	f1ce 0420 	rsb	r4, lr, #32
  401a42:	fa05 f30e 	lsl.w	r3, r5, lr
  401a46:	fa07 f70e 	lsl.w	r7, r7, lr
  401a4a:	fa20 f804 	lsr.w	r8, r0, r4
  401a4e:	0c3a      	lsrs	r2, r7, #16
  401a50:	fa25 f404 	lsr.w	r4, r5, r4
  401a54:	ea48 0803 	orr.w	r8, r8, r3
  401a58:	fbb4 f1f2 	udiv	r1, r4, r2
  401a5c:	ea4f 4518 	mov.w	r5, r8, lsr #16
  401a60:	fb02 4411 	mls	r4, r2, r1, r4
  401a64:	fa1f fc87 	uxth.w	ip, r7
  401a68:	ea45 4504 	orr.w	r5, r5, r4, lsl #16
  401a6c:	fb01 f30c 	mul.w	r3, r1, ip
  401a70:	42ab      	cmp	r3, r5
  401a72:	fa00 f40e 	lsl.w	r4, r0, lr
  401a76:	d909      	bls.n	401a8c <__udivmoddi4+0x1bc>
  401a78:	19ed      	adds	r5, r5, r7
  401a7a:	f101 30ff 	add.w	r0, r1, #4294967295
  401a7e:	f080 808a 	bcs.w	401b96 <__udivmoddi4+0x2c6>
  401a82:	42ab      	cmp	r3, r5
  401a84:	f240 8087 	bls.w	401b96 <__udivmoddi4+0x2c6>
  401a88:	3902      	subs	r1, #2
  401a8a:	443d      	add	r5, r7
  401a8c:	1aeb      	subs	r3, r5, r3
  401a8e:	fa1f f588 	uxth.w	r5, r8
  401a92:	fbb3 f0f2 	udiv	r0, r3, r2
  401a96:	fb02 3310 	mls	r3, r2, r0, r3
  401a9a:	ea45 4503 	orr.w	r5, r5, r3, lsl #16
  401a9e:	fb00 f30c 	mul.w	r3, r0, ip
  401aa2:	42ab      	cmp	r3, r5
  401aa4:	d907      	bls.n	401ab6 <__udivmoddi4+0x1e6>
  401aa6:	19ed      	adds	r5, r5, r7
  401aa8:	f100 38ff 	add.w	r8, r0, #4294967295
  401aac:	d26f      	bcs.n	401b8e <__udivmoddi4+0x2be>
  401aae:	42ab      	cmp	r3, r5
  401ab0:	d96d      	bls.n	401b8e <__udivmoddi4+0x2be>
  401ab2:	3802      	subs	r0, #2
  401ab4:	443d      	add	r5, r7
  401ab6:	1aeb      	subs	r3, r5, r3
  401ab8:	ea40 4101 	orr.w	r1, r0, r1, lsl #16
  401abc:	e78f      	b.n	4019de <__udivmoddi4+0x10e>
  401abe:	f1c1 0720 	rsb	r7, r1, #32
  401ac2:	fa22 f807 	lsr.w	r8, r2, r7
  401ac6:	408b      	lsls	r3, r1
  401ac8:	fa05 f401 	lsl.w	r4, r5, r1
  401acc:	ea48 0303 	orr.w	r3, r8, r3
  401ad0:	fa20 fe07 	lsr.w	lr, r0, r7
  401ad4:	ea4f 4c13 	mov.w	ip, r3, lsr #16
  401ad8:	40fd      	lsrs	r5, r7
  401ada:	ea4e 0e04 	orr.w	lr, lr, r4
  401ade:	fbb5 f9fc 	udiv	r9, r5, ip
  401ae2:	ea4f 441e 	mov.w	r4, lr, lsr #16
  401ae6:	fb0c 5519 	mls	r5, ip, r9, r5
  401aea:	fa1f f883 	uxth.w	r8, r3
  401aee:	ea44 4505 	orr.w	r5, r4, r5, lsl #16
  401af2:	fb09 f408 	mul.w	r4, r9, r8
  401af6:	42ac      	cmp	r4, r5
  401af8:	fa02 f201 	lsl.w	r2, r2, r1
  401afc:	fa00 fa01 	lsl.w	sl, r0, r1
  401b00:	d908      	bls.n	401b14 <__udivmoddi4+0x244>
  401b02:	18ed      	adds	r5, r5, r3
  401b04:	f109 30ff 	add.w	r0, r9, #4294967295
  401b08:	d243      	bcs.n	401b92 <__udivmoddi4+0x2c2>
  401b0a:	42ac      	cmp	r4, r5
  401b0c:	d941      	bls.n	401b92 <__udivmoddi4+0x2c2>
  401b0e:	f1a9 0902 	sub.w	r9, r9, #2
  401b12:	441d      	add	r5, r3
  401b14:	1b2d      	subs	r5, r5, r4
  401b16:	fa1f fe8e 	uxth.w	lr, lr
  401b1a:	fbb5 f0fc 	udiv	r0, r5, ip
  401b1e:	fb0c 5510 	mls	r5, ip, r0, r5
  401b22:	ea4e 4405 	orr.w	r4, lr, r5, lsl #16
  401b26:	fb00 f808 	mul.w	r8, r0, r8
  401b2a:	45a0      	cmp	r8, r4
  401b2c:	d907      	bls.n	401b3e <__udivmoddi4+0x26e>
  401b2e:	18e4      	adds	r4, r4, r3
  401b30:	f100 35ff 	add.w	r5, r0, #4294967295
  401b34:	d229      	bcs.n	401b8a <__udivmoddi4+0x2ba>
  401b36:	45a0      	cmp	r8, r4
  401b38:	d927      	bls.n	401b8a <__udivmoddi4+0x2ba>
  401b3a:	3802      	subs	r0, #2
  401b3c:	441c      	add	r4, r3
  401b3e:	ea40 4009 	orr.w	r0, r0, r9, lsl #16
  401b42:	eba4 0408 	sub.w	r4, r4, r8
  401b46:	fba0 8902 	umull	r8, r9, r0, r2
  401b4a:	454c      	cmp	r4, r9
  401b4c:	46c6      	mov	lr, r8
  401b4e:	464d      	mov	r5, r9
  401b50:	d315      	bcc.n	401b7e <__udivmoddi4+0x2ae>
  401b52:	d012      	beq.n	401b7a <__udivmoddi4+0x2aa>
  401b54:	b156      	cbz	r6, 401b6c <__udivmoddi4+0x29c>
  401b56:	ebba 030e 	subs.w	r3, sl, lr
  401b5a:	eb64 0405 	sbc.w	r4, r4, r5
  401b5e:	fa04 f707 	lsl.w	r7, r4, r7
  401b62:	40cb      	lsrs	r3, r1
  401b64:	431f      	orrs	r7, r3
  401b66:	40cc      	lsrs	r4, r1
  401b68:	6037      	str	r7, [r6, #0]
  401b6a:	6074      	str	r4, [r6, #4]
  401b6c:	2100      	movs	r1, #0
  401b6e:	e8bd 87f0 	ldmia.w	sp!, {r4, r5, r6, r7, r8, r9, sl, pc}
  401b72:	4618      	mov	r0, r3
  401b74:	e6f8      	b.n	401968 <__udivmoddi4+0x98>
  401b76:	4690      	mov	r8, r2
  401b78:	e6e0      	b.n	40193c <__udivmoddi4+0x6c>
  401b7a:	45c2      	cmp	sl, r8
  401b7c:	d2ea      	bcs.n	401b54 <__udivmoddi4+0x284>
  401b7e:	ebb8 0e02 	subs.w	lr, r8, r2
  401b82:	eb69 0503 	sbc.w	r5, r9, r3
  401b86:	3801      	subs	r0, #1
  401b88:	e7e4      	b.n	401b54 <__udivmoddi4+0x284>
  401b8a:	4628      	mov	r0, r5
  401b8c:	e7d7      	b.n	401b3e <__udivmoddi4+0x26e>
  401b8e:	4640      	mov	r0, r8
  401b90:	e791      	b.n	401ab6 <__udivmoddi4+0x1e6>
  401b92:	4681      	mov	r9, r0
  401b94:	e7be      	b.n	401b14 <__udivmoddi4+0x244>
  401b96:	4601      	mov	r1, r0
  401b98:	e778      	b.n	401a8c <__udivmoddi4+0x1bc>
  401b9a:	3802      	subs	r0, #2
  401b9c:	443c      	add	r4, r7
  401b9e:	e745      	b.n	401a2c <__udivmoddi4+0x15c>
  401ba0:	4608      	mov	r0, r1
  401ba2:	e708      	b.n	4019b6 <__udivmoddi4+0xe6>
  401ba4:	f1a8 0802 	sub.w	r8, r8, #2
  401ba8:	443d      	add	r5, r7
  401baa:	e72b      	b.n	401a04 <__udivmoddi4+0x134>

00401bac <__aeabi_idiv0>:
  401bac:	4770      	bx	lr
  401bae:	bf00      	nop

00401bb0 <__libc_init_array>:
  401bb0:	b570      	push	{r4, r5, r6, lr}
  401bb2:	4e0f      	ldr	r6, [pc, #60]	; (401bf0 <__libc_init_array+0x40>)
  401bb4:	4d0f      	ldr	r5, [pc, #60]	; (401bf4 <__libc_init_array+0x44>)
  401bb6:	1b76      	subs	r6, r6, r5
  401bb8:	10b6      	asrs	r6, r6, #2
  401bba:	bf18      	it	ne
  401bbc:	2400      	movne	r4, #0
  401bbe:	d005      	beq.n	401bcc <__libc_init_array+0x1c>
  401bc0:	3401      	adds	r4, #1
  401bc2:	f855 3b04 	ldr.w	r3, [r5], #4
  401bc6:	4798      	blx	r3
  401bc8:	42a6      	cmp	r6, r4
  401bca:	d1f9      	bne.n	401bc0 <__libc_init_array+0x10>
  401bcc:	4e0a      	ldr	r6, [pc, #40]	; (401bf8 <__libc_init_array+0x48>)
  401bce:	4d0b      	ldr	r5, [pc, #44]	; (401bfc <__libc_init_array+0x4c>)
  401bd0:	1b76      	subs	r6, r6, r5
  401bd2:	f003 f8b1 	bl	404d38 <_init>
  401bd6:	10b6      	asrs	r6, r6, #2
  401bd8:	bf18      	it	ne
  401bda:	2400      	movne	r4, #0
  401bdc:	d006      	beq.n	401bec <__libc_init_array+0x3c>
  401bde:	3401      	adds	r4, #1
  401be0:	f855 3b04 	ldr.w	r3, [r5], #4
  401be4:	4798      	blx	r3
  401be6:	42a6      	cmp	r6, r4
  401be8:	d1f9      	bne.n	401bde <__libc_init_array+0x2e>
  401bea:	bd70      	pop	{r4, r5, r6, pc}
  401bec:	bd70      	pop	{r4, r5, r6, pc}
  401bee:	bf00      	nop
  401bf0:	00404d44 	.word	0x00404d44
  401bf4:	00404d44 	.word	0x00404d44
  401bf8:	00404d4c 	.word	0x00404d4c
  401bfc:	00404d44 	.word	0x00404d44

00401c00 <iprintf>:
  401c00:	b40f      	push	{r0, r1, r2, r3}
  401c02:	b500      	push	{lr}
  401c04:	4907      	ldr	r1, [pc, #28]	; (401c24 <iprintf+0x24>)
  401c06:	b083      	sub	sp, #12
  401c08:	ab04      	add	r3, sp, #16
  401c0a:	6808      	ldr	r0, [r1, #0]
  401c0c:	f853 2b04 	ldr.w	r2, [r3], #4
  401c10:	6881      	ldr	r1, [r0, #8]
  401c12:	9301      	str	r3, [sp, #4]
  401c14:	f000 fae2 	bl	4021dc <_vfiprintf_r>
  401c18:	b003      	add	sp, #12
  401c1a:	f85d eb04 	ldr.w	lr, [sp], #4
  401c1e:	b004      	add	sp, #16
  401c20:	4770      	bx	lr
  401c22:	bf00      	nop
  401c24:	20400014 	.word	0x20400014

00401c28 <memcpy>:
  401c28:	4684      	mov	ip, r0
  401c2a:	ea41 0300 	orr.w	r3, r1, r0
  401c2e:	f013 0303 	ands.w	r3, r3, #3
  401c32:	d16d      	bne.n	401d10 <memcpy+0xe8>
  401c34:	3a40      	subs	r2, #64	; 0x40
  401c36:	d341      	bcc.n	401cbc <memcpy+0x94>
  401c38:	f851 3b04 	ldr.w	r3, [r1], #4
  401c3c:	f840 3b04 	str.w	r3, [r0], #4
  401c40:	f851 3b04 	ldr.w	r3, [r1], #4
  401c44:	f840 3b04 	str.w	r3, [r0], #4
  401c48:	f851 3b04 	ldr.w	r3, [r1], #4
  401c4c:	f840 3b04 	str.w	r3, [r0], #4
  401c50:	f851 3b04 	ldr.w	r3, [r1], #4
  401c54:	f840 3b04 	str.w	r3, [r0], #4
  401c58:	f851 3b04 	ldr.w	r3, [r1], #4
  401c5c:	f840 3b04 	str.w	r3, [r0], #4
  401c60:	f851 3b04 	ldr.w	r3, [r1], #4
  401c64:	f840 3b04 	str.w	r3, [r0], #4
  401c68:	f851 3b04 	ldr.w	r3, [r1], #4
  401c6c:	f840 3b04 	str.w	r3, [r0], #4
  401c70:	f851 3b04 	ldr.w	r3, [r1], #4
  401c74:	f840 3b04 	str.w	r3, [r0], #4
  401c78:	f851 3b04 	ldr.w	r3, [r1], #4
  401c7c:	f840 3b04 	str.w	r3, [r0], #4
  401c80:	f851 3b04 	ldr.w	r3, [r1], #4
  401c84:	f840 3b04 	str.w	r3, [r0], #4
  401c88:	f851 3b04 	ldr.w	r3, [r1], #4
  401c8c:	f840 3b04 	str.w	r3, [r0], #4
  401c90:	f851 3b04 	ldr.w	r3, [r1], #4
  401c94:	f840 3b04 	str.w	r3, [r0], #4
  401c98:	f851 3b04 	ldr.w	r3, [r1], #4
  401c9c:	f840 3b04 	str.w	r3, [r0], #4
  401ca0:	f851 3b04 	ldr.w	r3, [r1], #4
  401ca4:	f840 3b04 	str.w	r3, [r0], #4
  401ca8:	f851 3b04 	ldr.w	r3, [r1], #4
  401cac:	f840 3b04 	str.w	r3, [r0], #4
  401cb0:	f851 3b04 	ldr.w	r3, [r1], #4
  401cb4:	f840 3b04 	str.w	r3, [r0], #4
  401cb8:	3a40      	subs	r2, #64	; 0x40
  401cba:	d2bd      	bcs.n	401c38 <memcpy+0x10>
  401cbc:	3230      	adds	r2, #48	; 0x30
  401cbe:	d311      	bcc.n	401ce4 <memcpy+0xbc>
  401cc0:	f851 3b04 	ldr.w	r3, [r1], #4
  401cc4:	f840 3b04 	str.w	r3, [r0], #4
  401cc8:	f851 3b04 	ldr.w	r3, [r1], #4
  401ccc:	f840 3b04 	str.w	r3, [r0], #4
  401cd0:	f851 3b04 	ldr.w	r3, [r1], #4
  401cd4:	f840 3b04 	str.w	r3, [r0], #4
  401cd8:	f851 3b04 	ldr.w	r3, [r1], #4
  401cdc:	f840 3b04 	str.w	r3, [r0], #4
  401ce0:	3a10      	subs	r2, #16
  401ce2:	d2ed      	bcs.n	401cc0 <memcpy+0x98>
  401ce4:	320c      	adds	r2, #12
  401ce6:	d305      	bcc.n	401cf4 <memcpy+0xcc>
  401ce8:	f851 3b04 	ldr.w	r3, [r1], #4
  401cec:	f840 3b04 	str.w	r3, [r0], #4
  401cf0:	3a04      	subs	r2, #4
  401cf2:	d2f9      	bcs.n	401ce8 <memcpy+0xc0>
  401cf4:	3204      	adds	r2, #4
  401cf6:	d008      	beq.n	401d0a <memcpy+0xe2>
  401cf8:	07d2      	lsls	r2, r2, #31
  401cfa:	bf1c      	itt	ne
  401cfc:	f811 3b01 	ldrbne.w	r3, [r1], #1
  401d00:	f800 3b01 	strbne.w	r3, [r0], #1
  401d04:	d301      	bcc.n	401d0a <memcpy+0xe2>
  401d06:	880b      	ldrh	r3, [r1, #0]
  401d08:	8003      	strh	r3, [r0, #0]
  401d0a:	4660      	mov	r0, ip
  401d0c:	4770      	bx	lr
  401d0e:	bf00      	nop
  401d10:	2a08      	cmp	r2, #8
  401d12:	d313      	bcc.n	401d3c <memcpy+0x114>
  401d14:	078b      	lsls	r3, r1, #30
  401d16:	d08d      	beq.n	401c34 <memcpy+0xc>
  401d18:	f010 0303 	ands.w	r3, r0, #3
  401d1c:	d08a      	beq.n	401c34 <memcpy+0xc>
  401d1e:	f1c3 0304 	rsb	r3, r3, #4
  401d22:	1ad2      	subs	r2, r2, r3
  401d24:	07db      	lsls	r3, r3, #31
  401d26:	bf1c      	itt	ne
  401d28:	f811 3b01 	ldrbne.w	r3, [r1], #1
  401d2c:	f800 3b01 	strbne.w	r3, [r0], #1
  401d30:	d380      	bcc.n	401c34 <memcpy+0xc>
  401d32:	f831 3b02 	ldrh.w	r3, [r1], #2
  401d36:	f820 3b02 	strh.w	r3, [r0], #2
  401d3a:	e77b      	b.n	401c34 <memcpy+0xc>
  401d3c:	3a04      	subs	r2, #4
  401d3e:	d3d9      	bcc.n	401cf4 <memcpy+0xcc>
  401d40:	3a01      	subs	r2, #1
  401d42:	f811 3b01 	ldrb.w	r3, [r1], #1
  401d46:	f800 3b01 	strb.w	r3, [r0], #1
  401d4a:	d2f9      	bcs.n	401d40 <memcpy+0x118>
  401d4c:	780b      	ldrb	r3, [r1, #0]
  401d4e:	7003      	strb	r3, [r0, #0]
  401d50:	784b      	ldrb	r3, [r1, #1]
  401d52:	7043      	strb	r3, [r0, #1]
  401d54:	788b      	ldrb	r3, [r1, #2]
  401d56:	7083      	strb	r3, [r0, #2]
  401d58:	4660      	mov	r0, ip
  401d5a:	4770      	bx	lr

00401d5c <memset>:
  401d5c:	b470      	push	{r4, r5, r6}
  401d5e:	0786      	lsls	r6, r0, #30
  401d60:	d046      	beq.n	401df0 <memset+0x94>
  401d62:	1e54      	subs	r4, r2, #1
  401d64:	2a00      	cmp	r2, #0
  401d66:	d041      	beq.n	401dec <memset+0x90>
  401d68:	b2ca      	uxtb	r2, r1
  401d6a:	4603      	mov	r3, r0
  401d6c:	e002      	b.n	401d74 <memset+0x18>
  401d6e:	f114 34ff 	adds.w	r4, r4, #4294967295
  401d72:	d33b      	bcc.n	401dec <memset+0x90>
  401d74:	f803 2b01 	strb.w	r2, [r3], #1
  401d78:	079d      	lsls	r5, r3, #30
  401d7a:	d1f8      	bne.n	401d6e <memset+0x12>
  401d7c:	2c03      	cmp	r4, #3
  401d7e:	d92e      	bls.n	401dde <memset+0x82>
  401d80:	b2cd      	uxtb	r5, r1
  401d82:	ea45 2505 	orr.w	r5, r5, r5, lsl #8
  401d86:	2c0f      	cmp	r4, #15
  401d88:	ea45 4505 	orr.w	r5, r5, r5, lsl #16
  401d8c:	d919      	bls.n	401dc2 <memset+0x66>
  401d8e:	f103 0210 	add.w	r2, r3, #16
  401d92:	4626      	mov	r6, r4
  401d94:	3e10      	subs	r6, #16
  401d96:	2e0f      	cmp	r6, #15
  401d98:	f842 5c10 	str.w	r5, [r2, #-16]
  401d9c:	f842 5c0c 	str.w	r5, [r2, #-12]
  401da0:	f842 5c08 	str.w	r5, [r2, #-8]
  401da4:	f842 5c04 	str.w	r5, [r2, #-4]
  401da8:	f102 0210 	add.w	r2, r2, #16
  401dac:	d8f2      	bhi.n	401d94 <memset+0x38>
  401dae:	f1a4 0210 	sub.w	r2, r4, #16
  401db2:	f022 020f 	bic.w	r2, r2, #15
  401db6:	f004 040f 	and.w	r4, r4, #15
  401dba:	3210      	adds	r2, #16
  401dbc:	2c03      	cmp	r4, #3
  401dbe:	4413      	add	r3, r2
  401dc0:	d90d      	bls.n	401dde <memset+0x82>
  401dc2:	461e      	mov	r6, r3
  401dc4:	4622      	mov	r2, r4
  401dc6:	3a04      	subs	r2, #4
  401dc8:	2a03      	cmp	r2, #3
  401dca:	f846 5b04 	str.w	r5, [r6], #4
  401dce:	d8fa      	bhi.n	401dc6 <memset+0x6a>
  401dd0:	1f22      	subs	r2, r4, #4
  401dd2:	f022 0203 	bic.w	r2, r2, #3
  401dd6:	3204      	adds	r2, #4
  401dd8:	4413      	add	r3, r2
  401dda:	f004 0403 	and.w	r4, r4, #3
  401dde:	b12c      	cbz	r4, 401dec <memset+0x90>
  401de0:	b2c9      	uxtb	r1, r1
  401de2:	441c      	add	r4, r3
  401de4:	f803 1b01 	strb.w	r1, [r3], #1
  401de8:	429c      	cmp	r4, r3
  401dea:	d1fb      	bne.n	401de4 <memset+0x88>
  401dec:	bc70      	pop	{r4, r5, r6}
  401dee:	4770      	bx	lr
  401df0:	4614      	mov	r4, r2
  401df2:	4603      	mov	r3, r0
  401df4:	e7c2      	b.n	401d7c <memset+0x20>
  401df6:	bf00      	nop

00401df8 <_puts_r>:
  401df8:	b5f0      	push	{r4, r5, r6, r7, lr}
  401dfa:	4605      	mov	r5, r0
  401dfc:	b089      	sub	sp, #36	; 0x24
  401dfe:	4608      	mov	r0, r1
  401e00:	460c      	mov	r4, r1
  401e02:	f000 f93d 	bl	402080 <strlen>
  401e06:	6bab      	ldr	r3, [r5, #56]	; 0x38
  401e08:	4f21      	ldr	r7, [pc, #132]	; (401e90 <_puts_r+0x98>)
  401e0a:	9404      	str	r4, [sp, #16]
  401e0c:	2601      	movs	r6, #1
  401e0e:	1c44      	adds	r4, r0, #1
  401e10:	a904      	add	r1, sp, #16
  401e12:	2202      	movs	r2, #2
  401e14:	9403      	str	r4, [sp, #12]
  401e16:	9005      	str	r0, [sp, #20]
  401e18:	68ac      	ldr	r4, [r5, #8]
  401e1a:	9706      	str	r7, [sp, #24]
  401e1c:	9607      	str	r6, [sp, #28]
  401e1e:	9101      	str	r1, [sp, #4]
  401e20:	9202      	str	r2, [sp, #8]
  401e22:	b353      	cbz	r3, 401e7a <_puts_r+0x82>
  401e24:	6e63      	ldr	r3, [r4, #100]	; 0x64
  401e26:	f013 0f01 	tst.w	r3, #1
  401e2a:	f9b4 300c 	ldrsh.w	r3, [r4, #12]
  401e2e:	b29a      	uxth	r2, r3
  401e30:	d101      	bne.n	401e36 <_puts_r+0x3e>
  401e32:	0590      	lsls	r0, r2, #22
  401e34:	d525      	bpl.n	401e82 <_puts_r+0x8a>
  401e36:	0491      	lsls	r1, r2, #18
  401e38:	d406      	bmi.n	401e48 <_puts_r+0x50>
  401e3a:	6e62      	ldr	r2, [r4, #100]	; 0x64
  401e3c:	f443 5300 	orr.w	r3, r3, #8192	; 0x2000
  401e40:	f422 5200 	bic.w	r2, r2, #8192	; 0x2000
  401e44:	81a3      	strh	r3, [r4, #12]
  401e46:	6662      	str	r2, [r4, #100]	; 0x64
  401e48:	4628      	mov	r0, r5
  401e4a:	aa01      	add	r2, sp, #4
  401e4c:	4621      	mov	r1, r4
  401e4e:	f001 fbc7 	bl	4035e0 <__sfvwrite_r>
  401e52:	6e63      	ldr	r3, [r4, #100]	; 0x64
  401e54:	2800      	cmp	r0, #0
  401e56:	bf0c      	ite	eq
  401e58:	250a      	moveq	r5, #10
  401e5a:	f04f 35ff 	movne.w	r5, #4294967295
  401e5e:	07da      	lsls	r2, r3, #31
  401e60:	d402      	bmi.n	401e68 <_puts_r+0x70>
  401e62:	89a3      	ldrh	r3, [r4, #12]
  401e64:	059b      	lsls	r3, r3, #22
  401e66:	d502      	bpl.n	401e6e <_puts_r+0x76>
  401e68:	4628      	mov	r0, r5
  401e6a:	b009      	add	sp, #36	; 0x24
  401e6c:	bdf0      	pop	{r4, r5, r6, r7, pc}
  401e6e:	6da0      	ldr	r0, [r4, #88]	; 0x58
  401e70:	f001 fd6c 	bl	40394c <__retarget_lock_release_recursive>
  401e74:	4628      	mov	r0, r5
  401e76:	b009      	add	sp, #36	; 0x24
  401e78:	bdf0      	pop	{r4, r5, r6, r7, pc}
  401e7a:	4628      	mov	r0, r5
  401e7c:	f001 f9a4 	bl	4031c8 <__sinit>
  401e80:	e7d0      	b.n	401e24 <_puts_r+0x2c>
  401e82:	6da0      	ldr	r0, [r4, #88]	; 0x58
  401e84:	f001 fd60 	bl	403948 <__retarget_lock_acquire_recursive>
  401e88:	f9b4 300c 	ldrsh.w	r3, [r4, #12]
  401e8c:	b29a      	uxth	r2, r3
  401e8e:	e7d2      	b.n	401e36 <_puts_r+0x3e>
  401e90:	00404aac 	.word	0x00404aac

00401e94 <puts>:
  401e94:	4b02      	ldr	r3, [pc, #8]	; (401ea0 <puts+0xc>)
  401e96:	4601      	mov	r1, r0
  401e98:	6818      	ldr	r0, [r3, #0]
  401e9a:	f7ff bfad 	b.w	401df8 <_puts_r>
  401e9e:	bf00      	nop
  401ea0:	20400014 	.word	0x20400014

00401ea4 <setbuf>:
  401ea4:	2900      	cmp	r1, #0
  401ea6:	bf0c      	ite	eq
  401ea8:	2202      	moveq	r2, #2
  401eaa:	2200      	movne	r2, #0
  401eac:	f44f 6380 	mov.w	r3, #1024	; 0x400
  401eb0:	f000 b800 	b.w	401eb4 <setvbuf>

00401eb4 <setvbuf>:
  401eb4:	e92d 43f0 	stmdb	sp!, {r4, r5, r6, r7, r8, r9, lr}
  401eb8:	4c61      	ldr	r4, [pc, #388]	; (402040 <setvbuf+0x18c>)
  401eba:	6825      	ldr	r5, [r4, #0]
  401ebc:	b083      	sub	sp, #12
  401ebe:	4604      	mov	r4, r0
  401ec0:	460f      	mov	r7, r1
  401ec2:	4690      	mov	r8, r2
  401ec4:	461e      	mov	r6, r3
  401ec6:	b115      	cbz	r5, 401ece <setvbuf+0x1a>
  401ec8:	6bab      	ldr	r3, [r5, #56]	; 0x38
  401eca:	2b00      	cmp	r3, #0
  401ecc:	d064      	beq.n	401f98 <setvbuf+0xe4>
  401ece:	f1b8 0f02 	cmp.w	r8, #2
  401ed2:	d006      	beq.n	401ee2 <setvbuf+0x2e>
  401ed4:	f1b8 0f01 	cmp.w	r8, #1
  401ed8:	f200 809f 	bhi.w	40201a <setvbuf+0x166>
  401edc:	2e00      	cmp	r6, #0
  401ede:	f2c0 809c 	blt.w	40201a <setvbuf+0x166>
  401ee2:	6e63      	ldr	r3, [r4, #100]	; 0x64
  401ee4:	07d8      	lsls	r0, r3, #31
  401ee6:	d534      	bpl.n	401f52 <setvbuf+0x9e>
  401ee8:	4621      	mov	r1, r4
  401eea:	4628      	mov	r0, r5
  401eec:	f001 f914 	bl	403118 <_fflush_r>
  401ef0:	6b21      	ldr	r1, [r4, #48]	; 0x30
  401ef2:	b141      	cbz	r1, 401f06 <setvbuf+0x52>
  401ef4:	f104 0340 	add.w	r3, r4, #64	; 0x40
  401ef8:	4299      	cmp	r1, r3
  401efa:	d002      	beq.n	401f02 <setvbuf+0x4e>
  401efc:	4628      	mov	r0, r5
  401efe:	f001 fa89 	bl	403414 <_free_r>
  401f02:	2300      	movs	r3, #0
  401f04:	6323      	str	r3, [r4, #48]	; 0x30
  401f06:	f9b4 300c 	ldrsh.w	r3, [r4, #12]
  401f0a:	2200      	movs	r2, #0
  401f0c:	61a2      	str	r2, [r4, #24]
  401f0e:	6062      	str	r2, [r4, #4]
  401f10:	061a      	lsls	r2, r3, #24
  401f12:	d43a      	bmi.n	401f8a <setvbuf+0xd6>
  401f14:	f423 634a 	bic.w	r3, r3, #3232	; 0xca0
  401f18:	f023 0303 	bic.w	r3, r3, #3
  401f1c:	f1b8 0f02 	cmp.w	r8, #2
  401f20:	81a3      	strh	r3, [r4, #12]
  401f22:	d01d      	beq.n	401f60 <setvbuf+0xac>
  401f24:	ab01      	add	r3, sp, #4
  401f26:	466a      	mov	r2, sp
  401f28:	4621      	mov	r1, r4
  401f2a:	4628      	mov	r0, r5
  401f2c:	f001 fd10 	bl	403950 <__swhatbuf_r>
  401f30:	89a3      	ldrh	r3, [r4, #12]
  401f32:	4318      	orrs	r0, r3
  401f34:	81a0      	strh	r0, [r4, #12]
  401f36:	2e00      	cmp	r6, #0
  401f38:	d132      	bne.n	401fa0 <setvbuf+0xec>
  401f3a:	9e00      	ldr	r6, [sp, #0]
  401f3c:	4630      	mov	r0, r6
  401f3e:	f001 fd7f 	bl	403a40 <malloc>
  401f42:	4607      	mov	r7, r0
  401f44:	2800      	cmp	r0, #0
  401f46:	d06b      	beq.n	402020 <setvbuf+0x16c>
  401f48:	89a3      	ldrh	r3, [r4, #12]
  401f4a:	f043 0380 	orr.w	r3, r3, #128	; 0x80
  401f4e:	81a3      	strh	r3, [r4, #12]
  401f50:	e028      	b.n	401fa4 <setvbuf+0xf0>
  401f52:	89a3      	ldrh	r3, [r4, #12]
  401f54:	0599      	lsls	r1, r3, #22
  401f56:	d4c7      	bmi.n	401ee8 <setvbuf+0x34>
  401f58:	6da0      	ldr	r0, [r4, #88]	; 0x58
  401f5a:	f001 fcf5 	bl	403948 <__retarget_lock_acquire_recursive>
  401f5e:	e7c3      	b.n	401ee8 <setvbuf+0x34>
  401f60:	2500      	movs	r5, #0
  401f62:	6e61      	ldr	r1, [r4, #100]	; 0x64
  401f64:	2600      	movs	r6, #0
  401f66:	f104 0243 	add.w	r2, r4, #67	; 0x43
  401f6a:	f043 0302 	orr.w	r3, r3, #2
  401f6e:	2001      	movs	r0, #1
  401f70:	60a6      	str	r6, [r4, #8]
  401f72:	07ce      	lsls	r6, r1, #31
  401f74:	81a3      	strh	r3, [r4, #12]
  401f76:	6022      	str	r2, [r4, #0]
  401f78:	6122      	str	r2, [r4, #16]
  401f7a:	6160      	str	r0, [r4, #20]
  401f7c:	d401      	bmi.n	401f82 <setvbuf+0xce>
  401f7e:	0598      	lsls	r0, r3, #22
  401f80:	d53e      	bpl.n	402000 <setvbuf+0x14c>
  401f82:	4628      	mov	r0, r5
  401f84:	b003      	add	sp, #12
  401f86:	e8bd 83f0 	ldmia.w	sp!, {r4, r5, r6, r7, r8, r9, pc}
  401f8a:	6921      	ldr	r1, [r4, #16]
  401f8c:	4628      	mov	r0, r5
  401f8e:	f001 fa41 	bl	403414 <_free_r>
  401f92:	f9b4 300c 	ldrsh.w	r3, [r4, #12]
  401f96:	e7bd      	b.n	401f14 <setvbuf+0x60>
  401f98:	4628      	mov	r0, r5
  401f9a:	f001 f915 	bl	4031c8 <__sinit>
  401f9e:	e796      	b.n	401ece <setvbuf+0x1a>
  401fa0:	2f00      	cmp	r7, #0
  401fa2:	d0cb      	beq.n	401f3c <setvbuf+0x88>
  401fa4:	6bab      	ldr	r3, [r5, #56]	; 0x38
  401fa6:	2b00      	cmp	r3, #0
  401fa8:	d033      	beq.n	402012 <setvbuf+0x15e>
  401faa:	9b00      	ldr	r3, [sp, #0]
  401fac:	f9b4 200c 	ldrsh.w	r2, [r4, #12]
  401fb0:	6027      	str	r7, [r4, #0]
  401fb2:	429e      	cmp	r6, r3
  401fb4:	bf1c      	itt	ne
  401fb6:	f442 6200 	orrne.w	r2, r2, #2048	; 0x800
  401fba:	81a2      	strhne	r2, [r4, #12]
  401fbc:	f1b8 0f01 	cmp.w	r8, #1
  401fc0:	bf04      	itt	eq
  401fc2:	f042 0201 	orreq.w	r2, r2, #1
  401fc6:	81a2      	strheq	r2, [r4, #12]
  401fc8:	b292      	uxth	r2, r2
  401fca:	f012 0308 	ands.w	r3, r2, #8
  401fce:	6127      	str	r7, [r4, #16]
  401fd0:	6166      	str	r6, [r4, #20]
  401fd2:	d00e      	beq.n	401ff2 <setvbuf+0x13e>
  401fd4:	07d1      	lsls	r1, r2, #31
  401fd6:	d51a      	bpl.n	40200e <setvbuf+0x15a>
  401fd8:	6e65      	ldr	r5, [r4, #100]	; 0x64
  401fda:	4276      	negs	r6, r6
  401fdc:	2300      	movs	r3, #0
  401fde:	f015 0501 	ands.w	r5, r5, #1
  401fe2:	61a6      	str	r6, [r4, #24]
  401fe4:	60a3      	str	r3, [r4, #8]
  401fe6:	d009      	beq.n	401ffc <setvbuf+0x148>
  401fe8:	2500      	movs	r5, #0
  401fea:	4628      	mov	r0, r5
  401fec:	b003      	add	sp, #12
  401fee:	e8bd 83f0 	ldmia.w	sp!, {r4, r5, r6, r7, r8, r9, pc}
  401ff2:	60a3      	str	r3, [r4, #8]
  401ff4:	6e65      	ldr	r5, [r4, #100]	; 0x64
  401ff6:	f015 0501 	ands.w	r5, r5, #1
  401ffa:	d1f5      	bne.n	401fe8 <setvbuf+0x134>
  401ffc:	0593      	lsls	r3, r2, #22
  401ffe:	d4c0      	bmi.n	401f82 <setvbuf+0xce>
  402000:	6da0      	ldr	r0, [r4, #88]	; 0x58
  402002:	f001 fca3 	bl	40394c <__retarget_lock_release_recursive>
  402006:	4628      	mov	r0, r5
  402008:	b003      	add	sp, #12
  40200a:	e8bd 83f0 	ldmia.w	sp!, {r4, r5, r6, r7, r8, r9, pc}
  40200e:	60a6      	str	r6, [r4, #8]
  402010:	e7f0      	b.n	401ff4 <setvbuf+0x140>
  402012:	4628      	mov	r0, r5
  402014:	f001 f8d8 	bl	4031c8 <__sinit>
  402018:	e7c7      	b.n	401faa <setvbuf+0xf6>
  40201a:	f04f 35ff 	mov.w	r5, #4294967295
  40201e:	e7b0      	b.n	401f82 <setvbuf+0xce>
  402020:	f8dd 9000 	ldr.w	r9, [sp]
  402024:	45b1      	cmp	r9, r6
  402026:	d004      	beq.n	402032 <setvbuf+0x17e>
  402028:	4648      	mov	r0, r9
  40202a:	f001 fd09 	bl	403a40 <malloc>
  40202e:	4607      	mov	r7, r0
  402030:	b920      	cbnz	r0, 40203c <setvbuf+0x188>
  402032:	f9b4 300c 	ldrsh.w	r3, [r4, #12]
  402036:	f04f 35ff 	mov.w	r5, #4294967295
  40203a:	e792      	b.n	401f62 <setvbuf+0xae>
  40203c:	464e      	mov	r6, r9
  40203e:	e783      	b.n	401f48 <setvbuf+0x94>
  402040:	20400014 	.word	0x20400014
	...

00402080 <strlen>:
  402080:	f890 f000 	pld	[r0]
  402084:	e96d 4502 	strd	r4, r5, [sp, #-8]!
  402088:	f020 0107 	bic.w	r1, r0, #7
  40208c:	f06f 0c00 	mvn.w	ip, #0
  402090:	f010 0407 	ands.w	r4, r0, #7
  402094:	f891 f020 	pld	[r1, #32]
  402098:	f040 8049 	bne.w	40212e <strlen+0xae>
  40209c:	f04f 0400 	mov.w	r4, #0
  4020a0:	f06f 0007 	mvn.w	r0, #7
  4020a4:	e9d1 2300 	ldrd	r2, r3, [r1]
  4020a8:	f891 f040 	pld	[r1, #64]	; 0x40
  4020ac:	f100 0008 	add.w	r0, r0, #8
  4020b0:	fa82 f24c 	uadd8	r2, r2, ip
  4020b4:	faa4 f28c 	sel	r2, r4, ip
  4020b8:	fa83 f34c 	uadd8	r3, r3, ip
  4020bc:	faa2 f38c 	sel	r3, r2, ip
  4020c0:	bb4b      	cbnz	r3, 402116 <strlen+0x96>
  4020c2:	e9d1 2302 	ldrd	r2, r3, [r1, #8]
  4020c6:	fa82 f24c 	uadd8	r2, r2, ip
  4020ca:	f100 0008 	add.w	r0, r0, #8
  4020ce:	faa4 f28c 	sel	r2, r4, ip
  4020d2:	fa83 f34c 	uadd8	r3, r3, ip
  4020d6:	faa2 f38c 	sel	r3, r2, ip
  4020da:	b9e3      	cbnz	r3, 402116 <strlen+0x96>
  4020dc:	e9d1 2304 	ldrd	r2, r3, [r1, #16]
  4020e0:	fa82 f24c 	uadd8	r2, r2, ip
  4020e4:	f100 0008 	add.w	r0, r0, #8
  4020e8:	faa4 f28c 	sel	r2, r4, ip
  4020ec:	fa83 f34c 	uadd8	r3, r3, ip
  4020f0:	faa2 f38c 	sel	r3, r2, ip
  4020f4:	b97b      	cbnz	r3, 402116 <strlen+0x96>
  4020f6:	e9d1 2306 	ldrd	r2, r3, [r1, #24]
  4020fa:	f101 0120 	add.w	r1, r1, #32
  4020fe:	fa82 f24c 	uadd8	r2, r2, ip
  402102:	f100 0008 	add.w	r0, r0, #8
  402106:	faa4 f28c 	sel	r2, r4, ip
  40210a:	fa83 f34c 	uadd8	r3, r3, ip
  40210e:	faa2 f38c 	sel	r3, r2, ip
  402112:	2b00      	cmp	r3, #0
  402114:	d0c6      	beq.n	4020a4 <strlen+0x24>
  402116:	2a00      	cmp	r2, #0
  402118:	bf04      	itt	eq
  40211a:	3004      	addeq	r0, #4
  40211c:	461a      	moveq	r2, r3
  40211e:	ba12      	rev	r2, r2
  402120:	fab2 f282 	clz	r2, r2
  402124:	e8fd 4502 	ldrd	r4, r5, [sp], #8
  402128:	eb00 00d2 	add.w	r0, r0, r2, lsr #3
  40212c:	4770      	bx	lr
  40212e:	e9d1 2300 	ldrd	r2, r3, [r1]
  402132:	f004 0503 	and.w	r5, r4, #3
  402136:	f1c4 0000 	rsb	r0, r4, #0
  40213a:	ea4f 05c5 	mov.w	r5, r5, lsl #3
  40213e:	f014 0f04 	tst.w	r4, #4
  402142:	f891 f040 	pld	[r1, #64]	; 0x40
  402146:	fa0c f505 	lsl.w	r5, ip, r5
  40214a:	ea62 0205 	orn	r2, r2, r5
  40214e:	bf1c      	itt	ne
  402150:	ea63 0305 	ornne	r3, r3, r5
  402154:	4662      	movne	r2, ip
  402156:	f04f 0400 	mov.w	r4, #0
  40215a:	e7a9      	b.n	4020b0 <strlen+0x30>

0040215c <__sprint_r.part.0>:
  40215c:	e92d 4ff8 	stmdb	sp!, {r3, r4, r5, r6, r7, r8, r9, sl, fp, lr}
  402160:	6e4b      	ldr	r3, [r1, #100]	; 0x64
  402162:	049c      	lsls	r4, r3, #18
  402164:	4693      	mov	fp, r2
  402166:	d52f      	bpl.n	4021c8 <__sprint_r.part.0+0x6c>
  402168:	6893      	ldr	r3, [r2, #8]
  40216a:	6812      	ldr	r2, [r2, #0]
  40216c:	b353      	cbz	r3, 4021c4 <__sprint_r.part.0+0x68>
  40216e:	460e      	mov	r6, r1
  402170:	4607      	mov	r7, r0
  402172:	f102 0908 	add.w	r9, r2, #8
  402176:	e919 0420 	ldmdb	r9, {r5, sl}
  40217a:	ea5f 089a 	movs.w	r8, sl, lsr #2
  40217e:	d017      	beq.n	4021b0 <__sprint_r.part.0+0x54>
  402180:	3d04      	subs	r5, #4
  402182:	2400      	movs	r4, #0
  402184:	e001      	b.n	40218a <__sprint_r.part.0+0x2e>
  402186:	45a0      	cmp	r8, r4
  402188:	d010      	beq.n	4021ac <__sprint_r.part.0+0x50>
  40218a:	4632      	mov	r2, r6
  40218c:	f855 1f04 	ldr.w	r1, [r5, #4]!
  402190:	4638      	mov	r0, r7
  402192:	f001 f8bb 	bl	40330c <_fputwc_r>
  402196:	1c43      	adds	r3, r0, #1
  402198:	f104 0401 	add.w	r4, r4, #1
  40219c:	d1f3      	bne.n	402186 <__sprint_r.part.0+0x2a>
  40219e:	2300      	movs	r3, #0
  4021a0:	f8cb 3008 	str.w	r3, [fp, #8]
  4021a4:	f8cb 3004 	str.w	r3, [fp, #4]
  4021a8:	e8bd 8ff8 	ldmia.w	sp!, {r3, r4, r5, r6, r7, r8, r9, sl, fp, pc}
  4021ac:	f8db 3008 	ldr.w	r3, [fp, #8]
  4021b0:	f02a 0a03 	bic.w	sl, sl, #3
  4021b4:	eba3 030a 	sub.w	r3, r3, sl
  4021b8:	f8cb 3008 	str.w	r3, [fp, #8]
  4021bc:	f109 0908 	add.w	r9, r9, #8
  4021c0:	2b00      	cmp	r3, #0
  4021c2:	d1d8      	bne.n	402176 <__sprint_r.part.0+0x1a>
  4021c4:	2000      	movs	r0, #0
  4021c6:	e7ea      	b.n	40219e <__sprint_r.part.0+0x42>
  4021c8:	f001 fa0a 	bl	4035e0 <__sfvwrite_r>
  4021cc:	2300      	movs	r3, #0
  4021ce:	f8cb 3008 	str.w	r3, [fp, #8]
  4021d2:	f8cb 3004 	str.w	r3, [fp, #4]
  4021d6:	e8bd 8ff8 	ldmia.w	sp!, {r3, r4, r5, r6, r7, r8, r9, sl, fp, pc}
  4021da:	bf00      	nop

004021dc <_vfiprintf_r>:
  4021dc:	e92d 4ff0 	stmdb	sp!, {r4, r5, r6, r7, r8, r9, sl, fp, lr}
  4021e0:	b0ad      	sub	sp, #180	; 0xb4
  4021e2:	461d      	mov	r5, r3
  4021e4:	468b      	mov	fp, r1
  4021e6:	4690      	mov	r8, r2
  4021e8:	9307      	str	r3, [sp, #28]
  4021ea:	9006      	str	r0, [sp, #24]
  4021ec:	b118      	cbz	r0, 4021f6 <_vfiprintf_r+0x1a>
  4021ee:	6b83      	ldr	r3, [r0, #56]	; 0x38
  4021f0:	2b00      	cmp	r3, #0
  4021f2:	f000 80f3 	beq.w	4023dc <_vfiprintf_r+0x200>
  4021f6:	f8db 3064 	ldr.w	r3, [fp, #100]	; 0x64
  4021fa:	f9bb 000c 	ldrsh.w	r0, [fp, #12]
  4021fe:	07df      	lsls	r7, r3, #31
  402200:	b281      	uxth	r1, r0
  402202:	d402      	bmi.n	40220a <_vfiprintf_r+0x2e>
  402204:	058e      	lsls	r6, r1, #22
  402206:	f140 80fc 	bpl.w	402402 <_vfiprintf_r+0x226>
  40220a:	048c      	lsls	r4, r1, #18
  40220c:	d40a      	bmi.n	402224 <_vfiprintf_r+0x48>
  40220e:	f8db 3064 	ldr.w	r3, [fp, #100]	; 0x64
  402212:	f440 5100 	orr.w	r1, r0, #8192	; 0x2000
  402216:	f423 5300 	bic.w	r3, r3, #8192	; 0x2000
  40221a:	f8ab 100c 	strh.w	r1, [fp, #12]
  40221e:	f8cb 3064 	str.w	r3, [fp, #100]	; 0x64
  402222:	b289      	uxth	r1, r1
  402224:	0708      	lsls	r0, r1, #28
  402226:	f140 80b3 	bpl.w	402390 <_vfiprintf_r+0x1b4>
  40222a:	f8db 3010 	ldr.w	r3, [fp, #16]
  40222e:	2b00      	cmp	r3, #0
  402230:	f000 80ae 	beq.w	402390 <_vfiprintf_r+0x1b4>
  402234:	f001 031a 	and.w	r3, r1, #26
  402238:	2b0a      	cmp	r3, #10
  40223a:	f000 80b5 	beq.w	4023a8 <_vfiprintf_r+0x1cc>
  40223e:	2300      	movs	r3, #0
  402240:	f10d 0970 	add.w	r9, sp, #112	; 0x70
  402244:	930b      	str	r3, [sp, #44]	; 0x2c
  402246:	9311      	str	r3, [sp, #68]	; 0x44
  402248:	9310      	str	r3, [sp, #64]	; 0x40
  40224a:	9303      	str	r3, [sp, #12]
  40224c:	f8cd 903c 	str.w	r9, [sp, #60]	; 0x3c
  402250:	46ca      	mov	sl, r9
  402252:	f8cd b010 	str.w	fp, [sp, #16]
  402256:	f898 3000 	ldrb.w	r3, [r8]
  40225a:	4644      	mov	r4, r8
  40225c:	b1fb      	cbz	r3, 40229e <_vfiprintf_r+0xc2>
  40225e:	2b25      	cmp	r3, #37	; 0x25
  402260:	d102      	bne.n	402268 <_vfiprintf_r+0x8c>
  402262:	e01c      	b.n	40229e <_vfiprintf_r+0xc2>
  402264:	2b25      	cmp	r3, #37	; 0x25
  402266:	d003      	beq.n	402270 <_vfiprintf_r+0x94>
  402268:	f814 3f01 	ldrb.w	r3, [r4, #1]!
  40226c:	2b00      	cmp	r3, #0
  40226e:	d1f9      	bne.n	402264 <_vfiprintf_r+0x88>
  402270:	eba4 0508 	sub.w	r5, r4, r8
  402274:	b19d      	cbz	r5, 40229e <_vfiprintf_r+0xc2>
  402276:	9b10      	ldr	r3, [sp, #64]	; 0x40
  402278:	9a11      	ldr	r2, [sp, #68]	; 0x44
  40227a:	f8ca 8000 	str.w	r8, [sl]
  40227e:	3301      	adds	r3, #1
  402280:	442a      	add	r2, r5
  402282:	2b07      	cmp	r3, #7
  402284:	f8ca 5004 	str.w	r5, [sl, #4]
  402288:	9211      	str	r2, [sp, #68]	; 0x44
  40228a:	9310      	str	r3, [sp, #64]	; 0x40
  40228c:	dd7a      	ble.n	402384 <_vfiprintf_r+0x1a8>
  40228e:	2a00      	cmp	r2, #0
  402290:	f040 84b0 	bne.w	402bf4 <_vfiprintf_r+0xa18>
  402294:	9b03      	ldr	r3, [sp, #12]
  402296:	9210      	str	r2, [sp, #64]	; 0x40
  402298:	442b      	add	r3, r5
  40229a:	46ca      	mov	sl, r9
  40229c:	9303      	str	r3, [sp, #12]
  40229e:	7823      	ldrb	r3, [r4, #0]
  4022a0:	2b00      	cmp	r3, #0
  4022a2:	f000 83e0 	beq.w	402a66 <_vfiprintf_r+0x88a>
  4022a6:	2000      	movs	r0, #0
  4022a8:	f04f 0300 	mov.w	r3, #0
  4022ac:	f88d 3037 	strb.w	r3, [sp, #55]	; 0x37
  4022b0:	f104 0801 	add.w	r8, r4, #1
  4022b4:	7862      	ldrb	r2, [r4, #1]
  4022b6:	4605      	mov	r5, r0
  4022b8:	4606      	mov	r6, r0
  4022ba:	4603      	mov	r3, r0
  4022bc:	f04f 34ff 	mov.w	r4, #4294967295
  4022c0:	f108 0801 	add.w	r8, r8, #1
  4022c4:	f1a2 0120 	sub.w	r1, r2, #32
  4022c8:	2958      	cmp	r1, #88	; 0x58
  4022ca:	f200 82de 	bhi.w	40288a <_vfiprintf_r+0x6ae>
  4022ce:	e8df f011 	tbh	[pc, r1, lsl #1]
  4022d2:	0221      	.short	0x0221
  4022d4:	02dc02dc 	.word	0x02dc02dc
  4022d8:	02dc0229 	.word	0x02dc0229
  4022dc:	02dc02dc 	.word	0x02dc02dc
  4022e0:	02dc02dc 	.word	0x02dc02dc
  4022e4:	028902dc 	.word	0x028902dc
  4022e8:	02dc0295 	.word	0x02dc0295
  4022ec:	02bd00a2 	.word	0x02bd00a2
  4022f0:	019f02dc 	.word	0x019f02dc
  4022f4:	01a401a4 	.word	0x01a401a4
  4022f8:	01a401a4 	.word	0x01a401a4
  4022fc:	01a401a4 	.word	0x01a401a4
  402300:	01a401a4 	.word	0x01a401a4
  402304:	02dc01a4 	.word	0x02dc01a4
  402308:	02dc02dc 	.word	0x02dc02dc
  40230c:	02dc02dc 	.word	0x02dc02dc
  402310:	02dc02dc 	.word	0x02dc02dc
  402314:	02dc02dc 	.word	0x02dc02dc
  402318:	01b202dc 	.word	0x01b202dc
  40231c:	02dc02dc 	.word	0x02dc02dc
  402320:	02dc02dc 	.word	0x02dc02dc
  402324:	02dc02dc 	.word	0x02dc02dc
  402328:	02dc02dc 	.word	0x02dc02dc
  40232c:	02dc02dc 	.word	0x02dc02dc
  402330:	02dc0197 	.word	0x02dc0197
  402334:	02dc02dc 	.word	0x02dc02dc
  402338:	02dc02dc 	.word	0x02dc02dc
  40233c:	02dc019b 	.word	0x02dc019b
  402340:	025302dc 	.word	0x025302dc
  402344:	02dc02dc 	.word	0x02dc02dc
  402348:	02dc02dc 	.word	0x02dc02dc
  40234c:	02dc02dc 	.word	0x02dc02dc
  402350:	02dc02dc 	.word	0x02dc02dc
  402354:	02dc02dc 	.word	0x02dc02dc
  402358:	021b025a 	.word	0x021b025a
  40235c:	02dc02dc 	.word	0x02dc02dc
  402360:	026e02dc 	.word	0x026e02dc
  402364:	02dc021b 	.word	0x02dc021b
  402368:	027302dc 	.word	0x027302dc
  40236c:	01f502dc 	.word	0x01f502dc
  402370:	02090182 	.word	0x02090182
  402374:	02dc02d7 	.word	0x02dc02d7
  402378:	02dc029a 	.word	0x02dc029a
  40237c:	02dc00a7 	.word	0x02dc00a7
  402380:	022e02dc 	.word	0x022e02dc
  402384:	f10a 0a08 	add.w	sl, sl, #8
  402388:	9b03      	ldr	r3, [sp, #12]
  40238a:	442b      	add	r3, r5
  40238c:	9303      	str	r3, [sp, #12]
  40238e:	e786      	b.n	40229e <_vfiprintf_r+0xc2>
  402390:	4659      	mov	r1, fp
  402392:	9806      	ldr	r0, [sp, #24]
  402394:	f000 fdac 	bl	402ef0 <__swsetup_r>
  402398:	bb18      	cbnz	r0, 4023e2 <_vfiprintf_r+0x206>
  40239a:	f8bb 100c 	ldrh.w	r1, [fp, #12]
  40239e:	f001 031a 	and.w	r3, r1, #26
  4023a2:	2b0a      	cmp	r3, #10
  4023a4:	f47f af4b 	bne.w	40223e <_vfiprintf_r+0x62>
  4023a8:	f9bb 300e 	ldrsh.w	r3, [fp, #14]
  4023ac:	2b00      	cmp	r3, #0
  4023ae:	f6ff af46 	blt.w	40223e <_vfiprintf_r+0x62>
  4023b2:	f8db 3064 	ldr.w	r3, [fp, #100]	; 0x64
  4023b6:	07db      	lsls	r3, r3, #31
  4023b8:	d405      	bmi.n	4023c6 <_vfiprintf_r+0x1ea>
  4023ba:	058f      	lsls	r7, r1, #22
  4023bc:	d403      	bmi.n	4023c6 <_vfiprintf_r+0x1ea>
  4023be:	f8db 0058 	ldr.w	r0, [fp, #88]	; 0x58
  4023c2:	f001 fac3 	bl	40394c <__retarget_lock_release_recursive>
  4023c6:	462b      	mov	r3, r5
  4023c8:	4642      	mov	r2, r8
  4023ca:	4659      	mov	r1, fp
  4023cc:	9806      	ldr	r0, [sp, #24]
  4023ce:	f000 fd4d 	bl	402e6c <__sbprintf>
  4023d2:	9003      	str	r0, [sp, #12]
  4023d4:	9803      	ldr	r0, [sp, #12]
  4023d6:	b02d      	add	sp, #180	; 0xb4
  4023d8:	e8bd 8ff0 	ldmia.w	sp!, {r4, r5, r6, r7, r8, r9, sl, fp, pc}
  4023dc:	f000 fef4 	bl	4031c8 <__sinit>
  4023e0:	e709      	b.n	4021f6 <_vfiprintf_r+0x1a>
  4023e2:	f8db 3064 	ldr.w	r3, [fp, #100]	; 0x64
  4023e6:	07d9      	lsls	r1, r3, #31
  4023e8:	d404      	bmi.n	4023f4 <_vfiprintf_r+0x218>
  4023ea:	f8bb 300c 	ldrh.w	r3, [fp, #12]
  4023ee:	059a      	lsls	r2, r3, #22
  4023f0:	f140 84aa 	bpl.w	402d48 <_vfiprintf_r+0xb6c>
  4023f4:	f04f 33ff 	mov.w	r3, #4294967295
  4023f8:	9303      	str	r3, [sp, #12]
  4023fa:	9803      	ldr	r0, [sp, #12]
  4023fc:	b02d      	add	sp, #180	; 0xb4
  4023fe:	e8bd 8ff0 	ldmia.w	sp!, {r4, r5, r6, r7, r8, r9, sl, fp, pc}
  402402:	f8db 0058 	ldr.w	r0, [fp, #88]	; 0x58
  402406:	f001 fa9f 	bl	403948 <__retarget_lock_acquire_recursive>
  40240a:	f9bb 000c 	ldrsh.w	r0, [fp, #12]
  40240e:	b281      	uxth	r1, r0
  402410:	e6fb      	b.n	40220a <_vfiprintf_r+0x2e>
  402412:	4276      	negs	r6, r6
  402414:	9207      	str	r2, [sp, #28]
  402416:	f043 0304 	orr.w	r3, r3, #4
  40241a:	f898 2000 	ldrb.w	r2, [r8]
  40241e:	e74f      	b.n	4022c0 <_vfiprintf_r+0xe4>
  402420:	9608      	str	r6, [sp, #32]
  402422:	069e      	lsls	r6, r3, #26
  402424:	f100 8450 	bmi.w	402cc8 <_vfiprintf_r+0xaec>
  402428:	9907      	ldr	r1, [sp, #28]
  40242a:	06dd      	lsls	r5, r3, #27
  40242c:	460a      	mov	r2, r1
  40242e:	f100 83ef 	bmi.w	402c10 <_vfiprintf_r+0xa34>
  402432:	0658      	lsls	r0, r3, #25
  402434:	f140 83ec 	bpl.w	402c10 <_vfiprintf_r+0xa34>
  402438:	880e      	ldrh	r6, [r1, #0]
  40243a:	3104      	adds	r1, #4
  40243c:	2700      	movs	r7, #0
  40243e:	2201      	movs	r2, #1
  402440:	9107      	str	r1, [sp, #28]
  402442:	f04f 0100 	mov.w	r1, #0
  402446:	f88d 1037 	strb.w	r1, [sp, #55]	; 0x37
  40244a:	2500      	movs	r5, #0
  40244c:	1c61      	adds	r1, r4, #1
  40244e:	f000 8116 	beq.w	40267e <_vfiprintf_r+0x4a2>
  402452:	f023 0180 	bic.w	r1, r3, #128	; 0x80
  402456:	9102      	str	r1, [sp, #8]
  402458:	ea56 0107 	orrs.w	r1, r6, r7
  40245c:	f040 8114 	bne.w	402688 <_vfiprintf_r+0x4ac>
  402460:	2c00      	cmp	r4, #0
  402462:	f040 835c 	bne.w	402b1e <_vfiprintf_r+0x942>
  402466:	2a00      	cmp	r2, #0
  402468:	f040 83b7 	bne.w	402bda <_vfiprintf_r+0x9fe>
  40246c:	f013 0301 	ands.w	r3, r3, #1
  402470:	9305      	str	r3, [sp, #20]
  402472:	f000 8457 	beq.w	402d24 <_vfiprintf_r+0xb48>
  402476:	f10d 0bb0 	add.w	fp, sp, #176	; 0xb0
  40247a:	2330      	movs	r3, #48	; 0x30
  40247c:	f80b 3d41 	strb.w	r3, [fp, #-65]!
  402480:	9b05      	ldr	r3, [sp, #20]
  402482:	42a3      	cmp	r3, r4
  402484:	bfb8      	it	lt
  402486:	4623      	movlt	r3, r4
  402488:	9301      	str	r3, [sp, #4]
  40248a:	b10d      	cbz	r5, 402490 <_vfiprintf_r+0x2b4>
  40248c:	3301      	adds	r3, #1
  40248e:	9301      	str	r3, [sp, #4]
  402490:	9b02      	ldr	r3, [sp, #8]
  402492:	f013 0302 	ands.w	r3, r3, #2
  402496:	9309      	str	r3, [sp, #36]	; 0x24
  402498:	d002      	beq.n	4024a0 <_vfiprintf_r+0x2c4>
  40249a:	9b01      	ldr	r3, [sp, #4]
  40249c:	3302      	adds	r3, #2
  40249e:	9301      	str	r3, [sp, #4]
  4024a0:	9b02      	ldr	r3, [sp, #8]
  4024a2:	f013 0384 	ands.w	r3, r3, #132	; 0x84
  4024a6:	930a      	str	r3, [sp, #40]	; 0x28
  4024a8:	f040 8217 	bne.w	4028da <_vfiprintf_r+0x6fe>
  4024ac:	9b08      	ldr	r3, [sp, #32]
  4024ae:	9a01      	ldr	r2, [sp, #4]
  4024b0:	1a9d      	subs	r5, r3, r2
  4024b2:	2d00      	cmp	r5, #0
  4024b4:	f340 8211 	ble.w	4028da <_vfiprintf_r+0x6fe>
  4024b8:	2d10      	cmp	r5, #16
  4024ba:	f340 8490 	ble.w	402dde <_vfiprintf_r+0xc02>
  4024be:	9b10      	ldr	r3, [sp, #64]	; 0x40
  4024c0:	9a11      	ldr	r2, [sp, #68]	; 0x44
  4024c2:	4ec4      	ldr	r6, [pc, #784]	; (4027d4 <_vfiprintf_r+0x5f8>)
  4024c4:	46d6      	mov	lr, sl
  4024c6:	2710      	movs	r7, #16
  4024c8:	46a2      	mov	sl, r4
  4024ca:	4619      	mov	r1, r3
  4024cc:	9c06      	ldr	r4, [sp, #24]
  4024ce:	e007      	b.n	4024e0 <_vfiprintf_r+0x304>
  4024d0:	f101 0c02 	add.w	ip, r1, #2
  4024d4:	f10e 0e08 	add.w	lr, lr, #8
  4024d8:	4601      	mov	r1, r0
  4024da:	3d10      	subs	r5, #16
  4024dc:	2d10      	cmp	r5, #16
  4024de:	dd11      	ble.n	402504 <_vfiprintf_r+0x328>
  4024e0:	1c48      	adds	r0, r1, #1
  4024e2:	3210      	adds	r2, #16
  4024e4:	2807      	cmp	r0, #7
  4024e6:	9211      	str	r2, [sp, #68]	; 0x44
  4024e8:	e88e 00c0 	stmia.w	lr, {r6, r7}
  4024ec:	9010      	str	r0, [sp, #64]	; 0x40
  4024ee:	ddef      	ble.n	4024d0 <_vfiprintf_r+0x2f4>
  4024f0:	2a00      	cmp	r2, #0
  4024f2:	f040 81e4 	bne.w	4028be <_vfiprintf_r+0x6e2>
  4024f6:	3d10      	subs	r5, #16
  4024f8:	2d10      	cmp	r5, #16
  4024fa:	4611      	mov	r1, r2
  4024fc:	f04f 0c01 	mov.w	ip, #1
  402500:	46ce      	mov	lr, r9
  402502:	dced      	bgt.n	4024e0 <_vfiprintf_r+0x304>
  402504:	4654      	mov	r4, sl
  402506:	4661      	mov	r1, ip
  402508:	46f2      	mov	sl, lr
  40250a:	442a      	add	r2, r5
  40250c:	2907      	cmp	r1, #7
  40250e:	9211      	str	r2, [sp, #68]	; 0x44
  402510:	f8ca 6000 	str.w	r6, [sl]
  402514:	f8ca 5004 	str.w	r5, [sl, #4]
  402518:	9110      	str	r1, [sp, #64]	; 0x40
  40251a:	f300 82ec 	bgt.w	402af6 <_vfiprintf_r+0x91a>
  40251e:	f89d 5037 	ldrb.w	r5, [sp, #55]	; 0x37
  402522:	f10a 0a08 	add.w	sl, sl, #8
  402526:	1c48      	adds	r0, r1, #1
  402528:	2d00      	cmp	r5, #0
  40252a:	f040 81de 	bne.w	4028ea <_vfiprintf_r+0x70e>
  40252e:	9b09      	ldr	r3, [sp, #36]	; 0x24
  402530:	2b00      	cmp	r3, #0
  402532:	f000 81f8 	beq.w	402926 <_vfiprintf_r+0x74a>
  402536:	3202      	adds	r2, #2
  402538:	a90e      	add	r1, sp, #56	; 0x38
  40253a:	2302      	movs	r3, #2
  40253c:	2807      	cmp	r0, #7
  40253e:	9211      	str	r2, [sp, #68]	; 0x44
  402540:	9010      	str	r0, [sp, #64]	; 0x40
  402542:	e88a 000a 	stmia.w	sl, {r1, r3}
  402546:	f340 81ea 	ble.w	40291e <_vfiprintf_r+0x742>
  40254a:	2a00      	cmp	r2, #0
  40254c:	f040 838c 	bne.w	402c68 <_vfiprintf_r+0xa8c>
  402550:	9b0a      	ldr	r3, [sp, #40]	; 0x28
  402552:	2b80      	cmp	r3, #128	; 0x80
  402554:	f04f 0001 	mov.w	r0, #1
  402558:	4611      	mov	r1, r2
  40255a:	46ca      	mov	sl, r9
  40255c:	f040 81e7 	bne.w	40292e <_vfiprintf_r+0x752>
  402560:	9b08      	ldr	r3, [sp, #32]
  402562:	9d01      	ldr	r5, [sp, #4]
  402564:	1b5e      	subs	r6, r3, r5
  402566:	2e00      	cmp	r6, #0
  402568:	f340 81e1 	ble.w	40292e <_vfiprintf_r+0x752>
  40256c:	2e10      	cmp	r6, #16
  40256e:	4d9a      	ldr	r5, [pc, #616]	; (4027d8 <_vfiprintf_r+0x5fc>)
  402570:	f340 8450 	ble.w	402e14 <_vfiprintf_r+0xc38>
  402574:	46d4      	mov	ip, sl
  402576:	2710      	movs	r7, #16
  402578:	46a2      	mov	sl, r4
  40257a:	9c06      	ldr	r4, [sp, #24]
  40257c:	e007      	b.n	40258e <_vfiprintf_r+0x3b2>
  40257e:	f101 0e02 	add.w	lr, r1, #2
  402582:	f10c 0c08 	add.w	ip, ip, #8
  402586:	4601      	mov	r1, r0
  402588:	3e10      	subs	r6, #16
  40258a:	2e10      	cmp	r6, #16
  40258c:	dd11      	ble.n	4025b2 <_vfiprintf_r+0x3d6>
  40258e:	1c48      	adds	r0, r1, #1
  402590:	3210      	adds	r2, #16
  402592:	2807      	cmp	r0, #7
  402594:	9211      	str	r2, [sp, #68]	; 0x44
  402596:	e88c 00a0 	stmia.w	ip, {r5, r7}
  40259a:	9010      	str	r0, [sp, #64]	; 0x40
  40259c:	ddef      	ble.n	40257e <_vfiprintf_r+0x3a2>
  40259e:	2a00      	cmp	r2, #0
  4025a0:	f040 829d 	bne.w	402ade <_vfiprintf_r+0x902>
  4025a4:	3e10      	subs	r6, #16
  4025a6:	2e10      	cmp	r6, #16
  4025a8:	f04f 0e01 	mov.w	lr, #1
  4025ac:	4611      	mov	r1, r2
  4025ae:	46cc      	mov	ip, r9
  4025b0:	dced      	bgt.n	40258e <_vfiprintf_r+0x3b2>
  4025b2:	4654      	mov	r4, sl
  4025b4:	46e2      	mov	sl, ip
  4025b6:	4432      	add	r2, r6
  4025b8:	f1be 0f07 	cmp.w	lr, #7
  4025bc:	9211      	str	r2, [sp, #68]	; 0x44
  4025be:	e88a 0060 	stmia.w	sl, {r5, r6}
  4025c2:	f8cd e040 	str.w	lr, [sp, #64]	; 0x40
  4025c6:	f300 8369 	bgt.w	402c9c <_vfiprintf_r+0xac0>
  4025ca:	f10a 0a08 	add.w	sl, sl, #8
  4025ce:	f10e 0001 	add.w	r0, lr, #1
  4025d2:	4671      	mov	r1, lr
  4025d4:	e1ab      	b.n	40292e <_vfiprintf_r+0x752>
  4025d6:	9608      	str	r6, [sp, #32]
  4025d8:	f013 0220 	ands.w	r2, r3, #32
  4025dc:	f040 838c 	bne.w	402cf8 <_vfiprintf_r+0xb1c>
  4025e0:	f013 0110 	ands.w	r1, r3, #16
  4025e4:	f040 831a 	bne.w	402c1c <_vfiprintf_r+0xa40>
  4025e8:	f013 0240 	ands.w	r2, r3, #64	; 0x40
  4025ec:	f000 8316 	beq.w	402c1c <_vfiprintf_r+0xa40>
  4025f0:	9807      	ldr	r0, [sp, #28]
  4025f2:	460a      	mov	r2, r1
  4025f4:	4601      	mov	r1, r0
  4025f6:	3104      	adds	r1, #4
  4025f8:	8806      	ldrh	r6, [r0, #0]
  4025fa:	9107      	str	r1, [sp, #28]
  4025fc:	2700      	movs	r7, #0
  4025fe:	e720      	b.n	402442 <_vfiprintf_r+0x266>
  402600:	9608      	str	r6, [sp, #32]
  402602:	f043 0310 	orr.w	r3, r3, #16
  402606:	e7e7      	b.n	4025d8 <_vfiprintf_r+0x3fc>
  402608:	9608      	str	r6, [sp, #32]
  40260a:	f043 0310 	orr.w	r3, r3, #16
  40260e:	e708      	b.n	402422 <_vfiprintf_r+0x246>
  402610:	f043 0380 	orr.w	r3, r3, #128	; 0x80
  402614:	f898 2000 	ldrb.w	r2, [r8]
  402618:	e652      	b.n	4022c0 <_vfiprintf_r+0xe4>
  40261a:	f1a2 0130 	sub.w	r1, r2, #48	; 0x30
  40261e:	2600      	movs	r6, #0
  402620:	f818 2b01 	ldrb.w	r2, [r8], #1
  402624:	eb06 0686 	add.w	r6, r6, r6, lsl #2
  402628:	eb01 0646 	add.w	r6, r1, r6, lsl #1
  40262c:	f1a2 0130 	sub.w	r1, r2, #48	; 0x30
  402630:	2909      	cmp	r1, #9
  402632:	d9f5      	bls.n	402620 <_vfiprintf_r+0x444>
  402634:	e646      	b.n	4022c4 <_vfiprintf_r+0xe8>
  402636:	9608      	str	r6, [sp, #32]
  402638:	2800      	cmp	r0, #0
  40263a:	f040 8408 	bne.w	402e4e <_vfiprintf_r+0xc72>
  40263e:	f043 0310 	orr.w	r3, r3, #16
  402642:	069e      	lsls	r6, r3, #26
  402644:	f100 834c 	bmi.w	402ce0 <_vfiprintf_r+0xb04>
  402648:	06dd      	lsls	r5, r3, #27
  40264a:	f100 82f3 	bmi.w	402c34 <_vfiprintf_r+0xa58>
  40264e:	0658      	lsls	r0, r3, #25
  402650:	f140 82f0 	bpl.w	402c34 <_vfiprintf_r+0xa58>
  402654:	9d07      	ldr	r5, [sp, #28]
  402656:	f9b5 6000 	ldrsh.w	r6, [r5]
  40265a:	462a      	mov	r2, r5
  40265c:	17f7      	asrs	r7, r6, #31
  40265e:	3204      	adds	r2, #4
  402660:	4630      	mov	r0, r6
  402662:	4639      	mov	r1, r7
  402664:	9207      	str	r2, [sp, #28]
  402666:	2800      	cmp	r0, #0
  402668:	f171 0200 	sbcs.w	r2, r1, #0
  40266c:	f2c0 835d 	blt.w	402d2a <_vfiprintf_r+0xb4e>
  402670:	1c61      	adds	r1, r4, #1
  402672:	f89d 5037 	ldrb.w	r5, [sp, #55]	; 0x37
  402676:	f04f 0201 	mov.w	r2, #1
  40267a:	f47f aeea 	bne.w	402452 <_vfiprintf_r+0x276>
  40267e:	ea56 0107 	orrs.w	r1, r6, r7
  402682:	f000 824d 	beq.w	402b20 <_vfiprintf_r+0x944>
  402686:	9302      	str	r3, [sp, #8]
  402688:	2a01      	cmp	r2, #1
  40268a:	f000 828c 	beq.w	402ba6 <_vfiprintf_r+0x9ca>
  40268e:	2a02      	cmp	r2, #2
  402690:	f040 825c 	bne.w	402b4c <_vfiprintf_r+0x970>
  402694:	980b      	ldr	r0, [sp, #44]	; 0x2c
  402696:	46cb      	mov	fp, r9
  402698:	0933      	lsrs	r3, r6, #4
  40269a:	f006 010f 	and.w	r1, r6, #15
  40269e:	ea43 7307 	orr.w	r3, r3, r7, lsl #28
  4026a2:	093a      	lsrs	r2, r7, #4
  4026a4:	461e      	mov	r6, r3
  4026a6:	4617      	mov	r7, r2
  4026a8:	5c43      	ldrb	r3, [r0, r1]
  4026aa:	f80b 3d01 	strb.w	r3, [fp, #-1]!
  4026ae:	ea56 0307 	orrs.w	r3, r6, r7
  4026b2:	d1f1      	bne.n	402698 <_vfiprintf_r+0x4bc>
  4026b4:	eba9 030b 	sub.w	r3, r9, fp
  4026b8:	9305      	str	r3, [sp, #20]
  4026ba:	e6e1      	b.n	402480 <_vfiprintf_r+0x2a4>
  4026bc:	2800      	cmp	r0, #0
  4026be:	f040 83c0 	bne.w	402e42 <_vfiprintf_r+0xc66>
  4026c2:	0699      	lsls	r1, r3, #26
  4026c4:	f100 8367 	bmi.w	402d96 <_vfiprintf_r+0xbba>
  4026c8:	06da      	lsls	r2, r3, #27
  4026ca:	f100 80f1 	bmi.w	4028b0 <_vfiprintf_r+0x6d4>
  4026ce:	065b      	lsls	r3, r3, #25
  4026d0:	f140 80ee 	bpl.w	4028b0 <_vfiprintf_r+0x6d4>
  4026d4:	9a07      	ldr	r2, [sp, #28]
  4026d6:	6813      	ldr	r3, [r2, #0]
  4026d8:	3204      	adds	r2, #4
  4026da:	9207      	str	r2, [sp, #28]
  4026dc:	f8bd 200c 	ldrh.w	r2, [sp, #12]
  4026e0:	801a      	strh	r2, [r3, #0]
  4026e2:	e5b8      	b.n	402256 <_vfiprintf_r+0x7a>
  4026e4:	9807      	ldr	r0, [sp, #28]
  4026e6:	4a3d      	ldr	r2, [pc, #244]	; (4027dc <_vfiprintf_r+0x600>)
  4026e8:	9608      	str	r6, [sp, #32]
  4026ea:	920b      	str	r2, [sp, #44]	; 0x2c
  4026ec:	6806      	ldr	r6, [r0, #0]
  4026ee:	2278      	movs	r2, #120	; 0x78
  4026f0:	2130      	movs	r1, #48	; 0x30
  4026f2:	3004      	adds	r0, #4
  4026f4:	f88d 2039 	strb.w	r2, [sp, #57]	; 0x39
  4026f8:	f043 0302 	orr.w	r3, r3, #2
  4026fc:	9007      	str	r0, [sp, #28]
  4026fe:	2700      	movs	r7, #0
  402700:	f88d 1038 	strb.w	r1, [sp, #56]	; 0x38
  402704:	2202      	movs	r2, #2
  402706:	e69c      	b.n	402442 <_vfiprintf_r+0x266>
  402708:	9608      	str	r6, [sp, #32]
  40270a:	2800      	cmp	r0, #0
  40270c:	d099      	beq.n	402642 <_vfiprintf_r+0x466>
  40270e:	f88d 5037 	strb.w	r5, [sp, #55]	; 0x37
  402712:	e796      	b.n	402642 <_vfiprintf_r+0x466>
  402714:	f898 2000 	ldrb.w	r2, [r8]
  402718:	2d00      	cmp	r5, #0
  40271a:	f47f add1 	bne.w	4022c0 <_vfiprintf_r+0xe4>
  40271e:	2001      	movs	r0, #1
  402720:	2520      	movs	r5, #32
  402722:	e5cd      	b.n	4022c0 <_vfiprintf_r+0xe4>
  402724:	f043 0301 	orr.w	r3, r3, #1
  402728:	f898 2000 	ldrb.w	r2, [r8]
  40272c:	e5c8      	b.n	4022c0 <_vfiprintf_r+0xe4>
  40272e:	9608      	str	r6, [sp, #32]
  402730:	2800      	cmp	r0, #0
  402732:	f040 8393 	bne.w	402e5c <_vfiprintf_r+0xc80>
  402736:	4929      	ldr	r1, [pc, #164]	; (4027dc <_vfiprintf_r+0x600>)
  402738:	910b      	str	r1, [sp, #44]	; 0x2c
  40273a:	069f      	lsls	r7, r3, #26
  40273c:	f100 82e8 	bmi.w	402d10 <_vfiprintf_r+0xb34>
  402740:	9807      	ldr	r0, [sp, #28]
  402742:	06de      	lsls	r6, r3, #27
  402744:	4601      	mov	r1, r0
  402746:	f100 8270 	bmi.w	402c2a <_vfiprintf_r+0xa4e>
  40274a:	065d      	lsls	r5, r3, #25
  40274c:	f140 826d 	bpl.w	402c2a <_vfiprintf_r+0xa4e>
  402750:	3104      	adds	r1, #4
  402752:	8806      	ldrh	r6, [r0, #0]
  402754:	9107      	str	r1, [sp, #28]
  402756:	2700      	movs	r7, #0
  402758:	07d8      	lsls	r0, r3, #31
  40275a:	f140 8222 	bpl.w	402ba2 <_vfiprintf_r+0x9c6>
  40275e:	ea56 0107 	orrs.w	r1, r6, r7
  402762:	f000 821e 	beq.w	402ba2 <_vfiprintf_r+0x9c6>
  402766:	2130      	movs	r1, #48	; 0x30
  402768:	f88d 2039 	strb.w	r2, [sp, #57]	; 0x39
  40276c:	f043 0302 	orr.w	r3, r3, #2
  402770:	f88d 1038 	strb.w	r1, [sp, #56]	; 0x38
  402774:	2202      	movs	r2, #2
  402776:	e664      	b.n	402442 <_vfiprintf_r+0x266>
  402778:	9608      	str	r6, [sp, #32]
  40277a:	2800      	cmp	r0, #0
  40277c:	f040 836b 	bne.w	402e56 <_vfiprintf_r+0xc7a>
  402780:	4917      	ldr	r1, [pc, #92]	; (4027e0 <_vfiprintf_r+0x604>)
  402782:	910b      	str	r1, [sp, #44]	; 0x2c
  402784:	e7d9      	b.n	40273a <_vfiprintf_r+0x55e>
  402786:	9907      	ldr	r1, [sp, #28]
  402788:	9608      	str	r6, [sp, #32]
  40278a:	680a      	ldr	r2, [r1, #0]
  40278c:	f88d 2048 	strb.w	r2, [sp, #72]	; 0x48
  402790:	f04f 0000 	mov.w	r0, #0
  402794:	460a      	mov	r2, r1
  402796:	f88d 0037 	strb.w	r0, [sp, #55]	; 0x37
  40279a:	3204      	adds	r2, #4
  40279c:	2001      	movs	r0, #1
  40279e:	9001      	str	r0, [sp, #4]
  4027a0:	9207      	str	r2, [sp, #28]
  4027a2:	9005      	str	r0, [sp, #20]
  4027a4:	f10d 0b48 	add.w	fp, sp, #72	; 0x48
  4027a8:	9302      	str	r3, [sp, #8]
  4027aa:	2400      	movs	r4, #0
  4027ac:	e670      	b.n	402490 <_vfiprintf_r+0x2b4>
  4027ae:	f043 0340 	orr.w	r3, r3, #64	; 0x40
  4027b2:	f898 2000 	ldrb.w	r2, [r8]
  4027b6:	e583      	b.n	4022c0 <_vfiprintf_r+0xe4>
  4027b8:	f898 2000 	ldrb.w	r2, [r8]
  4027bc:	2a6c      	cmp	r2, #108	; 0x6c
  4027be:	bf03      	ittte	eq
  4027c0:	f898 2001 	ldrbeq.w	r2, [r8, #1]
  4027c4:	f043 0320 	orreq.w	r3, r3, #32
  4027c8:	f108 0801 	addeq.w	r8, r8, #1
  4027cc:	f043 0310 	orrne.w	r3, r3, #16
  4027d0:	e576      	b.n	4022c0 <_vfiprintf_r+0xe4>
  4027d2:	bf00      	nop
  4027d4:	00404c04 	.word	0x00404c04
  4027d8:	00404c14 	.word	0x00404c14
  4027dc:	00404be8 	.word	0x00404be8
  4027e0:	00404bd4 	.word	0x00404bd4
  4027e4:	9907      	ldr	r1, [sp, #28]
  4027e6:	680e      	ldr	r6, [r1, #0]
  4027e8:	460a      	mov	r2, r1
  4027ea:	2e00      	cmp	r6, #0
  4027ec:	f102 0204 	add.w	r2, r2, #4
  4027f0:	f6ff ae0f 	blt.w	402412 <_vfiprintf_r+0x236>
  4027f4:	9207      	str	r2, [sp, #28]
  4027f6:	f898 2000 	ldrb.w	r2, [r8]
  4027fa:	e561      	b.n	4022c0 <_vfiprintf_r+0xe4>
  4027fc:	f898 2000 	ldrb.w	r2, [r8]
  402800:	2001      	movs	r0, #1
  402802:	252b      	movs	r5, #43	; 0x2b
  402804:	e55c      	b.n	4022c0 <_vfiprintf_r+0xe4>
  402806:	9907      	ldr	r1, [sp, #28]
  402808:	9608      	str	r6, [sp, #32]
  40280a:	f8d1 b000 	ldr.w	fp, [r1]
  40280e:	f04f 0200 	mov.w	r2, #0
  402812:	f88d 2037 	strb.w	r2, [sp, #55]	; 0x37
  402816:	1d0e      	adds	r6, r1, #4
  402818:	f1bb 0f00 	cmp.w	fp, #0
  40281c:	f000 82e5 	beq.w	402dea <_vfiprintf_r+0xc0e>
  402820:	1c67      	adds	r7, r4, #1
  402822:	f000 82c4 	beq.w	402dae <_vfiprintf_r+0xbd2>
  402826:	4622      	mov	r2, r4
  402828:	2100      	movs	r1, #0
  40282a:	4658      	mov	r0, fp
  40282c:	9301      	str	r3, [sp, #4]
  40282e:	f001 fbd7 	bl	403fe0 <memchr>
  402832:	9b01      	ldr	r3, [sp, #4]
  402834:	2800      	cmp	r0, #0
  402836:	f000 82e5 	beq.w	402e04 <_vfiprintf_r+0xc28>
  40283a:	eba0 020b 	sub.w	r2, r0, fp
  40283e:	9205      	str	r2, [sp, #20]
  402840:	9607      	str	r6, [sp, #28]
  402842:	9302      	str	r3, [sp, #8]
  402844:	f89d 5037 	ldrb.w	r5, [sp, #55]	; 0x37
  402848:	2400      	movs	r4, #0
  40284a:	e619      	b.n	402480 <_vfiprintf_r+0x2a4>
  40284c:	f898 2000 	ldrb.w	r2, [r8]
  402850:	2a2a      	cmp	r2, #42	; 0x2a
  402852:	f108 0701 	add.w	r7, r8, #1
  402856:	f000 82e9 	beq.w	402e2c <_vfiprintf_r+0xc50>
  40285a:	f1a2 0130 	sub.w	r1, r2, #48	; 0x30
  40285e:	2909      	cmp	r1, #9
  402860:	46b8      	mov	r8, r7
  402862:	f04f 0400 	mov.w	r4, #0
  402866:	f63f ad2d 	bhi.w	4022c4 <_vfiprintf_r+0xe8>
  40286a:	f818 2b01 	ldrb.w	r2, [r8], #1
  40286e:	eb04 0484 	add.w	r4, r4, r4, lsl #2
  402872:	eb01 0444 	add.w	r4, r1, r4, lsl #1
  402876:	f1a2 0130 	sub.w	r1, r2, #48	; 0x30
  40287a:	2909      	cmp	r1, #9
  40287c:	d9f5      	bls.n	40286a <_vfiprintf_r+0x68e>
  40287e:	e521      	b.n	4022c4 <_vfiprintf_r+0xe8>
  402880:	f043 0320 	orr.w	r3, r3, #32
  402884:	f898 2000 	ldrb.w	r2, [r8]
  402888:	e51a      	b.n	4022c0 <_vfiprintf_r+0xe4>
  40288a:	9608      	str	r6, [sp, #32]
  40288c:	2800      	cmp	r0, #0
  40288e:	f040 82db 	bne.w	402e48 <_vfiprintf_r+0xc6c>
  402892:	2a00      	cmp	r2, #0
  402894:	f000 80e7 	beq.w	402a66 <_vfiprintf_r+0x88a>
  402898:	2101      	movs	r1, #1
  40289a:	f88d 2048 	strb.w	r2, [sp, #72]	; 0x48
  40289e:	f04f 0200 	mov.w	r2, #0
  4028a2:	9101      	str	r1, [sp, #4]
  4028a4:	f88d 2037 	strb.w	r2, [sp, #55]	; 0x37
  4028a8:	9105      	str	r1, [sp, #20]
  4028aa:	f10d 0b48 	add.w	fp, sp, #72	; 0x48
  4028ae:	e77b      	b.n	4027a8 <_vfiprintf_r+0x5cc>
  4028b0:	9a07      	ldr	r2, [sp, #28]
  4028b2:	6813      	ldr	r3, [r2, #0]
  4028b4:	3204      	adds	r2, #4
  4028b6:	9207      	str	r2, [sp, #28]
  4028b8:	9a03      	ldr	r2, [sp, #12]
  4028ba:	601a      	str	r2, [r3, #0]
  4028bc:	e4cb      	b.n	402256 <_vfiprintf_r+0x7a>
  4028be:	aa0f      	add	r2, sp, #60	; 0x3c
  4028c0:	9904      	ldr	r1, [sp, #16]
  4028c2:	4620      	mov	r0, r4
  4028c4:	f7ff fc4a 	bl	40215c <__sprint_r.part.0>
  4028c8:	2800      	cmp	r0, #0
  4028ca:	f040 8139 	bne.w	402b40 <_vfiprintf_r+0x964>
  4028ce:	9910      	ldr	r1, [sp, #64]	; 0x40
  4028d0:	9a11      	ldr	r2, [sp, #68]	; 0x44
  4028d2:	f101 0c01 	add.w	ip, r1, #1
  4028d6:	46ce      	mov	lr, r9
  4028d8:	e5ff      	b.n	4024da <_vfiprintf_r+0x2fe>
  4028da:	9910      	ldr	r1, [sp, #64]	; 0x40
  4028dc:	9a11      	ldr	r2, [sp, #68]	; 0x44
  4028de:	1c48      	adds	r0, r1, #1
  4028e0:	f89d 5037 	ldrb.w	r5, [sp, #55]	; 0x37
  4028e4:	2d00      	cmp	r5, #0
  4028e6:	f43f ae22 	beq.w	40252e <_vfiprintf_r+0x352>
  4028ea:	3201      	adds	r2, #1
  4028ec:	f10d 0537 	add.w	r5, sp, #55	; 0x37
  4028f0:	2101      	movs	r1, #1
  4028f2:	2807      	cmp	r0, #7
  4028f4:	9211      	str	r2, [sp, #68]	; 0x44
  4028f6:	9010      	str	r0, [sp, #64]	; 0x40
  4028f8:	f8ca 5000 	str.w	r5, [sl]
  4028fc:	f8ca 1004 	str.w	r1, [sl, #4]
  402900:	f340 8108 	ble.w	402b14 <_vfiprintf_r+0x938>
  402904:	2a00      	cmp	r2, #0
  402906:	f040 81bc 	bne.w	402c82 <_vfiprintf_r+0xaa6>
  40290a:	9b09      	ldr	r3, [sp, #36]	; 0x24
  40290c:	2b00      	cmp	r3, #0
  40290e:	f43f ae1f 	beq.w	402550 <_vfiprintf_r+0x374>
  402912:	ab0e      	add	r3, sp, #56	; 0x38
  402914:	2202      	movs	r2, #2
  402916:	4608      	mov	r0, r1
  402918:	931c      	str	r3, [sp, #112]	; 0x70
  40291a:	921d      	str	r2, [sp, #116]	; 0x74
  40291c:	46ca      	mov	sl, r9
  40291e:	4601      	mov	r1, r0
  402920:	f10a 0a08 	add.w	sl, sl, #8
  402924:	3001      	adds	r0, #1
  402926:	9b0a      	ldr	r3, [sp, #40]	; 0x28
  402928:	2b80      	cmp	r3, #128	; 0x80
  40292a:	f43f ae19 	beq.w	402560 <_vfiprintf_r+0x384>
  40292e:	9b05      	ldr	r3, [sp, #20]
  402930:	1ae4      	subs	r4, r4, r3
  402932:	2c00      	cmp	r4, #0
  402934:	dd2e      	ble.n	402994 <_vfiprintf_r+0x7b8>
  402936:	2c10      	cmp	r4, #16
  402938:	4db3      	ldr	r5, [pc, #716]	; (402c08 <_vfiprintf_r+0xa2c>)
  40293a:	dd1e      	ble.n	40297a <_vfiprintf_r+0x79e>
  40293c:	46d6      	mov	lr, sl
  40293e:	2610      	movs	r6, #16
  402940:	9f06      	ldr	r7, [sp, #24]
  402942:	f8dd a010 	ldr.w	sl, [sp, #16]
  402946:	e006      	b.n	402956 <_vfiprintf_r+0x77a>
  402948:	1c88      	adds	r0, r1, #2
  40294a:	f10e 0e08 	add.w	lr, lr, #8
  40294e:	4619      	mov	r1, r3
  402950:	3c10      	subs	r4, #16
  402952:	2c10      	cmp	r4, #16
  402954:	dd10      	ble.n	402978 <_vfiprintf_r+0x79c>
  402956:	1c4b      	adds	r3, r1, #1
  402958:	3210      	adds	r2, #16
  40295a:	2b07      	cmp	r3, #7
  40295c:	9211      	str	r2, [sp, #68]	; 0x44
  40295e:	e88e 0060 	stmia.w	lr, {r5, r6}
  402962:	9310      	str	r3, [sp, #64]	; 0x40
  402964:	ddf0      	ble.n	402948 <_vfiprintf_r+0x76c>
  402966:	2a00      	cmp	r2, #0
  402968:	d165      	bne.n	402a36 <_vfiprintf_r+0x85a>
  40296a:	3c10      	subs	r4, #16
  40296c:	2c10      	cmp	r4, #16
  40296e:	f04f 0001 	mov.w	r0, #1
  402972:	4611      	mov	r1, r2
  402974:	46ce      	mov	lr, r9
  402976:	dcee      	bgt.n	402956 <_vfiprintf_r+0x77a>
  402978:	46f2      	mov	sl, lr
  40297a:	4422      	add	r2, r4
  40297c:	2807      	cmp	r0, #7
  40297e:	9211      	str	r2, [sp, #68]	; 0x44
  402980:	f8ca 5000 	str.w	r5, [sl]
  402984:	f8ca 4004 	str.w	r4, [sl, #4]
  402988:	9010      	str	r0, [sp, #64]	; 0x40
  40298a:	f300 8085 	bgt.w	402a98 <_vfiprintf_r+0x8bc>
  40298e:	f10a 0a08 	add.w	sl, sl, #8
  402992:	3001      	adds	r0, #1
  402994:	9905      	ldr	r1, [sp, #20]
  402996:	f8ca b000 	str.w	fp, [sl]
  40299a:	440a      	add	r2, r1
  40299c:	2807      	cmp	r0, #7
  40299e:	9211      	str	r2, [sp, #68]	; 0x44
  4029a0:	f8ca 1004 	str.w	r1, [sl, #4]
  4029a4:	9010      	str	r0, [sp, #64]	; 0x40
  4029a6:	f340 8082 	ble.w	402aae <_vfiprintf_r+0x8d2>
  4029aa:	2a00      	cmp	r2, #0
  4029ac:	f040 8118 	bne.w	402be0 <_vfiprintf_r+0xa04>
  4029b0:	9b02      	ldr	r3, [sp, #8]
  4029b2:	9210      	str	r2, [sp, #64]	; 0x40
  4029b4:	0758      	lsls	r0, r3, #29
  4029b6:	d535      	bpl.n	402a24 <_vfiprintf_r+0x848>
  4029b8:	9b08      	ldr	r3, [sp, #32]
  4029ba:	9901      	ldr	r1, [sp, #4]
  4029bc:	1a5c      	subs	r4, r3, r1
  4029be:	2c00      	cmp	r4, #0
  4029c0:	f340 80e7 	ble.w	402b92 <_vfiprintf_r+0x9b6>
  4029c4:	46ca      	mov	sl, r9
  4029c6:	2c10      	cmp	r4, #16
  4029c8:	f340 8218 	ble.w	402dfc <_vfiprintf_r+0xc20>
  4029cc:	9910      	ldr	r1, [sp, #64]	; 0x40
  4029ce:	4e8f      	ldr	r6, [pc, #572]	; (402c0c <_vfiprintf_r+0xa30>)
  4029d0:	9f06      	ldr	r7, [sp, #24]
  4029d2:	f8dd b010 	ldr.w	fp, [sp, #16]
  4029d6:	2510      	movs	r5, #16
  4029d8:	e006      	b.n	4029e8 <_vfiprintf_r+0x80c>
  4029da:	1c88      	adds	r0, r1, #2
  4029dc:	f10a 0a08 	add.w	sl, sl, #8
  4029e0:	4619      	mov	r1, r3
  4029e2:	3c10      	subs	r4, #16
  4029e4:	2c10      	cmp	r4, #16
  4029e6:	dd11      	ble.n	402a0c <_vfiprintf_r+0x830>
  4029e8:	1c4b      	adds	r3, r1, #1
  4029ea:	3210      	adds	r2, #16
  4029ec:	2b07      	cmp	r3, #7
  4029ee:	9211      	str	r2, [sp, #68]	; 0x44
  4029f0:	f8ca 6000 	str.w	r6, [sl]
  4029f4:	f8ca 5004 	str.w	r5, [sl, #4]
  4029f8:	9310      	str	r3, [sp, #64]	; 0x40
  4029fa:	ddee      	ble.n	4029da <_vfiprintf_r+0x7fe>
  4029fc:	bb42      	cbnz	r2, 402a50 <_vfiprintf_r+0x874>
  4029fe:	3c10      	subs	r4, #16
  402a00:	2c10      	cmp	r4, #16
  402a02:	f04f 0001 	mov.w	r0, #1
  402a06:	4611      	mov	r1, r2
  402a08:	46ca      	mov	sl, r9
  402a0a:	dced      	bgt.n	4029e8 <_vfiprintf_r+0x80c>
  402a0c:	4422      	add	r2, r4
  402a0e:	2807      	cmp	r0, #7
  402a10:	9211      	str	r2, [sp, #68]	; 0x44
  402a12:	f8ca 6000 	str.w	r6, [sl]
  402a16:	f8ca 4004 	str.w	r4, [sl, #4]
  402a1a:	9010      	str	r0, [sp, #64]	; 0x40
  402a1c:	dd51      	ble.n	402ac2 <_vfiprintf_r+0x8e6>
  402a1e:	2a00      	cmp	r2, #0
  402a20:	f040 819b 	bne.w	402d5a <_vfiprintf_r+0xb7e>
  402a24:	9b03      	ldr	r3, [sp, #12]
  402a26:	9a08      	ldr	r2, [sp, #32]
  402a28:	9901      	ldr	r1, [sp, #4]
  402a2a:	428a      	cmp	r2, r1
  402a2c:	bfac      	ite	ge
  402a2e:	189b      	addge	r3, r3, r2
  402a30:	185b      	addlt	r3, r3, r1
  402a32:	9303      	str	r3, [sp, #12]
  402a34:	e04e      	b.n	402ad4 <_vfiprintf_r+0x8f8>
  402a36:	aa0f      	add	r2, sp, #60	; 0x3c
  402a38:	4651      	mov	r1, sl
  402a3a:	4638      	mov	r0, r7
  402a3c:	f7ff fb8e 	bl	40215c <__sprint_r.part.0>
  402a40:	2800      	cmp	r0, #0
  402a42:	f040 813f 	bne.w	402cc4 <_vfiprintf_r+0xae8>
  402a46:	9910      	ldr	r1, [sp, #64]	; 0x40
  402a48:	9a11      	ldr	r2, [sp, #68]	; 0x44
  402a4a:	1c48      	adds	r0, r1, #1
  402a4c:	46ce      	mov	lr, r9
  402a4e:	e77f      	b.n	402950 <_vfiprintf_r+0x774>
  402a50:	aa0f      	add	r2, sp, #60	; 0x3c
  402a52:	4659      	mov	r1, fp
  402a54:	4638      	mov	r0, r7
  402a56:	f7ff fb81 	bl	40215c <__sprint_r.part.0>
  402a5a:	b960      	cbnz	r0, 402a76 <_vfiprintf_r+0x89a>
  402a5c:	9910      	ldr	r1, [sp, #64]	; 0x40
  402a5e:	9a11      	ldr	r2, [sp, #68]	; 0x44
  402a60:	1c48      	adds	r0, r1, #1
  402a62:	46ca      	mov	sl, r9
  402a64:	e7bd      	b.n	4029e2 <_vfiprintf_r+0x806>
  402a66:	9b11      	ldr	r3, [sp, #68]	; 0x44
  402a68:	f8dd b010 	ldr.w	fp, [sp, #16]
  402a6c:	2b00      	cmp	r3, #0
  402a6e:	f040 81d4 	bne.w	402e1a <_vfiprintf_r+0xc3e>
  402a72:	2300      	movs	r3, #0
  402a74:	9310      	str	r3, [sp, #64]	; 0x40
  402a76:	f8db 3064 	ldr.w	r3, [fp, #100]	; 0x64
  402a7a:	f013 0f01 	tst.w	r3, #1
  402a7e:	f8bb 300c 	ldrh.w	r3, [fp, #12]
  402a82:	d102      	bne.n	402a8a <_vfiprintf_r+0x8ae>
  402a84:	059a      	lsls	r2, r3, #22
  402a86:	f140 80de 	bpl.w	402c46 <_vfiprintf_r+0xa6a>
  402a8a:	065b      	lsls	r3, r3, #25
  402a8c:	f53f acb2 	bmi.w	4023f4 <_vfiprintf_r+0x218>
  402a90:	9803      	ldr	r0, [sp, #12]
  402a92:	b02d      	add	sp, #180	; 0xb4
  402a94:	e8bd 8ff0 	ldmia.w	sp!, {r4, r5, r6, r7, r8, r9, sl, fp, pc}
  402a98:	2a00      	cmp	r2, #0
  402a9a:	f040 8106 	bne.w	402caa <_vfiprintf_r+0xace>
  402a9e:	9a05      	ldr	r2, [sp, #20]
  402aa0:	921d      	str	r2, [sp, #116]	; 0x74
  402aa2:	2301      	movs	r3, #1
  402aa4:	9211      	str	r2, [sp, #68]	; 0x44
  402aa6:	f8cd b070 	str.w	fp, [sp, #112]	; 0x70
  402aaa:	9310      	str	r3, [sp, #64]	; 0x40
  402aac:	46ca      	mov	sl, r9
  402aae:	f10a 0a08 	add.w	sl, sl, #8
  402ab2:	9b02      	ldr	r3, [sp, #8]
  402ab4:	0759      	lsls	r1, r3, #29
  402ab6:	d504      	bpl.n	402ac2 <_vfiprintf_r+0x8e6>
  402ab8:	9b08      	ldr	r3, [sp, #32]
  402aba:	9901      	ldr	r1, [sp, #4]
  402abc:	1a5c      	subs	r4, r3, r1
  402abe:	2c00      	cmp	r4, #0
  402ac0:	dc81      	bgt.n	4029c6 <_vfiprintf_r+0x7ea>
  402ac2:	9b03      	ldr	r3, [sp, #12]
  402ac4:	9908      	ldr	r1, [sp, #32]
  402ac6:	9801      	ldr	r0, [sp, #4]
  402ac8:	4281      	cmp	r1, r0
  402aca:	bfac      	ite	ge
  402acc:	185b      	addge	r3, r3, r1
  402ace:	181b      	addlt	r3, r3, r0
  402ad0:	9303      	str	r3, [sp, #12]
  402ad2:	bb72      	cbnz	r2, 402b32 <_vfiprintf_r+0x956>
  402ad4:	2300      	movs	r3, #0
  402ad6:	9310      	str	r3, [sp, #64]	; 0x40
  402ad8:	46ca      	mov	sl, r9
  402ada:	f7ff bbbc 	b.w	402256 <_vfiprintf_r+0x7a>
  402ade:	aa0f      	add	r2, sp, #60	; 0x3c
  402ae0:	9904      	ldr	r1, [sp, #16]
  402ae2:	4620      	mov	r0, r4
  402ae4:	f7ff fb3a 	bl	40215c <__sprint_r.part.0>
  402ae8:	bb50      	cbnz	r0, 402b40 <_vfiprintf_r+0x964>
  402aea:	9910      	ldr	r1, [sp, #64]	; 0x40
  402aec:	9a11      	ldr	r2, [sp, #68]	; 0x44
  402aee:	f101 0e01 	add.w	lr, r1, #1
  402af2:	46cc      	mov	ip, r9
  402af4:	e548      	b.n	402588 <_vfiprintf_r+0x3ac>
  402af6:	2a00      	cmp	r2, #0
  402af8:	f040 8140 	bne.w	402d7c <_vfiprintf_r+0xba0>
  402afc:	f89d 1037 	ldrb.w	r1, [sp, #55]	; 0x37
  402b00:	2900      	cmp	r1, #0
  402b02:	f000 811b 	beq.w	402d3c <_vfiprintf_r+0xb60>
  402b06:	2201      	movs	r2, #1
  402b08:	f10d 0137 	add.w	r1, sp, #55	; 0x37
  402b0c:	4610      	mov	r0, r2
  402b0e:	921d      	str	r2, [sp, #116]	; 0x74
  402b10:	911c      	str	r1, [sp, #112]	; 0x70
  402b12:	46ca      	mov	sl, r9
  402b14:	4601      	mov	r1, r0
  402b16:	f10a 0a08 	add.w	sl, sl, #8
  402b1a:	3001      	adds	r0, #1
  402b1c:	e507      	b.n	40252e <_vfiprintf_r+0x352>
  402b1e:	9b02      	ldr	r3, [sp, #8]
  402b20:	2a01      	cmp	r2, #1
  402b22:	f000 8098 	beq.w	402c56 <_vfiprintf_r+0xa7a>
  402b26:	2a02      	cmp	r2, #2
  402b28:	d10d      	bne.n	402b46 <_vfiprintf_r+0x96a>
  402b2a:	9302      	str	r3, [sp, #8]
  402b2c:	2600      	movs	r6, #0
  402b2e:	2700      	movs	r7, #0
  402b30:	e5b0      	b.n	402694 <_vfiprintf_r+0x4b8>
  402b32:	aa0f      	add	r2, sp, #60	; 0x3c
  402b34:	9904      	ldr	r1, [sp, #16]
  402b36:	9806      	ldr	r0, [sp, #24]
  402b38:	f7ff fb10 	bl	40215c <__sprint_r.part.0>
  402b3c:	2800      	cmp	r0, #0
  402b3e:	d0c9      	beq.n	402ad4 <_vfiprintf_r+0x8f8>
  402b40:	f8dd b010 	ldr.w	fp, [sp, #16]
  402b44:	e797      	b.n	402a76 <_vfiprintf_r+0x89a>
  402b46:	9302      	str	r3, [sp, #8]
  402b48:	2600      	movs	r6, #0
  402b4a:	2700      	movs	r7, #0
  402b4c:	4649      	mov	r1, r9
  402b4e:	e000      	b.n	402b52 <_vfiprintf_r+0x976>
  402b50:	4659      	mov	r1, fp
  402b52:	08f2      	lsrs	r2, r6, #3
  402b54:	ea42 7247 	orr.w	r2, r2, r7, lsl #29
  402b58:	08f8      	lsrs	r0, r7, #3
  402b5a:	f006 0307 	and.w	r3, r6, #7
  402b5e:	4607      	mov	r7, r0
  402b60:	4616      	mov	r6, r2
  402b62:	3330      	adds	r3, #48	; 0x30
  402b64:	ea56 0207 	orrs.w	r2, r6, r7
  402b68:	f801 3c01 	strb.w	r3, [r1, #-1]
  402b6c:	f101 3bff 	add.w	fp, r1, #4294967295
  402b70:	d1ee      	bne.n	402b50 <_vfiprintf_r+0x974>
  402b72:	9a02      	ldr	r2, [sp, #8]
  402b74:	07d6      	lsls	r6, r2, #31
  402b76:	f57f ad9d 	bpl.w	4026b4 <_vfiprintf_r+0x4d8>
  402b7a:	2b30      	cmp	r3, #48	; 0x30
  402b7c:	f43f ad9a 	beq.w	4026b4 <_vfiprintf_r+0x4d8>
  402b80:	3902      	subs	r1, #2
  402b82:	2330      	movs	r3, #48	; 0x30
  402b84:	f80b 3c01 	strb.w	r3, [fp, #-1]
  402b88:	eba9 0301 	sub.w	r3, r9, r1
  402b8c:	9305      	str	r3, [sp, #20]
  402b8e:	468b      	mov	fp, r1
  402b90:	e476      	b.n	402480 <_vfiprintf_r+0x2a4>
  402b92:	9b03      	ldr	r3, [sp, #12]
  402b94:	9a08      	ldr	r2, [sp, #32]
  402b96:	428a      	cmp	r2, r1
  402b98:	bfac      	ite	ge
  402b9a:	189b      	addge	r3, r3, r2
  402b9c:	185b      	addlt	r3, r3, r1
  402b9e:	9303      	str	r3, [sp, #12]
  402ba0:	e798      	b.n	402ad4 <_vfiprintf_r+0x8f8>
  402ba2:	2202      	movs	r2, #2
  402ba4:	e44d      	b.n	402442 <_vfiprintf_r+0x266>
  402ba6:	2f00      	cmp	r7, #0
  402ba8:	bf08      	it	eq
  402baa:	2e0a      	cmpeq	r6, #10
  402bac:	d352      	bcc.n	402c54 <_vfiprintf_r+0xa78>
  402bae:	46cb      	mov	fp, r9
  402bb0:	4630      	mov	r0, r6
  402bb2:	4639      	mov	r1, r7
  402bb4:	220a      	movs	r2, #10
  402bb6:	2300      	movs	r3, #0
  402bb8:	f7fe fe72 	bl	4018a0 <__aeabi_uldivmod>
  402bbc:	3230      	adds	r2, #48	; 0x30
  402bbe:	f80b 2d01 	strb.w	r2, [fp, #-1]!
  402bc2:	4630      	mov	r0, r6
  402bc4:	4639      	mov	r1, r7
  402bc6:	2300      	movs	r3, #0
  402bc8:	220a      	movs	r2, #10
  402bca:	f7fe fe69 	bl	4018a0 <__aeabi_uldivmod>
  402bce:	4606      	mov	r6, r0
  402bd0:	460f      	mov	r7, r1
  402bd2:	ea56 0307 	orrs.w	r3, r6, r7
  402bd6:	d1eb      	bne.n	402bb0 <_vfiprintf_r+0x9d4>
  402bd8:	e56c      	b.n	4026b4 <_vfiprintf_r+0x4d8>
  402bda:	9405      	str	r4, [sp, #20]
  402bdc:	46cb      	mov	fp, r9
  402bde:	e44f      	b.n	402480 <_vfiprintf_r+0x2a4>
  402be0:	aa0f      	add	r2, sp, #60	; 0x3c
  402be2:	9904      	ldr	r1, [sp, #16]
  402be4:	9806      	ldr	r0, [sp, #24]
  402be6:	f7ff fab9 	bl	40215c <__sprint_r.part.0>
  402bea:	2800      	cmp	r0, #0
  402bec:	d1a8      	bne.n	402b40 <_vfiprintf_r+0x964>
  402bee:	9a11      	ldr	r2, [sp, #68]	; 0x44
  402bf0:	46ca      	mov	sl, r9
  402bf2:	e75e      	b.n	402ab2 <_vfiprintf_r+0x8d6>
  402bf4:	aa0f      	add	r2, sp, #60	; 0x3c
  402bf6:	9904      	ldr	r1, [sp, #16]
  402bf8:	9806      	ldr	r0, [sp, #24]
  402bfa:	f7ff faaf 	bl	40215c <__sprint_r.part.0>
  402bfe:	2800      	cmp	r0, #0
  402c00:	d19e      	bne.n	402b40 <_vfiprintf_r+0x964>
  402c02:	46ca      	mov	sl, r9
  402c04:	f7ff bbc0 	b.w	402388 <_vfiprintf_r+0x1ac>
  402c08:	00404c14 	.word	0x00404c14
  402c0c:	00404c04 	.word	0x00404c04
  402c10:	3104      	adds	r1, #4
  402c12:	6816      	ldr	r6, [r2, #0]
  402c14:	9107      	str	r1, [sp, #28]
  402c16:	2201      	movs	r2, #1
  402c18:	2700      	movs	r7, #0
  402c1a:	e412      	b.n	402442 <_vfiprintf_r+0x266>
  402c1c:	9807      	ldr	r0, [sp, #28]
  402c1e:	4601      	mov	r1, r0
  402c20:	3104      	adds	r1, #4
  402c22:	6806      	ldr	r6, [r0, #0]
  402c24:	9107      	str	r1, [sp, #28]
  402c26:	2700      	movs	r7, #0
  402c28:	e40b      	b.n	402442 <_vfiprintf_r+0x266>
  402c2a:	680e      	ldr	r6, [r1, #0]
  402c2c:	3104      	adds	r1, #4
  402c2e:	9107      	str	r1, [sp, #28]
  402c30:	2700      	movs	r7, #0
  402c32:	e591      	b.n	402758 <_vfiprintf_r+0x57c>
  402c34:	9907      	ldr	r1, [sp, #28]
  402c36:	680e      	ldr	r6, [r1, #0]
  402c38:	460a      	mov	r2, r1
  402c3a:	17f7      	asrs	r7, r6, #31
  402c3c:	3204      	adds	r2, #4
  402c3e:	9207      	str	r2, [sp, #28]
  402c40:	4630      	mov	r0, r6
  402c42:	4639      	mov	r1, r7
  402c44:	e50f      	b.n	402666 <_vfiprintf_r+0x48a>
  402c46:	f8db 0058 	ldr.w	r0, [fp, #88]	; 0x58
  402c4a:	f000 fe7f 	bl	40394c <__retarget_lock_release_recursive>
  402c4e:	f8bb 300c 	ldrh.w	r3, [fp, #12]
  402c52:	e71a      	b.n	402a8a <_vfiprintf_r+0x8ae>
  402c54:	9b02      	ldr	r3, [sp, #8]
  402c56:	9302      	str	r3, [sp, #8]
  402c58:	f10d 0bb0 	add.w	fp, sp, #176	; 0xb0
  402c5c:	3630      	adds	r6, #48	; 0x30
  402c5e:	2301      	movs	r3, #1
  402c60:	f80b 6d41 	strb.w	r6, [fp, #-65]!
  402c64:	9305      	str	r3, [sp, #20]
  402c66:	e40b      	b.n	402480 <_vfiprintf_r+0x2a4>
  402c68:	aa0f      	add	r2, sp, #60	; 0x3c
  402c6a:	9904      	ldr	r1, [sp, #16]
  402c6c:	9806      	ldr	r0, [sp, #24]
  402c6e:	f7ff fa75 	bl	40215c <__sprint_r.part.0>
  402c72:	2800      	cmp	r0, #0
  402c74:	f47f af64 	bne.w	402b40 <_vfiprintf_r+0x964>
  402c78:	9910      	ldr	r1, [sp, #64]	; 0x40
  402c7a:	9a11      	ldr	r2, [sp, #68]	; 0x44
  402c7c:	1c48      	adds	r0, r1, #1
  402c7e:	46ca      	mov	sl, r9
  402c80:	e651      	b.n	402926 <_vfiprintf_r+0x74a>
  402c82:	aa0f      	add	r2, sp, #60	; 0x3c
  402c84:	9904      	ldr	r1, [sp, #16]
  402c86:	9806      	ldr	r0, [sp, #24]
  402c88:	f7ff fa68 	bl	40215c <__sprint_r.part.0>
  402c8c:	2800      	cmp	r0, #0
  402c8e:	f47f af57 	bne.w	402b40 <_vfiprintf_r+0x964>
  402c92:	9910      	ldr	r1, [sp, #64]	; 0x40
  402c94:	9a11      	ldr	r2, [sp, #68]	; 0x44
  402c96:	1c48      	adds	r0, r1, #1
  402c98:	46ca      	mov	sl, r9
  402c9a:	e448      	b.n	40252e <_vfiprintf_r+0x352>
  402c9c:	2a00      	cmp	r2, #0
  402c9e:	f040 8091 	bne.w	402dc4 <_vfiprintf_r+0xbe8>
  402ca2:	2001      	movs	r0, #1
  402ca4:	4611      	mov	r1, r2
  402ca6:	46ca      	mov	sl, r9
  402ca8:	e641      	b.n	40292e <_vfiprintf_r+0x752>
  402caa:	aa0f      	add	r2, sp, #60	; 0x3c
  402cac:	9904      	ldr	r1, [sp, #16]
  402cae:	9806      	ldr	r0, [sp, #24]
  402cb0:	f7ff fa54 	bl	40215c <__sprint_r.part.0>
  402cb4:	2800      	cmp	r0, #0
  402cb6:	f47f af43 	bne.w	402b40 <_vfiprintf_r+0x964>
  402cba:	9810      	ldr	r0, [sp, #64]	; 0x40
  402cbc:	9a11      	ldr	r2, [sp, #68]	; 0x44
  402cbe:	3001      	adds	r0, #1
  402cc0:	46ca      	mov	sl, r9
  402cc2:	e667      	b.n	402994 <_vfiprintf_r+0x7b8>
  402cc4:	46d3      	mov	fp, sl
  402cc6:	e6d6      	b.n	402a76 <_vfiprintf_r+0x89a>
  402cc8:	9e07      	ldr	r6, [sp, #28]
  402cca:	3607      	adds	r6, #7
  402ccc:	f026 0207 	bic.w	r2, r6, #7
  402cd0:	f102 0108 	add.w	r1, r2, #8
  402cd4:	e9d2 6700 	ldrd	r6, r7, [r2]
  402cd8:	9107      	str	r1, [sp, #28]
  402cda:	2201      	movs	r2, #1
  402cdc:	f7ff bbb1 	b.w	402442 <_vfiprintf_r+0x266>
  402ce0:	9e07      	ldr	r6, [sp, #28]
  402ce2:	3607      	adds	r6, #7
  402ce4:	f026 0607 	bic.w	r6, r6, #7
  402ce8:	e9d6 0100 	ldrd	r0, r1, [r6]
  402cec:	f106 0208 	add.w	r2, r6, #8
  402cf0:	9207      	str	r2, [sp, #28]
  402cf2:	4606      	mov	r6, r0
  402cf4:	460f      	mov	r7, r1
  402cf6:	e4b6      	b.n	402666 <_vfiprintf_r+0x48a>
  402cf8:	9e07      	ldr	r6, [sp, #28]
  402cfa:	3607      	adds	r6, #7
  402cfc:	f026 0207 	bic.w	r2, r6, #7
  402d00:	f102 0108 	add.w	r1, r2, #8
  402d04:	e9d2 6700 	ldrd	r6, r7, [r2]
  402d08:	9107      	str	r1, [sp, #28]
  402d0a:	2200      	movs	r2, #0
  402d0c:	f7ff bb99 	b.w	402442 <_vfiprintf_r+0x266>
  402d10:	9e07      	ldr	r6, [sp, #28]
  402d12:	3607      	adds	r6, #7
  402d14:	f026 0107 	bic.w	r1, r6, #7
  402d18:	f101 0008 	add.w	r0, r1, #8
  402d1c:	9007      	str	r0, [sp, #28]
  402d1e:	e9d1 6700 	ldrd	r6, r7, [r1]
  402d22:	e519      	b.n	402758 <_vfiprintf_r+0x57c>
  402d24:	46cb      	mov	fp, r9
  402d26:	f7ff bbab 	b.w	402480 <_vfiprintf_r+0x2a4>
  402d2a:	252d      	movs	r5, #45	; 0x2d
  402d2c:	4276      	negs	r6, r6
  402d2e:	eb67 0747 	sbc.w	r7, r7, r7, lsl #1
  402d32:	f88d 5037 	strb.w	r5, [sp, #55]	; 0x37
  402d36:	2201      	movs	r2, #1
  402d38:	f7ff bb88 	b.w	40244c <_vfiprintf_r+0x270>
  402d3c:	9b09      	ldr	r3, [sp, #36]	; 0x24
  402d3e:	b9b3      	cbnz	r3, 402d6e <_vfiprintf_r+0xb92>
  402d40:	4611      	mov	r1, r2
  402d42:	2001      	movs	r0, #1
  402d44:	46ca      	mov	sl, r9
  402d46:	e5f2      	b.n	40292e <_vfiprintf_r+0x752>
  402d48:	f8db 0058 	ldr.w	r0, [fp, #88]	; 0x58
  402d4c:	f000 fdfe 	bl	40394c <__retarget_lock_release_recursive>
  402d50:	f04f 33ff 	mov.w	r3, #4294967295
  402d54:	9303      	str	r3, [sp, #12]
  402d56:	f7ff bb50 	b.w	4023fa <_vfiprintf_r+0x21e>
  402d5a:	aa0f      	add	r2, sp, #60	; 0x3c
  402d5c:	9904      	ldr	r1, [sp, #16]
  402d5e:	9806      	ldr	r0, [sp, #24]
  402d60:	f7ff f9fc 	bl	40215c <__sprint_r.part.0>
  402d64:	2800      	cmp	r0, #0
  402d66:	f47f aeeb 	bne.w	402b40 <_vfiprintf_r+0x964>
  402d6a:	9a11      	ldr	r2, [sp, #68]	; 0x44
  402d6c:	e6a9      	b.n	402ac2 <_vfiprintf_r+0x8e6>
  402d6e:	ab0e      	add	r3, sp, #56	; 0x38
  402d70:	2202      	movs	r2, #2
  402d72:	931c      	str	r3, [sp, #112]	; 0x70
  402d74:	921d      	str	r2, [sp, #116]	; 0x74
  402d76:	2001      	movs	r0, #1
  402d78:	46ca      	mov	sl, r9
  402d7a:	e5d0      	b.n	40291e <_vfiprintf_r+0x742>
  402d7c:	aa0f      	add	r2, sp, #60	; 0x3c
  402d7e:	9904      	ldr	r1, [sp, #16]
  402d80:	9806      	ldr	r0, [sp, #24]
  402d82:	f7ff f9eb 	bl	40215c <__sprint_r.part.0>
  402d86:	2800      	cmp	r0, #0
  402d88:	f47f aeda 	bne.w	402b40 <_vfiprintf_r+0x964>
  402d8c:	9910      	ldr	r1, [sp, #64]	; 0x40
  402d8e:	9a11      	ldr	r2, [sp, #68]	; 0x44
  402d90:	1c48      	adds	r0, r1, #1
  402d92:	46ca      	mov	sl, r9
  402d94:	e5a4      	b.n	4028e0 <_vfiprintf_r+0x704>
  402d96:	9a07      	ldr	r2, [sp, #28]
  402d98:	9903      	ldr	r1, [sp, #12]
  402d9a:	6813      	ldr	r3, [r2, #0]
  402d9c:	17cd      	asrs	r5, r1, #31
  402d9e:	4608      	mov	r0, r1
  402da0:	3204      	adds	r2, #4
  402da2:	4629      	mov	r1, r5
  402da4:	9207      	str	r2, [sp, #28]
  402da6:	e9c3 0100 	strd	r0, r1, [r3]
  402daa:	f7ff ba54 	b.w	402256 <_vfiprintf_r+0x7a>
  402dae:	4658      	mov	r0, fp
  402db0:	9607      	str	r6, [sp, #28]
  402db2:	9302      	str	r3, [sp, #8]
  402db4:	f7ff f964 	bl	402080 <strlen>
  402db8:	2400      	movs	r4, #0
  402dba:	9005      	str	r0, [sp, #20]
  402dbc:	f89d 5037 	ldrb.w	r5, [sp, #55]	; 0x37
  402dc0:	f7ff bb5e 	b.w	402480 <_vfiprintf_r+0x2a4>
  402dc4:	aa0f      	add	r2, sp, #60	; 0x3c
  402dc6:	9904      	ldr	r1, [sp, #16]
  402dc8:	9806      	ldr	r0, [sp, #24]
  402dca:	f7ff f9c7 	bl	40215c <__sprint_r.part.0>
  402dce:	2800      	cmp	r0, #0
  402dd0:	f47f aeb6 	bne.w	402b40 <_vfiprintf_r+0x964>
  402dd4:	9910      	ldr	r1, [sp, #64]	; 0x40
  402dd6:	9a11      	ldr	r2, [sp, #68]	; 0x44
  402dd8:	1c48      	adds	r0, r1, #1
  402dda:	46ca      	mov	sl, r9
  402ddc:	e5a7      	b.n	40292e <_vfiprintf_r+0x752>
  402dde:	9910      	ldr	r1, [sp, #64]	; 0x40
  402de0:	9a11      	ldr	r2, [sp, #68]	; 0x44
  402de2:	4e20      	ldr	r6, [pc, #128]	; (402e64 <_vfiprintf_r+0xc88>)
  402de4:	3101      	adds	r1, #1
  402de6:	f7ff bb90 	b.w	40250a <_vfiprintf_r+0x32e>
  402dea:	2c06      	cmp	r4, #6
  402dec:	bf28      	it	cs
  402dee:	2406      	movcs	r4, #6
  402df0:	9405      	str	r4, [sp, #20]
  402df2:	9607      	str	r6, [sp, #28]
  402df4:	9401      	str	r4, [sp, #4]
  402df6:	f8df b070 	ldr.w	fp, [pc, #112]	; 402e68 <_vfiprintf_r+0xc8c>
  402dfa:	e4d5      	b.n	4027a8 <_vfiprintf_r+0x5cc>
  402dfc:	9810      	ldr	r0, [sp, #64]	; 0x40
  402dfe:	4e19      	ldr	r6, [pc, #100]	; (402e64 <_vfiprintf_r+0xc88>)
  402e00:	3001      	adds	r0, #1
  402e02:	e603      	b.n	402a0c <_vfiprintf_r+0x830>
  402e04:	9405      	str	r4, [sp, #20]
  402e06:	f89d 5037 	ldrb.w	r5, [sp, #55]	; 0x37
  402e0a:	9607      	str	r6, [sp, #28]
  402e0c:	9302      	str	r3, [sp, #8]
  402e0e:	4604      	mov	r4, r0
  402e10:	f7ff bb36 	b.w	402480 <_vfiprintf_r+0x2a4>
  402e14:	4686      	mov	lr, r0
  402e16:	f7ff bbce 	b.w	4025b6 <_vfiprintf_r+0x3da>
  402e1a:	9806      	ldr	r0, [sp, #24]
  402e1c:	aa0f      	add	r2, sp, #60	; 0x3c
  402e1e:	4659      	mov	r1, fp
  402e20:	f7ff f99c 	bl	40215c <__sprint_r.part.0>
  402e24:	2800      	cmp	r0, #0
  402e26:	f43f ae24 	beq.w	402a72 <_vfiprintf_r+0x896>
  402e2a:	e624      	b.n	402a76 <_vfiprintf_r+0x89a>
  402e2c:	9907      	ldr	r1, [sp, #28]
  402e2e:	f898 2001 	ldrb.w	r2, [r8, #1]
  402e32:	680c      	ldr	r4, [r1, #0]
  402e34:	3104      	adds	r1, #4
  402e36:	ea44 74e4 	orr.w	r4, r4, r4, asr #31
  402e3a:	46b8      	mov	r8, r7
  402e3c:	9107      	str	r1, [sp, #28]
  402e3e:	f7ff ba3f 	b.w	4022c0 <_vfiprintf_r+0xe4>
  402e42:	f88d 5037 	strb.w	r5, [sp, #55]	; 0x37
  402e46:	e43c      	b.n	4026c2 <_vfiprintf_r+0x4e6>
  402e48:	f88d 5037 	strb.w	r5, [sp, #55]	; 0x37
  402e4c:	e521      	b.n	402892 <_vfiprintf_r+0x6b6>
  402e4e:	f88d 5037 	strb.w	r5, [sp, #55]	; 0x37
  402e52:	f7ff bbf4 	b.w	40263e <_vfiprintf_r+0x462>
  402e56:	f88d 5037 	strb.w	r5, [sp, #55]	; 0x37
  402e5a:	e491      	b.n	402780 <_vfiprintf_r+0x5a4>
  402e5c:	f88d 5037 	strb.w	r5, [sp, #55]	; 0x37
  402e60:	e469      	b.n	402736 <_vfiprintf_r+0x55a>
  402e62:	bf00      	nop
  402e64:	00404c04 	.word	0x00404c04
  402e68:	00404bfc 	.word	0x00404bfc

00402e6c <__sbprintf>:
  402e6c:	e92d 41f0 	stmdb	sp!, {r4, r5, r6, r7, r8, lr}
  402e70:	460c      	mov	r4, r1
  402e72:	f5ad 6d8d 	sub.w	sp, sp, #1128	; 0x468
  402e76:	8989      	ldrh	r1, [r1, #12]
  402e78:	6e66      	ldr	r6, [r4, #100]	; 0x64
  402e7a:	89e5      	ldrh	r5, [r4, #14]
  402e7c:	9619      	str	r6, [sp, #100]	; 0x64
  402e7e:	f021 0102 	bic.w	r1, r1, #2
  402e82:	4606      	mov	r6, r0
  402e84:	69e0      	ldr	r0, [r4, #28]
  402e86:	f8ad 100c 	strh.w	r1, [sp, #12]
  402e8a:	4617      	mov	r7, r2
  402e8c:	f44f 6180 	mov.w	r1, #1024	; 0x400
  402e90:	6a62      	ldr	r2, [r4, #36]	; 0x24
  402e92:	f8ad 500e 	strh.w	r5, [sp, #14]
  402e96:	4698      	mov	r8, r3
  402e98:	ad1a      	add	r5, sp, #104	; 0x68
  402e9a:	2300      	movs	r3, #0
  402e9c:	9007      	str	r0, [sp, #28]
  402e9e:	a816      	add	r0, sp, #88	; 0x58
  402ea0:	9209      	str	r2, [sp, #36]	; 0x24
  402ea2:	9306      	str	r3, [sp, #24]
  402ea4:	9500      	str	r5, [sp, #0]
  402ea6:	9504      	str	r5, [sp, #16]
  402ea8:	9102      	str	r1, [sp, #8]
  402eaa:	9105      	str	r1, [sp, #20]
  402eac:	f000 fd48 	bl	403940 <__retarget_lock_init_recursive>
  402eb0:	4643      	mov	r3, r8
  402eb2:	463a      	mov	r2, r7
  402eb4:	4669      	mov	r1, sp
  402eb6:	4630      	mov	r0, r6
  402eb8:	f7ff f990 	bl	4021dc <_vfiprintf_r>
  402ebc:	1e05      	subs	r5, r0, #0
  402ebe:	db07      	blt.n	402ed0 <__sbprintf+0x64>
  402ec0:	4630      	mov	r0, r6
  402ec2:	4669      	mov	r1, sp
  402ec4:	f000 f928 	bl	403118 <_fflush_r>
  402ec8:	2800      	cmp	r0, #0
  402eca:	bf18      	it	ne
  402ecc:	f04f 35ff 	movne.w	r5, #4294967295
  402ed0:	f8bd 300c 	ldrh.w	r3, [sp, #12]
  402ed4:	065b      	lsls	r3, r3, #25
  402ed6:	d503      	bpl.n	402ee0 <__sbprintf+0x74>
  402ed8:	89a3      	ldrh	r3, [r4, #12]
  402eda:	f043 0340 	orr.w	r3, r3, #64	; 0x40
  402ede:	81a3      	strh	r3, [r4, #12]
  402ee0:	9816      	ldr	r0, [sp, #88]	; 0x58
  402ee2:	f000 fd2f 	bl	403944 <__retarget_lock_close_recursive>
  402ee6:	4628      	mov	r0, r5
  402ee8:	f50d 6d8d 	add.w	sp, sp, #1128	; 0x468
  402eec:	e8bd 81f0 	ldmia.w	sp!, {r4, r5, r6, r7, r8, pc}

00402ef0 <__swsetup_r>:
  402ef0:	b538      	push	{r3, r4, r5, lr}
  402ef2:	4b30      	ldr	r3, [pc, #192]	; (402fb4 <__swsetup_r+0xc4>)
  402ef4:	681b      	ldr	r3, [r3, #0]
  402ef6:	4605      	mov	r5, r0
  402ef8:	460c      	mov	r4, r1
  402efa:	b113      	cbz	r3, 402f02 <__swsetup_r+0x12>
  402efc:	6b9a      	ldr	r2, [r3, #56]	; 0x38
  402efe:	2a00      	cmp	r2, #0
  402f00:	d038      	beq.n	402f74 <__swsetup_r+0x84>
  402f02:	f9b4 200c 	ldrsh.w	r2, [r4, #12]
  402f06:	b293      	uxth	r3, r2
  402f08:	0718      	lsls	r0, r3, #28
  402f0a:	d50c      	bpl.n	402f26 <__swsetup_r+0x36>
  402f0c:	6920      	ldr	r0, [r4, #16]
  402f0e:	b1a8      	cbz	r0, 402f3c <__swsetup_r+0x4c>
  402f10:	f013 0201 	ands.w	r2, r3, #1
  402f14:	d01e      	beq.n	402f54 <__swsetup_r+0x64>
  402f16:	6963      	ldr	r3, [r4, #20]
  402f18:	2200      	movs	r2, #0
  402f1a:	425b      	negs	r3, r3
  402f1c:	61a3      	str	r3, [r4, #24]
  402f1e:	60a2      	str	r2, [r4, #8]
  402f20:	b1f0      	cbz	r0, 402f60 <__swsetup_r+0x70>
  402f22:	2000      	movs	r0, #0
  402f24:	bd38      	pop	{r3, r4, r5, pc}
  402f26:	06d9      	lsls	r1, r3, #27
  402f28:	d53c      	bpl.n	402fa4 <__swsetup_r+0xb4>
  402f2a:	0758      	lsls	r0, r3, #29
  402f2c:	d426      	bmi.n	402f7c <__swsetup_r+0x8c>
  402f2e:	6920      	ldr	r0, [r4, #16]
  402f30:	f042 0308 	orr.w	r3, r2, #8
  402f34:	81a3      	strh	r3, [r4, #12]
  402f36:	b29b      	uxth	r3, r3
  402f38:	2800      	cmp	r0, #0
  402f3a:	d1e9      	bne.n	402f10 <__swsetup_r+0x20>
  402f3c:	f403 7220 	and.w	r2, r3, #640	; 0x280
  402f40:	f5b2 7f00 	cmp.w	r2, #512	; 0x200
  402f44:	d0e4      	beq.n	402f10 <__swsetup_r+0x20>
  402f46:	4628      	mov	r0, r5
  402f48:	4621      	mov	r1, r4
  402f4a:	f000 fd2f 	bl	4039ac <__smakebuf_r>
  402f4e:	89a3      	ldrh	r3, [r4, #12]
  402f50:	6920      	ldr	r0, [r4, #16]
  402f52:	e7dd      	b.n	402f10 <__swsetup_r+0x20>
  402f54:	0799      	lsls	r1, r3, #30
  402f56:	bf58      	it	pl
  402f58:	6962      	ldrpl	r2, [r4, #20]
  402f5a:	60a2      	str	r2, [r4, #8]
  402f5c:	2800      	cmp	r0, #0
  402f5e:	d1e0      	bne.n	402f22 <__swsetup_r+0x32>
  402f60:	f9b4 300c 	ldrsh.w	r3, [r4, #12]
  402f64:	061a      	lsls	r2, r3, #24
  402f66:	d5dd      	bpl.n	402f24 <__swsetup_r+0x34>
  402f68:	f043 0340 	orr.w	r3, r3, #64	; 0x40
  402f6c:	81a3      	strh	r3, [r4, #12]
  402f6e:	f04f 30ff 	mov.w	r0, #4294967295
  402f72:	bd38      	pop	{r3, r4, r5, pc}
  402f74:	4618      	mov	r0, r3
  402f76:	f000 f927 	bl	4031c8 <__sinit>
  402f7a:	e7c2      	b.n	402f02 <__swsetup_r+0x12>
  402f7c:	6b21      	ldr	r1, [r4, #48]	; 0x30
  402f7e:	b151      	cbz	r1, 402f96 <__swsetup_r+0xa6>
  402f80:	f104 0340 	add.w	r3, r4, #64	; 0x40
  402f84:	4299      	cmp	r1, r3
  402f86:	d004      	beq.n	402f92 <__swsetup_r+0xa2>
  402f88:	4628      	mov	r0, r5
  402f8a:	f000 fa43 	bl	403414 <_free_r>
  402f8e:	f9b4 200c 	ldrsh.w	r2, [r4, #12]
  402f92:	2300      	movs	r3, #0
  402f94:	6323      	str	r3, [r4, #48]	; 0x30
  402f96:	2300      	movs	r3, #0
  402f98:	6920      	ldr	r0, [r4, #16]
  402f9a:	6063      	str	r3, [r4, #4]
  402f9c:	f022 0224 	bic.w	r2, r2, #36	; 0x24
  402fa0:	6020      	str	r0, [r4, #0]
  402fa2:	e7c5      	b.n	402f30 <__swsetup_r+0x40>
  402fa4:	f042 0240 	orr.w	r2, r2, #64	; 0x40
  402fa8:	2309      	movs	r3, #9
  402faa:	602b      	str	r3, [r5, #0]
  402fac:	f04f 30ff 	mov.w	r0, #4294967295
  402fb0:	81a2      	strh	r2, [r4, #12]
  402fb2:	bd38      	pop	{r3, r4, r5, pc}
  402fb4:	20400014 	.word	0x20400014

00402fb8 <register_fini>:
  402fb8:	4b02      	ldr	r3, [pc, #8]	; (402fc4 <register_fini+0xc>)
  402fba:	b113      	cbz	r3, 402fc2 <register_fini+0xa>
  402fbc:	4802      	ldr	r0, [pc, #8]	; (402fc8 <register_fini+0x10>)
  402fbe:	f000 b805 	b.w	402fcc <atexit>
  402fc2:	4770      	bx	lr
  402fc4:	00000000 	.word	0x00000000
  402fc8:	00403239 	.word	0x00403239

00402fcc <atexit>:
  402fcc:	2300      	movs	r3, #0
  402fce:	4601      	mov	r1, r0
  402fd0:	461a      	mov	r2, r3
  402fd2:	4618      	mov	r0, r3
  402fd4:	f001 bb66 	b.w	4046a4 <__register_exitproc>

00402fd8 <__sflush_r>:
  402fd8:	f9b1 300c 	ldrsh.w	r3, [r1, #12]
  402fdc:	b29a      	uxth	r2, r3
  402fde:	e92d 41f0 	stmdb	sp!, {r4, r5, r6, r7, r8, lr}
  402fe2:	460d      	mov	r5, r1
  402fe4:	0711      	lsls	r1, r2, #28
  402fe6:	4680      	mov	r8, r0
  402fe8:	d43a      	bmi.n	403060 <__sflush_r+0x88>
  402fea:	686a      	ldr	r2, [r5, #4]
  402fec:	f443 6300 	orr.w	r3, r3, #2048	; 0x800
  402ff0:	2a00      	cmp	r2, #0
  402ff2:	81ab      	strh	r3, [r5, #12]
  402ff4:	dd6f      	ble.n	4030d6 <__sflush_r+0xfe>
  402ff6:	6aac      	ldr	r4, [r5, #40]	; 0x28
  402ff8:	2c00      	cmp	r4, #0
  402ffa:	d049      	beq.n	403090 <__sflush_r+0xb8>
  402ffc:	2200      	movs	r2, #0
  402ffe:	b29b      	uxth	r3, r3
  403000:	f8d8 6000 	ldr.w	r6, [r8]
  403004:	f8c8 2000 	str.w	r2, [r8]
  403008:	f413 5280 	ands.w	r2, r3, #4096	; 0x1000
  40300c:	d067      	beq.n	4030de <__sflush_r+0x106>
  40300e:	6d2a      	ldr	r2, [r5, #80]	; 0x50
  403010:	075f      	lsls	r7, r3, #29
  403012:	d505      	bpl.n	403020 <__sflush_r+0x48>
  403014:	6869      	ldr	r1, [r5, #4]
  403016:	6b2b      	ldr	r3, [r5, #48]	; 0x30
  403018:	1a52      	subs	r2, r2, r1
  40301a:	b10b      	cbz	r3, 403020 <__sflush_r+0x48>
  40301c:	6beb      	ldr	r3, [r5, #60]	; 0x3c
  40301e:	1ad2      	subs	r2, r2, r3
  403020:	2300      	movs	r3, #0
  403022:	69e9      	ldr	r1, [r5, #28]
  403024:	4640      	mov	r0, r8
  403026:	47a0      	blx	r4
  403028:	1c44      	adds	r4, r0, #1
  40302a:	d03c      	beq.n	4030a6 <__sflush_r+0xce>
  40302c:	f9b5 300c 	ldrsh.w	r3, [r5, #12]
  403030:	692a      	ldr	r2, [r5, #16]
  403032:	602a      	str	r2, [r5, #0]
  403034:	f423 6300 	bic.w	r3, r3, #2048	; 0x800
  403038:	2200      	movs	r2, #0
  40303a:	81ab      	strh	r3, [r5, #12]
  40303c:	04db      	lsls	r3, r3, #19
  40303e:	606a      	str	r2, [r5, #4]
  403040:	d447      	bmi.n	4030d2 <__sflush_r+0xfa>
  403042:	6b29      	ldr	r1, [r5, #48]	; 0x30
  403044:	f8c8 6000 	str.w	r6, [r8]
  403048:	b311      	cbz	r1, 403090 <__sflush_r+0xb8>
  40304a:	f105 0340 	add.w	r3, r5, #64	; 0x40
  40304e:	4299      	cmp	r1, r3
  403050:	d002      	beq.n	403058 <__sflush_r+0x80>
  403052:	4640      	mov	r0, r8
  403054:	f000 f9de 	bl	403414 <_free_r>
  403058:	2000      	movs	r0, #0
  40305a:	6328      	str	r0, [r5, #48]	; 0x30
  40305c:	e8bd 81f0 	ldmia.w	sp!, {r4, r5, r6, r7, r8, pc}
  403060:	692e      	ldr	r6, [r5, #16]
  403062:	b1ae      	cbz	r6, 403090 <__sflush_r+0xb8>
  403064:	682c      	ldr	r4, [r5, #0]
  403066:	602e      	str	r6, [r5, #0]
  403068:	0791      	lsls	r1, r2, #30
  40306a:	bf0c      	ite	eq
  40306c:	696b      	ldreq	r3, [r5, #20]
  40306e:	2300      	movne	r3, #0
  403070:	1ba4      	subs	r4, r4, r6
  403072:	60ab      	str	r3, [r5, #8]
  403074:	e00a      	b.n	40308c <__sflush_r+0xb4>
  403076:	4623      	mov	r3, r4
  403078:	4632      	mov	r2, r6
  40307a:	6a6f      	ldr	r7, [r5, #36]	; 0x24
  40307c:	69e9      	ldr	r1, [r5, #28]
  40307e:	4640      	mov	r0, r8
  403080:	47b8      	blx	r7
  403082:	2800      	cmp	r0, #0
  403084:	eba4 0400 	sub.w	r4, r4, r0
  403088:	4406      	add	r6, r0
  40308a:	dd04      	ble.n	403096 <__sflush_r+0xbe>
  40308c:	2c00      	cmp	r4, #0
  40308e:	dcf2      	bgt.n	403076 <__sflush_r+0x9e>
  403090:	2000      	movs	r0, #0
  403092:	e8bd 81f0 	ldmia.w	sp!, {r4, r5, r6, r7, r8, pc}
  403096:	89ab      	ldrh	r3, [r5, #12]
  403098:	f043 0340 	orr.w	r3, r3, #64	; 0x40
  40309c:	81ab      	strh	r3, [r5, #12]
  40309e:	f04f 30ff 	mov.w	r0, #4294967295
  4030a2:	e8bd 81f0 	ldmia.w	sp!, {r4, r5, r6, r7, r8, pc}
  4030a6:	f8d8 4000 	ldr.w	r4, [r8]
  4030aa:	2c1d      	cmp	r4, #29
  4030ac:	d8f3      	bhi.n	403096 <__sflush_r+0xbe>
  4030ae:	4b19      	ldr	r3, [pc, #100]	; (403114 <__sflush_r+0x13c>)
  4030b0:	40e3      	lsrs	r3, r4
  4030b2:	43db      	mvns	r3, r3
  4030b4:	f013 0301 	ands.w	r3, r3, #1
  4030b8:	d1ed      	bne.n	403096 <__sflush_r+0xbe>
  4030ba:	f9b5 200c 	ldrsh.w	r2, [r5, #12]
  4030be:	606b      	str	r3, [r5, #4]
  4030c0:	f422 6300 	bic.w	r3, r2, #2048	; 0x800
  4030c4:	6929      	ldr	r1, [r5, #16]
  4030c6:	81ab      	strh	r3, [r5, #12]
  4030c8:	04da      	lsls	r2, r3, #19
  4030ca:	6029      	str	r1, [r5, #0]
  4030cc:	d5b9      	bpl.n	403042 <__sflush_r+0x6a>
  4030ce:	2c00      	cmp	r4, #0
  4030d0:	d1b7      	bne.n	403042 <__sflush_r+0x6a>
  4030d2:	6528      	str	r0, [r5, #80]	; 0x50
  4030d4:	e7b5      	b.n	403042 <__sflush_r+0x6a>
  4030d6:	6bea      	ldr	r2, [r5, #60]	; 0x3c
  4030d8:	2a00      	cmp	r2, #0
  4030da:	dc8c      	bgt.n	402ff6 <__sflush_r+0x1e>
  4030dc:	e7d8      	b.n	403090 <__sflush_r+0xb8>
  4030de:	2301      	movs	r3, #1
  4030e0:	69e9      	ldr	r1, [r5, #28]
  4030e2:	4640      	mov	r0, r8
  4030e4:	47a0      	blx	r4
  4030e6:	1c43      	adds	r3, r0, #1
  4030e8:	4602      	mov	r2, r0
  4030ea:	d002      	beq.n	4030f2 <__sflush_r+0x11a>
  4030ec:	89ab      	ldrh	r3, [r5, #12]
  4030ee:	6aac      	ldr	r4, [r5, #40]	; 0x28
  4030f0:	e78e      	b.n	403010 <__sflush_r+0x38>
  4030f2:	f8d8 3000 	ldr.w	r3, [r8]
  4030f6:	2b00      	cmp	r3, #0
  4030f8:	d0f8      	beq.n	4030ec <__sflush_r+0x114>
  4030fa:	2b1d      	cmp	r3, #29
  4030fc:	d001      	beq.n	403102 <__sflush_r+0x12a>
  4030fe:	2b16      	cmp	r3, #22
  403100:	d102      	bne.n	403108 <__sflush_r+0x130>
  403102:	f8c8 6000 	str.w	r6, [r8]
  403106:	e7c3      	b.n	403090 <__sflush_r+0xb8>
  403108:	89ab      	ldrh	r3, [r5, #12]
  40310a:	f043 0340 	orr.w	r3, r3, #64	; 0x40
  40310e:	81ab      	strh	r3, [r5, #12]
  403110:	e8bd 81f0 	ldmia.w	sp!, {r4, r5, r6, r7, r8, pc}
  403114:	20400001 	.word	0x20400001

00403118 <_fflush_r>:
  403118:	b538      	push	{r3, r4, r5, lr}
  40311a:	460d      	mov	r5, r1
  40311c:	4604      	mov	r4, r0
  40311e:	b108      	cbz	r0, 403124 <_fflush_r+0xc>
  403120:	6b83      	ldr	r3, [r0, #56]	; 0x38
  403122:	b1bb      	cbz	r3, 403154 <_fflush_r+0x3c>
  403124:	f9b5 000c 	ldrsh.w	r0, [r5, #12]
  403128:	b188      	cbz	r0, 40314e <_fflush_r+0x36>
  40312a:	6e6b      	ldr	r3, [r5, #100]	; 0x64
  40312c:	07db      	lsls	r3, r3, #31
  40312e:	d401      	bmi.n	403134 <_fflush_r+0x1c>
  403130:	0581      	lsls	r1, r0, #22
  403132:	d517      	bpl.n	403164 <_fflush_r+0x4c>
  403134:	4620      	mov	r0, r4
  403136:	4629      	mov	r1, r5
  403138:	f7ff ff4e 	bl	402fd8 <__sflush_r>
  40313c:	6e6b      	ldr	r3, [r5, #100]	; 0x64
  40313e:	07da      	lsls	r2, r3, #31
  403140:	4604      	mov	r4, r0
  403142:	d402      	bmi.n	40314a <_fflush_r+0x32>
  403144:	89ab      	ldrh	r3, [r5, #12]
  403146:	059b      	lsls	r3, r3, #22
  403148:	d507      	bpl.n	40315a <_fflush_r+0x42>
  40314a:	4620      	mov	r0, r4
  40314c:	bd38      	pop	{r3, r4, r5, pc}
  40314e:	4604      	mov	r4, r0
  403150:	4620      	mov	r0, r4
  403152:	bd38      	pop	{r3, r4, r5, pc}
  403154:	f000 f838 	bl	4031c8 <__sinit>
  403158:	e7e4      	b.n	403124 <_fflush_r+0xc>
  40315a:	6da8      	ldr	r0, [r5, #88]	; 0x58
  40315c:	f000 fbf6 	bl	40394c <__retarget_lock_release_recursive>
  403160:	4620      	mov	r0, r4
  403162:	bd38      	pop	{r3, r4, r5, pc}
  403164:	6da8      	ldr	r0, [r5, #88]	; 0x58
  403166:	f000 fbef 	bl	403948 <__retarget_lock_acquire_recursive>
  40316a:	e7e3      	b.n	403134 <_fflush_r+0x1c>

0040316c <_cleanup_r>:
  40316c:	4901      	ldr	r1, [pc, #4]	; (403174 <_cleanup_r+0x8>)
  40316e:	f000 bbaf 	b.w	4038d0 <_fwalk_reent>
  403172:	bf00      	nop
  403174:	0040478d 	.word	0x0040478d

00403178 <std.isra.0>:
  403178:	b510      	push	{r4, lr}
  40317a:	2300      	movs	r3, #0
  40317c:	4604      	mov	r4, r0
  40317e:	8181      	strh	r1, [r0, #12]
  403180:	81c2      	strh	r2, [r0, #14]
  403182:	6003      	str	r3, [r0, #0]
  403184:	6043      	str	r3, [r0, #4]
  403186:	6083      	str	r3, [r0, #8]
  403188:	6643      	str	r3, [r0, #100]	; 0x64
  40318a:	6103      	str	r3, [r0, #16]
  40318c:	6143      	str	r3, [r0, #20]
  40318e:	6183      	str	r3, [r0, #24]
  403190:	4619      	mov	r1, r3
  403192:	2208      	movs	r2, #8
  403194:	305c      	adds	r0, #92	; 0x5c
  403196:	f7fe fde1 	bl	401d5c <memset>
  40319a:	4807      	ldr	r0, [pc, #28]	; (4031b8 <std.isra.0+0x40>)
  40319c:	4907      	ldr	r1, [pc, #28]	; (4031bc <std.isra.0+0x44>)
  40319e:	4a08      	ldr	r2, [pc, #32]	; (4031c0 <std.isra.0+0x48>)
  4031a0:	4b08      	ldr	r3, [pc, #32]	; (4031c4 <std.isra.0+0x4c>)
  4031a2:	6220      	str	r0, [r4, #32]
  4031a4:	61e4      	str	r4, [r4, #28]
  4031a6:	6261      	str	r1, [r4, #36]	; 0x24
  4031a8:	62a2      	str	r2, [r4, #40]	; 0x28
  4031aa:	62e3      	str	r3, [r4, #44]	; 0x2c
  4031ac:	f104 0058 	add.w	r0, r4, #88	; 0x58
  4031b0:	e8bd 4010 	ldmia.w	sp!, {r4, lr}
  4031b4:	f000 bbc4 	b.w	403940 <__retarget_lock_init_recursive>
  4031b8:	004044d1 	.word	0x004044d1
  4031bc:	004044f5 	.word	0x004044f5
  4031c0:	00404531 	.word	0x00404531
  4031c4:	00404551 	.word	0x00404551

004031c8 <__sinit>:
  4031c8:	b510      	push	{r4, lr}
  4031ca:	4604      	mov	r4, r0
  4031cc:	4812      	ldr	r0, [pc, #72]	; (403218 <__sinit+0x50>)
  4031ce:	f000 fbbb 	bl	403948 <__retarget_lock_acquire_recursive>
  4031d2:	6ba2      	ldr	r2, [r4, #56]	; 0x38
  4031d4:	b9d2      	cbnz	r2, 40320c <__sinit+0x44>
  4031d6:	f504 733b 	add.w	r3, r4, #748	; 0x2ec
  4031da:	4810      	ldr	r0, [pc, #64]	; (40321c <__sinit+0x54>)
  4031dc:	f8c4 32e8 	str.w	r3, [r4, #744]	; 0x2e8
  4031e0:	2103      	movs	r1, #3
  4031e2:	f8c4 22e0 	str.w	r2, [r4, #736]	; 0x2e0
  4031e6:	63e0      	str	r0, [r4, #60]	; 0x3c
  4031e8:	f8c4 12e4 	str.w	r1, [r4, #740]	; 0x2e4
  4031ec:	6860      	ldr	r0, [r4, #4]
  4031ee:	2104      	movs	r1, #4
  4031f0:	f7ff ffc2 	bl	403178 <std.isra.0>
  4031f4:	2201      	movs	r2, #1
  4031f6:	2109      	movs	r1, #9
  4031f8:	68a0      	ldr	r0, [r4, #8]
  4031fa:	f7ff ffbd 	bl	403178 <std.isra.0>
  4031fe:	2202      	movs	r2, #2
  403200:	2112      	movs	r1, #18
  403202:	68e0      	ldr	r0, [r4, #12]
  403204:	f7ff ffb8 	bl	403178 <std.isra.0>
  403208:	2301      	movs	r3, #1
  40320a:	63a3      	str	r3, [r4, #56]	; 0x38
  40320c:	4802      	ldr	r0, [pc, #8]	; (403218 <__sinit+0x50>)
  40320e:	e8bd 4010 	ldmia.w	sp!, {r4, lr}
  403212:	f000 bb9b 	b.w	40394c <__retarget_lock_release_recursive>
  403216:	bf00      	nop
  403218:	20400ae8 	.word	0x20400ae8
  40321c:	0040316d 	.word	0x0040316d

00403220 <__sfp_lock_acquire>:
  403220:	4801      	ldr	r0, [pc, #4]	; (403228 <__sfp_lock_acquire+0x8>)
  403222:	f000 bb91 	b.w	403948 <__retarget_lock_acquire_recursive>
  403226:	bf00      	nop
  403228:	20400afc 	.word	0x20400afc

0040322c <__sfp_lock_release>:
  40322c:	4801      	ldr	r0, [pc, #4]	; (403234 <__sfp_lock_release+0x8>)
  40322e:	f000 bb8d 	b.w	40394c <__retarget_lock_release_recursive>
  403232:	bf00      	nop
  403234:	20400afc 	.word	0x20400afc

00403238 <__libc_fini_array>:
  403238:	b538      	push	{r3, r4, r5, lr}
  40323a:	4c0a      	ldr	r4, [pc, #40]	; (403264 <__libc_fini_array+0x2c>)
  40323c:	4d0a      	ldr	r5, [pc, #40]	; (403268 <__libc_fini_array+0x30>)
  40323e:	1b64      	subs	r4, r4, r5
  403240:	10a4      	asrs	r4, r4, #2
  403242:	d00a      	beq.n	40325a <__libc_fini_array+0x22>
  403244:	f104 4380 	add.w	r3, r4, #1073741824	; 0x40000000
  403248:	3b01      	subs	r3, #1
  40324a:	eb05 0583 	add.w	r5, r5, r3, lsl #2
  40324e:	3c01      	subs	r4, #1
  403250:	f855 3904 	ldr.w	r3, [r5], #-4
  403254:	4798      	blx	r3
  403256:	2c00      	cmp	r4, #0
  403258:	d1f9      	bne.n	40324e <__libc_fini_array+0x16>
  40325a:	e8bd 4038 	ldmia.w	sp!, {r3, r4, r5, lr}
  40325e:	f001 bd75 	b.w	404d4c <_fini>
  403262:	bf00      	nop
  403264:	00404d5c 	.word	0x00404d5c
  403268:	00404d58 	.word	0x00404d58

0040326c <__fputwc>:
  40326c:	e92d 47f0 	stmdb	sp!, {r4, r5, r6, r7, r8, r9, sl, lr}
  403270:	b082      	sub	sp, #8
  403272:	4680      	mov	r8, r0
  403274:	4689      	mov	r9, r1
  403276:	4614      	mov	r4, r2
  403278:	f000 fb54 	bl	403924 <__locale_mb_cur_max>
  40327c:	2801      	cmp	r0, #1
  40327e:	d036      	beq.n	4032ee <__fputwc+0x82>
  403280:	464a      	mov	r2, r9
  403282:	f104 035c 	add.w	r3, r4, #92	; 0x5c
  403286:	a901      	add	r1, sp, #4
  403288:	4640      	mov	r0, r8
  40328a:	f001 f9bd 	bl	404608 <_wcrtomb_r>
  40328e:	1c42      	adds	r2, r0, #1
  403290:	4606      	mov	r6, r0
  403292:	d025      	beq.n	4032e0 <__fputwc+0x74>
  403294:	b3a8      	cbz	r0, 403302 <__fputwc+0x96>
  403296:	f89d e004 	ldrb.w	lr, [sp, #4]
  40329a:	2500      	movs	r5, #0
  40329c:	f10d 0a04 	add.w	sl, sp, #4
  4032a0:	e009      	b.n	4032b6 <__fputwc+0x4a>
  4032a2:	6823      	ldr	r3, [r4, #0]
  4032a4:	1c5a      	adds	r2, r3, #1
  4032a6:	6022      	str	r2, [r4, #0]
  4032a8:	f883 e000 	strb.w	lr, [r3]
  4032ac:	3501      	adds	r5, #1
  4032ae:	42b5      	cmp	r5, r6
  4032b0:	d227      	bcs.n	403302 <__fputwc+0x96>
  4032b2:	f815 e00a 	ldrb.w	lr, [r5, sl]
  4032b6:	68a3      	ldr	r3, [r4, #8]
  4032b8:	3b01      	subs	r3, #1
  4032ba:	2b00      	cmp	r3, #0
  4032bc:	60a3      	str	r3, [r4, #8]
  4032be:	daf0      	bge.n	4032a2 <__fputwc+0x36>
  4032c0:	69a7      	ldr	r7, [r4, #24]
  4032c2:	42bb      	cmp	r3, r7
  4032c4:	4671      	mov	r1, lr
  4032c6:	4622      	mov	r2, r4
  4032c8:	4640      	mov	r0, r8
  4032ca:	db02      	blt.n	4032d2 <__fputwc+0x66>
  4032cc:	f1be 0f0a 	cmp.w	lr, #10
  4032d0:	d1e7      	bne.n	4032a2 <__fputwc+0x36>
  4032d2:	f001 f941 	bl	404558 <__swbuf_r>
  4032d6:	1c43      	adds	r3, r0, #1
  4032d8:	d1e8      	bne.n	4032ac <__fputwc+0x40>
  4032da:	b002      	add	sp, #8
  4032dc:	e8bd 87f0 	ldmia.w	sp!, {r4, r5, r6, r7, r8, r9, sl, pc}
  4032e0:	89a3      	ldrh	r3, [r4, #12]
  4032e2:	f043 0340 	orr.w	r3, r3, #64	; 0x40
  4032e6:	81a3      	strh	r3, [r4, #12]
  4032e8:	b002      	add	sp, #8
  4032ea:	e8bd 87f0 	ldmia.w	sp!, {r4, r5, r6, r7, r8, r9, sl, pc}
  4032ee:	f109 33ff 	add.w	r3, r9, #4294967295
  4032f2:	2bfe      	cmp	r3, #254	; 0xfe
  4032f4:	d8c4      	bhi.n	403280 <__fputwc+0x14>
  4032f6:	fa5f fe89 	uxtb.w	lr, r9
  4032fa:	4606      	mov	r6, r0
  4032fc:	f88d e004 	strb.w	lr, [sp, #4]
  403300:	e7cb      	b.n	40329a <__fputwc+0x2e>
  403302:	4648      	mov	r0, r9
  403304:	b002      	add	sp, #8
  403306:	e8bd 87f0 	ldmia.w	sp!, {r4, r5, r6, r7, r8, r9, sl, pc}
  40330a:	bf00      	nop

0040330c <_fputwc_r>:
  40330c:	b530      	push	{r4, r5, lr}
  40330e:	6e53      	ldr	r3, [r2, #100]	; 0x64
  403310:	f013 0f01 	tst.w	r3, #1
  403314:	f9b2 300c 	ldrsh.w	r3, [r2, #12]
  403318:	4614      	mov	r4, r2
  40331a:	b083      	sub	sp, #12
  40331c:	4605      	mov	r5, r0
  40331e:	b29a      	uxth	r2, r3
  403320:	d101      	bne.n	403326 <_fputwc_r+0x1a>
  403322:	0590      	lsls	r0, r2, #22
  403324:	d51c      	bpl.n	403360 <_fputwc_r+0x54>
  403326:	0490      	lsls	r0, r2, #18
  403328:	d406      	bmi.n	403338 <_fputwc_r+0x2c>
  40332a:	6e62      	ldr	r2, [r4, #100]	; 0x64
  40332c:	f443 5300 	orr.w	r3, r3, #8192	; 0x2000
  403330:	f442 5200 	orr.w	r2, r2, #8192	; 0x2000
  403334:	81a3      	strh	r3, [r4, #12]
  403336:	6662      	str	r2, [r4, #100]	; 0x64
  403338:	4628      	mov	r0, r5
  40333a:	4622      	mov	r2, r4
  40333c:	f7ff ff96 	bl	40326c <__fputwc>
  403340:	6e63      	ldr	r3, [r4, #100]	; 0x64
  403342:	07da      	lsls	r2, r3, #31
  403344:	4605      	mov	r5, r0
  403346:	d402      	bmi.n	40334e <_fputwc_r+0x42>
  403348:	89a3      	ldrh	r3, [r4, #12]
  40334a:	059b      	lsls	r3, r3, #22
  40334c:	d502      	bpl.n	403354 <_fputwc_r+0x48>
  40334e:	4628      	mov	r0, r5
  403350:	b003      	add	sp, #12
  403352:	bd30      	pop	{r4, r5, pc}
  403354:	6da0      	ldr	r0, [r4, #88]	; 0x58
  403356:	f000 faf9 	bl	40394c <__retarget_lock_release_recursive>
  40335a:	4628      	mov	r0, r5
  40335c:	b003      	add	sp, #12
  40335e:	bd30      	pop	{r4, r5, pc}
  403360:	6da0      	ldr	r0, [r4, #88]	; 0x58
  403362:	9101      	str	r1, [sp, #4]
  403364:	f000 faf0 	bl	403948 <__retarget_lock_acquire_recursive>
  403368:	f9b4 300c 	ldrsh.w	r3, [r4, #12]
  40336c:	9901      	ldr	r1, [sp, #4]
  40336e:	b29a      	uxth	r2, r3
  403370:	e7d9      	b.n	403326 <_fputwc_r+0x1a>
  403372:	bf00      	nop

00403374 <_malloc_trim_r>:
  403374:	b5f8      	push	{r3, r4, r5, r6, r7, lr}
  403376:	4f24      	ldr	r7, [pc, #144]	; (403408 <_malloc_trim_r+0x94>)
  403378:	460c      	mov	r4, r1
  40337a:	4606      	mov	r6, r0
  40337c:	f000 fee4 	bl	404148 <__malloc_lock>
  403380:	68bb      	ldr	r3, [r7, #8]
  403382:	685d      	ldr	r5, [r3, #4]
  403384:	f5c4 617e 	rsb	r1, r4, #4064	; 0xfe0
  403388:	310f      	adds	r1, #15
  40338a:	f025 0503 	bic.w	r5, r5, #3
  40338e:	4429      	add	r1, r5
  403390:	f421 617f 	bic.w	r1, r1, #4080	; 0xff0
  403394:	f021 010f 	bic.w	r1, r1, #15
  403398:	f5a1 5480 	sub.w	r4, r1, #4096	; 0x1000
  40339c:	f5b4 5f80 	cmp.w	r4, #4096	; 0x1000
  4033a0:	db07      	blt.n	4033b2 <_malloc_trim_r+0x3e>
  4033a2:	2100      	movs	r1, #0
  4033a4:	4630      	mov	r0, r6
  4033a6:	f001 f881 	bl	4044ac <_sbrk_r>
  4033aa:	68bb      	ldr	r3, [r7, #8]
  4033ac:	442b      	add	r3, r5
  4033ae:	4298      	cmp	r0, r3
  4033b0:	d004      	beq.n	4033bc <_malloc_trim_r+0x48>
  4033b2:	4630      	mov	r0, r6
  4033b4:	f000 fece 	bl	404154 <__malloc_unlock>
  4033b8:	2000      	movs	r0, #0
  4033ba:	bdf8      	pop	{r3, r4, r5, r6, r7, pc}
  4033bc:	4261      	negs	r1, r4
  4033be:	4630      	mov	r0, r6
  4033c0:	f001 f874 	bl	4044ac <_sbrk_r>
  4033c4:	3001      	adds	r0, #1
  4033c6:	d00d      	beq.n	4033e4 <_malloc_trim_r+0x70>
  4033c8:	4b10      	ldr	r3, [pc, #64]	; (40340c <_malloc_trim_r+0x98>)
  4033ca:	68ba      	ldr	r2, [r7, #8]
  4033cc:	6819      	ldr	r1, [r3, #0]
  4033ce:	1b2d      	subs	r5, r5, r4
  4033d0:	f045 0501 	orr.w	r5, r5, #1
  4033d4:	4630      	mov	r0, r6
  4033d6:	1b09      	subs	r1, r1, r4
  4033d8:	6055      	str	r5, [r2, #4]
  4033da:	6019      	str	r1, [r3, #0]
  4033dc:	f000 feba 	bl	404154 <__malloc_unlock>
  4033e0:	2001      	movs	r0, #1
  4033e2:	bdf8      	pop	{r3, r4, r5, r6, r7, pc}
  4033e4:	2100      	movs	r1, #0
  4033e6:	4630      	mov	r0, r6
  4033e8:	f001 f860 	bl	4044ac <_sbrk_r>
  4033ec:	68ba      	ldr	r2, [r7, #8]
  4033ee:	1a83      	subs	r3, r0, r2
  4033f0:	2b0f      	cmp	r3, #15
  4033f2:	ddde      	ble.n	4033b2 <_malloc_trim_r+0x3e>
  4033f4:	4c06      	ldr	r4, [pc, #24]	; (403410 <_malloc_trim_r+0x9c>)
  4033f6:	4905      	ldr	r1, [pc, #20]	; (40340c <_malloc_trim_r+0x98>)
  4033f8:	6824      	ldr	r4, [r4, #0]
  4033fa:	f043 0301 	orr.w	r3, r3, #1
  4033fe:	1b00      	subs	r0, r0, r4
  403400:	6053      	str	r3, [r2, #4]
  403402:	6008      	str	r0, [r1, #0]
  403404:	e7d5      	b.n	4033b2 <_malloc_trim_r+0x3e>
  403406:	bf00      	nop
  403408:	204005b0 	.word	0x204005b0
  40340c:	20400a58 	.word	0x20400a58
  403410:	204009b8 	.word	0x204009b8

00403414 <_free_r>:
  403414:	2900      	cmp	r1, #0
  403416:	d044      	beq.n	4034a2 <_free_r+0x8e>
  403418:	e92d 41f0 	stmdb	sp!, {r4, r5, r6, r7, r8, lr}
  40341c:	460d      	mov	r5, r1
  40341e:	4680      	mov	r8, r0
  403420:	f000 fe92 	bl	404148 <__malloc_lock>
  403424:	f855 7c04 	ldr.w	r7, [r5, #-4]
  403428:	4969      	ldr	r1, [pc, #420]	; (4035d0 <_free_r+0x1bc>)
  40342a:	f027 0301 	bic.w	r3, r7, #1
  40342e:	f1a5 0408 	sub.w	r4, r5, #8
  403432:	18e2      	adds	r2, r4, r3
  403434:	688e      	ldr	r6, [r1, #8]
  403436:	6850      	ldr	r0, [r2, #4]
  403438:	42b2      	cmp	r2, r6
  40343a:	f020 0003 	bic.w	r0, r0, #3
  40343e:	d05e      	beq.n	4034fe <_free_r+0xea>
  403440:	07fe      	lsls	r6, r7, #31
  403442:	6050      	str	r0, [r2, #4]
  403444:	d40b      	bmi.n	40345e <_free_r+0x4a>
  403446:	f855 7c08 	ldr.w	r7, [r5, #-8]
  40344a:	1be4      	subs	r4, r4, r7
  40344c:	f101 0e08 	add.w	lr, r1, #8
  403450:	68a5      	ldr	r5, [r4, #8]
  403452:	4575      	cmp	r5, lr
  403454:	443b      	add	r3, r7
  403456:	d06d      	beq.n	403534 <_free_r+0x120>
  403458:	68e7      	ldr	r7, [r4, #12]
  40345a:	60ef      	str	r7, [r5, #12]
  40345c:	60bd      	str	r5, [r7, #8]
  40345e:	1815      	adds	r5, r2, r0
  403460:	686d      	ldr	r5, [r5, #4]
  403462:	07ed      	lsls	r5, r5, #31
  403464:	d53e      	bpl.n	4034e4 <_free_r+0xd0>
  403466:	f043 0201 	orr.w	r2, r3, #1
  40346a:	6062      	str	r2, [r4, #4]
  40346c:	50e3      	str	r3, [r4, r3]
  40346e:	f5b3 7f00 	cmp.w	r3, #512	; 0x200
  403472:	d217      	bcs.n	4034a4 <_free_r+0x90>
  403474:	08db      	lsrs	r3, r3, #3
  403476:	1c58      	adds	r0, r3, #1
  403478:	109a      	asrs	r2, r3, #2
  40347a:	684d      	ldr	r5, [r1, #4]
  40347c:	f851 7030 	ldr.w	r7, [r1, r0, lsl #3]
  403480:	60a7      	str	r7, [r4, #8]
  403482:	2301      	movs	r3, #1
  403484:	4093      	lsls	r3, r2
  403486:	eb01 02c0 	add.w	r2, r1, r0, lsl #3
  40348a:	432b      	orrs	r3, r5
  40348c:	3a08      	subs	r2, #8
  40348e:	60e2      	str	r2, [r4, #12]
  403490:	604b      	str	r3, [r1, #4]
  403492:	f841 4030 	str.w	r4, [r1, r0, lsl #3]
  403496:	60fc      	str	r4, [r7, #12]
  403498:	4640      	mov	r0, r8
  40349a:	e8bd 41f0 	ldmia.w	sp!, {r4, r5, r6, r7, r8, lr}
  40349e:	f000 be59 	b.w	404154 <__malloc_unlock>
  4034a2:	4770      	bx	lr
  4034a4:	0a5a      	lsrs	r2, r3, #9
  4034a6:	2a04      	cmp	r2, #4
  4034a8:	d852      	bhi.n	403550 <_free_r+0x13c>
  4034aa:	099a      	lsrs	r2, r3, #6
  4034ac:	f102 0739 	add.w	r7, r2, #57	; 0x39
  4034b0:	00ff      	lsls	r7, r7, #3
  4034b2:	f102 0538 	add.w	r5, r2, #56	; 0x38
  4034b6:	19c8      	adds	r0, r1, r7
  4034b8:	59ca      	ldr	r2, [r1, r7]
  4034ba:	3808      	subs	r0, #8
  4034bc:	4290      	cmp	r0, r2
  4034be:	d04f      	beq.n	403560 <_free_r+0x14c>
  4034c0:	6851      	ldr	r1, [r2, #4]
  4034c2:	f021 0103 	bic.w	r1, r1, #3
  4034c6:	428b      	cmp	r3, r1
  4034c8:	d232      	bcs.n	403530 <_free_r+0x11c>
  4034ca:	6892      	ldr	r2, [r2, #8]
  4034cc:	4290      	cmp	r0, r2
  4034ce:	d1f7      	bne.n	4034c0 <_free_r+0xac>
  4034d0:	68c3      	ldr	r3, [r0, #12]
  4034d2:	60a0      	str	r0, [r4, #8]
  4034d4:	60e3      	str	r3, [r4, #12]
  4034d6:	609c      	str	r4, [r3, #8]
  4034d8:	60c4      	str	r4, [r0, #12]
  4034da:	4640      	mov	r0, r8
  4034dc:	e8bd 41f0 	ldmia.w	sp!, {r4, r5, r6, r7, r8, lr}
  4034e0:	f000 be38 	b.w	404154 <__malloc_unlock>
  4034e4:	6895      	ldr	r5, [r2, #8]
  4034e6:	4f3b      	ldr	r7, [pc, #236]	; (4035d4 <_free_r+0x1c0>)
  4034e8:	42bd      	cmp	r5, r7
  4034ea:	4403      	add	r3, r0
  4034ec:	d040      	beq.n	403570 <_free_r+0x15c>
  4034ee:	68d0      	ldr	r0, [r2, #12]
  4034f0:	60e8      	str	r0, [r5, #12]
  4034f2:	f043 0201 	orr.w	r2, r3, #1
  4034f6:	6085      	str	r5, [r0, #8]
  4034f8:	6062      	str	r2, [r4, #4]
  4034fa:	50e3      	str	r3, [r4, r3]
  4034fc:	e7b7      	b.n	40346e <_free_r+0x5a>
  4034fe:	07ff      	lsls	r7, r7, #31
  403500:	4403      	add	r3, r0
  403502:	d407      	bmi.n	403514 <_free_r+0x100>
  403504:	f855 2c08 	ldr.w	r2, [r5, #-8]
  403508:	1aa4      	subs	r4, r4, r2
  40350a:	4413      	add	r3, r2
  40350c:	68a0      	ldr	r0, [r4, #8]
  40350e:	68e2      	ldr	r2, [r4, #12]
  403510:	60c2      	str	r2, [r0, #12]
  403512:	6090      	str	r0, [r2, #8]
  403514:	4a30      	ldr	r2, [pc, #192]	; (4035d8 <_free_r+0x1c4>)
  403516:	6812      	ldr	r2, [r2, #0]
  403518:	f043 0001 	orr.w	r0, r3, #1
  40351c:	4293      	cmp	r3, r2
  40351e:	6060      	str	r0, [r4, #4]
  403520:	608c      	str	r4, [r1, #8]
  403522:	d3b9      	bcc.n	403498 <_free_r+0x84>
  403524:	4b2d      	ldr	r3, [pc, #180]	; (4035dc <_free_r+0x1c8>)
  403526:	4640      	mov	r0, r8
  403528:	6819      	ldr	r1, [r3, #0]
  40352a:	f7ff ff23 	bl	403374 <_malloc_trim_r>
  40352e:	e7b3      	b.n	403498 <_free_r+0x84>
  403530:	4610      	mov	r0, r2
  403532:	e7cd      	b.n	4034d0 <_free_r+0xbc>
  403534:	1811      	adds	r1, r2, r0
  403536:	6849      	ldr	r1, [r1, #4]
  403538:	07c9      	lsls	r1, r1, #31
  40353a:	d444      	bmi.n	4035c6 <_free_r+0x1b2>
  40353c:	6891      	ldr	r1, [r2, #8]
  40353e:	68d2      	ldr	r2, [r2, #12]
  403540:	60ca      	str	r2, [r1, #12]
  403542:	4403      	add	r3, r0
  403544:	f043 0001 	orr.w	r0, r3, #1
  403548:	6091      	str	r1, [r2, #8]
  40354a:	6060      	str	r0, [r4, #4]
  40354c:	50e3      	str	r3, [r4, r3]
  40354e:	e7a3      	b.n	403498 <_free_r+0x84>
  403550:	2a14      	cmp	r2, #20
  403552:	d816      	bhi.n	403582 <_free_r+0x16e>
  403554:	f102 075c 	add.w	r7, r2, #92	; 0x5c
  403558:	00ff      	lsls	r7, r7, #3
  40355a:	f102 055b 	add.w	r5, r2, #91	; 0x5b
  40355e:	e7aa      	b.n	4034b6 <_free_r+0xa2>
  403560:	10aa      	asrs	r2, r5, #2
  403562:	2301      	movs	r3, #1
  403564:	684d      	ldr	r5, [r1, #4]
  403566:	4093      	lsls	r3, r2
  403568:	432b      	orrs	r3, r5
  40356a:	604b      	str	r3, [r1, #4]
  40356c:	4603      	mov	r3, r0
  40356e:	e7b0      	b.n	4034d2 <_free_r+0xbe>
  403570:	f043 0201 	orr.w	r2, r3, #1
  403574:	614c      	str	r4, [r1, #20]
  403576:	610c      	str	r4, [r1, #16]
  403578:	60e5      	str	r5, [r4, #12]
  40357a:	60a5      	str	r5, [r4, #8]
  40357c:	6062      	str	r2, [r4, #4]
  40357e:	50e3      	str	r3, [r4, r3]
  403580:	e78a      	b.n	403498 <_free_r+0x84>
  403582:	2a54      	cmp	r2, #84	; 0x54
  403584:	d806      	bhi.n	403594 <_free_r+0x180>
  403586:	0b1a      	lsrs	r2, r3, #12
  403588:	f102 076f 	add.w	r7, r2, #111	; 0x6f
  40358c:	00ff      	lsls	r7, r7, #3
  40358e:	f102 056e 	add.w	r5, r2, #110	; 0x6e
  403592:	e790      	b.n	4034b6 <_free_r+0xa2>
  403594:	f5b2 7faa 	cmp.w	r2, #340	; 0x154
  403598:	d806      	bhi.n	4035a8 <_free_r+0x194>
  40359a:	0bda      	lsrs	r2, r3, #15
  40359c:	f102 0778 	add.w	r7, r2, #120	; 0x78
  4035a0:	00ff      	lsls	r7, r7, #3
  4035a2:	f102 0577 	add.w	r5, r2, #119	; 0x77
  4035a6:	e786      	b.n	4034b6 <_free_r+0xa2>
  4035a8:	f240 5054 	movw	r0, #1364	; 0x554
  4035ac:	4282      	cmp	r2, r0
  4035ae:	d806      	bhi.n	4035be <_free_r+0x1aa>
  4035b0:	0c9a      	lsrs	r2, r3, #18
  4035b2:	f102 077d 	add.w	r7, r2, #125	; 0x7d
  4035b6:	00ff      	lsls	r7, r7, #3
  4035b8:	f102 057c 	add.w	r5, r2, #124	; 0x7c
  4035bc:	e77b      	b.n	4034b6 <_free_r+0xa2>
  4035be:	f44f 777e 	mov.w	r7, #1016	; 0x3f8
  4035c2:	257e      	movs	r5, #126	; 0x7e
  4035c4:	e777      	b.n	4034b6 <_free_r+0xa2>
  4035c6:	f043 0101 	orr.w	r1, r3, #1
  4035ca:	6061      	str	r1, [r4, #4]
  4035cc:	6013      	str	r3, [r2, #0]
  4035ce:	e763      	b.n	403498 <_free_r+0x84>
  4035d0:	204005b0 	.word	0x204005b0
  4035d4:	204005b8 	.word	0x204005b8
  4035d8:	204009bc 	.word	0x204009bc
  4035dc:	20400a88 	.word	0x20400a88

004035e0 <__sfvwrite_r>:
  4035e0:	6893      	ldr	r3, [r2, #8]
  4035e2:	2b00      	cmp	r3, #0
  4035e4:	d073      	beq.n	4036ce <__sfvwrite_r+0xee>
  4035e6:	e92d 4ff0 	stmdb	sp!, {r4, r5, r6, r7, r8, r9, sl, fp, lr}
  4035ea:	898b      	ldrh	r3, [r1, #12]
  4035ec:	b083      	sub	sp, #12
  4035ee:	460c      	mov	r4, r1
  4035f0:	0719      	lsls	r1, r3, #28
  4035f2:	9000      	str	r0, [sp, #0]
  4035f4:	4616      	mov	r6, r2
  4035f6:	d526      	bpl.n	403646 <__sfvwrite_r+0x66>
  4035f8:	6922      	ldr	r2, [r4, #16]
  4035fa:	b322      	cbz	r2, 403646 <__sfvwrite_r+0x66>
  4035fc:	f013 0002 	ands.w	r0, r3, #2
  403600:	6835      	ldr	r5, [r6, #0]
  403602:	d02c      	beq.n	40365e <__sfvwrite_r+0x7e>
  403604:	f04f 0900 	mov.w	r9, #0
  403608:	4fb0      	ldr	r7, [pc, #704]	; (4038cc <__sfvwrite_r+0x2ec>)
  40360a:	46c8      	mov	r8, r9
  40360c:	46b2      	mov	sl, r6
  40360e:	45b8      	cmp	r8, r7
  403610:	4643      	mov	r3, r8
  403612:	464a      	mov	r2, r9
  403614:	bf28      	it	cs
  403616:	463b      	movcs	r3, r7
  403618:	9800      	ldr	r0, [sp, #0]
  40361a:	f1b8 0f00 	cmp.w	r8, #0
  40361e:	d050      	beq.n	4036c2 <__sfvwrite_r+0xe2>
  403620:	69e1      	ldr	r1, [r4, #28]
  403622:	6a66      	ldr	r6, [r4, #36]	; 0x24
  403624:	47b0      	blx	r6
  403626:	2800      	cmp	r0, #0
  403628:	dd58      	ble.n	4036dc <__sfvwrite_r+0xfc>
  40362a:	f8da 3008 	ldr.w	r3, [sl, #8]
  40362e:	1a1b      	subs	r3, r3, r0
  403630:	4481      	add	r9, r0
  403632:	eba8 0800 	sub.w	r8, r8, r0
  403636:	f8ca 3008 	str.w	r3, [sl, #8]
  40363a:	2b00      	cmp	r3, #0
  40363c:	d1e7      	bne.n	40360e <__sfvwrite_r+0x2e>
  40363e:	2000      	movs	r0, #0
  403640:	b003      	add	sp, #12
  403642:	e8bd 8ff0 	ldmia.w	sp!, {r4, r5, r6, r7, r8, r9, sl, fp, pc}
  403646:	4621      	mov	r1, r4
  403648:	9800      	ldr	r0, [sp, #0]
  40364a:	f7ff fc51 	bl	402ef0 <__swsetup_r>
  40364e:	2800      	cmp	r0, #0
  403650:	f040 8133 	bne.w	4038ba <__sfvwrite_r+0x2da>
  403654:	89a3      	ldrh	r3, [r4, #12]
  403656:	6835      	ldr	r5, [r6, #0]
  403658:	f013 0002 	ands.w	r0, r3, #2
  40365c:	d1d2      	bne.n	403604 <__sfvwrite_r+0x24>
  40365e:	f013 0901 	ands.w	r9, r3, #1
  403662:	d145      	bne.n	4036f0 <__sfvwrite_r+0x110>
  403664:	464f      	mov	r7, r9
  403666:	9601      	str	r6, [sp, #4]
  403668:	b337      	cbz	r7, 4036b8 <__sfvwrite_r+0xd8>
  40366a:	059a      	lsls	r2, r3, #22
  40366c:	f8d4 8008 	ldr.w	r8, [r4, #8]
  403670:	f140 8083 	bpl.w	40377a <__sfvwrite_r+0x19a>
  403674:	4547      	cmp	r7, r8
  403676:	46c3      	mov	fp, r8
  403678:	f0c0 80ab 	bcc.w	4037d2 <__sfvwrite_r+0x1f2>
  40367c:	f413 6f90 	tst.w	r3, #1152	; 0x480
  403680:	f040 80ac 	bne.w	4037dc <__sfvwrite_r+0x1fc>
  403684:	6820      	ldr	r0, [r4, #0]
  403686:	46ba      	mov	sl, r7
  403688:	465a      	mov	r2, fp
  40368a:	4649      	mov	r1, r9
  40368c:	f000 fcf8 	bl	404080 <memmove>
  403690:	68a2      	ldr	r2, [r4, #8]
  403692:	6823      	ldr	r3, [r4, #0]
  403694:	eba2 0208 	sub.w	r2, r2, r8
  403698:	445b      	add	r3, fp
  40369a:	60a2      	str	r2, [r4, #8]
  40369c:	6023      	str	r3, [r4, #0]
  40369e:	9a01      	ldr	r2, [sp, #4]
  4036a0:	6893      	ldr	r3, [r2, #8]
  4036a2:	eba3 030a 	sub.w	r3, r3, sl
  4036a6:	44d1      	add	r9, sl
  4036a8:	eba7 070a 	sub.w	r7, r7, sl
  4036ac:	6093      	str	r3, [r2, #8]
  4036ae:	2b00      	cmp	r3, #0
  4036b0:	d0c5      	beq.n	40363e <__sfvwrite_r+0x5e>
  4036b2:	89a3      	ldrh	r3, [r4, #12]
  4036b4:	2f00      	cmp	r7, #0
  4036b6:	d1d8      	bne.n	40366a <__sfvwrite_r+0x8a>
  4036b8:	f8d5 9000 	ldr.w	r9, [r5]
  4036bc:	686f      	ldr	r7, [r5, #4]
  4036be:	3508      	adds	r5, #8
  4036c0:	e7d2      	b.n	403668 <__sfvwrite_r+0x88>
  4036c2:	f8d5 9000 	ldr.w	r9, [r5]
  4036c6:	f8d5 8004 	ldr.w	r8, [r5, #4]
  4036ca:	3508      	adds	r5, #8
  4036cc:	e79f      	b.n	40360e <__sfvwrite_r+0x2e>
  4036ce:	2000      	movs	r0, #0
  4036d0:	4770      	bx	lr
  4036d2:	4621      	mov	r1, r4
  4036d4:	9800      	ldr	r0, [sp, #0]
  4036d6:	f7ff fd1f 	bl	403118 <_fflush_r>
  4036da:	b370      	cbz	r0, 40373a <__sfvwrite_r+0x15a>
  4036dc:	f9b4 300c 	ldrsh.w	r3, [r4, #12]
  4036e0:	f043 0340 	orr.w	r3, r3, #64	; 0x40
  4036e4:	f04f 30ff 	mov.w	r0, #4294967295
  4036e8:	81a3      	strh	r3, [r4, #12]
  4036ea:	b003      	add	sp, #12
  4036ec:	e8bd 8ff0 	ldmia.w	sp!, {r4, r5, r6, r7, r8, r9, sl, fp, pc}
  4036f0:	4681      	mov	r9, r0
  4036f2:	4633      	mov	r3, r6
  4036f4:	464e      	mov	r6, r9
  4036f6:	46a8      	mov	r8, r5
  4036f8:	469a      	mov	sl, r3
  4036fa:	464d      	mov	r5, r9
  4036fc:	b34e      	cbz	r6, 403752 <__sfvwrite_r+0x172>
  4036fe:	b380      	cbz	r0, 403762 <__sfvwrite_r+0x182>
  403700:	6820      	ldr	r0, [r4, #0]
  403702:	6923      	ldr	r3, [r4, #16]
  403704:	6962      	ldr	r2, [r4, #20]
  403706:	45b1      	cmp	r9, r6
  403708:	46cb      	mov	fp, r9
  40370a:	bf28      	it	cs
  40370c:	46b3      	movcs	fp, r6
  40370e:	4298      	cmp	r0, r3
  403710:	465f      	mov	r7, fp
  403712:	d904      	bls.n	40371e <__sfvwrite_r+0x13e>
  403714:	68a3      	ldr	r3, [r4, #8]
  403716:	4413      	add	r3, r2
  403718:	459b      	cmp	fp, r3
  40371a:	f300 80a6 	bgt.w	40386a <__sfvwrite_r+0x28a>
  40371e:	4593      	cmp	fp, r2
  403720:	db4b      	blt.n	4037ba <__sfvwrite_r+0x1da>
  403722:	4613      	mov	r3, r2
  403724:	6a67      	ldr	r7, [r4, #36]	; 0x24
  403726:	69e1      	ldr	r1, [r4, #28]
  403728:	9800      	ldr	r0, [sp, #0]
  40372a:	462a      	mov	r2, r5
  40372c:	47b8      	blx	r7
  40372e:	1e07      	subs	r7, r0, #0
  403730:	ddd4      	ble.n	4036dc <__sfvwrite_r+0xfc>
  403732:	ebb9 0907 	subs.w	r9, r9, r7
  403736:	d0cc      	beq.n	4036d2 <__sfvwrite_r+0xf2>
  403738:	2001      	movs	r0, #1
  40373a:	f8da 3008 	ldr.w	r3, [sl, #8]
  40373e:	1bdb      	subs	r3, r3, r7
  403740:	443d      	add	r5, r7
  403742:	1bf6      	subs	r6, r6, r7
  403744:	f8ca 3008 	str.w	r3, [sl, #8]
  403748:	2b00      	cmp	r3, #0
  40374a:	f43f af78 	beq.w	40363e <__sfvwrite_r+0x5e>
  40374e:	2e00      	cmp	r6, #0
  403750:	d1d5      	bne.n	4036fe <__sfvwrite_r+0x11e>
  403752:	f108 0308 	add.w	r3, r8, #8
  403756:	e913 0060 	ldmdb	r3, {r5, r6}
  40375a:	4698      	mov	r8, r3
  40375c:	3308      	adds	r3, #8
  40375e:	2e00      	cmp	r6, #0
  403760:	d0f9      	beq.n	403756 <__sfvwrite_r+0x176>
  403762:	4632      	mov	r2, r6
  403764:	210a      	movs	r1, #10
  403766:	4628      	mov	r0, r5
  403768:	f000 fc3a 	bl	403fe0 <memchr>
  40376c:	2800      	cmp	r0, #0
  40376e:	f000 80a1 	beq.w	4038b4 <__sfvwrite_r+0x2d4>
  403772:	3001      	adds	r0, #1
  403774:	eba0 0905 	sub.w	r9, r0, r5
  403778:	e7c2      	b.n	403700 <__sfvwrite_r+0x120>
  40377a:	6820      	ldr	r0, [r4, #0]
  40377c:	6923      	ldr	r3, [r4, #16]
  40377e:	4298      	cmp	r0, r3
  403780:	d802      	bhi.n	403788 <__sfvwrite_r+0x1a8>
  403782:	6963      	ldr	r3, [r4, #20]
  403784:	429f      	cmp	r7, r3
  403786:	d25d      	bcs.n	403844 <__sfvwrite_r+0x264>
  403788:	45b8      	cmp	r8, r7
  40378a:	bf28      	it	cs
  40378c:	46b8      	movcs	r8, r7
  40378e:	4642      	mov	r2, r8
  403790:	4649      	mov	r1, r9
  403792:	f000 fc75 	bl	404080 <memmove>
  403796:	68a3      	ldr	r3, [r4, #8]
  403798:	6822      	ldr	r2, [r4, #0]
  40379a:	eba3 0308 	sub.w	r3, r3, r8
  40379e:	4442      	add	r2, r8
  4037a0:	60a3      	str	r3, [r4, #8]
  4037a2:	6022      	str	r2, [r4, #0]
  4037a4:	b10b      	cbz	r3, 4037aa <__sfvwrite_r+0x1ca>
  4037a6:	46c2      	mov	sl, r8
  4037a8:	e779      	b.n	40369e <__sfvwrite_r+0xbe>
  4037aa:	4621      	mov	r1, r4
  4037ac:	9800      	ldr	r0, [sp, #0]
  4037ae:	f7ff fcb3 	bl	403118 <_fflush_r>
  4037b2:	2800      	cmp	r0, #0
  4037b4:	d192      	bne.n	4036dc <__sfvwrite_r+0xfc>
  4037b6:	46c2      	mov	sl, r8
  4037b8:	e771      	b.n	40369e <__sfvwrite_r+0xbe>
  4037ba:	465a      	mov	r2, fp
  4037bc:	4629      	mov	r1, r5
  4037be:	f000 fc5f 	bl	404080 <memmove>
  4037c2:	68a2      	ldr	r2, [r4, #8]
  4037c4:	6823      	ldr	r3, [r4, #0]
  4037c6:	eba2 020b 	sub.w	r2, r2, fp
  4037ca:	445b      	add	r3, fp
  4037cc:	60a2      	str	r2, [r4, #8]
  4037ce:	6023      	str	r3, [r4, #0]
  4037d0:	e7af      	b.n	403732 <__sfvwrite_r+0x152>
  4037d2:	6820      	ldr	r0, [r4, #0]
  4037d4:	46b8      	mov	r8, r7
  4037d6:	46ba      	mov	sl, r7
  4037d8:	46bb      	mov	fp, r7
  4037da:	e755      	b.n	403688 <__sfvwrite_r+0xa8>
  4037dc:	6962      	ldr	r2, [r4, #20]
  4037de:	6820      	ldr	r0, [r4, #0]
  4037e0:	6921      	ldr	r1, [r4, #16]
  4037e2:	eb02 0842 	add.w	r8, r2, r2, lsl #1
  4037e6:	eba0 0a01 	sub.w	sl, r0, r1
  4037ea:	eb08 78d8 	add.w	r8, r8, r8, lsr #31
  4037ee:	f10a 0001 	add.w	r0, sl, #1
  4037f2:	ea4f 0868 	mov.w	r8, r8, asr #1
  4037f6:	4438      	add	r0, r7
  4037f8:	4540      	cmp	r0, r8
  4037fa:	4642      	mov	r2, r8
  4037fc:	bf84      	itt	hi
  4037fe:	4680      	movhi	r8, r0
  403800:	4642      	movhi	r2, r8
  403802:	055b      	lsls	r3, r3, #21
  403804:	d544      	bpl.n	403890 <__sfvwrite_r+0x2b0>
  403806:	4611      	mov	r1, r2
  403808:	9800      	ldr	r0, [sp, #0]
  40380a:	f000 f921 	bl	403a50 <_malloc_r>
  40380e:	4683      	mov	fp, r0
  403810:	2800      	cmp	r0, #0
  403812:	d055      	beq.n	4038c0 <__sfvwrite_r+0x2e0>
  403814:	4652      	mov	r2, sl
  403816:	6921      	ldr	r1, [r4, #16]
  403818:	f7fe fa06 	bl	401c28 <memcpy>
  40381c:	89a3      	ldrh	r3, [r4, #12]
  40381e:	f423 6390 	bic.w	r3, r3, #1152	; 0x480
  403822:	f043 0380 	orr.w	r3, r3, #128	; 0x80
  403826:	81a3      	strh	r3, [r4, #12]
  403828:	eb0b 000a 	add.w	r0, fp, sl
  40382c:	eba8 030a 	sub.w	r3, r8, sl
  403830:	f8c4 b010 	str.w	fp, [r4, #16]
  403834:	f8c4 8014 	str.w	r8, [r4, #20]
  403838:	6020      	str	r0, [r4, #0]
  40383a:	60a3      	str	r3, [r4, #8]
  40383c:	46b8      	mov	r8, r7
  40383e:	46ba      	mov	sl, r7
  403840:	46bb      	mov	fp, r7
  403842:	e721      	b.n	403688 <__sfvwrite_r+0xa8>
  403844:	f06f 4100 	mvn.w	r1, #2147483648	; 0x80000000
  403848:	42b9      	cmp	r1, r7
  40384a:	bf28      	it	cs
  40384c:	4639      	movcs	r1, r7
  40384e:	464a      	mov	r2, r9
  403850:	fb91 f1f3 	sdiv	r1, r1, r3
  403854:	9800      	ldr	r0, [sp, #0]
  403856:	6a66      	ldr	r6, [r4, #36]	; 0x24
  403858:	fb03 f301 	mul.w	r3, r3, r1
  40385c:	69e1      	ldr	r1, [r4, #28]
  40385e:	47b0      	blx	r6
  403860:	f1b0 0a00 	subs.w	sl, r0, #0
  403864:	f73f af1b 	bgt.w	40369e <__sfvwrite_r+0xbe>
  403868:	e738      	b.n	4036dc <__sfvwrite_r+0xfc>
  40386a:	461a      	mov	r2, r3
  40386c:	4629      	mov	r1, r5
  40386e:	9301      	str	r3, [sp, #4]
  403870:	f000 fc06 	bl	404080 <memmove>
  403874:	6822      	ldr	r2, [r4, #0]
  403876:	9b01      	ldr	r3, [sp, #4]
  403878:	9800      	ldr	r0, [sp, #0]
  40387a:	441a      	add	r2, r3
  40387c:	6022      	str	r2, [r4, #0]
  40387e:	4621      	mov	r1, r4
  403880:	f7ff fc4a 	bl	403118 <_fflush_r>
  403884:	9b01      	ldr	r3, [sp, #4]
  403886:	2800      	cmp	r0, #0
  403888:	f47f af28 	bne.w	4036dc <__sfvwrite_r+0xfc>
  40388c:	461f      	mov	r7, r3
  40388e:	e750      	b.n	403732 <__sfvwrite_r+0x152>
  403890:	9800      	ldr	r0, [sp, #0]
  403892:	f000 fc65 	bl	404160 <_realloc_r>
  403896:	4683      	mov	fp, r0
  403898:	2800      	cmp	r0, #0
  40389a:	d1c5      	bne.n	403828 <__sfvwrite_r+0x248>
  40389c:	9d00      	ldr	r5, [sp, #0]
  40389e:	6921      	ldr	r1, [r4, #16]
  4038a0:	4628      	mov	r0, r5
  4038a2:	f7ff fdb7 	bl	403414 <_free_r>
  4038a6:	f9b4 300c 	ldrsh.w	r3, [r4, #12]
  4038aa:	220c      	movs	r2, #12
  4038ac:	f023 0380 	bic.w	r3, r3, #128	; 0x80
  4038b0:	602a      	str	r2, [r5, #0]
  4038b2:	e715      	b.n	4036e0 <__sfvwrite_r+0x100>
  4038b4:	f106 0901 	add.w	r9, r6, #1
  4038b8:	e722      	b.n	403700 <__sfvwrite_r+0x120>
  4038ba:	f04f 30ff 	mov.w	r0, #4294967295
  4038be:	e6bf      	b.n	403640 <__sfvwrite_r+0x60>
  4038c0:	9a00      	ldr	r2, [sp, #0]
  4038c2:	230c      	movs	r3, #12
  4038c4:	6013      	str	r3, [r2, #0]
  4038c6:	f9b4 300c 	ldrsh.w	r3, [r4, #12]
  4038ca:	e709      	b.n	4036e0 <__sfvwrite_r+0x100>
  4038cc:	7ffffc00 	.word	0x7ffffc00

004038d0 <_fwalk_reent>:
  4038d0:	e92d 43f8 	stmdb	sp!, {r3, r4, r5, r6, r7, r8, r9, lr}
  4038d4:	f510 7738 	adds.w	r7, r0, #736	; 0x2e0
  4038d8:	d01f      	beq.n	40391a <_fwalk_reent+0x4a>
  4038da:	4688      	mov	r8, r1
  4038dc:	4606      	mov	r6, r0
  4038de:	f04f 0900 	mov.w	r9, #0
  4038e2:	687d      	ldr	r5, [r7, #4]
  4038e4:	68bc      	ldr	r4, [r7, #8]
  4038e6:	3d01      	subs	r5, #1
  4038e8:	d411      	bmi.n	40390e <_fwalk_reent+0x3e>
  4038ea:	89a3      	ldrh	r3, [r4, #12]
  4038ec:	2b01      	cmp	r3, #1
  4038ee:	f105 35ff 	add.w	r5, r5, #4294967295
  4038f2:	d908      	bls.n	403906 <_fwalk_reent+0x36>
  4038f4:	f9b4 300e 	ldrsh.w	r3, [r4, #14]
  4038f8:	3301      	adds	r3, #1
  4038fa:	4621      	mov	r1, r4
  4038fc:	4630      	mov	r0, r6
  4038fe:	d002      	beq.n	403906 <_fwalk_reent+0x36>
  403900:	47c0      	blx	r8
  403902:	ea49 0900 	orr.w	r9, r9, r0
  403906:	1c6b      	adds	r3, r5, #1
  403908:	f104 0468 	add.w	r4, r4, #104	; 0x68
  40390c:	d1ed      	bne.n	4038ea <_fwalk_reent+0x1a>
  40390e:	683f      	ldr	r7, [r7, #0]
  403910:	2f00      	cmp	r7, #0
  403912:	d1e6      	bne.n	4038e2 <_fwalk_reent+0x12>
  403914:	4648      	mov	r0, r9
  403916:	e8bd 83f8 	ldmia.w	sp!, {r3, r4, r5, r6, r7, r8, r9, pc}
  40391a:	46b9      	mov	r9, r7
  40391c:	4648      	mov	r0, r9
  40391e:	e8bd 83f8 	ldmia.w	sp!, {r3, r4, r5, r6, r7, r8, r9, pc}
  403922:	bf00      	nop

00403924 <__locale_mb_cur_max>:
  403924:	4b04      	ldr	r3, [pc, #16]	; (403938 <__locale_mb_cur_max+0x14>)
  403926:	4a05      	ldr	r2, [pc, #20]	; (40393c <__locale_mb_cur_max+0x18>)
  403928:	681b      	ldr	r3, [r3, #0]
  40392a:	6b5b      	ldr	r3, [r3, #52]	; 0x34
  40392c:	2b00      	cmp	r3, #0
  40392e:	bf08      	it	eq
  403930:	4613      	moveq	r3, r2
  403932:	f893 0128 	ldrb.w	r0, [r3, #296]	; 0x128
  403936:	4770      	bx	lr
  403938:	20400014 	.word	0x20400014
  40393c:	20400444 	.word	0x20400444

00403940 <__retarget_lock_init_recursive>:
  403940:	4770      	bx	lr
  403942:	bf00      	nop

00403944 <__retarget_lock_close_recursive>:
  403944:	4770      	bx	lr
  403946:	bf00      	nop

00403948 <__retarget_lock_acquire_recursive>:
  403948:	4770      	bx	lr
  40394a:	bf00      	nop

0040394c <__retarget_lock_release_recursive>:
  40394c:	4770      	bx	lr
  40394e:	bf00      	nop

00403950 <__swhatbuf_r>:
  403950:	b570      	push	{r4, r5, r6, lr}
  403952:	460c      	mov	r4, r1
  403954:	f9b1 100e 	ldrsh.w	r1, [r1, #14]
  403958:	2900      	cmp	r1, #0
  40395a:	b090      	sub	sp, #64	; 0x40
  40395c:	4615      	mov	r5, r2
  40395e:	461e      	mov	r6, r3
  403960:	db14      	blt.n	40398c <__swhatbuf_r+0x3c>
  403962:	aa01      	add	r2, sp, #4
  403964:	f000 ff74 	bl	404850 <_fstat_r>
  403968:	2800      	cmp	r0, #0
  40396a:	db0f      	blt.n	40398c <__swhatbuf_r+0x3c>
  40396c:	9a02      	ldr	r2, [sp, #8]
  40396e:	f402 4270 	and.w	r2, r2, #61440	; 0xf000
  403972:	f5a2 5200 	sub.w	r2, r2, #8192	; 0x2000
  403976:	fab2 f282 	clz	r2, r2
  40397a:	0952      	lsrs	r2, r2, #5
  40397c:	f44f 6380 	mov.w	r3, #1024	; 0x400
  403980:	f44f 6000 	mov.w	r0, #2048	; 0x800
  403984:	6032      	str	r2, [r6, #0]
  403986:	602b      	str	r3, [r5, #0]
  403988:	b010      	add	sp, #64	; 0x40
  40398a:	bd70      	pop	{r4, r5, r6, pc}
  40398c:	89a2      	ldrh	r2, [r4, #12]
  40398e:	2300      	movs	r3, #0
  403990:	f012 0080 	ands.w	r0, r2, #128	; 0x80
  403994:	6033      	str	r3, [r6, #0]
  403996:	d004      	beq.n	4039a2 <__swhatbuf_r+0x52>
  403998:	2240      	movs	r2, #64	; 0x40
  40399a:	4618      	mov	r0, r3
  40399c:	602a      	str	r2, [r5, #0]
  40399e:	b010      	add	sp, #64	; 0x40
  4039a0:	bd70      	pop	{r4, r5, r6, pc}
  4039a2:	f44f 6380 	mov.w	r3, #1024	; 0x400
  4039a6:	602b      	str	r3, [r5, #0]
  4039a8:	b010      	add	sp, #64	; 0x40
  4039aa:	bd70      	pop	{r4, r5, r6, pc}

004039ac <__smakebuf_r>:
  4039ac:	898a      	ldrh	r2, [r1, #12]
  4039ae:	0792      	lsls	r2, r2, #30
  4039b0:	460b      	mov	r3, r1
  4039b2:	d506      	bpl.n	4039c2 <__smakebuf_r+0x16>
  4039b4:	f101 0243 	add.w	r2, r1, #67	; 0x43
  4039b8:	2101      	movs	r1, #1
  4039ba:	601a      	str	r2, [r3, #0]
  4039bc:	611a      	str	r2, [r3, #16]
  4039be:	6159      	str	r1, [r3, #20]
  4039c0:	4770      	bx	lr
  4039c2:	b5f0      	push	{r4, r5, r6, r7, lr}
  4039c4:	b083      	sub	sp, #12
  4039c6:	ab01      	add	r3, sp, #4
  4039c8:	466a      	mov	r2, sp
  4039ca:	460c      	mov	r4, r1
  4039cc:	4606      	mov	r6, r0
  4039ce:	f7ff ffbf 	bl	403950 <__swhatbuf_r>
  4039d2:	9900      	ldr	r1, [sp, #0]
  4039d4:	4605      	mov	r5, r0
  4039d6:	4630      	mov	r0, r6
  4039d8:	f000 f83a 	bl	403a50 <_malloc_r>
  4039dc:	f9b4 300c 	ldrsh.w	r3, [r4, #12]
  4039e0:	b1d8      	cbz	r0, 403a1a <__smakebuf_r+0x6e>
  4039e2:	9a01      	ldr	r2, [sp, #4]
  4039e4:	4f15      	ldr	r7, [pc, #84]	; (403a3c <__smakebuf_r+0x90>)
  4039e6:	9900      	ldr	r1, [sp, #0]
  4039e8:	63f7      	str	r7, [r6, #60]	; 0x3c
  4039ea:	f043 0380 	orr.w	r3, r3, #128	; 0x80
  4039ee:	81a3      	strh	r3, [r4, #12]
  4039f0:	6020      	str	r0, [r4, #0]
  4039f2:	6120      	str	r0, [r4, #16]
  4039f4:	6161      	str	r1, [r4, #20]
  4039f6:	b91a      	cbnz	r2, 403a00 <__smakebuf_r+0x54>
  4039f8:	432b      	orrs	r3, r5
  4039fa:	81a3      	strh	r3, [r4, #12]
  4039fc:	b003      	add	sp, #12
  4039fe:	bdf0      	pop	{r4, r5, r6, r7, pc}
  403a00:	4630      	mov	r0, r6
  403a02:	f9b4 100e 	ldrsh.w	r1, [r4, #14]
  403a06:	f000 ff37 	bl	404878 <_isatty_r>
  403a0a:	b1a0      	cbz	r0, 403a36 <__smakebuf_r+0x8a>
  403a0c:	89a3      	ldrh	r3, [r4, #12]
  403a0e:	f023 0303 	bic.w	r3, r3, #3
  403a12:	f043 0301 	orr.w	r3, r3, #1
  403a16:	b21b      	sxth	r3, r3
  403a18:	e7ee      	b.n	4039f8 <__smakebuf_r+0x4c>
  403a1a:	059a      	lsls	r2, r3, #22
  403a1c:	d4ee      	bmi.n	4039fc <__smakebuf_r+0x50>
  403a1e:	f023 0303 	bic.w	r3, r3, #3
  403a22:	f104 0243 	add.w	r2, r4, #67	; 0x43
  403a26:	f043 0302 	orr.w	r3, r3, #2
  403a2a:	2101      	movs	r1, #1
  403a2c:	81a3      	strh	r3, [r4, #12]
  403a2e:	6022      	str	r2, [r4, #0]
  403a30:	6122      	str	r2, [r4, #16]
  403a32:	6161      	str	r1, [r4, #20]
  403a34:	e7e2      	b.n	4039fc <__smakebuf_r+0x50>
  403a36:	f9b4 300c 	ldrsh.w	r3, [r4, #12]
  403a3a:	e7dd      	b.n	4039f8 <__smakebuf_r+0x4c>
  403a3c:	0040316d 	.word	0x0040316d

00403a40 <malloc>:
  403a40:	4b02      	ldr	r3, [pc, #8]	; (403a4c <malloc+0xc>)
  403a42:	4601      	mov	r1, r0
  403a44:	6818      	ldr	r0, [r3, #0]
  403a46:	f000 b803 	b.w	403a50 <_malloc_r>
  403a4a:	bf00      	nop
  403a4c:	20400014 	.word	0x20400014

00403a50 <_malloc_r>:
  403a50:	e92d 4ff0 	stmdb	sp!, {r4, r5, r6, r7, r8, r9, sl, fp, lr}
  403a54:	f101 060b 	add.w	r6, r1, #11
  403a58:	2e16      	cmp	r6, #22
  403a5a:	b083      	sub	sp, #12
  403a5c:	4605      	mov	r5, r0
  403a5e:	f240 809e 	bls.w	403b9e <_malloc_r+0x14e>
  403a62:	f036 0607 	bics.w	r6, r6, #7
  403a66:	f100 80bd 	bmi.w	403be4 <_malloc_r+0x194>
  403a6a:	42b1      	cmp	r1, r6
  403a6c:	f200 80ba 	bhi.w	403be4 <_malloc_r+0x194>
  403a70:	f000 fb6a 	bl	404148 <__malloc_lock>
  403a74:	f5b6 7ffc 	cmp.w	r6, #504	; 0x1f8
  403a78:	f0c0 8293 	bcc.w	403fa2 <_malloc_r+0x552>
  403a7c:	0a73      	lsrs	r3, r6, #9
  403a7e:	f000 80b8 	beq.w	403bf2 <_malloc_r+0x1a2>
  403a82:	2b04      	cmp	r3, #4
  403a84:	f200 8179 	bhi.w	403d7a <_malloc_r+0x32a>
  403a88:	09b3      	lsrs	r3, r6, #6
  403a8a:	f103 0039 	add.w	r0, r3, #57	; 0x39
  403a8e:	f103 0e38 	add.w	lr, r3, #56	; 0x38
  403a92:	00c3      	lsls	r3, r0, #3
  403a94:	4fbf      	ldr	r7, [pc, #764]	; (403d94 <_malloc_r+0x344>)
  403a96:	443b      	add	r3, r7
  403a98:	f1a3 0108 	sub.w	r1, r3, #8
  403a9c:	685c      	ldr	r4, [r3, #4]
  403a9e:	42a1      	cmp	r1, r4
  403aa0:	d106      	bne.n	403ab0 <_malloc_r+0x60>
  403aa2:	e00c      	b.n	403abe <_malloc_r+0x6e>
  403aa4:	2a00      	cmp	r2, #0
  403aa6:	f280 80aa 	bge.w	403bfe <_malloc_r+0x1ae>
  403aaa:	68e4      	ldr	r4, [r4, #12]
  403aac:	42a1      	cmp	r1, r4
  403aae:	d006      	beq.n	403abe <_malloc_r+0x6e>
  403ab0:	6863      	ldr	r3, [r4, #4]
  403ab2:	f023 0303 	bic.w	r3, r3, #3
  403ab6:	1b9a      	subs	r2, r3, r6
  403ab8:	2a0f      	cmp	r2, #15
  403aba:	ddf3      	ble.n	403aa4 <_malloc_r+0x54>
  403abc:	4670      	mov	r0, lr
  403abe:	693c      	ldr	r4, [r7, #16]
  403ac0:	f8df e2e4 	ldr.w	lr, [pc, #740]	; 403da8 <_malloc_r+0x358>
  403ac4:	4574      	cmp	r4, lr
  403ac6:	f000 81ab 	beq.w	403e20 <_malloc_r+0x3d0>
  403aca:	6863      	ldr	r3, [r4, #4]
  403acc:	f023 0303 	bic.w	r3, r3, #3
  403ad0:	1b9a      	subs	r2, r3, r6
  403ad2:	2a0f      	cmp	r2, #15
  403ad4:	f300 8190 	bgt.w	403df8 <_malloc_r+0x3a8>
  403ad8:	2a00      	cmp	r2, #0
  403ada:	f8c7 e014 	str.w	lr, [r7, #20]
  403ade:	f8c7 e010 	str.w	lr, [r7, #16]
  403ae2:	f280 809d 	bge.w	403c20 <_malloc_r+0x1d0>
  403ae6:	f5b3 7f00 	cmp.w	r3, #512	; 0x200
  403aea:	f080 8161 	bcs.w	403db0 <_malloc_r+0x360>
  403aee:	08db      	lsrs	r3, r3, #3
  403af0:	f103 0c01 	add.w	ip, r3, #1
  403af4:	1099      	asrs	r1, r3, #2
  403af6:	687a      	ldr	r2, [r7, #4]
  403af8:	f857 803c 	ldr.w	r8, [r7, ip, lsl #3]
  403afc:	f8c4 8008 	str.w	r8, [r4, #8]
  403b00:	2301      	movs	r3, #1
  403b02:	408b      	lsls	r3, r1
  403b04:	eb07 01cc 	add.w	r1, r7, ip, lsl #3
  403b08:	4313      	orrs	r3, r2
  403b0a:	3908      	subs	r1, #8
  403b0c:	60e1      	str	r1, [r4, #12]
  403b0e:	607b      	str	r3, [r7, #4]
  403b10:	f847 403c 	str.w	r4, [r7, ip, lsl #3]
  403b14:	f8c8 400c 	str.w	r4, [r8, #12]
  403b18:	1082      	asrs	r2, r0, #2
  403b1a:	2401      	movs	r4, #1
  403b1c:	4094      	lsls	r4, r2
  403b1e:	429c      	cmp	r4, r3
  403b20:	f200 808b 	bhi.w	403c3a <_malloc_r+0x1ea>
  403b24:	421c      	tst	r4, r3
  403b26:	d106      	bne.n	403b36 <_malloc_r+0xe6>
  403b28:	f020 0003 	bic.w	r0, r0, #3
  403b2c:	0064      	lsls	r4, r4, #1
  403b2e:	421c      	tst	r4, r3
  403b30:	f100 0004 	add.w	r0, r0, #4
  403b34:	d0fa      	beq.n	403b2c <_malloc_r+0xdc>
  403b36:	eb07 09c0 	add.w	r9, r7, r0, lsl #3
  403b3a:	46cc      	mov	ip, r9
  403b3c:	4680      	mov	r8, r0
  403b3e:	f8dc 300c 	ldr.w	r3, [ip, #12]
  403b42:	459c      	cmp	ip, r3
  403b44:	d107      	bne.n	403b56 <_malloc_r+0x106>
  403b46:	e16d      	b.n	403e24 <_malloc_r+0x3d4>
  403b48:	2a00      	cmp	r2, #0
  403b4a:	f280 817b 	bge.w	403e44 <_malloc_r+0x3f4>
  403b4e:	68db      	ldr	r3, [r3, #12]
  403b50:	459c      	cmp	ip, r3
  403b52:	f000 8167 	beq.w	403e24 <_malloc_r+0x3d4>
  403b56:	6859      	ldr	r1, [r3, #4]
  403b58:	f021 0103 	bic.w	r1, r1, #3
  403b5c:	1b8a      	subs	r2, r1, r6
  403b5e:	2a0f      	cmp	r2, #15
  403b60:	ddf2      	ble.n	403b48 <_malloc_r+0xf8>
  403b62:	f8d3 c00c 	ldr.w	ip, [r3, #12]
  403b66:	f8d3 8008 	ldr.w	r8, [r3, #8]
  403b6a:	9300      	str	r3, [sp, #0]
  403b6c:	199c      	adds	r4, r3, r6
  403b6e:	4628      	mov	r0, r5
  403b70:	f046 0601 	orr.w	r6, r6, #1
  403b74:	f042 0501 	orr.w	r5, r2, #1
  403b78:	605e      	str	r6, [r3, #4]
  403b7a:	f8c8 c00c 	str.w	ip, [r8, #12]
  403b7e:	f8cc 8008 	str.w	r8, [ip, #8]
  403b82:	617c      	str	r4, [r7, #20]
  403b84:	613c      	str	r4, [r7, #16]
  403b86:	f8c4 e00c 	str.w	lr, [r4, #12]
  403b8a:	f8c4 e008 	str.w	lr, [r4, #8]
  403b8e:	6065      	str	r5, [r4, #4]
  403b90:	505a      	str	r2, [r3, r1]
  403b92:	f000 fadf 	bl	404154 <__malloc_unlock>
  403b96:	9b00      	ldr	r3, [sp, #0]
  403b98:	f103 0408 	add.w	r4, r3, #8
  403b9c:	e01e      	b.n	403bdc <_malloc_r+0x18c>
  403b9e:	2910      	cmp	r1, #16
  403ba0:	d820      	bhi.n	403be4 <_malloc_r+0x194>
  403ba2:	f000 fad1 	bl	404148 <__malloc_lock>
  403ba6:	2610      	movs	r6, #16
  403ba8:	2318      	movs	r3, #24
  403baa:	2002      	movs	r0, #2
  403bac:	4f79      	ldr	r7, [pc, #484]	; (403d94 <_malloc_r+0x344>)
  403bae:	443b      	add	r3, r7
  403bb0:	f1a3 0208 	sub.w	r2, r3, #8
  403bb4:	685c      	ldr	r4, [r3, #4]
  403bb6:	4294      	cmp	r4, r2
  403bb8:	f000 813d 	beq.w	403e36 <_malloc_r+0x3e6>
  403bbc:	6863      	ldr	r3, [r4, #4]
  403bbe:	68e1      	ldr	r1, [r4, #12]
  403bc0:	68a6      	ldr	r6, [r4, #8]
  403bc2:	f023 0303 	bic.w	r3, r3, #3
  403bc6:	4423      	add	r3, r4
  403bc8:	4628      	mov	r0, r5
  403bca:	685a      	ldr	r2, [r3, #4]
  403bcc:	60f1      	str	r1, [r6, #12]
  403bce:	f042 0201 	orr.w	r2, r2, #1
  403bd2:	608e      	str	r6, [r1, #8]
  403bd4:	605a      	str	r2, [r3, #4]
  403bd6:	f000 fabd 	bl	404154 <__malloc_unlock>
  403bda:	3408      	adds	r4, #8
  403bdc:	4620      	mov	r0, r4
  403bde:	b003      	add	sp, #12
  403be0:	e8bd 8ff0 	ldmia.w	sp!, {r4, r5, r6, r7, r8, r9, sl, fp, pc}
  403be4:	2400      	movs	r4, #0
  403be6:	230c      	movs	r3, #12
  403be8:	4620      	mov	r0, r4
  403bea:	602b      	str	r3, [r5, #0]
  403bec:	b003      	add	sp, #12
  403bee:	e8bd 8ff0 	ldmia.w	sp!, {r4, r5, r6, r7, r8, r9, sl, fp, pc}
  403bf2:	2040      	movs	r0, #64	; 0x40
  403bf4:	f44f 7300 	mov.w	r3, #512	; 0x200
  403bf8:	f04f 0e3f 	mov.w	lr, #63	; 0x3f
  403bfc:	e74a      	b.n	403a94 <_malloc_r+0x44>
  403bfe:	4423      	add	r3, r4
  403c00:	68e1      	ldr	r1, [r4, #12]
  403c02:	685a      	ldr	r2, [r3, #4]
  403c04:	68a6      	ldr	r6, [r4, #8]
  403c06:	f042 0201 	orr.w	r2, r2, #1
  403c0a:	60f1      	str	r1, [r6, #12]
  403c0c:	4628      	mov	r0, r5
  403c0e:	608e      	str	r6, [r1, #8]
  403c10:	605a      	str	r2, [r3, #4]
  403c12:	f000 fa9f 	bl	404154 <__malloc_unlock>
  403c16:	3408      	adds	r4, #8
  403c18:	4620      	mov	r0, r4
  403c1a:	b003      	add	sp, #12
  403c1c:	e8bd 8ff0 	ldmia.w	sp!, {r4, r5, r6, r7, r8, r9, sl, fp, pc}
  403c20:	4423      	add	r3, r4
  403c22:	4628      	mov	r0, r5
  403c24:	685a      	ldr	r2, [r3, #4]
  403c26:	f042 0201 	orr.w	r2, r2, #1
  403c2a:	605a      	str	r2, [r3, #4]
  403c2c:	f000 fa92 	bl	404154 <__malloc_unlock>
  403c30:	3408      	adds	r4, #8
  403c32:	4620      	mov	r0, r4
  403c34:	b003      	add	sp, #12
  403c36:	e8bd 8ff0 	ldmia.w	sp!, {r4, r5, r6, r7, r8, r9, sl, fp, pc}
  403c3a:	68bc      	ldr	r4, [r7, #8]
  403c3c:	6863      	ldr	r3, [r4, #4]
  403c3e:	f023 0803 	bic.w	r8, r3, #3
  403c42:	45b0      	cmp	r8, r6
  403c44:	d304      	bcc.n	403c50 <_malloc_r+0x200>
  403c46:	eba8 0306 	sub.w	r3, r8, r6
  403c4a:	2b0f      	cmp	r3, #15
  403c4c:	f300 8085 	bgt.w	403d5a <_malloc_r+0x30a>
  403c50:	f8df 9158 	ldr.w	r9, [pc, #344]	; 403dac <_malloc_r+0x35c>
  403c54:	4b50      	ldr	r3, [pc, #320]	; (403d98 <_malloc_r+0x348>)
  403c56:	f8d9 2000 	ldr.w	r2, [r9]
  403c5a:	681b      	ldr	r3, [r3, #0]
  403c5c:	3201      	adds	r2, #1
  403c5e:	4433      	add	r3, r6
  403c60:	eb04 0a08 	add.w	sl, r4, r8
  403c64:	f000 8155 	beq.w	403f12 <_malloc_r+0x4c2>
  403c68:	f503 5380 	add.w	r3, r3, #4096	; 0x1000
  403c6c:	330f      	adds	r3, #15
  403c6e:	f423 6b7f 	bic.w	fp, r3, #4080	; 0xff0
  403c72:	f02b 0b0f 	bic.w	fp, fp, #15
  403c76:	4659      	mov	r1, fp
  403c78:	4628      	mov	r0, r5
  403c7a:	f000 fc17 	bl	4044ac <_sbrk_r>
  403c7e:	1c41      	adds	r1, r0, #1
  403c80:	4602      	mov	r2, r0
  403c82:	f000 80fc 	beq.w	403e7e <_malloc_r+0x42e>
  403c86:	4582      	cmp	sl, r0
  403c88:	f200 80f7 	bhi.w	403e7a <_malloc_r+0x42a>
  403c8c:	4b43      	ldr	r3, [pc, #268]	; (403d9c <_malloc_r+0x34c>)
  403c8e:	6819      	ldr	r1, [r3, #0]
  403c90:	4459      	add	r1, fp
  403c92:	6019      	str	r1, [r3, #0]
  403c94:	f000 814d 	beq.w	403f32 <_malloc_r+0x4e2>
  403c98:	f8d9 0000 	ldr.w	r0, [r9]
  403c9c:	3001      	adds	r0, #1
  403c9e:	bf1b      	ittet	ne
  403ca0:	eba2 0a0a 	subne.w	sl, r2, sl
  403ca4:	4451      	addne	r1, sl
  403ca6:	f8c9 2000 	streq.w	r2, [r9]
  403caa:	6019      	strne	r1, [r3, #0]
  403cac:	f012 0107 	ands.w	r1, r2, #7
  403cb0:	f000 8115 	beq.w	403ede <_malloc_r+0x48e>
  403cb4:	f1c1 0008 	rsb	r0, r1, #8
  403cb8:	f5c1 5180 	rsb	r1, r1, #4096	; 0x1000
  403cbc:	4402      	add	r2, r0
  403cbe:	3108      	adds	r1, #8
  403cc0:	eb02 090b 	add.w	r9, r2, fp
  403cc4:	f3c9 090b 	ubfx	r9, r9, #0, #12
  403cc8:	eba1 0909 	sub.w	r9, r1, r9
  403ccc:	4649      	mov	r1, r9
  403cce:	4628      	mov	r0, r5
  403cd0:	9301      	str	r3, [sp, #4]
  403cd2:	9200      	str	r2, [sp, #0]
  403cd4:	f000 fbea 	bl	4044ac <_sbrk_r>
  403cd8:	1c43      	adds	r3, r0, #1
  403cda:	e89d 000c 	ldmia.w	sp, {r2, r3}
  403cde:	f000 8143 	beq.w	403f68 <_malloc_r+0x518>
  403ce2:	1a80      	subs	r0, r0, r2
  403ce4:	4448      	add	r0, r9
  403ce6:	f040 0001 	orr.w	r0, r0, #1
  403cea:	6819      	ldr	r1, [r3, #0]
  403cec:	60ba      	str	r2, [r7, #8]
  403cee:	4449      	add	r1, r9
  403cf0:	42bc      	cmp	r4, r7
  403cf2:	6050      	str	r0, [r2, #4]
  403cf4:	6019      	str	r1, [r3, #0]
  403cf6:	d017      	beq.n	403d28 <_malloc_r+0x2d8>
  403cf8:	f1b8 0f0f 	cmp.w	r8, #15
  403cfc:	f240 80fb 	bls.w	403ef6 <_malloc_r+0x4a6>
  403d00:	6860      	ldr	r0, [r4, #4]
  403d02:	f1a8 020c 	sub.w	r2, r8, #12
  403d06:	f022 0207 	bic.w	r2, r2, #7
  403d0a:	eb04 0e02 	add.w	lr, r4, r2
  403d0e:	f000 0001 	and.w	r0, r0, #1
  403d12:	f04f 0c05 	mov.w	ip, #5
  403d16:	4310      	orrs	r0, r2
  403d18:	2a0f      	cmp	r2, #15
  403d1a:	6060      	str	r0, [r4, #4]
  403d1c:	f8ce c004 	str.w	ip, [lr, #4]
  403d20:	f8ce c008 	str.w	ip, [lr, #8]
  403d24:	f200 8117 	bhi.w	403f56 <_malloc_r+0x506>
  403d28:	4b1d      	ldr	r3, [pc, #116]	; (403da0 <_malloc_r+0x350>)
  403d2a:	68bc      	ldr	r4, [r7, #8]
  403d2c:	681a      	ldr	r2, [r3, #0]
  403d2e:	4291      	cmp	r1, r2
  403d30:	bf88      	it	hi
  403d32:	6019      	strhi	r1, [r3, #0]
  403d34:	4b1b      	ldr	r3, [pc, #108]	; (403da4 <_malloc_r+0x354>)
  403d36:	681a      	ldr	r2, [r3, #0]
  403d38:	4291      	cmp	r1, r2
  403d3a:	6862      	ldr	r2, [r4, #4]
  403d3c:	bf88      	it	hi
  403d3e:	6019      	strhi	r1, [r3, #0]
  403d40:	f022 0203 	bic.w	r2, r2, #3
  403d44:	4296      	cmp	r6, r2
  403d46:	eba2 0306 	sub.w	r3, r2, r6
  403d4a:	d801      	bhi.n	403d50 <_malloc_r+0x300>
  403d4c:	2b0f      	cmp	r3, #15
  403d4e:	dc04      	bgt.n	403d5a <_malloc_r+0x30a>
  403d50:	4628      	mov	r0, r5
  403d52:	f000 f9ff 	bl	404154 <__malloc_unlock>
  403d56:	2400      	movs	r4, #0
  403d58:	e740      	b.n	403bdc <_malloc_r+0x18c>
  403d5a:	19a2      	adds	r2, r4, r6
  403d5c:	f043 0301 	orr.w	r3, r3, #1
  403d60:	f046 0601 	orr.w	r6, r6, #1
  403d64:	6066      	str	r6, [r4, #4]
  403d66:	4628      	mov	r0, r5
  403d68:	60ba      	str	r2, [r7, #8]
  403d6a:	6053      	str	r3, [r2, #4]
  403d6c:	f000 f9f2 	bl	404154 <__malloc_unlock>
  403d70:	3408      	adds	r4, #8
  403d72:	4620      	mov	r0, r4
  403d74:	b003      	add	sp, #12
  403d76:	e8bd 8ff0 	ldmia.w	sp!, {r4, r5, r6, r7, r8, r9, sl, fp, pc}
  403d7a:	2b14      	cmp	r3, #20
  403d7c:	d971      	bls.n	403e62 <_malloc_r+0x412>
  403d7e:	2b54      	cmp	r3, #84	; 0x54
  403d80:	f200 80a3 	bhi.w	403eca <_malloc_r+0x47a>
  403d84:	0b33      	lsrs	r3, r6, #12
  403d86:	f103 006f 	add.w	r0, r3, #111	; 0x6f
  403d8a:	f103 0e6e 	add.w	lr, r3, #110	; 0x6e
  403d8e:	00c3      	lsls	r3, r0, #3
  403d90:	e680      	b.n	403a94 <_malloc_r+0x44>
  403d92:	bf00      	nop
  403d94:	204005b0 	.word	0x204005b0
  403d98:	20400a88 	.word	0x20400a88
  403d9c:	20400a58 	.word	0x20400a58
  403da0:	20400a80 	.word	0x20400a80
  403da4:	20400a84 	.word	0x20400a84
  403da8:	204005b8 	.word	0x204005b8
  403dac:	204009b8 	.word	0x204009b8
  403db0:	0a5a      	lsrs	r2, r3, #9
  403db2:	2a04      	cmp	r2, #4
  403db4:	d95b      	bls.n	403e6e <_malloc_r+0x41e>
  403db6:	2a14      	cmp	r2, #20
  403db8:	f200 80ae 	bhi.w	403f18 <_malloc_r+0x4c8>
  403dbc:	f102 015c 	add.w	r1, r2, #92	; 0x5c
  403dc0:	00c9      	lsls	r1, r1, #3
  403dc2:	325b      	adds	r2, #91	; 0x5b
  403dc4:	eb07 0c01 	add.w	ip, r7, r1
  403dc8:	5879      	ldr	r1, [r7, r1]
  403dca:	f1ac 0c08 	sub.w	ip, ip, #8
  403dce:	458c      	cmp	ip, r1
  403dd0:	f000 8088 	beq.w	403ee4 <_malloc_r+0x494>
  403dd4:	684a      	ldr	r2, [r1, #4]
  403dd6:	f022 0203 	bic.w	r2, r2, #3
  403dda:	4293      	cmp	r3, r2
  403ddc:	d273      	bcs.n	403ec6 <_malloc_r+0x476>
  403dde:	6889      	ldr	r1, [r1, #8]
  403de0:	458c      	cmp	ip, r1
  403de2:	d1f7      	bne.n	403dd4 <_malloc_r+0x384>
  403de4:	f8dc 200c 	ldr.w	r2, [ip, #12]
  403de8:	687b      	ldr	r3, [r7, #4]
  403dea:	60e2      	str	r2, [r4, #12]
  403dec:	f8c4 c008 	str.w	ip, [r4, #8]
  403df0:	6094      	str	r4, [r2, #8]
  403df2:	f8cc 400c 	str.w	r4, [ip, #12]
  403df6:	e68f      	b.n	403b18 <_malloc_r+0xc8>
  403df8:	19a1      	adds	r1, r4, r6
  403dfa:	f046 0c01 	orr.w	ip, r6, #1
  403dfe:	f042 0601 	orr.w	r6, r2, #1
  403e02:	f8c4 c004 	str.w	ip, [r4, #4]
  403e06:	4628      	mov	r0, r5
  403e08:	6179      	str	r1, [r7, #20]
  403e0a:	6139      	str	r1, [r7, #16]
  403e0c:	f8c1 e00c 	str.w	lr, [r1, #12]
  403e10:	f8c1 e008 	str.w	lr, [r1, #8]
  403e14:	604e      	str	r6, [r1, #4]
  403e16:	50e2      	str	r2, [r4, r3]
  403e18:	f000 f99c 	bl	404154 <__malloc_unlock>
  403e1c:	3408      	adds	r4, #8
  403e1e:	e6dd      	b.n	403bdc <_malloc_r+0x18c>
  403e20:	687b      	ldr	r3, [r7, #4]
  403e22:	e679      	b.n	403b18 <_malloc_r+0xc8>
  403e24:	f108 0801 	add.w	r8, r8, #1
  403e28:	f018 0f03 	tst.w	r8, #3
  403e2c:	f10c 0c08 	add.w	ip, ip, #8
  403e30:	f47f ae85 	bne.w	403b3e <_malloc_r+0xee>
  403e34:	e02d      	b.n	403e92 <_malloc_r+0x442>
  403e36:	68dc      	ldr	r4, [r3, #12]
  403e38:	42a3      	cmp	r3, r4
  403e3a:	bf08      	it	eq
  403e3c:	3002      	addeq	r0, #2
  403e3e:	f43f ae3e 	beq.w	403abe <_malloc_r+0x6e>
  403e42:	e6bb      	b.n	403bbc <_malloc_r+0x16c>
  403e44:	4419      	add	r1, r3
  403e46:	461c      	mov	r4, r3
  403e48:	684a      	ldr	r2, [r1, #4]
  403e4a:	68db      	ldr	r3, [r3, #12]
  403e4c:	f854 6f08 	ldr.w	r6, [r4, #8]!
  403e50:	f042 0201 	orr.w	r2, r2, #1
  403e54:	604a      	str	r2, [r1, #4]
  403e56:	4628      	mov	r0, r5
  403e58:	60f3      	str	r3, [r6, #12]
  403e5a:	609e      	str	r6, [r3, #8]
  403e5c:	f000 f97a 	bl	404154 <__malloc_unlock>
  403e60:	e6bc      	b.n	403bdc <_malloc_r+0x18c>
  403e62:	f103 005c 	add.w	r0, r3, #92	; 0x5c
  403e66:	f103 0e5b 	add.w	lr, r3, #91	; 0x5b
  403e6a:	00c3      	lsls	r3, r0, #3
  403e6c:	e612      	b.n	403a94 <_malloc_r+0x44>
  403e6e:	099a      	lsrs	r2, r3, #6
  403e70:	f102 0139 	add.w	r1, r2, #57	; 0x39
  403e74:	00c9      	lsls	r1, r1, #3
  403e76:	3238      	adds	r2, #56	; 0x38
  403e78:	e7a4      	b.n	403dc4 <_malloc_r+0x374>
  403e7a:	42bc      	cmp	r4, r7
  403e7c:	d054      	beq.n	403f28 <_malloc_r+0x4d8>
  403e7e:	68bc      	ldr	r4, [r7, #8]
  403e80:	6862      	ldr	r2, [r4, #4]
  403e82:	f022 0203 	bic.w	r2, r2, #3
  403e86:	e75d      	b.n	403d44 <_malloc_r+0x2f4>
  403e88:	f859 3908 	ldr.w	r3, [r9], #-8
  403e8c:	4599      	cmp	r9, r3
  403e8e:	f040 8086 	bne.w	403f9e <_malloc_r+0x54e>
  403e92:	f010 0f03 	tst.w	r0, #3
  403e96:	f100 30ff 	add.w	r0, r0, #4294967295
  403e9a:	d1f5      	bne.n	403e88 <_malloc_r+0x438>
  403e9c:	687b      	ldr	r3, [r7, #4]
  403e9e:	ea23 0304 	bic.w	r3, r3, r4
  403ea2:	607b      	str	r3, [r7, #4]
  403ea4:	0064      	lsls	r4, r4, #1
  403ea6:	429c      	cmp	r4, r3
  403ea8:	f63f aec7 	bhi.w	403c3a <_malloc_r+0x1ea>
  403eac:	2c00      	cmp	r4, #0
  403eae:	f43f aec4 	beq.w	403c3a <_malloc_r+0x1ea>
  403eb2:	421c      	tst	r4, r3
  403eb4:	4640      	mov	r0, r8
  403eb6:	f47f ae3e 	bne.w	403b36 <_malloc_r+0xe6>
  403eba:	0064      	lsls	r4, r4, #1
  403ebc:	421c      	tst	r4, r3
  403ebe:	f100 0004 	add.w	r0, r0, #4
  403ec2:	d0fa      	beq.n	403eba <_malloc_r+0x46a>
  403ec4:	e637      	b.n	403b36 <_malloc_r+0xe6>
  403ec6:	468c      	mov	ip, r1
  403ec8:	e78c      	b.n	403de4 <_malloc_r+0x394>
  403eca:	f5b3 7faa 	cmp.w	r3, #340	; 0x154
  403ece:	d815      	bhi.n	403efc <_malloc_r+0x4ac>
  403ed0:	0bf3      	lsrs	r3, r6, #15
  403ed2:	f103 0078 	add.w	r0, r3, #120	; 0x78
  403ed6:	f103 0e77 	add.w	lr, r3, #119	; 0x77
  403eda:	00c3      	lsls	r3, r0, #3
  403edc:	e5da      	b.n	403a94 <_malloc_r+0x44>
  403ede:	f44f 5180 	mov.w	r1, #4096	; 0x1000
  403ee2:	e6ed      	b.n	403cc0 <_malloc_r+0x270>
  403ee4:	687b      	ldr	r3, [r7, #4]
  403ee6:	1092      	asrs	r2, r2, #2
  403ee8:	2101      	movs	r1, #1
  403eea:	fa01 f202 	lsl.w	r2, r1, r2
  403eee:	4313      	orrs	r3, r2
  403ef0:	607b      	str	r3, [r7, #4]
  403ef2:	4662      	mov	r2, ip
  403ef4:	e779      	b.n	403dea <_malloc_r+0x39a>
  403ef6:	2301      	movs	r3, #1
  403ef8:	6053      	str	r3, [r2, #4]
  403efa:	e729      	b.n	403d50 <_malloc_r+0x300>
  403efc:	f240 5254 	movw	r2, #1364	; 0x554
  403f00:	4293      	cmp	r3, r2
  403f02:	d822      	bhi.n	403f4a <_malloc_r+0x4fa>
  403f04:	0cb3      	lsrs	r3, r6, #18
  403f06:	f103 007d 	add.w	r0, r3, #125	; 0x7d
  403f0a:	f103 0e7c 	add.w	lr, r3, #124	; 0x7c
  403f0e:	00c3      	lsls	r3, r0, #3
  403f10:	e5c0      	b.n	403a94 <_malloc_r+0x44>
  403f12:	f103 0b10 	add.w	fp, r3, #16
  403f16:	e6ae      	b.n	403c76 <_malloc_r+0x226>
  403f18:	2a54      	cmp	r2, #84	; 0x54
  403f1a:	d829      	bhi.n	403f70 <_malloc_r+0x520>
  403f1c:	0b1a      	lsrs	r2, r3, #12
  403f1e:	f102 016f 	add.w	r1, r2, #111	; 0x6f
  403f22:	00c9      	lsls	r1, r1, #3
  403f24:	326e      	adds	r2, #110	; 0x6e
  403f26:	e74d      	b.n	403dc4 <_malloc_r+0x374>
  403f28:	4b20      	ldr	r3, [pc, #128]	; (403fac <_malloc_r+0x55c>)
  403f2a:	6819      	ldr	r1, [r3, #0]
  403f2c:	4459      	add	r1, fp
  403f2e:	6019      	str	r1, [r3, #0]
  403f30:	e6b2      	b.n	403c98 <_malloc_r+0x248>
  403f32:	f3ca 000b 	ubfx	r0, sl, #0, #12
  403f36:	2800      	cmp	r0, #0
  403f38:	f47f aeae 	bne.w	403c98 <_malloc_r+0x248>
  403f3c:	eb08 030b 	add.w	r3, r8, fp
  403f40:	68ba      	ldr	r2, [r7, #8]
  403f42:	f043 0301 	orr.w	r3, r3, #1
  403f46:	6053      	str	r3, [r2, #4]
  403f48:	e6ee      	b.n	403d28 <_malloc_r+0x2d8>
  403f4a:	207f      	movs	r0, #127	; 0x7f
  403f4c:	f44f 737e 	mov.w	r3, #1016	; 0x3f8
  403f50:	f04f 0e7e 	mov.w	lr, #126	; 0x7e
  403f54:	e59e      	b.n	403a94 <_malloc_r+0x44>
  403f56:	f104 0108 	add.w	r1, r4, #8
  403f5a:	4628      	mov	r0, r5
  403f5c:	9300      	str	r3, [sp, #0]
  403f5e:	f7ff fa59 	bl	403414 <_free_r>
  403f62:	9b00      	ldr	r3, [sp, #0]
  403f64:	6819      	ldr	r1, [r3, #0]
  403f66:	e6df      	b.n	403d28 <_malloc_r+0x2d8>
  403f68:	2001      	movs	r0, #1
  403f6a:	f04f 0900 	mov.w	r9, #0
  403f6e:	e6bc      	b.n	403cea <_malloc_r+0x29a>
  403f70:	f5b2 7faa 	cmp.w	r2, #340	; 0x154
  403f74:	d805      	bhi.n	403f82 <_malloc_r+0x532>
  403f76:	0bda      	lsrs	r2, r3, #15
  403f78:	f102 0178 	add.w	r1, r2, #120	; 0x78
  403f7c:	00c9      	lsls	r1, r1, #3
  403f7e:	3277      	adds	r2, #119	; 0x77
  403f80:	e720      	b.n	403dc4 <_malloc_r+0x374>
  403f82:	f240 5154 	movw	r1, #1364	; 0x554
  403f86:	428a      	cmp	r2, r1
  403f88:	d805      	bhi.n	403f96 <_malloc_r+0x546>
  403f8a:	0c9a      	lsrs	r2, r3, #18
  403f8c:	f102 017d 	add.w	r1, r2, #125	; 0x7d
  403f90:	00c9      	lsls	r1, r1, #3
  403f92:	327c      	adds	r2, #124	; 0x7c
  403f94:	e716      	b.n	403dc4 <_malloc_r+0x374>
  403f96:	f44f 717e 	mov.w	r1, #1016	; 0x3f8
  403f9a:	227e      	movs	r2, #126	; 0x7e
  403f9c:	e712      	b.n	403dc4 <_malloc_r+0x374>
  403f9e:	687b      	ldr	r3, [r7, #4]
  403fa0:	e780      	b.n	403ea4 <_malloc_r+0x454>
  403fa2:	08f0      	lsrs	r0, r6, #3
  403fa4:	f106 0308 	add.w	r3, r6, #8
  403fa8:	e600      	b.n	403bac <_malloc_r+0x15c>
  403faa:	bf00      	nop
  403fac:	20400a58 	.word	0x20400a58

00403fb0 <__ascii_mbtowc>:
  403fb0:	b082      	sub	sp, #8
  403fb2:	b149      	cbz	r1, 403fc8 <__ascii_mbtowc+0x18>
  403fb4:	b15a      	cbz	r2, 403fce <__ascii_mbtowc+0x1e>
  403fb6:	b16b      	cbz	r3, 403fd4 <__ascii_mbtowc+0x24>
  403fb8:	7813      	ldrb	r3, [r2, #0]
  403fba:	600b      	str	r3, [r1, #0]
  403fbc:	7812      	ldrb	r2, [r2, #0]
  403fbe:	1c10      	adds	r0, r2, #0
  403fc0:	bf18      	it	ne
  403fc2:	2001      	movne	r0, #1
  403fc4:	b002      	add	sp, #8
  403fc6:	4770      	bx	lr
  403fc8:	a901      	add	r1, sp, #4
  403fca:	2a00      	cmp	r2, #0
  403fcc:	d1f3      	bne.n	403fb6 <__ascii_mbtowc+0x6>
  403fce:	4610      	mov	r0, r2
  403fd0:	b002      	add	sp, #8
  403fd2:	4770      	bx	lr
  403fd4:	f06f 0001 	mvn.w	r0, #1
  403fd8:	e7f4      	b.n	403fc4 <__ascii_mbtowc+0x14>
  403fda:	bf00      	nop
  403fdc:	0000      	movs	r0, r0
	...

00403fe0 <memchr>:
  403fe0:	f001 01ff 	and.w	r1, r1, #255	; 0xff
  403fe4:	2a10      	cmp	r2, #16
  403fe6:	db2b      	blt.n	404040 <memchr+0x60>
  403fe8:	f010 0f07 	tst.w	r0, #7
  403fec:	d008      	beq.n	404000 <memchr+0x20>
  403fee:	f810 3b01 	ldrb.w	r3, [r0], #1
  403ff2:	3a01      	subs	r2, #1
  403ff4:	428b      	cmp	r3, r1
  403ff6:	d02d      	beq.n	404054 <memchr+0x74>
  403ff8:	f010 0f07 	tst.w	r0, #7
  403ffc:	b342      	cbz	r2, 404050 <memchr+0x70>
  403ffe:	d1f6      	bne.n	403fee <memchr+0xe>
  404000:	b4f0      	push	{r4, r5, r6, r7}
  404002:	ea41 2101 	orr.w	r1, r1, r1, lsl #8
  404006:	ea41 4101 	orr.w	r1, r1, r1, lsl #16
  40400a:	f022 0407 	bic.w	r4, r2, #7
  40400e:	f07f 0700 	mvns.w	r7, #0
  404012:	2300      	movs	r3, #0
  404014:	e8f0 5602 	ldrd	r5, r6, [r0], #8
  404018:	3c08      	subs	r4, #8
  40401a:	ea85 0501 	eor.w	r5, r5, r1
  40401e:	ea86 0601 	eor.w	r6, r6, r1
  404022:	fa85 f547 	uadd8	r5, r5, r7
  404026:	faa3 f587 	sel	r5, r3, r7
  40402a:	fa86 f647 	uadd8	r6, r6, r7
  40402e:	faa5 f687 	sel	r6, r5, r7
  404032:	b98e      	cbnz	r6, 404058 <memchr+0x78>
  404034:	d1ee      	bne.n	404014 <memchr+0x34>
  404036:	bcf0      	pop	{r4, r5, r6, r7}
  404038:	f001 01ff 	and.w	r1, r1, #255	; 0xff
  40403c:	f002 0207 	and.w	r2, r2, #7
  404040:	b132      	cbz	r2, 404050 <memchr+0x70>
  404042:	f810 3b01 	ldrb.w	r3, [r0], #1
  404046:	3a01      	subs	r2, #1
  404048:	ea83 0301 	eor.w	r3, r3, r1
  40404c:	b113      	cbz	r3, 404054 <memchr+0x74>
  40404e:	d1f8      	bne.n	404042 <memchr+0x62>
  404050:	2000      	movs	r0, #0
  404052:	4770      	bx	lr
  404054:	3801      	subs	r0, #1
  404056:	4770      	bx	lr
  404058:	2d00      	cmp	r5, #0
  40405a:	bf06      	itte	eq
  40405c:	4635      	moveq	r5, r6
  40405e:	3803      	subeq	r0, #3
  404060:	3807      	subne	r0, #7
  404062:	f015 0f01 	tst.w	r5, #1
  404066:	d107      	bne.n	404078 <memchr+0x98>
  404068:	3001      	adds	r0, #1
  40406a:	f415 7f80 	tst.w	r5, #256	; 0x100
  40406e:	bf02      	ittt	eq
  404070:	3001      	addeq	r0, #1
  404072:	f415 3fc0 	tsteq.w	r5, #98304	; 0x18000
  404076:	3001      	addeq	r0, #1
  404078:	bcf0      	pop	{r4, r5, r6, r7}
  40407a:	3801      	subs	r0, #1
  40407c:	4770      	bx	lr
  40407e:	bf00      	nop

00404080 <memmove>:
  404080:	4288      	cmp	r0, r1
  404082:	b5f0      	push	{r4, r5, r6, r7, lr}
  404084:	d90d      	bls.n	4040a2 <memmove+0x22>
  404086:	188b      	adds	r3, r1, r2
  404088:	4298      	cmp	r0, r3
  40408a:	d20a      	bcs.n	4040a2 <memmove+0x22>
  40408c:	1884      	adds	r4, r0, r2
  40408e:	2a00      	cmp	r2, #0
  404090:	d051      	beq.n	404136 <memmove+0xb6>
  404092:	4622      	mov	r2, r4
  404094:	f813 4d01 	ldrb.w	r4, [r3, #-1]!
  404098:	f802 4d01 	strb.w	r4, [r2, #-1]!
  40409c:	4299      	cmp	r1, r3
  40409e:	d1f9      	bne.n	404094 <memmove+0x14>
  4040a0:	bdf0      	pop	{r4, r5, r6, r7, pc}
  4040a2:	2a0f      	cmp	r2, #15
  4040a4:	d948      	bls.n	404138 <memmove+0xb8>
  4040a6:	ea41 0300 	orr.w	r3, r1, r0
  4040aa:	079b      	lsls	r3, r3, #30
  4040ac:	d146      	bne.n	40413c <memmove+0xbc>
  4040ae:	f100 0410 	add.w	r4, r0, #16
  4040b2:	f101 0310 	add.w	r3, r1, #16
  4040b6:	4615      	mov	r5, r2
  4040b8:	f853 6c10 	ldr.w	r6, [r3, #-16]
  4040bc:	f844 6c10 	str.w	r6, [r4, #-16]
  4040c0:	f853 6c0c 	ldr.w	r6, [r3, #-12]
  4040c4:	f844 6c0c 	str.w	r6, [r4, #-12]
  4040c8:	f853 6c08 	ldr.w	r6, [r3, #-8]
  4040cc:	f844 6c08 	str.w	r6, [r4, #-8]
  4040d0:	3d10      	subs	r5, #16
  4040d2:	f853 6c04 	ldr.w	r6, [r3, #-4]
  4040d6:	f844 6c04 	str.w	r6, [r4, #-4]
  4040da:	2d0f      	cmp	r5, #15
  4040dc:	f103 0310 	add.w	r3, r3, #16
  4040e0:	f104 0410 	add.w	r4, r4, #16
  4040e4:	d8e8      	bhi.n	4040b8 <memmove+0x38>
  4040e6:	f1a2 0310 	sub.w	r3, r2, #16
  4040ea:	f023 030f 	bic.w	r3, r3, #15
  4040ee:	f002 0e0f 	and.w	lr, r2, #15
  4040f2:	3310      	adds	r3, #16
  4040f4:	f1be 0f03 	cmp.w	lr, #3
  4040f8:	4419      	add	r1, r3
  4040fa:	4403      	add	r3, r0
  4040fc:	d921      	bls.n	404142 <memmove+0xc2>
  4040fe:	1f1e      	subs	r6, r3, #4
  404100:	460d      	mov	r5, r1
  404102:	4674      	mov	r4, lr
  404104:	3c04      	subs	r4, #4
  404106:	f855 7b04 	ldr.w	r7, [r5], #4
  40410a:	f846 7f04 	str.w	r7, [r6, #4]!
  40410e:	2c03      	cmp	r4, #3
  404110:	d8f8      	bhi.n	404104 <memmove+0x84>
  404112:	f1ae 0404 	sub.w	r4, lr, #4
  404116:	f024 0403 	bic.w	r4, r4, #3
  40411a:	3404      	adds	r4, #4
  40411c:	4421      	add	r1, r4
  40411e:	4423      	add	r3, r4
  404120:	f002 0203 	and.w	r2, r2, #3
  404124:	b162      	cbz	r2, 404140 <memmove+0xc0>
  404126:	3b01      	subs	r3, #1
  404128:	440a      	add	r2, r1
  40412a:	f811 4b01 	ldrb.w	r4, [r1], #1
  40412e:	f803 4f01 	strb.w	r4, [r3, #1]!
  404132:	428a      	cmp	r2, r1
  404134:	d1f9      	bne.n	40412a <memmove+0xaa>
  404136:	bdf0      	pop	{r4, r5, r6, r7, pc}
  404138:	4603      	mov	r3, r0
  40413a:	e7f3      	b.n	404124 <memmove+0xa4>
  40413c:	4603      	mov	r3, r0
  40413e:	e7f2      	b.n	404126 <memmove+0xa6>
  404140:	bdf0      	pop	{r4, r5, r6, r7, pc}
  404142:	4672      	mov	r2, lr
  404144:	e7ee      	b.n	404124 <memmove+0xa4>
  404146:	bf00      	nop

00404148 <__malloc_lock>:
  404148:	4801      	ldr	r0, [pc, #4]	; (404150 <__malloc_lock+0x8>)
  40414a:	f7ff bbfd 	b.w	403948 <__retarget_lock_acquire_recursive>
  40414e:	bf00      	nop
  404150:	20400aec 	.word	0x20400aec

00404154 <__malloc_unlock>:
  404154:	4801      	ldr	r0, [pc, #4]	; (40415c <__malloc_unlock+0x8>)
  404156:	f7ff bbf9 	b.w	40394c <__retarget_lock_release_recursive>
  40415a:	bf00      	nop
  40415c:	20400aec 	.word	0x20400aec

00404160 <_realloc_r>:
  404160:	2900      	cmp	r1, #0
  404162:	f000 8095 	beq.w	404290 <_realloc_r+0x130>
  404166:	e92d 4ff0 	stmdb	sp!, {r4, r5, r6, r7, r8, r9, sl, fp, lr}
  40416a:	460d      	mov	r5, r1
  40416c:	4616      	mov	r6, r2
  40416e:	b083      	sub	sp, #12
  404170:	4680      	mov	r8, r0
  404172:	f106 070b 	add.w	r7, r6, #11
  404176:	f7ff ffe7 	bl	404148 <__malloc_lock>
  40417a:	f855 ec04 	ldr.w	lr, [r5, #-4]
  40417e:	2f16      	cmp	r7, #22
  404180:	f02e 0403 	bic.w	r4, lr, #3
  404184:	f1a5 0908 	sub.w	r9, r5, #8
  404188:	d83c      	bhi.n	404204 <_realloc_r+0xa4>
  40418a:	2210      	movs	r2, #16
  40418c:	4617      	mov	r7, r2
  40418e:	42be      	cmp	r6, r7
  404190:	d83d      	bhi.n	40420e <_realloc_r+0xae>
  404192:	4294      	cmp	r4, r2
  404194:	da43      	bge.n	40421e <_realloc_r+0xbe>
  404196:	4bc4      	ldr	r3, [pc, #784]	; (4044a8 <_realloc_r+0x348>)
  404198:	6899      	ldr	r1, [r3, #8]
  40419a:	eb09 0004 	add.w	r0, r9, r4
  40419e:	4288      	cmp	r0, r1
  4041a0:	f000 80b4 	beq.w	40430c <_realloc_r+0x1ac>
  4041a4:	6843      	ldr	r3, [r0, #4]
  4041a6:	f023 0101 	bic.w	r1, r3, #1
  4041aa:	4401      	add	r1, r0
  4041ac:	6849      	ldr	r1, [r1, #4]
  4041ae:	07c9      	lsls	r1, r1, #31
  4041b0:	d54c      	bpl.n	40424c <_realloc_r+0xec>
  4041b2:	f01e 0f01 	tst.w	lr, #1
  4041b6:	f000 809b 	beq.w	4042f0 <_realloc_r+0x190>
  4041ba:	4631      	mov	r1, r6
  4041bc:	4640      	mov	r0, r8
  4041be:	f7ff fc47 	bl	403a50 <_malloc_r>
  4041c2:	4606      	mov	r6, r0
  4041c4:	2800      	cmp	r0, #0
  4041c6:	d03a      	beq.n	40423e <_realloc_r+0xde>
  4041c8:	f855 3c04 	ldr.w	r3, [r5, #-4]
  4041cc:	f023 0301 	bic.w	r3, r3, #1
  4041d0:	444b      	add	r3, r9
  4041d2:	f1a0 0208 	sub.w	r2, r0, #8
  4041d6:	429a      	cmp	r2, r3
  4041d8:	f000 8121 	beq.w	40441e <_realloc_r+0x2be>
  4041dc:	1f22      	subs	r2, r4, #4
  4041de:	2a24      	cmp	r2, #36	; 0x24
  4041e0:	f200 8107 	bhi.w	4043f2 <_realloc_r+0x292>
  4041e4:	2a13      	cmp	r2, #19
  4041e6:	f200 80db 	bhi.w	4043a0 <_realloc_r+0x240>
  4041ea:	4603      	mov	r3, r0
  4041ec:	462a      	mov	r2, r5
  4041ee:	6811      	ldr	r1, [r2, #0]
  4041f0:	6019      	str	r1, [r3, #0]
  4041f2:	6851      	ldr	r1, [r2, #4]
  4041f4:	6059      	str	r1, [r3, #4]
  4041f6:	6892      	ldr	r2, [r2, #8]
  4041f8:	609a      	str	r2, [r3, #8]
  4041fa:	4629      	mov	r1, r5
  4041fc:	4640      	mov	r0, r8
  4041fe:	f7ff f909 	bl	403414 <_free_r>
  404202:	e01c      	b.n	40423e <_realloc_r+0xde>
  404204:	f027 0707 	bic.w	r7, r7, #7
  404208:	2f00      	cmp	r7, #0
  40420a:	463a      	mov	r2, r7
  40420c:	dabf      	bge.n	40418e <_realloc_r+0x2e>
  40420e:	2600      	movs	r6, #0
  404210:	230c      	movs	r3, #12
  404212:	4630      	mov	r0, r6
  404214:	f8c8 3000 	str.w	r3, [r8]
  404218:	b003      	add	sp, #12
  40421a:	e8bd 8ff0 	ldmia.w	sp!, {r4, r5, r6, r7, r8, r9, sl, fp, pc}
  40421e:	462e      	mov	r6, r5
  404220:	1be3      	subs	r3, r4, r7
  404222:	2b0f      	cmp	r3, #15
  404224:	d81e      	bhi.n	404264 <_realloc_r+0x104>
  404226:	f8d9 3004 	ldr.w	r3, [r9, #4]
  40422a:	f003 0301 	and.w	r3, r3, #1
  40422e:	4323      	orrs	r3, r4
  404230:	444c      	add	r4, r9
  404232:	f8c9 3004 	str.w	r3, [r9, #4]
  404236:	6863      	ldr	r3, [r4, #4]
  404238:	f043 0301 	orr.w	r3, r3, #1
  40423c:	6063      	str	r3, [r4, #4]
  40423e:	4640      	mov	r0, r8
  404240:	f7ff ff88 	bl	404154 <__malloc_unlock>
  404244:	4630      	mov	r0, r6
  404246:	b003      	add	sp, #12
  404248:	e8bd 8ff0 	ldmia.w	sp!, {r4, r5, r6, r7, r8, r9, sl, fp, pc}
  40424c:	f023 0303 	bic.w	r3, r3, #3
  404250:	18e1      	adds	r1, r4, r3
  404252:	4291      	cmp	r1, r2
  404254:	db1f      	blt.n	404296 <_realloc_r+0x136>
  404256:	68c3      	ldr	r3, [r0, #12]
  404258:	6882      	ldr	r2, [r0, #8]
  40425a:	462e      	mov	r6, r5
  40425c:	60d3      	str	r3, [r2, #12]
  40425e:	460c      	mov	r4, r1
  404260:	609a      	str	r2, [r3, #8]
  404262:	e7dd      	b.n	404220 <_realloc_r+0xc0>
  404264:	f8d9 2004 	ldr.w	r2, [r9, #4]
  404268:	eb09 0107 	add.w	r1, r9, r7
  40426c:	f002 0201 	and.w	r2, r2, #1
  404270:	444c      	add	r4, r9
  404272:	f043 0301 	orr.w	r3, r3, #1
  404276:	4317      	orrs	r7, r2
  404278:	f8c9 7004 	str.w	r7, [r9, #4]
  40427c:	604b      	str	r3, [r1, #4]
  40427e:	6863      	ldr	r3, [r4, #4]
  404280:	f043 0301 	orr.w	r3, r3, #1
  404284:	3108      	adds	r1, #8
  404286:	6063      	str	r3, [r4, #4]
  404288:	4640      	mov	r0, r8
  40428a:	f7ff f8c3 	bl	403414 <_free_r>
  40428e:	e7d6      	b.n	40423e <_realloc_r+0xde>
  404290:	4611      	mov	r1, r2
  404292:	f7ff bbdd 	b.w	403a50 <_malloc_r>
  404296:	f01e 0f01 	tst.w	lr, #1
  40429a:	d18e      	bne.n	4041ba <_realloc_r+0x5a>
  40429c:	f855 1c08 	ldr.w	r1, [r5, #-8]
  4042a0:	eba9 0a01 	sub.w	sl, r9, r1
  4042a4:	f8da 1004 	ldr.w	r1, [sl, #4]
  4042a8:	f021 0103 	bic.w	r1, r1, #3
  4042ac:	440b      	add	r3, r1
  4042ae:	4423      	add	r3, r4
  4042b0:	4293      	cmp	r3, r2
  4042b2:	db25      	blt.n	404300 <_realloc_r+0x1a0>
  4042b4:	68c2      	ldr	r2, [r0, #12]
  4042b6:	6881      	ldr	r1, [r0, #8]
  4042b8:	4656      	mov	r6, sl
  4042ba:	60ca      	str	r2, [r1, #12]
  4042bc:	6091      	str	r1, [r2, #8]
  4042be:	f8da 100c 	ldr.w	r1, [sl, #12]
  4042c2:	f856 0f08 	ldr.w	r0, [r6, #8]!
  4042c6:	1f22      	subs	r2, r4, #4
  4042c8:	2a24      	cmp	r2, #36	; 0x24
  4042ca:	60c1      	str	r1, [r0, #12]
  4042cc:	6088      	str	r0, [r1, #8]
  4042ce:	f200 8094 	bhi.w	4043fa <_realloc_r+0x29a>
  4042d2:	2a13      	cmp	r2, #19
  4042d4:	d96f      	bls.n	4043b6 <_realloc_r+0x256>
  4042d6:	6829      	ldr	r1, [r5, #0]
  4042d8:	f8ca 1008 	str.w	r1, [sl, #8]
  4042dc:	6869      	ldr	r1, [r5, #4]
  4042de:	f8ca 100c 	str.w	r1, [sl, #12]
  4042e2:	2a1b      	cmp	r2, #27
  4042e4:	f200 80a2 	bhi.w	40442c <_realloc_r+0x2cc>
  4042e8:	3508      	adds	r5, #8
  4042ea:	f10a 0210 	add.w	r2, sl, #16
  4042ee:	e063      	b.n	4043b8 <_realloc_r+0x258>
  4042f0:	f855 3c08 	ldr.w	r3, [r5, #-8]
  4042f4:	eba9 0a03 	sub.w	sl, r9, r3
  4042f8:	f8da 1004 	ldr.w	r1, [sl, #4]
  4042fc:	f021 0103 	bic.w	r1, r1, #3
  404300:	1863      	adds	r3, r4, r1
  404302:	4293      	cmp	r3, r2
  404304:	f6ff af59 	blt.w	4041ba <_realloc_r+0x5a>
  404308:	4656      	mov	r6, sl
  40430a:	e7d8      	b.n	4042be <_realloc_r+0x15e>
  40430c:	6841      	ldr	r1, [r0, #4]
  40430e:	f021 0b03 	bic.w	fp, r1, #3
  404312:	44a3      	add	fp, r4
  404314:	f107 0010 	add.w	r0, r7, #16
  404318:	4583      	cmp	fp, r0
  40431a:	da56      	bge.n	4043ca <_realloc_r+0x26a>
  40431c:	f01e 0f01 	tst.w	lr, #1
  404320:	f47f af4b 	bne.w	4041ba <_realloc_r+0x5a>
  404324:	f855 1c08 	ldr.w	r1, [r5, #-8]
  404328:	eba9 0a01 	sub.w	sl, r9, r1
  40432c:	f8da 1004 	ldr.w	r1, [sl, #4]
  404330:	f021 0103 	bic.w	r1, r1, #3
  404334:	448b      	add	fp, r1
  404336:	4558      	cmp	r0, fp
  404338:	dce2      	bgt.n	404300 <_realloc_r+0x1a0>
  40433a:	4656      	mov	r6, sl
  40433c:	f8da 100c 	ldr.w	r1, [sl, #12]
  404340:	f856 0f08 	ldr.w	r0, [r6, #8]!
  404344:	1f22      	subs	r2, r4, #4
  404346:	2a24      	cmp	r2, #36	; 0x24
  404348:	60c1      	str	r1, [r0, #12]
  40434a:	6088      	str	r0, [r1, #8]
  40434c:	f200 808f 	bhi.w	40446e <_realloc_r+0x30e>
  404350:	2a13      	cmp	r2, #19
  404352:	f240 808a 	bls.w	40446a <_realloc_r+0x30a>
  404356:	6829      	ldr	r1, [r5, #0]
  404358:	f8ca 1008 	str.w	r1, [sl, #8]
  40435c:	6869      	ldr	r1, [r5, #4]
  40435e:	f8ca 100c 	str.w	r1, [sl, #12]
  404362:	2a1b      	cmp	r2, #27
  404364:	f200 808a 	bhi.w	40447c <_realloc_r+0x31c>
  404368:	3508      	adds	r5, #8
  40436a:	f10a 0210 	add.w	r2, sl, #16
  40436e:	6829      	ldr	r1, [r5, #0]
  404370:	6011      	str	r1, [r2, #0]
  404372:	6869      	ldr	r1, [r5, #4]
  404374:	6051      	str	r1, [r2, #4]
  404376:	68a9      	ldr	r1, [r5, #8]
  404378:	6091      	str	r1, [r2, #8]
  40437a:	eb0a 0107 	add.w	r1, sl, r7
  40437e:	ebab 0207 	sub.w	r2, fp, r7
  404382:	f042 0201 	orr.w	r2, r2, #1
  404386:	6099      	str	r1, [r3, #8]
  404388:	604a      	str	r2, [r1, #4]
  40438a:	f8da 3004 	ldr.w	r3, [sl, #4]
  40438e:	f003 0301 	and.w	r3, r3, #1
  404392:	431f      	orrs	r7, r3
  404394:	4640      	mov	r0, r8
  404396:	f8ca 7004 	str.w	r7, [sl, #4]
  40439a:	f7ff fedb 	bl	404154 <__malloc_unlock>
  40439e:	e751      	b.n	404244 <_realloc_r+0xe4>
  4043a0:	682b      	ldr	r3, [r5, #0]
  4043a2:	6003      	str	r3, [r0, #0]
  4043a4:	686b      	ldr	r3, [r5, #4]
  4043a6:	6043      	str	r3, [r0, #4]
  4043a8:	2a1b      	cmp	r2, #27
  4043aa:	d82d      	bhi.n	404408 <_realloc_r+0x2a8>
  4043ac:	f100 0308 	add.w	r3, r0, #8
  4043b0:	f105 0208 	add.w	r2, r5, #8
  4043b4:	e71b      	b.n	4041ee <_realloc_r+0x8e>
  4043b6:	4632      	mov	r2, r6
  4043b8:	6829      	ldr	r1, [r5, #0]
  4043ba:	6011      	str	r1, [r2, #0]
  4043bc:	6869      	ldr	r1, [r5, #4]
  4043be:	6051      	str	r1, [r2, #4]
  4043c0:	68a9      	ldr	r1, [r5, #8]
  4043c2:	6091      	str	r1, [r2, #8]
  4043c4:	461c      	mov	r4, r3
  4043c6:	46d1      	mov	r9, sl
  4043c8:	e72a      	b.n	404220 <_realloc_r+0xc0>
  4043ca:	eb09 0107 	add.w	r1, r9, r7
  4043ce:	ebab 0b07 	sub.w	fp, fp, r7
  4043d2:	f04b 0201 	orr.w	r2, fp, #1
  4043d6:	6099      	str	r1, [r3, #8]
  4043d8:	604a      	str	r2, [r1, #4]
  4043da:	f855 3c04 	ldr.w	r3, [r5, #-4]
  4043de:	f003 0301 	and.w	r3, r3, #1
  4043e2:	431f      	orrs	r7, r3
  4043e4:	4640      	mov	r0, r8
  4043e6:	f845 7c04 	str.w	r7, [r5, #-4]
  4043ea:	f7ff feb3 	bl	404154 <__malloc_unlock>
  4043ee:	462e      	mov	r6, r5
  4043f0:	e728      	b.n	404244 <_realloc_r+0xe4>
  4043f2:	4629      	mov	r1, r5
  4043f4:	f7ff fe44 	bl	404080 <memmove>
  4043f8:	e6ff      	b.n	4041fa <_realloc_r+0x9a>
  4043fa:	4629      	mov	r1, r5
  4043fc:	4630      	mov	r0, r6
  4043fe:	461c      	mov	r4, r3
  404400:	46d1      	mov	r9, sl
  404402:	f7ff fe3d 	bl	404080 <memmove>
  404406:	e70b      	b.n	404220 <_realloc_r+0xc0>
  404408:	68ab      	ldr	r3, [r5, #8]
  40440a:	6083      	str	r3, [r0, #8]
  40440c:	68eb      	ldr	r3, [r5, #12]
  40440e:	60c3      	str	r3, [r0, #12]
  404410:	2a24      	cmp	r2, #36	; 0x24
  404412:	d017      	beq.n	404444 <_realloc_r+0x2e4>
  404414:	f100 0310 	add.w	r3, r0, #16
  404418:	f105 0210 	add.w	r2, r5, #16
  40441c:	e6e7      	b.n	4041ee <_realloc_r+0x8e>
  40441e:	f850 3c04 	ldr.w	r3, [r0, #-4]
  404422:	f023 0303 	bic.w	r3, r3, #3
  404426:	441c      	add	r4, r3
  404428:	462e      	mov	r6, r5
  40442a:	e6f9      	b.n	404220 <_realloc_r+0xc0>
  40442c:	68a9      	ldr	r1, [r5, #8]
  40442e:	f8ca 1010 	str.w	r1, [sl, #16]
  404432:	68e9      	ldr	r1, [r5, #12]
  404434:	f8ca 1014 	str.w	r1, [sl, #20]
  404438:	2a24      	cmp	r2, #36	; 0x24
  40443a:	d00c      	beq.n	404456 <_realloc_r+0x2f6>
  40443c:	3510      	adds	r5, #16
  40443e:	f10a 0218 	add.w	r2, sl, #24
  404442:	e7b9      	b.n	4043b8 <_realloc_r+0x258>
  404444:	692b      	ldr	r3, [r5, #16]
  404446:	6103      	str	r3, [r0, #16]
  404448:	696b      	ldr	r3, [r5, #20]
  40444a:	6143      	str	r3, [r0, #20]
  40444c:	f105 0218 	add.w	r2, r5, #24
  404450:	f100 0318 	add.w	r3, r0, #24
  404454:	e6cb      	b.n	4041ee <_realloc_r+0x8e>
  404456:	692a      	ldr	r2, [r5, #16]
  404458:	f8ca 2018 	str.w	r2, [sl, #24]
  40445c:	696a      	ldr	r2, [r5, #20]
  40445e:	f8ca 201c 	str.w	r2, [sl, #28]
  404462:	3518      	adds	r5, #24
  404464:	f10a 0220 	add.w	r2, sl, #32
  404468:	e7a6      	b.n	4043b8 <_realloc_r+0x258>
  40446a:	4632      	mov	r2, r6
  40446c:	e77f      	b.n	40436e <_realloc_r+0x20e>
  40446e:	4629      	mov	r1, r5
  404470:	4630      	mov	r0, r6
  404472:	9301      	str	r3, [sp, #4]
  404474:	f7ff fe04 	bl	404080 <memmove>
  404478:	9b01      	ldr	r3, [sp, #4]
  40447a:	e77e      	b.n	40437a <_realloc_r+0x21a>
  40447c:	68a9      	ldr	r1, [r5, #8]
  40447e:	f8ca 1010 	str.w	r1, [sl, #16]
  404482:	68e9      	ldr	r1, [r5, #12]
  404484:	f8ca 1014 	str.w	r1, [sl, #20]
  404488:	2a24      	cmp	r2, #36	; 0x24
  40448a:	d003      	beq.n	404494 <_realloc_r+0x334>
  40448c:	3510      	adds	r5, #16
  40448e:	f10a 0218 	add.w	r2, sl, #24
  404492:	e76c      	b.n	40436e <_realloc_r+0x20e>
  404494:	692a      	ldr	r2, [r5, #16]
  404496:	f8ca 2018 	str.w	r2, [sl, #24]
  40449a:	696a      	ldr	r2, [r5, #20]
  40449c:	f8ca 201c 	str.w	r2, [sl, #28]
  4044a0:	3518      	adds	r5, #24
  4044a2:	f10a 0220 	add.w	r2, sl, #32
  4044a6:	e762      	b.n	40436e <_realloc_r+0x20e>
  4044a8:	204005b0 	.word	0x204005b0

004044ac <_sbrk_r>:
  4044ac:	b538      	push	{r3, r4, r5, lr}
  4044ae:	4c07      	ldr	r4, [pc, #28]	; (4044cc <_sbrk_r+0x20>)
  4044b0:	2300      	movs	r3, #0
  4044b2:	4605      	mov	r5, r0
  4044b4:	4608      	mov	r0, r1
  4044b6:	6023      	str	r3, [r4, #0]
  4044b8:	f7fc fb84 	bl	400bc4 <_sbrk>
  4044bc:	1c43      	adds	r3, r0, #1
  4044be:	d000      	beq.n	4044c2 <_sbrk_r+0x16>
  4044c0:	bd38      	pop	{r3, r4, r5, pc}
  4044c2:	6823      	ldr	r3, [r4, #0]
  4044c4:	2b00      	cmp	r3, #0
  4044c6:	d0fb      	beq.n	4044c0 <_sbrk_r+0x14>
  4044c8:	602b      	str	r3, [r5, #0]
  4044ca:	bd38      	pop	{r3, r4, r5, pc}
  4044cc:	20400b00 	.word	0x20400b00

004044d0 <__sread>:
  4044d0:	b510      	push	{r4, lr}
  4044d2:	460c      	mov	r4, r1
  4044d4:	f9b1 100e 	ldrsh.w	r1, [r1, #14]
  4044d8:	f000 f9f6 	bl	4048c8 <_read_r>
  4044dc:	2800      	cmp	r0, #0
  4044de:	db03      	blt.n	4044e8 <__sread+0x18>
  4044e0:	6d23      	ldr	r3, [r4, #80]	; 0x50
  4044e2:	4403      	add	r3, r0
  4044e4:	6523      	str	r3, [r4, #80]	; 0x50
  4044e6:	bd10      	pop	{r4, pc}
  4044e8:	89a3      	ldrh	r3, [r4, #12]
  4044ea:	f423 5380 	bic.w	r3, r3, #4096	; 0x1000
  4044ee:	81a3      	strh	r3, [r4, #12]
  4044f0:	bd10      	pop	{r4, pc}
  4044f2:	bf00      	nop

004044f4 <__swrite>:
  4044f4:	e92d 41f0 	stmdb	sp!, {r4, r5, r6, r7, r8, lr}
  4044f8:	4616      	mov	r6, r2
  4044fa:	f9b1 200c 	ldrsh.w	r2, [r1, #12]
  4044fe:	461f      	mov	r7, r3
  404500:	05d3      	lsls	r3, r2, #23
  404502:	460c      	mov	r4, r1
  404504:	4605      	mov	r5, r0
  404506:	d507      	bpl.n	404518 <__swrite+0x24>
  404508:	2200      	movs	r2, #0
  40450a:	2302      	movs	r3, #2
  40450c:	f9b1 100e 	ldrsh.w	r1, [r1, #14]
  404510:	f000 f9c4 	bl	40489c <_lseek_r>
  404514:	f9b4 200c 	ldrsh.w	r2, [r4, #12]
  404518:	f9b4 100e 	ldrsh.w	r1, [r4, #14]
  40451c:	f422 5280 	bic.w	r2, r2, #4096	; 0x1000
  404520:	81a2      	strh	r2, [r4, #12]
  404522:	463b      	mov	r3, r7
  404524:	4632      	mov	r2, r6
  404526:	4628      	mov	r0, r5
  404528:	e8bd 41f0 	ldmia.w	sp!, {r4, r5, r6, r7, r8, lr}
  40452c:	f000 b8a4 	b.w	404678 <_write_r>

00404530 <__sseek>:
  404530:	b510      	push	{r4, lr}
  404532:	460c      	mov	r4, r1
  404534:	f9b1 100e 	ldrsh.w	r1, [r1, #14]
  404538:	f000 f9b0 	bl	40489c <_lseek_r>
  40453c:	89a3      	ldrh	r3, [r4, #12]
  40453e:	1c42      	adds	r2, r0, #1
  404540:	bf0e      	itee	eq
  404542:	f423 5380 	biceq.w	r3, r3, #4096	; 0x1000
  404546:	f443 5380 	orrne.w	r3, r3, #4096	; 0x1000
  40454a:	6520      	strne	r0, [r4, #80]	; 0x50
  40454c:	81a3      	strh	r3, [r4, #12]
  40454e:	bd10      	pop	{r4, pc}

00404550 <__sclose>:
  404550:	f9b1 100e 	ldrsh.w	r1, [r1, #14]
  404554:	f000 b908 	b.w	404768 <_close_r>

00404558 <__swbuf_r>:
  404558:	b5f8      	push	{r3, r4, r5, r6, r7, lr}
  40455a:	460d      	mov	r5, r1
  40455c:	4614      	mov	r4, r2
  40455e:	4606      	mov	r6, r0
  404560:	b110      	cbz	r0, 404568 <__swbuf_r+0x10>
  404562:	6b83      	ldr	r3, [r0, #56]	; 0x38
  404564:	2b00      	cmp	r3, #0
  404566:	d04b      	beq.n	404600 <__swbuf_r+0xa8>
  404568:	f9b4 200c 	ldrsh.w	r2, [r4, #12]
  40456c:	69a3      	ldr	r3, [r4, #24]
  40456e:	60a3      	str	r3, [r4, #8]
  404570:	b291      	uxth	r1, r2
  404572:	0708      	lsls	r0, r1, #28
  404574:	d539      	bpl.n	4045ea <__swbuf_r+0x92>
  404576:	6923      	ldr	r3, [r4, #16]
  404578:	2b00      	cmp	r3, #0
  40457a:	d036      	beq.n	4045ea <__swbuf_r+0x92>
  40457c:	b2ed      	uxtb	r5, r5
  40457e:	0489      	lsls	r1, r1, #18
  404580:	462f      	mov	r7, r5
  404582:	d515      	bpl.n	4045b0 <__swbuf_r+0x58>
  404584:	6822      	ldr	r2, [r4, #0]
  404586:	6961      	ldr	r1, [r4, #20]
  404588:	1ad3      	subs	r3, r2, r3
  40458a:	428b      	cmp	r3, r1
  40458c:	da1c      	bge.n	4045c8 <__swbuf_r+0x70>
  40458e:	3301      	adds	r3, #1
  404590:	68a1      	ldr	r1, [r4, #8]
  404592:	1c50      	adds	r0, r2, #1
  404594:	3901      	subs	r1, #1
  404596:	60a1      	str	r1, [r4, #8]
  404598:	6020      	str	r0, [r4, #0]
  40459a:	7015      	strb	r5, [r2, #0]
  40459c:	6962      	ldr	r2, [r4, #20]
  40459e:	429a      	cmp	r2, r3
  4045a0:	d01a      	beq.n	4045d8 <__swbuf_r+0x80>
  4045a2:	89a3      	ldrh	r3, [r4, #12]
  4045a4:	07db      	lsls	r3, r3, #31
  4045a6:	d501      	bpl.n	4045ac <__swbuf_r+0x54>
  4045a8:	2d0a      	cmp	r5, #10
  4045aa:	d015      	beq.n	4045d8 <__swbuf_r+0x80>
  4045ac:	4638      	mov	r0, r7
  4045ae:	bdf8      	pop	{r3, r4, r5, r6, r7, pc}
  4045b0:	6e61      	ldr	r1, [r4, #100]	; 0x64
  4045b2:	f442 5200 	orr.w	r2, r2, #8192	; 0x2000
  4045b6:	f421 5100 	bic.w	r1, r1, #8192	; 0x2000
  4045ba:	81a2      	strh	r2, [r4, #12]
  4045bc:	6822      	ldr	r2, [r4, #0]
  4045be:	6661      	str	r1, [r4, #100]	; 0x64
  4045c0:	6961      	ldr	r1, [r4, #20]
  4045c2:	1ad3      	subs	r3, r2, r3
  4045c4:	428b      	cmp	r3, r1
  4045c6:	dbe2      	blt.n	40458e <__swbuf_r+0x36>
  4045c8:	4621      	mov	r1, r4
  4045ca:	4630      	mov	r0, r6
  4045cc:	f7fe fda4 	bl	403118 <_fflush_r>
  4045d0:	b940      	cbnz	r0, 4045e4 <__swbuf_r+0x8c>
  4045d2:	6822      	ldr	r2, [r4, #0]
  4045d4:	2301      	movs	r3, #1
  4045d6:	e7db      	b.n	404590 <__swbuf_r+0x38>
  4045d8:	4621      	mov	r1, r4
  4045da:	4630      	mov	r0, r6
  4045dc:	f7fe fd9c 	bl	403118 <_fflush_r>
  4045e0:	2800      	cmp	r0, #0
  4045e2:	d0e3      	beq.n	4045ac <__swbuf_r+0x54>
  4045e4:	f04f 37ff 	mov.w	r7, #4294967295
  4045e8:	e7e0      	b.n	4045ac <__swbuf_r+0x54>
  4045ea:	4621      	mov	r1, r4
  4045ec:	4630      	mov	r0, r6
  4045ee:	f7fe fc7f 	bl	402ef0 <__swsetup_r>
  4045f2:	2800      	cmp	r0, #0
  4045f4:	d1f6      	bne.n	4045e4 <__swbuf_r+0x8c>
  4045f6:	f9b4 200c 	ldrsh.w	r2, [r4, #12]
  4045fa:	6923      	ldr	r3, [r4, #16]
  4045fc:	b291      	uxth	r1, r2
  4045fe:	e7bd      	b.n	40457c <__swbuf_r+0x24>
  404600:	f7fe fde2 	bl	4031c8 <__sinit>
  404604:	e7b0      	b.n	404568 <__swbuf_r+0x10>
  404606:	bf00      	nop

00404608 <_wcrtomb_r>:
  404608:	b5f0      	push	{r4, r5, r6, r7, lr}
  40460a:	4606      	mov	r6, r0
  40460c:	b085      	sub	sp, #20
  40460e:	461f      	mov	r7, r3
  404610:	b189      	cbz	r1, 404636 <_wcrtomb_r+0x2e>
  404612:	4c10      	ldr	r4, [pc, #64]	; (404654 <_wcrtomb_r+0x4c>)
  404614:	4d10      	ldr	r5, [pc, #64]	; (404658 <_wcrtomb_r+0x50>)
  404616:	6824      	ldr	r4, [r4, #0]
  404618:	6b64      	ldr	r4, [r4, #52]	; 0x34
  40461a:	2c00      	cmp	r4, #0
  40461c:	bf08      	it	eq
  40461e:	462c      	moveq	r4, r5
  404620:	f8d4 40e0 	ldr.w	r4, [r4, #224]	; 0xe0
  404624:	47a0      	blx	r4
  404626:	1c43      	adds	r3, r0, #1
  404628:	d103      	bne.n	404632 <_wcrtomb_r+0x2a>
  40462a:	2200      	movs	r2, #0
  40462c:	238a      	movs	r3, #138	; 0x8a
  40462e:	603a      	str	r2, [r7, #0]
  404630:	6033      	str	r3, [r6, #0]
  404632:	b005      	add	sp, #20
  404634:	bdf0      	pop	{r4, r5, r6, r7, pc}
  404636:	460c      	mov	r4, r1
  404638:	4906      	ldr	r1, [pc, #24]	; (404654 <_wcrtomb_r+0x4c>)
  40463a:	4a07      	ldr	r2, [pc, #28]	; (404658 <_wcrtomb_r+0x50>)
  40463c:	6809      	ldr	r1, [r1, #0]
  40463e:	6b49      	ldr	r1, [r1, #52]	; 0x34
  404640:	2900      	cmp	r1, #0
  404642:	bf08      	it	eq
  404644:	4611      	moveq	r1, r2
  404646:	4622      	mov	r2, r4
  404648:	f8d1 40e0 	ldr.w	r4, [r1, #224]	; 0xe0
  40464c:	a901      	add	r1, sp, #4
  40464e:	47a0      	blx	r4
  404650:	e7e9      	b.n	404626 <_wcrtomb_r+0x1e>
  404652:	bf00      	nop
  404654:	20400014 	.word	0x20400014
  404658:	20400444 	.word	0x20400444

0040465c <__ascii_wctomb>:
  40465c:	b121      	cbz	r1, 404668 <__ascii_wctomb+0xc>
  40465e:	2aff      	cmp	r2, #255	; 0xff
  404660:	d804      	bhi.n	40466c <__ascii_wctomb+0x10>
  404662:	700a      	strb	r2, [r1, #0]
  404664:	2001      	movs	r0, #1
  404666:	4770      	bx	lr
  404668:	4608      	mov	r0, r1
  40466a:	4770      	bx	lr
  40466c:	238a      	movs	r3, #138	; 0x8a
  40466e:	6003      	str	r3, [r0, #0]
  404670:	f04f 30ff 	mov.w	r0, #4294967295
  404674:	4770      	bx	lr
  404676:	bf00      	nop

00404678 <_write_r>:
  404678:	b570      	push	{r4, r5, r6, lr}
  40467a:	460d      	mov	r5, r1
  40467c:	4c08      	ldr	r4, [pc, #32]	; (4046a0 <_write_r+0x28>)
  40467e:	4611      	mov	r1, r2
  404680:	4606      	mov	r6, r0
  404682:	461a      	mov	r2, r3
  404684:	4628      	mov	r0, r5
  404686:	2300      	movs	r3, #0
  404688:	6023      	str	r3, [r4, #0]
  40468a:	f7fb fe4b 	bl	400324 <_write>
  40468e:	1c43      	adds	r3, r0, #1
  404690:	d000      	beq.n	404694 <_write_r+0x1c>
  404692:	bd70      	pop	{r4, r5, r6, pc}
  404694:	6823      	ldr	r3, [r4, #0]
  404696:	2b00      	cmp	r3, #0
  404698:	d0fb      	beq.n	404692 <_write_r+0x1a>
  40469a:	6033      	str	r3, [r6, #0]
  40469c:	bd70      	pop	{r4, r5, r6, pc}
  40469e:	bf00      	nop
  4046a0:	20400b00 	.word	0x20400b00

004046a4 <__register_exitproc>:
  4046a4:	e92d 43f8 	stmdb	sp!, {r3, r4, r5, r6, r7, r8, r9, lr}
  4046a8:	4d2c      	ldr	r5, [pc, #176]	; (40475c <__register_exitproc+0xb8>)
  4046aa:	4606      	mov	r6, r0
  4046ac:	6828      	ldr	r0, [r5, #0]
  4046ae:	4698      	mov	r8, r3
  4046b0:	460f      	mov	r7, r1
  4046b2:	4691      	mov	r9, r2
  4046b4:	f7ff f948 	bl	403948 <__retarget_lock_acquire_recursive>
  4046b8:	4b29      	ldr	r3, [pc, #164]	; (404760 <__register_exitproc+0xbc>)
  4046ba:	681c      	ldr	r4, [r3, #0]
  4046bc:	f8d4 3148 	ldr.w	r3, [r4, #328]	; 0x148
  4046c0:	2b00      	cmp	r3, #0
  4046c2:	d03e      	beq.n	404742 <__register_exitproc+0x9e>
  4046c4:	685a      	ldr	r2, [r3, #4]
  4046c6:	2a1f      	cmp	r2, #31
  4046c8:	dc1c      	bgt.n	404704 <__register_exitproc+0x60>
  4046ca:	f102 0e01 	add.w	lr, r2, #1
  4046ce:	b176      	cbz	r6, 4046ee <__register_exitproc+0x4a>
  4046d0:	eb03 0182 	add.w	r1, r3, r2, lsl #2
  4046d4:	2401      	movs	r4, #1
  4046d6:	f8c1 9088 	str.w	r9, [r1, #136]	; 0x88
  4046da:	f8d3 0188 	ldr.w	r0, [r3, #392]	; 0x188
  4046de:	4094      	lsls	r4, r2
  4046e0:	4320      	orrs	r0, r4
  4046e2:	2e02      	cmp	r6, #2
  4046e4:	f8c3 0188 	str.w	r0, [r3, #392]	; 0x188
  4046e8:	f8c1 8108 	str.w	r8, [r1, #264]	; 0x108
  4046ec:	d023      	beq.n	404736 <__register_exitproc+0x92>
  4046ee:	3202      	adds	r2, #2
  4046f0:	f8c3 e004 	str.w	lr, [r3, #4]
  4046f4:	6828      	ldr	r0, [r5, #0]
  4046f6:	f843 7022 	str.w	r7, [r3, r2, lsl #2]
  4046fa:	f7ff f927 	bl	40394c <__retarget_lock_release_recursive>
  4046fe:	2000      	movs	r0, #0
  404700:	e8bd 83f8 	ldmia.w	sp!, {r3, r4, r5, r6, r7, r8, r9, pc}
  404704:	4b17      	ldr	r3, [pc, #92]	; (404764 <__register_exitproc+0xc0>)
  404706:	b30b      	cbz	r3, 40474c <__register_exitproc+0xa8>
  404708:	f44f 70c8 	mov.w	r0, #400	; 0x190
  40470c:	f7ff f998 	bl	403a40 <malloc>
  404710:	4603      	mov	r3, r0
  404712:	b1d8      	cbz	r0, 40474c <__register_exitproc+0xa8>
  404714:	f8d4 2148 	ldr.w	r2, [r4, #328]	; 0x148
  404718:	6002      	str	r2, [r0, #0]
  40471a:	2100      	movs	r1, #0
  40471c:	6041      	str	r1, [r0, #4]
  40471e:	460a      	mov	r2, r1
  404720:	f8c4 0148 	str.w	r0, [r4, #328]	; 0x148
  404724:	f04f 0e01 	mov.w	lr, #1
  404728:	f8c0 1188 	str.w	r1, [r0, #392]	; 0x188
  40472c:	f8c0 118c 	str.w	r1, [r0, #396]	; 0x18c
  404730:	2e00      	cmp	r6, #0
  404732:	d0dc      	beq.n	4046ee <__register_exitproc+0x4a>
  404734:	e7cc      	b.n	4046d0 <__register_exitproc+0x2c>
  404736:	f8d3 118c 	ldr.w	r1, [r3, #396]	; 0x18c
  40473a:	430c      	orrs	r4, r1
  40473c:	f8c3 418c 	str.w	r4, [r3, #396]	; 0x18c
  404740:	e7d5      	b.n	4046ee <__register_exitproc+0x4a>
  404742:	f504 73a6 	add.w	r3, r4, #332	; 0x14c
  404746:	f8c4 3148 	str.w	r3, [r4, #328]	; 0x148
  40474a:	e7bb      	b.n	4046c4 <__register_exitproc+0x20>
  40474c:	6828      	ldr	r0, [r5, #0]
  40474e:	f7ff f8fd 	bl	40394c <__retarget_lock_release_recursive>
  404752:	f04f 30ff 	mov.w	r0, #4294967295
  404756:	e8bd 83f8 	ldmia.w	sp!, {r3, r4, r5, r6, r7, r8, r9, pc}
  40475a:	bf00      	nop
  40475c:	20400440 	.word	0x20400440
  404760:	00404bd0 	.word	0x00404bd0
  404764:	00403a41 	.word	0x00403a41

00404768 <_close_r>:
  404768:	b538      	push	{r3, r4, r5, lr}
  40476a:	4c07      	ldr	r4, [pc, #28]	; (404788 <_close_r+0x20>)
  40476c:	2300      	movs	r3, #0
  40476e:	4605      	mov	r5, r0
  404770:	4608      	mov	r0, r1
  404772:	6023      	str	r3, [r4, #0]
  404774:	f7fc fa42 	bl	400bfc <_close>
  404778:	1c43      	adds	r3, r0, #1
  40477a:	d000      	beq.n	40477e <_close_r+0x16>
  40477c:	bd38      	pop	{r3, r4, r5, pc}
  40477e:	6823      	ldr	r3, [r4, #0]
  404780:	2b00      	cmp	r3, #0
  404782:	d0fb      	beq.n	40477c <_close_r+0x14>
  404784:	602b      	str	r3, [r5, #0]
  404786:	bd38      	pop	{r3, r4, r5, pc}
  404788:	20400b00 	.word	0x20400b00

0040478c <_fclose_r>:
  40478c:	b570      	push	{r4, r5, r6, lr}
  40478e:	b159      	cbz	r1, 4047a8 <_fclose_r+0x1c>
  404790:	4605      	mov	r5, r0
  404792:	460c      	mov	r4, r1
  404794:	b110      	cbz	r0, 40479c <_fclose_r+0x10>
  404796:	6b83      	ldr	r3, [r0, #56]	; 0x38
  404798:	2b00      	cmp	r3, #0
  40479a:	d03c      	beq.n	404816 <_fclose_r+0x8a>
  40479c:	6e63      	ldr	r3, [r4, #100]	; 0x64
  40479e:	07d8      	lsls	r0, r3, #31
  4047a0:	d505      	bpl.n	4047ae <_fclose_r+0x22>
  4047a2:	f9b4 300c 	ldrsh.w	r3, [r4, #12]
  4047a6:	b92b      	cbnz	r3, 4047b4 <_fclose_r+0x28>
  4047a8:	2600      	movs	r6, #0
  4047aa:	4630      	mov	r0, r6
  4047ac:	bd70      	pop	{r4, r5, r6, pc}
  4047ae:	89a3      	ldrh	r3, [r4, #12]
  4047b0:	0599      	lsls	r1, r3, #22
  4047b2:	d53c      	bpl.n	40482e <_fclose_r+0xa2>
  4047b4:	4621      	mov	r1, r4
  4047b6:	4628      	mov	r0, r5
  4047b8:	f7fe fc0e 	bl	402fd8 <__sflush_r>
  4047bc:	6ae3      	ldr	r3, [r4, #44]	; 0x2c
  4047be:	4606      	mov	r6, r0
  4047c0:	b133      	cbz	r3, 4047d0 <_fclose_r+0x44>
  4047c2:	69e1      	ldr	r1, [r4, #28]
  4047c4:	4628      	mov	r0, r5
  4047c6:	4798      	blx	r3
  4047c8:	2800      	cmp	r0, #0
  4047ca:	bfb8      	it	lt
  4047cc:	f04f 36ff 	movlt.w	r6, #4294967295
  4047d0:	89a3      	ldrh	r3, [r4, #12]
  4047d2:	061a      	lsls	r2, r3, #24
  4047d4:	d422      	bmi.n	40481c <_fclose_r+0x90>
  4047d6:	6b21      	ldr	r1, [r4, #48]	; 0x30
  4047d8:	b141      	cbz	r1, 4047ec <_fclose_r+0x60>
  4047da:	f104 0340 	add.w	r3, r4, #64	; 0x40
  4047de:	4299      	cmp	r1, r3
  4047e0:	d002      	beq.n	4047e8 <_fclose_r+0x5c>
  4047e2:	4628      	mov	r0, r5
  4047e4:	f7fe fe16 	bl	403414 <_free_r>
  4047e8:	2300      	movs	r3, #0
  4047ea:	6323      	str	r3, [r4, #48]	; 0x30
  4047ec:	6c61      	ldr	r1, [r4, #68]	; 0x44
  4047ee:	b121      	cbz	r1, 4047fa <_fclose_r+0x6e>
  4047f0:	4628      	mov	r0, r5
  4047f2:	f7fe fe0f 	bl	403414 <_free_r>
  4047f6:	2300      	movs	r3, #0
  4047f8:	6463      	str	r3, [r4, #68]	; 0x44
  4047fa:	f7fe fd11 	bl	403220 <__sfp_lock_acquire>
  4047fe:	6e63      	ldr	r3, [r4, #100]	; 0x64
  404800:	2200      	movs	r2, #0
  404802:	07db      	lsls	r3, r3, #31
  404804:	81a2      	strh	r2, [r4, #12]
  404806:	d50e      	bpl.n	404826 <_fclose_r+0x9a>
  404808:	6da0      	ldr	r0, [r4, #88]	; 0x58
  40480a:	f7ff f89b 	bl	403944 <__retarget_lock_close_recursive>
  40480e:	f7fe fd0d 	bl	40322c <__sfp_lock_release>
  404812:	4630      	mov	r0, r6
  404814:	bd70      	pop	{r4, r5, r6, pc}
  404816:	f7fe fcd7 	bl	4031c8 <__sinit>
  40481a:	e7bf      	b.n	40479c <_fclose_r+0x10>
  40481c:	6921      	ldr	r1, [r4, #16]
  40481e:	4628      	mov	r0, r5
  404820:	f7fe fdf8 	bl	403414 <_free_r>
  404824:	e7d7      	b.n	4047d6 <_fclose_r+0x4a>
  404826:	6da0      	ldr	r0, [r4, #88]	; 0x58
  404828:	f7ff f890 	bl	40394c <__retarget_lock_release_recursive>
  40482c:	e7ec      	b.n	404808 <_fclose_r+0x7c>
  40482e:	6da0      	ldr	r0, [r4, #88]	; 0x58
  404830:	f7ff f88a 	bl	403948 <__retarget_lock_acquire_recursive>
  404834:	f9b4 300c 	ldrsh.w	r3, [r4, #12]
  404838:	2b00      	cmp	r3, #0
  40483a:	d1bb      	bne.n	4047b4 <_fclose_r+0x28>
  40483c:	6e66      	ldr	r6, [r4, #100]	; 0x64
  40483e:	f016 0601 	ands.w	r6, r6, #1
  404842:	d1b1      	bne.n	4047a8 <_fclose_r+0x1c>
  404844:	6da0      	ldr	r0, [r4, #88]	; 0x58
  404846:	f7ff f881 	bl	40394c <__retarget_lock_release_recursive>
  40484a:	4630      	mov	r0, r6
  40484c:	bd70      	pop	{r4, r5, r6, pc}
  40484e:	bf00      	nop

00404850 <_fstat_r>:
  404850:	b538      	push	{r3, r4, r5, lr}
  404852:	460b      	mov	r3, r1
  404854:	4c07      	ldr	r4, [pc, #28]	; (404874 <_fstat_r+0x24>)
  404856:	4605      	mov	r5, r0
  404858:	4611      	mov	r1, r2
  40485a:	4618      	mov	r0, r3
  40485c:	2300      	movs	r3, #0
  40485e:	6023      	str	r3, [r4, #0]
  404860:	f7fc f9cf 	bl	400c02 <_fstat>
  404864:	1c43      	adds	r3, r0, #1
  404866:	d000      	beq.n	40486a <_fstat_r+0x1a>
  404868:	bd38      	pop	{r3, r4, r5, pc}
  40486a:	6823      	ldr	r3, [r4, #0]
  40486c:	2b00      	cmp	r3, #0
  40486e:	d0fb      	beq.n	404868 <_fstat_r+0x18>
  404870:	602b      	str	r3, [r5, #0]
  404872:	bd38      	pop	{r3, r4, r5, pc}
  404874:	20400b00 	.word	0x20400b00

00404878 <_isatty_r>:
  404878:	b538      	push	{r3, r4, r5, lr}
  40487a:	4c07      	ldr	r4, [pc, #28]	; (404898 <_isatty_r+0x20>)
  40487c:	2300      	movs	r3, #0
  40487e:	4605      	mov	r5, r0
  404880:	4608      	mov	r0, r1
  404882:	6023      	str	r3, [r4, #0]
  404884:	f7fc f9c2 	bl	400c0c <_isatty>
  404888:	1c43      	adds	r3, r0, #1
  40488a:	d000      	beq.n	40488e <_isatty_r+0x16>
  40488c:	bd38      	pop	{r3, r4, r5, pc}
  40488e:	6823      	ldr	r3, [r4, #0]
  404890:	2b00      	cmp	r3, #0
  404892:	d0fb      	beq.n	40488c <_isatty_r+0x14>
  404894:	602b      	str	r3, [r5, #0]
  404896:	bd38      	pop	{r3, r4, r5, pc}
  404898:	20400b00 	.word	0x20400b00

0040489c <_lseek_r>:
  40489c:	b570      	push	{r4, r5, r6, lr}
  40489e:	460d      	mov	r5, r1
  4048a0:	4c08      	ldr	r4, [pc, #32]	; (4048c4 <_lseek_r+0x28>)
  4048a2:	4611      	mov	r1, r2
  4048a4:	4606      	mov	r6, r0
  4048a6:	461a      	mov	r2, r3
  4048a8:	4628      	mov	r0, r5
  4048aa:	2300      	movs	r3, #0
  4048ac:	6023      	str	r3, [r4, #0]
  4048ae:	f7fc f9af 	bl	400c10 <_lseek>
  4048b2:	1c43      	adds	r3, r0, #1
  4048b4:	d000      	beq.n	4048b8 <_lseek_r+0x1c>
  4048b6:	bd70      	pop	{r4, r5, r6, pc}
  4048b8:	6823      	ldr	r3, [r4, #0]
  4048ba:	2b00      	cmp	r3, #0
  4048bc:	d0fb      	beq.n	4048b6 <_lseek_r+0x1a>
  4048be:	6033      	str	r3, [r6, #0]
  4048c0:	bd70      	pop	{r4, r5, r6, pc}
  4048c2:	bf00      	nop
  4048c4:	20400b00 	.word	0x20400b00

004048c8 <_read_r>:
  4048c8:	b570      	push	{r4, r5, r6, lr}
  4048ca:	460d      	mov	r5, r1
  4048cc:	4c08      	ldr	r4, [pc, #32]	; (4048f0 <_read_r+0x28>)
  4048ce:	4611      	mov	r1, r2
  4048d0:	4606      	mov	r6, r0
  4048d2:	461a      	mov	r2, r3
  4048d4:	4628      	mov	r0, r5
  4048d6:	2300      	movs	r3, #0
  4048d8:	6023      	str	r3, [r4, #0]
  4048da:	f7fb fc7b 	bl	4001d4 <_read>
  4048de:	1c43      	adds	r3, r0, #1
  4048e0:	d000      	beq.n	4048e4 <_read_r+0x1c>
  4048e2:	bd70      	pop	{r4, r5, r6, pc}
  4048e4:	6823      	ldr	r3, [r4, #0]
  4048e6:	2b00      	cmp	r3, #0
  4048e8:	d0fb      	beq.n	4048e2 <_read_r+0x1a>
  4048ea:	6033      	str	r3, [r6, #0]
  4048ec:	bd70      	pop	{r4, r5, r6, pc}
  4048ee:	bf00      	nop
  4048f0:	20400b00 	.word	0x20400b00
  4048f4:	00007350 	.word	0x00007350
  4048f8:	70532d2d 	.word	0x70532d2d
  4048fc:	526e2069 	.word	0x526e2069
  404900:	4c343246 	.word	0x4c343246
  404904:	54203130 	.word	0x54203130
  404908:	20747365 	.word	0x20747365
  40490c:	0a0d2d2d 	.word	0x0a0d2d2d
  404910:	53202d2d 	.word	0x53202d2d
  404914:	37454d41 	.word	0x37454d41
  404918:	50582d30 	.word	0x50582d30
  40491c:	2d20444c 	.word	0x2d20444c
  404920:	2d0a0d2d 	.word	0x2d0a0d2d
  404924:	6f43202d 	.word	0x6f43202d
  404928:	6c69706d 	.word	0x6c69706d
  40492c:	203a6465 	.word	0x203a6465
  404930:	20677541 	.word	0x20677541
  404934:	32203831 	.word	0x32203831
  404938:	20303230 	.word	0x20303230
  40493c:	343a3032 	.word	0x343a3032
  404940:	38323a34 	.word	0x38323a34
  404944:	0d2d2d20 	.word	0x0d2d2d20
  404948:	00000000 	.word	0x00000000
  40494c:	74746553 	.word	0x74746553
  404950:	20676e69 	.word	0x20676e69
  404954:	20495053 	.word	0x20495053
  404958:	636f6c63 	.word	0x636f6c63
  40495c:	2523206b 	.word	0x2523206b
  404960:	2e20756c 	.word	0x2e20756c
  404964:	0a202e2e 	.word	0x0a202e2e
  404968:	0000000d 	.word	0x0000000d
  40496c:	202d492d 	.word	0x202d492d
  404970:	74696e49 	.word	0x74696e49
  404974:	696c6169 	.word	0x696c6169
  404978:	5320657a 	.word	0x5320657a
  40497c:	61204950 	.word	0x61204950
  404980:	616d2073 	.word	0x616d2073
  404984:	72657473 	.word	0x72657473
  404988:	0000000d 	.word	0x0000000d
  40498c:	6d6d6f63 	.word	0x6d6d6f63
  404990:	6f646e61 	.word	0x6f646e61
  404994:	20642520 	.word	0x20642520
  404998:	646e6573 	.word	0x646e6573
  40499c:	206f7420 	.word	0x206f7420
  4049a0:	646c6c25 	.word	0x646c6c25
  4049a4:	00000a0d 	.word	0x00000a0d
  4049a8:	6e617274 	.word	0x6e617274
  4049ac:	73696d73 	.word	0x73696d73
  4049b0:	6e6f6973 	.word	0x6e6f6973
  4049b4:	69616620 	.word	0x69616620
  4049b8:	2064656c 	.word	0x2064656c
  4049bc:	00000d0a 	.word	0x00000d0a
  4049c0:	6e617274 	.word	0x6e617274
  4049c4:	73696d73 	.word	0x73696d73
  4049c8:	6e6f6973 	.word	0x6e6f6973
  4049cc:	63757320 	.word	0x63757320
  4049d0:	00736563 	.word	0x00736563
  4049d4:	6972575b 	.word	0x6972575b
  4049d8:	676e6974 	.word	0x676e6974
  4049dc:	20752520 	.word	0x20752520
  4049e0:	65747962 	.word	0x65747962
  4049e4:	00000073 	.word	0x00000073

004049e8 <pipe_enable_s>:
  4049e8:	03020100 00000504                       ........

004049f0 <pipe_s>:
  4049f0:	0d0c0b0a 00000f0e                       ........

004049f8 <pipe_size_s>:
  4049f8:	14131211 00001615 20495053 65657053     ........SPI Spee
  404a08:	3d200964 646c2520 7a484d20 00000a0d     d. = %ld MHz....
  404a18:	415f5852 5f524444 312d3050 00000000     RX_ADDR_P0-1....
  404a28:	415f5852 5f524444 352d3250 00000000     RX_ADDR_P2-5....
  404a38:	415f5854 09524444 00000000 505f5852     TX_ADDR.....RX_P
  404a48:	30505f57 0000352d 55544553 57415f50     W_P0-5..SETUP_AW
  404a58:	00000000 415f4e45 00000941 525f4e45     ....EN_AA...EN_R
  404a68:	44444158 00000052 435f4652 00000948     XADDR...RF_CH...
  404a78:	535f4652 50555445 00000000 464e4f43     RF_SETUP....CONF
  404a88:	00094749 504e5944 45462f44 52555441     IG..DYNPD/FEATUR
  404a98:	00000045 61746144 74615220 3d200965     E...Data Rate. =
  404aa8:	0d732520 0000000a 65646f4d 2009096c      %s.....Model.. 
  404ab8:	7325203d 00000a0d 20435243 676e654c     = %s....CRC Leng
  404ac8:	20096874 7325203d 00000a0d 50204150     th. = %s....PA P
  404ad8:	7265776f 203d2009 0a0d7325 00000000     ower. = %s......
  404ae8:	00097325 00783020 78323025 00000000     %s.. 0x.%02x....
  404af8:	25783020 00783230 54415453 09095355      0x%02x.STATUS..
  404b08:	30203d20 32302578 58522078 3d52445f      = 0x%02x RX_DR=
  404b18:	54207825 53445f58 2078253d 5f58414d     %x TX_DS=%x MAX_
  404b28:	253d5452 58522078 4e5f505f 78253d4f     RT=%x RX_P_NO=%x
  404b38:	5f585420 4c4c5546 0d78253d 0000000a      TX_FULL=%x.....

00404b48 <rf24_crclength_e_str_0>:
  404b48:	61736944 64656c62 00000000              Disabled....

00404b54 <rf24_crclength_e_str_1>:
  404b54:	69622038 00007374                       8 bits..

00404b5c <rf24_crclength_e_str_2>:
  404b5c:	62203631 00737469                       16 bits.

00404b64 <rf24_crclength_e_str_P>:
  404b64:	00404b48 00404b54 00404b5c              HK@.TK@.\K@.

00404b70 <rf24_datarate_e_str_0>:
  404b70:	50424d31 00000053                       1MBPS...

00404b78 <rf24_datarate_e_str_1>:
  404b78:	50424d32 00000053                       2MBPS...

00404b80 <rf24_datarate_e_str_2>:
  404b80:	4b303532 00535042                       250KBPS.

00404b88 <rf24_datarate_e_str_P>:
  404b88:	00404b70 00404b78 00404b80              pK@.xK@..K@.

00404b94 <rf24_model_e_str_1>:
  404b94:	3246526e 31304c34 0000002b              nRF24L01+...

00404ba0 <rf24_pa_dbm_e_str_0>:
  404ba0:	4d5f4150 00004e49                       PA_MIN..

00404ba8 <rf24_pa_dbm_e_str_1>:
  404ba8:	4c5f4150 0000574f                       PA_LOW..

00404bb0 <rf24_pa_dbm_e_str_2>:
  404bb0:	485f4150 00484749                       PA_HIGH.

00404bb8 <rf24_pa_dbm_e_str_3>:
  404bb8:	4d5f4150 00005841                       PA_MAX..

00404bc0 <rf24_pa_dbm_e_str_P>:
  404bc0:	00404ba0 00404ba8 00404bb0 00404bb8     .K@..K@..K@..K@.

00404bd0 <_global_impure_ptr>:
  404bd0:	20400018 33323130 37363534 42413938     ..@ 0123456789AB
  404be0:	46454443 00000000 33323130 37363534     CDEF....01234567
  404bf0:	62613938 66656463 00000000 6c756e28     89abcdef....(nul
  404c00:	0000296c                                l)..

00404c04 <blanks.7217>:
  404c04:	20202020 20202020 20202020 20202020                     

00404c14 <zeroes.7218>:
  404c14:	30303030 30303030 30303030 30303030     0000000000000000
  404c24:	00000043 49534f50 00000058 0000002e     C...POSIX.......

00404c34 <_ctype_>:
  404c34:	20202000 20202020 28282020 20282828     .         ((((( 
  404c44:	20202020 20202020 20202020 20202020                     
  404c54:	10108820 10101010 10101010 10101010      ...............
  404c64:	04040410 04040404 10040404 10101010     ................
  404c74:	41411010 41414141 01010101 01010101     ..AAAAAA........
  404c84:	01010101 01010101 01010101 10101010     ................
  404c94:	42421010 42424242 02020202 02020202     ..BBBBBB........
  404ca4:	02020202 02020202 02020202 10101010     ................
  404cb4:	00000020 00000000 00000000 00000000      ...............
	...

00404d38 <_init>:
  404d38:	b5f8      	push	{r3, r4, r5, r6, r7, lr}
  404d3a:	bf00      	nop
  404d3c:	bcf8      	pop	{r3, r4, r5, r6, r7}
  404d3e:	bc08      	pop	{r3}
  404d40:	469e      	mov	lr, r3
  404d42:	4770      	bx	lr

00404d44 <__init_array_start>:
  404d44:	00402fb9 	.word	0x00402fb9

00404d48 <__frame_dummy_init_array_entry>:
  404d48:	0040018d                                ..@.

00404d4c <_fini>:
  404d4c:	b5f8      	push	{r3, r4, r5, r6, r7, lr}
  404d4e:	bf00      	nop
  404d50:	bcf8      	pop	{r3, r4, r5, r6, r7}
  404d52:	bc08      	pop	{r3}
  404d54:	469e      	mov	lr, r3
  404d56:	4770      	bx	lr

00404d58 <__fini_array_start>:
  404d58:	00400169 	.word	0x00400169

Disassembly of section .relocate:

20400000 <portable_delay_cycles>:
RAMFUNC
void portable_delay_cycles(unsigned long n)
{
	UNUSED(n);

	__asm (
20400000:	f3bf 8f5f 	dmb	sy
20400004:	3801      	subs	r0, #1
20400006:	d1fb      	bne.n	20400000 <portable_delay_cycles>
20400008:	4770      	bx	lr

2040000a <g_interrupt_enabled>:
2040000a:	0001                                        ..

2040000c <SystemCoreClock>:
2040000c:	0900 003d                                   ..=.

20400010 <payload_size>:
20400010:	0020 0000                                    ...

20400014 <_impure_ptr>:
20400014:	0018 2040                                   ..@ 

20400018 <impure_data>:
20400018:	0000 0000 0304 2040 036c 2040 03d4 2040     ......@ l.@ ..@ 
	...
204000c0:	0001 0000 0000 0000 330e abcd 1234 e66d     .........3..4.m.
204000d0:	deec 0005 000b 0000 0000 0000 0000 0000     ................
	...

20400440 <__atexit_recursive_mutex>:
20400440:	0adc 2040                                   ..@ 

20400444 <__global_locale>:
20400444:	0043 0000 0000 0000 0000 0000 0000 0000     C...............
	...
20400464:	0043 0000 0000 0000 0000 0000 0000 0000     C...............
	...
20400484:	0043 0000 0000 0000 0000 0000 0000 0000     C...............
	...
204004a4:	0043 0000 0000 0000 0000 0000 0000 0000     C...............
	...
204004c4:	0043 0000 0000 0000 0000 0000 0000 0000     C...............
	...
204004e4:	0043 0000 0000 0000 0000 0000 0000 0000     C...............
	...
20400504:	0043 0000 0000 0000 0000 0000 0000 0000     C...............
	...
20400524:	465d 0040 3fb1 0040 0000 0000 4c34 0040     ]F@..?@.....4L@.
20400534:	4c30 0040 4a40 0040 4a40 0040 4a40 0040     0L@.@J@.@J@.@J@.
20400544:	4a40 0040 4a40 0040 4a40 0040 4a40 0040     @J@.@J@.@J@.@J@.
20400554:	4a40 0040 4a40 0040 ffff ffff ffff ffff     @J@.@J@.........
20400564:	ffff ffff ffff 0000 0001 5341 4943 0049     ..........ASCII.
	...
2040058c:	0000 5341 4943 0049 0000 0000 0000 0000     ..ASCII.........
	...

204005b0 <__malloc_av_>:
	...
204005b8:	05b0 2040 05b0 2040 05b8 2040 05b8 2040     ..@ ..@ ..@ ..@ 
204005c8:	05c0 2040 05c0 2040 05c8 2040 05c8 2040     ..@ ..@ ..@ ..@ 
204005d8:	05d0 2040 05d0 2040 05d8 2040 05d8 2040     ..@ ..@ ..@ ..@ 
204005e8:	05e0 2040 05e0 2040 05e8 2040 05e8 2040     ..@ ..@ ..@ ..@ 
204005f8:	05f0 2040 05f0 2040 05f8 2040 05f8 2040     ..@ ..@ ..@ ..@ 
20400608:	0600 2040 0600 2040 0608 2040 0608 2040     ..@ ..@ ..@ ..@ 
20400618:	0610 2040 0610 2040 0618 2040 0618 2040     ..@ ..@ ..@ ..@ 
20400628:	0620 2040 0620 2040 0628 2040 0628 2040      .@  .@ (.@ (.@ 
20400638:	0630 2040 0630 2040 0638 2040 0638 2040     0.@ 0.@ 8.@ 8.@ 
20400648:	0640 2040 0640 2040 0648 2040 0648 2040     @.@ @.@ H.@ H.@ 
20400658:	0650 2040 0650 2040 0658 2040 0658 2040     P.@ P.@ X.@ X.@ 
20400668:	0660 2040 0660 2040 0668 2040 0668 2040     `.@ `.@ h.@ h.@ 
20400678:	0670 2040 0670 2040 0678 2040 0678 2040     p.@ p.@ x.@ x.@ 
20400688:	0680 2040 0680 2040 0688 2040 0688 2040     ..@ ..@ ..@ ..@ 
20400698:	0690 2040 0690 2040 0698 2040 0698 2040     ..@ ..@ ..@ ..@ 
204006a8:	06a0 2040 06a0 2040 06a8 2040 06a8 2040     ..@ ..@ ..@ ..@ 
204006b8:	06b0 2040 06b0 2040 06b8 2040 06b8 2040     ..@ ..@ ..@ ..@ 
204006c8:	06c0 2040 06c0 2040 06c8 2040 06c8 2040     ..@ ..@ ..@ ..@ 
204006d8:	06d0 2040 06d0 2040 06d8 2040 06d8 2040     ..@ ..@ ..@ ..@ 
204006e8:	06e0 2040 06e0 2040 06e8 2040 06e8 2040     ..@ ..@ ..@ ..@ 
204006f8:	06f0 2040 06f0 2040 06f8 2040 06f8 2040     ..@ ..@ ..@ ..@ 
20400708:	0700 2040 0700 2040 0708 2040 0708 2040     ..@ ..@ ..@ ..@ 
20400718:	0710 2040 0710 2040 0718 2040 0718 2040     ..@ ..@ ..@ ..@ 
20400728:	0720 2040 0720 2040 0728 2040 0728 2040      .@  .@ (.@ (.@ 
20400738:	0730 2040 0730 2040 0738 2040 0738 2040     0.@ 0.@ 8.@ 8.@ 
20400748:	0740 2040 0740 2040 0748 2040 0748 2040     @.@ @.@ H.@ H.@ 
20400758:	0750 2040 0750 2040 0758 2040 0758 2040     P.@ P.@ X.@ X.@ 
20400768:	0760 2040 0760 2040 0768 2040 0768 2040     `.@ `.@ h.@ h.@ 
20400778:	0770 2040 0770 2040 0778 2040 0778 2040     p.@ p.@ x.@ x.@ 
20400788:	0780 2040 0780 2040 0788 2040 0788 2040     ..@ ..@ ..@ ..@ 
20400798:	0790 2040 0790 2040 0798 2040 0798 2040     ..@ ..@ ..@ ..@ 
204007a8:	07a0 2040 07a0 2040 07a8 2040 07a8 2040     ..@ ..@ ..@ ..@ 
204007b8:	07b0 2040 07b0 2040 07b8 2040 07b8 2040     ..@ ..@ ..@ ..@ 
204007c8:	07c0 2040 07c0 2040 07c8 2040 07c8 2040     ..@ ..@ ..@ ..@ 
204007d8:	07d0 2040 07d0 2040 07d8 2040 07d8 2040     ..@ ..@ ..@ ..@ 
204007e8:	07e0 2040 07e0 2040 07e8 2040 07e8 2040     ..@ ..@ ..@ ..@ 
204007f8:	07f0 2040 07f0 2040 07f8 2040 07f8 2040     ..@ ..@ ..@ ..@ 
20400808:	0800 2040 0800 2040 0808 2040 0808 2040     ..@ ..@ ..@ ..@ 
20400818:	0810 2040 0810 2040 0818 2040 0818 2040     ..@ ..@ ..@ ..@ 
20400828:	0820 2040 0820 2040 0828 2040 0828 2040      .@  .@ (.@ (.@ 
20400838:	0830 2040 0830 2040 0838 2040 0838 2040     0.@ 0.@ 8.@ 8.@ 
20400848:	0840 2040 0840 2040 0848 2040 0848 2040     @.@ @.@ H.@ H.@ 
20400858:	0850 2040 0850 2040 0858 2040 0858 2040     P.@ P.@ X.@ X.@ 
20400868:	0860 2040 0860 2040 0868 2040 0868 2040     `.@ `.@ h.@ h.@ 
20400878:	0870 2040 0870 2040 0878 2040 0878 2040     p.@ p.@ x.@ x.@ 
20400888:	0880 2040 0880 2040 0888 2040 0888 2040     ..@ ..@ ..@ ..@ 
20400898:	0890 2040 0890 2040 0898 2040 0898 2040     ..@ ..@ ..@ ..@ 
204008a8:	08a0 2040 08a0 2040 08a8 2040 08a8 2040     ..@ ..@ ..@ ..@ 
204008b8:	08b0 2040 08b0 2040 08b8 2040 08b8 2040     ..@ ..@ ..@ ..@ 
204008c8:	08c0 2040 08c0 2040 08c8 2040 08c8 2040     ..@ ..@ ..@ ..@ 
204008d8:	08d0 2040 08d0 2040 08d8 2040 08d8 2040     ..@ ..@ ..@ ..@ 
204008e8:	08e0 2040 08e0 2040 08e8 2040 08e8 2040     ..@ ..@ ..@ ..@ 
204008f8:	08f0 2040 08f0 2040 08f8 2040 08f8 2040     ..@ ..@ ..@ ..@ 
20400908:	0900 2040 0900 2040 0908 2040 0908 2040     ..@ ..@ ..@ ..@ 
20400918:	0910 2040 0910 2040 0918 2040 0918 2040     ..@ ..@ ..@ ..@ 
20400928:	0920 2040 0920 2040 0928 2040 0928 2040      .@  .@ (.@ (.@ 
20400938:	0930 2040 0930 2040 0938 2040 0938 2040     0.@ 0.@ 8.@ 8.@ 
20400948:	0940 2040 0940 2040 0948 2040 0948 2040     @.@ @.@ H.@ H.@ 
20400958:	0950 2040 0950 2040 0958 2040 0958 2040     P.@ P.@ X.@ X.@ 
20400968:	0960 2040 0960 2040 0968 2040 0968 2040     `.@ `.@ h.@ h.@ 
20400978:	0970 2040 0970 2040 0978 2040 0978 2040     p.@ p.@ x.@ x.@ 
20400988:	0980 2040 0980 2040 0988 2040 0988 2040     ..@ ..@ ..@ ..@ 
20400998:	0990 2040 0990 2040 0998 2040 0998 2040     ..@ ..@ ..@ ..@ 
204009a8:	09a0 2040 09a0 2040 09a8 2040 09a8 2040     ..@ ..@ ..@ ..@ 

204009b8 <__malloc_sbrk_base>:
204009b8:	ffff ffff                                   ....

204009bc <__malloc_trim_threshold>:
204009bc:	0000 0002                                   ....
